L251 LINKER/LOCATER V4.66.93.0                                                          04/27/2023  18:30:04  PAGE 1


L251 LINKER/LOCATER V4.66.93.0, INVOKED BY:
D:\KEIL_V5\C251\BIN\L251.EXE .\Out_File\board.obj, .\Out_File\common.obj, .\Out_File\zf_adc.obj, .\Out_File\zf_delay.obj
>> , .\Out_File\zf_eeprom.obj, .\Out_File\zf_exti.obj, .\Out_File\zf_gpio.obj, .\Out_File\zf_iic.obj, .\Out_File\zf_nvic
>> .obj, .\Out_File\zf_pwm.obj, .\Out_File\zf_spi.obj, .\Out_File\zf_tim.obj, .\Out_File\zf_uart.obj, .\Out_File\zf_fifo
>> .obj, .\Out_File\SEEKFREE_ABSOLUTE_ENCODER.obj, .\Out_File\SEEKFREE_AT24C02.obj, .\Out_File\SEEKFREE_BLUETOOTH_CH9141
>> .obj, ..\..\Libraries\seekfree_peripheral\SEEKFREE_CONFIG.LIB, .\Out_File\SEEKFREE_DL1A.obj, .\Out_File\SEEKFREE_FONT
>> .obj, .\Out_File\SEEKFREE_ICM20602.obj, .\Out_File\SEEKFREE_IMU660RA.obj, .\Out_File\SEEKFREE_IMU963RA.obj, .\Out_Fil
>> e\SEEKFREE_IPS114_SPI.obj, .\Out_File\SEEKFREE_MPU6050.obj, .\Out_File\SEEKFREE_PRINTF.obj, .\Out_File\SEEKFREE_TSL14
>> 01.obj, .\Out_File\SEEKFREE_VIRSCO.obj, .\Out_File\SEEKFREE_WIRELESS.obj, .\Out_File\SEEKFREE_WIRELESS_CH573.obj, .\O
>> ut_File\isr.obj, .\Out_File\main.obj, .\Out_File\adc.obj, .\Out_File\control.obj, .\Out_File\key.obj, .\Out_File\moto
>> r.obj, .\Out_File\steer.obj, .\Out_File\timer.obj, .\Out_File\oled.obj, .\Out_File\brushless.obj, .\Out_File\pid.obj,
>>  .\Out_File\host.obj TO .\Out_File\SEEKFREE PRINT (.\Out_File\SEEKFREE.map) CASE DISABLEWARNING (16, 57) REMOVEUNUSED
>>  CLASSES (EDATA (0X0-0XFFF), HDATA (0X0-0XFFF))


CPU MODE:     251 SOURCE MODE
INTR FRAME:   2 BYTES SAVED ON INTERRUPT
MEMORY MODEL: XSMALL WITH FLOATING POINT ARITHMETIC


INPUT MODULES INCLUDED:
  .\Out_File\board.obj (board)
         COMMENT TYPE 0: C251 V5.60.0
  .\Out_File\common.obj (common)
         COMMENT TYPE 0: C251 V5.60.0
  .\Out_File\zf_adc.obj (zf_adc)
         COMMENT TYPE 0: C251 V5.60.0
  .\Out_File\zf_delay.obj (zf_delay)
         COMMENT TYPE 0: C251 V5.60.0
  .\Out_File\zf_eeprom.obj (zf_eeprom)
         COMMENT TYPE 0: C251 V5.60.0
  .\Out_File\zf_exti.obj (zf_exti)
         COMMENT TYPE 0: C251 V5.60.0
  .\Out_File\zf_gpio.obj (zf_gpio)
         COMMENT TYPE 0: C251 V5.60.0
  .\Out_File\zf_iic.obj (zf_iic)
         COMMENT TYPE 0: C251 V5.60.0
  .\Out_File\zf_nvic.obj (zf_nvic)
         COMMENT TYPE 0: C251 V5.60.0
  .\Out_File\zf_pwm.obj (zf_pwm)
         COMMENT TYPE 0: C251 V5.60.0
  .\Out_File\zf_spi.obj (zf_spi)
         COMMENT TYPE 0: C251 V5.60.0
  .\Out_File\zf_tim.obj (zf_tim)
         COMMENT TYPE 0: C251 V5.60.0
  .\Out_File\zf_uart.obj (zf_uart)
         COMMENT TYPE 0: C251 V5.60.0
  .\Out_File\zf_fifo.obj (zf_fifo)
         COMMENT TYPE 0: C251 V5.60.0
  .\Out_File\SEEKFREE_ABSOLUTE_ENCODER.obj (SEEKFREE_ABSOLUTE_ENCODER)
         COMMENT TYPE 0: C251 V5.60.0
  .\Out_File\SEEKFREE_AT24C02.obj (SEEKFREE_AT24C02)
         COMMENT TYPE 0: C251 V5.60.0
  .\Out_File\SEEKFREE_BLUETOOTH_CH9141.obj (SEEKFREE_BLUETOOTH_CH9141)
         COMMENT TYPE 0: C251 V5.60.0
  .\Out_File\SEEKFREE_DL1A.obj (SEEKFREE_DL1A)
         COMMENT TYPE 0: C251 V5.60.0
  .\Out_File\SEEKFREE_FONT.obj (SEEKFREE_FONT)
         COMMENT TYPE 0: C251 V5.60.0
  .\Out_File\SEEKFREE_ICM20602.obj (SEEKFREE_ICM20602)
         COMMENT TYPE 0: C251 V5.60.0
  .\Out_File\SEEKFREE_IMU660RA.obj (SEEKFREE_IMU660RA)
         COMMENT TYPE 0: C251 V5.60.0
  .\Out_File\SEEKFREE_IMU963RA.obj (SEEKFREE_IMU963RA)
         COMMENT TYPE 0: C251 V5.60.0
  .\Out_File\SEEKFREE_IPS114_SPI.obj (SEEKFREE_IPS114_SPI)
L251 LINKER/LOCATER V4.66.93.0                                                        04/27/2023  18:30:04  PAGE 2


         COMMENT TYPE 0: C251 V5.60.0
  .\Out_File\SEEKFREE_MPU6050.obj (SEEKFREE_MPU6050)
         COMMENT TYPE 0: C251 V5.60.0
  .\Out_File\SEEKFREE_PRINTF.obj (SEEKFREE_PRINTF)
         COMMENT TYPE 0: C251 V5.60.0
  .\Out_File\SEEKFREE_TSL1401.obj (SEEKFREE_TSL1401)
         COMMENT TYPE 0: C251 V5.60.0
  .\Out_File\SEEKFREE_VIRSCO.obj (SEEKFREE_VIRSCO)
         COMMENT TYPE 0: C251 V5.60.0
  .\Out_File\SEEKFREE_WIRELESS.obj (SEEKFREE_WIRELESS)
         COMMENT TYPE 0: C251 V5.60.0
  .\Out_File\SEEKFREE_WIRELESS_CH573.obj (SEEKFREE_WIRELESS_CH573)
         COMMENT TYPE 0: C251 V5.60.0
  .\Out_File\isr.obj (isr)
         COMMENT TYPE 0: C251 V5.60.0
  .\Out_File\main.obj (main)
         COMMENT TYPE 0: C251 V5.60.0
  .\Out_File\adc.obj (adc)
         COMMENT TYPE 0: C251 V5.60.0
  .\Out_File\control.obj (control)
         COMMENT TYPE 0: C251 V5.60.0
  .\Out_File\key.obj (key)
         COMMENT TYPE 0: C251 V5.60.0
  .\Out_File\motor.obj (motor)
         COMMENT TYPE 0: C251 V5.60.0
  .\Out_File\steer.obj (steer)
         COMMENT TYPE 0: C251 V5.60.0
  .\Out_File\timer.obj (timer)
         COMMENT TYPE 0: C251 V5.60.0
  .\Out_File\oled.obj (oled)
         COMMENT TYPE 0: C251 V5.60.0
  .\Out_File\brushless.obj (brushless)
         COMMENT TYPE 0: C251 V5.60.0
  .\Out_File\pid.obj (pid)
         COMMENT TYPE 0: C251 V5.60.0
  .\Out_File\host.obj (host)
         COMMENT TYPE 0: C251 V5.60.0
  ..\..\Libraries\seekfree_peripheral\SEEKFREE_CONFIG.LIB (SEEKFREE_CONFIG)
         COMMENT TYPE 0: C251 V5.60.0
  D:\KEIL_V5\C251\LIB\C2SFPXS.LIB (?C?FPADD)
         COMMENT TYPE 0: A251 V4.69.6.0
  D:\KEIL_V5\C251\LIB\C2SFPXS.LIB (?C?FPMUL)
         COMMENT TYPE 0: A251 V4.69.6.0
  D:\KEIL_V5\C251\LIB\C2SFPXS.LIB (?C?FPDIV)
         COMMENT TYPE 0: A251 V4.69.6.0
  D:\KEIL_V5\C251\LIB\C2SFPXS.LIB (?C?FPCMP)
         COMMENT TYPE 0: A251 V4.69.6.0
  D:\KEIL_V5\C251\LIB\C2SFPXS.LIB (?C?FPNEG)
         COMMENT TYPE 0: A251 V4.69.6.0
  D:\KEIL_V5\C251\LIB\C2SFPXS.LIB (?C?FCAST)
         COMMENT TYPE 0: A251 V4.69.6.0
  D:\KEIL_V5\C251\LIB\C2SFPXS.LIB (?C?CASTF)
         COMMENT TYPE 0: A251 V4.69.6.0
  D:\KEIL_V5\C251\LIB\C2SFPXS.LIB (PRINTF)
         COMMENT TYPE 0: A251 V4.69.6.0
  D:\KEIL_V5\C251\LIB\C2SFPXS.LIB (FABS)
         COMMENT TYPE 0: A251 V4.69.6.0
  D:\KEIL_V5\C251\LIB\C2SFPXS.LIB (SIN?_)
         COMMENT TYPE 0: A251 V4.69.6.0
  D:\KEIL_V5\C251\LIB\C2SFPXS.LIB (?C?FPGETOPN)
         COMMENT TYPE 0: A251 V4.69.6.0
  D:\KEIL_V5\C251\LIB\C2SFPXS.LIB (?C?PRNFMT)
         COMMENT TYPE 0: A251 V4.69.6.0
  D:\KEIL_V5\C251\LIB\C2SFPXS.LIB (?C?FPSERIES)
         COMMENT TYPE 0: A251 V4.69.6.0
L251 LINKER/LOCATER V4.66.93.0                                                        04/27/2023  18:30:04  PAGE 3


  D:\KEIL_V5\C251\LIB\C2SFPXS.LIB (?C?FPCONVERT)
         COMMENT TYPE 0: A251 V4.69.6.0
  D:\KEIL_V5\C251\LIB\C2SFPXS.LIB (?C?FTNPWR)
         COMMENT TYPE 0: A251 V4.69.6.0
  D:\KEIL_V5\C251\LIB\C2SXS.LIB (?C_START)
         COMMENT TYPE 0: A251 V4.69.6.0
  D:\KEIL_V5\C251\LIB\C2SXS.LIB (?C?INITEDATA)
         COMMENT TYPE 0: A251 V4.69.6.0
  D:\KEIL_V5\C251\LIB\C2SXS.LIB (?C?SIDIV)
         COMMENT TYPE 0: A251 V4.69.6.0
  D:\KEIL_V5\C251\LIB\C2SXS.LIB (?C?LMUL)
         COMMENT TYPE 0: A251 V4.69.6.0
  D:\KEIL_V5\C251\LIB\C2SXS.LIB (?C?LIMUL)
         COMMENT TYPE 0: A251 V4.69.6.0
  D:\KEIL_V5\C251\LIB\C2SXS.LIB (?C?ULDIV)
         COMMENT TYPE 0: A251 V4.69.6.0
  D:\KEIL_V5\C251\LIB\C2SXS.LIB (?C?SLDIV)
         COMMENT TYPE 0: A251 V4.69.6.0
  D:\KEIL_V5\C251\LIB\C2SXS.LIB (memcpy)
         COMMENT TYPE 0: C251 V5.58.7
  D:\KEIL_V5\C251\LIB\C2SXS.LIB (memset)
         COMMENT TYPE 0: C251 V5.58.7
  D:\KEIL_V5\C251\LIB\C2SXS.LIB (?C?INITEDATA_END)
         COMMENT TYPE 0: A251 V4.69.6.0


ACTIVE MEMORY CLASSES OF MODULE:  .\Out_File\SEEKFREE (board)

BASE        START       END         USED      MEMORY CLASS
==========================================================
000000H     000000H     000FFFH     00094BH   EDATA
000000H     000000H     000FFFH               HDATA
FF0000H     FF0000H     FFFFFFH     005ABFH   CODE
000000H     FF0000H     FFFFFFH     000E71H   HCONST
FF0000H     FF0000H     FFFFFFH     000004H   CONST
000000H     000000H     00007FH     000008H   DATA


MEMORY MAP OF MODULE:  .\Out_File\SEEKFREE (board)


START     STOP      LENGTH    ALIGN  RELOC    MEMORY CLASS   SEGMENT NAME
=========================================================================
000000H   000007H   000008H   ---    AT..     DATA           "REG BANK 0"
000008H   0003C8H   0003C1H   BYTE   UNIT     EDATA          ?ED?OLED
0003C9H   0004C9H   000101H   BYTE   UNIT     EDATA          ?ED?SEEKFREE_TSL1401
0004CAH   000596H   0000CDH   BYTE   UNIT     EDATA          ?ED?ZF_UART
000597H   000626H   000090H   BYTE   UNIT     EDATA          ?ED?PID
000627H   000687H   000061H   BYTE   UNIT     EDATA          ?ED?CONTROL
000688H   0006DCH   000055H   BYTE   UNIT     EDATA          ?ED?SEEKFREE_BLUETOOTH_CH9141
0006DDH   000731H   000055H   BYTE   UNIT     EDATA          ?ED?SEEKFREE_WIRELESS
000732H   000786H   000055H   BYTE   UNIT     EDATA          ?ED?SEEKFREE_WIRELESS_CH573
000787H   0007BAH   000034H   BYTE   UNIT     EDATA          _EDATA_GROUP_
0007BBH   0007CEH   000014H   BYTE   UNIT     EDATA          ?ED?HOST
0007CFH   0007E0H   000012H   BYTE   UNIT     EDATA          ?ED?SEEKFREE_IMU963RA
0007E1H   0007F0H   000010H   BYTE   UNIT     EDATA          ?ED?ADC
0007F1H   0007FCH   00000CH   BYTE   UNIT     EDATA          ?ED?SEEKFREE_ICM20602
0007FDH   000808H   00000CH   BYTE   UNIT     EDATA          ?ED?SEEKFREE_IMU660RA
000809H   000814H   00000CH   BYTE   UNIT     EDATA          ?ED?SEEKFREE_MPU6050
000815H   00081EH   00000AH   BYTE   UNIT     EDATA          ?ED?SEEKFREE_VIRSCO
00081FH   000824H   000006H   BYTE   UNIT     EDATA          ?ED?DL1A_SIMIIC_READ_REGS?SEEKFREE_DL1A
000825H   00082AH   000006H   BYTE   UNIT     EDATA          ?ED?DL1A_GET_SEQUENCE_STEP_TIMEOUTS?SEEKFREE_DL1A
00082BH   00082FH   000005H   BYTE   UNIT     EDATA          ?ED?DL1A_SIMIIC_WRITE_DATS?SEEKFREE_DL1A
000830H   000833H   000004H   BYTE   UNIT     EDATA          ?ED?BOARD
000834H   000837H   000004H   BYTE   UNIT     EDATA          ?ED?ZF_DELAY
L251 LINKER/LOCATER V4.66.93.0                                                        04/27/2023  18:30:04  PAGE 4


000838H   00083BH   000004H   BYTE   UNIT     EDATA          ?ED?ICM20602_SIMSPI_R_REG_BYTES?SEEKFREE_ICM20602
00083CH   00083FH   000004H   BYTE   UNIT     EDATA          ?ED?IMU660RA_SIMSPI_R_REG_BYTES?SEEKFREE_IMU660RA
000840H   000843H   000004H   BYTE   UNIT     EDATA          ?ED?MOTOR
000844H   000846H   000003H   BYTE   UNIT     EDATA          ?ED?SEEKFREE_DL1A
000847H   000848H   000002H   BYTE   UNIT     EDATA          ?ED?COMMON
000849H   00084AH   000002H   BYTE   UNIT     EDATA          ?ED?IMU660RA_READ_REGISTER?SEEKFREE_IMU660RA
00084BH   00084CH   000002H   BYTE   UNIT     EDATA          ?ED?IPS114_WRITEDATA_16BIT?SEEKFREE_IPS114_SPI
00084DH   00084DH   000001H   BYTE   UNIT     EDATA          ?ED?DL1A_GET_SEQUENCE_STEP_ENABLES?SEEKFREE_DL1A
00084EH   00084EH   000001H   BYTE   UNIT     EDATA          ?ED?DL1A_GET_VCSEL_PULSE_PERIOD?SEEKFREE_DL1A
00084FH   00084FH   000001H   BYTE   UNIT     EDATA          ?ED?ICM20602_READ_REGISTER?SEEKFREE_ICM20602
000850H   000850H   000001H   BYTE   UNIT     EDATA          ?ED?IMU963RA_READ_ACC_GYRO_REGISTER?SEEKFREE_IMU963RA
000851H   000851H   000001H   BYTE   UNIT     EDATA          ?ED?ISR
000852H   000852H   000001H   BYTE   UNIT     EDATA          ?ED?KEY
000853H   000952H   000100H   BYTE   UNIT     EDATA          ?STACK
000953H   FEFFFFH   FEF6ADH   ---    ---      **GAP**
FF0000H   FF0002H   000003H   ---    OFFS..   CODE           ?CO?start251?4
FF0003H   FF0005H   000003H   ---    OFFS..   CODE           ?PR?IV?0
FF0006H   FF000AH   000005H   BYTE   INSEG    CODE           ?PR?ENCODER_DELAY_US?SEEKFREE_ABSOLUTE_ENCODER
FF000BH   FF000DH   000003H   ---    OFFS..   CODE           ?PR?IV?1
FF000EH   FF0010H   000003H   BYTE   INSEG    CODE           ?PR?ENABLEGLOBALIRQ?BOARD
FF0011H   FF0011H   000001H   BYTE   INSEG    CODE           ?PR?INT1_ISR?ISR
FF0012H   FF0012H   000001H   BYTE   INSEG    CODE           ?PR?TM0_ISR?ISR
FF0013H   FF0015H   000003H   ---    OFFS..   CODE           ?PR?IV?2
FF0016H   FF0016H   000001H   BYTE   INSEG    CODE           ?PR?TM1_ISR?ISR
FF0017H   FF001AH   000004H   BYTE   UNIT     CONST          ?CO?PRINTF
FF001BH   FF001DH   000003H   ---    OFFS..   CODE           ?PR?IV?3
FF001EH   FF0022H   000005H   ---    ---      **GAP**
FF0023H   FF0025H   000003H   ---    OFFS..   CODE           ?PR?IV?4
FF0026H   FF0041H   00001CH   BYTE   INSEG    CODE           ?PR?DL1A_SCCB_WAITACK?SEEKFREE_DL1A
FF0042H   FF0042H   000001H   ---    ---      **GAP**
FF0043H   FF0045H   000003H   ---    OFFS..   CODE           ?PR?IV?8
FF0046H   FF0052H   00000DH   BYTE   INSEG    CODE           ?PR?AT24C02_SIMIIC_DELAY?SEEKFREE_AT24C02
FF0053H   FF0055H   000003H   ---    OFFS..   CODE           ?PR?IV?10
FF0056H   FF005AH   000005H   ---    ---      **GAP**
FF005BH   FF005DH   000003H   ---    OFFS..   CODE           ?PR?IV?11
FF005EH   FF0062H   000005H   ---    ---      **GAP**
FF0063H   FF0065H   000003H   ---    OFFS..   CODE           ?PR?IV?12
FF0066H   FF0081H   00001CH   BYTE   INSEG    CODE           ?PR?IMU963RA_SIMSPI_R_REG_BYTE?SEEKFREE_IMU963RA
FF0082H   FF0082H   000001H   ---    ---      **GAP**
FF0083H   FF0085H   000003H   ---    OFFS..   CODE           ?PR?IV?16
FF0086H   FF008AH   000005H   ---    ---      **GAP**
FF008BH   FF008DH   000003H   ---    OFFS..   CODE           ?PR?IV?17
FF008EH   FF0092H   000005H   ---    ---      **GAP**
FF0093H   FF0095H   000003H   ---    OFFS..   CODE           ?PR?IV?18
FF0096H   FF009AH   000005H   ---    ---      **GAP**
FF009BH   FF009DH   000003H   ---    OFFS..   CODE           ?PR?IV?19
FF009EH   FF00A2H   000005H   ---    ---      **GAP**
FF00A3H   FF00A5H   000003H   ---    OFFS..   CODE           ?PR?IV?20
FF00A6H   FF20A5H   002000H   BYTE   UNIT     CODE           ?CO?SEEKFREE_CONFIG
FF20A6H   FF2EADH   000E08H   BYTE   UNIT     CODE           ?CO?SEEKFREE_FONT
FF2EAEH   FF39CAH   000B1DH   BYTE   UNIT     CODE           ?C?LIB_CODE
FF39CBH   FF3DC1H   0003F7H   BYTE   INSEG    CODE           ?PR?GPIO_MODE?ZF_GPIO
FF3DC2H   FF40BDH   0002FCH   BYTE   INSEG    CODE           ?PR?PWM_INIT?ZF_PWM
FF40BEH   FF435EH   0002A1H   BYTE   INSEG    CODE           ?PR?PWM_SET_GPIO?ZF_PWM
FF435FH   FF451DH   0001BFH   BYTE   INSEG    CODE           ?PR?UART_INIT?ZF_UART
FF451EH   FF463FH   000122H   BYTE   INSEG    CODE           ?PR?SET_CLK?BOARD
FF4640H   FF4757H   000118H   BYTE   INSEG    CODE           ?PR?MAIN?MAIN
FF4758H   FF4837H   0000E0H   BYTE   INSEG    CODE           ?PR?FIFO_WRITE_BUFFER?ZF_FIFO
FF4838H   FF4912H   0000DBH   BYTE   INSEG    CODE           ?PR?DL1A_GET_SEQUENCE_STEP_TIMEOUTS?SEEKFREE_DL1A
FF4913H   FF49DAH   0000C8H   BYTE   INSEG    CODE           ?PR?PWM_DUTY?ZF_PWM
FF49DBH   FF4A88H   0000AEH   BYTE   INSEG    CODE           ?PR?OLED_INIT?OLED
FF4A89H   FF4B2DH   0000A5H   BYTE   INSEG    CODE           ?PR?MOTOR_CONTROL?MOTOR
FF4B2EH   FF4BC7H   00009AH   BYTE   INSEG    CODE           ?PR?STEER_SPIN?STEER
FF4BC8H   FF4C5BH   000094H   BYTE   INSEG    CODE           ?PR?BOARD_INIT?BOARD
FF4C5CH   FF4CEFH   000094H   BYTE   INSEG    CODE           ?PR?PIT_TIMER_MS?ZF_TIM
L251 LINKER/LOCATER V4.66.93.0                                                        04/27/2023  18:30:04  PAGE 5


FF4CF0H   FF4D68H   000079H   BYTE   INSEG    CODE           ?PR?READ_ADC_VALUE?ADC
FF4D69H   FF4DD8H   000070H   BYTE   INSEG    CODE           ?PR?ADC_ERROR_PROCESSING?CONTROL
FF4DD9H   FF4E41H   000069H   BYTE   INSEG    CODE           ?PR?UART4_ISR?ISR
FF4E42H   FF4EA8H   000067H   BYTE   INSEG    CODE           ?PR?CORRECT_ANGLE?CONTROL
FF4EA9H   FF4F07H   00005FH   BYTE   INSEG    CODE           ?PR?PID_STRUCT_INIT?PID
FF4F08H   FF4F65H   00005EH   BYTE   INSEG    CODE           ?PR?ADC_INIT?ZF_ADC
FF4F66H   FF4FC0H   00005BH   BYTE   INSEG    CODE           ?PR?ADC_ERROR_WINDOW_FILTERING?CONTROL
FF4FC1H   FF501AH   00005AH   BYTE   INSEG    CODE           ?PR?OLED_WR_BYTE?OLED
FF501BH   FF5072H   000058H   BYTE   INSEG    CODE           ?PR?DL1A_GET_SEQUENCE_STEP_ENABLES?SEEKFREE_DL1A
FF5073H   FF50C6H   000054H   BYTE   INSEG    CODE           ?PR?UART_PUTCHAR?ZF_UART
FF50C7H   FF511AH   000054H   BYTE   INSEG    CODE           ?PR?DL1A_SIMIIC_READ_REGS?SEEKFREE_DL1A
FF511BH   FF516CH   000052H   BYTE   INSEG    CODE           ?PR?IMU963RA_READ_MAG_REGISTER?SEEKFREE_IMU963RA
FF516DH   FF51BCH   000050H   BYTE   INSEG    CODE           ?PR?MOTOR_INIT?MOTOR
FF51BDH   FF5209H   00004DH   BYTE   INSEG    CODE           ?PR?DL1A_GET_VCSEL_PULSE_PERIOD?SEEKFREE_DL1A
FF520AH   FF5256H   00004DH   BYTE   INSEG    CODE           ?PR?ADC_MEAN_FILTER?ADC
FF5257H   FF52A0H   00004AH   BYTE   INSEG    CODE           ?PR?CTIMER_COUNT_INIT?ZF_TIM
FF52A1H   FF52E8H   000048H   BYTE   INSEG    CODE           ?PR?MY_ADC_INIT?ADC
FF52E9H   FF5330H   000048H   BYTE   INSEG    CODE           ?PR?PID_PARAM_INIT?PID
FF5331H   FF5375H   000045H   BYTE   INSEG    CODE           ?PR?WAIT?ZF_IIC
FF5376H   FF53B9H   000044H   BYTE   INSEG    CODE           ?PR?PID_RESET?PID
FF53BAH   FF53FBH   000042H   BYTE   INSEG    CODE           ?PR?FIFO_HEAD_OFFSET?ZF_FIFO
FF53FCH   FF540EH   000013H   BYTE   UNIT     CODE           ?C_C51STARTUP
FF540FH   FF5437H   000029H   BYTE   UNIT     CODE           ?C_C51STARTUP?2
FF5438H   FF543AH   000003H   BYTE   UNIT     CODE           ?C_C51STARTUP?3
FF543BH   FF5478H   00003EH   BYTE   INSEG    CODE           ?PR?DL1A_TIMEOUT_MCLKS_TO_MICROSECONDS?SEEKFREE_DL1A
FF5479H   FF54B5H   00003DH   BYTE   INSEG    CODE           ?PR?UART1_ISR?ISR
FF54B6H   FF54F1H   00003CH   BYTE   INSEG    CODE           ?PR?DL1A_TIMEOUT_MICROSECONDS_TO_MCLKS?SEEKFREE_DL1A
FF54F2H   FF552CH   00003BH   BYTE   INSEG    CODE           ?PR?DL1A_READ_CH?SEEKFREE_DL1A
FF552DH   FF5565H   000039H   BYTE   INSEG    CODE           ?PR?DELAY_INIT?ZF_DELAY
FF5566H   FF559AH   000035H   BYTE   INSEG    CODE           ?PR?DL1A_SIMIIC_WRITE_DATS?SEEKFREE_DL1A
FF559BH   FF55CEH   000034H   BYTE   INSEG    CODE           ?PR?DL1A_ENCODE_TIMEOUT?SEEKFREE_DL1A
FF55CFH   FF5600H   000032H   BYTE   INSEG    CODE           ?PR?OLED_CLEAR?OLED
FF5601H   FF5630H   000030H   BYTE   INSEG    CODE           ?PR?ICM20602_SIMSPI_R_REG_BYTES?SEEKFREE_ICM20602
FF5631H   FF5660H   000030H   BYTE   INSEG    CODE           ?PR?IMU660RA_SIMSPI_R_REG_BYTES?SEEKFREE_IMU660RA
FF5661H   FF568EH   00002EH   BYTE   INSEG    CODE           ?PR?ADC_ONCE?ZF_ADC
FF568FH   FF56BCH   00002EH   BYTE   INSEG    CODE           ?PR?DL1A_SEND_CH?SEEKFREE_DL1A
FF56BDH   FF56EAH   00002EH   BYTE   INSEG    CODE           ?PR?ADC_ERROR_WEIGHT_FILTERING?CONTROL
FF56EBH   FF5716H   00002CH   BYTE   INSEG    CODE           ?PR?IPS114_WRITEDATAI_16BIT_SIMSPI?SEEKFREE_IPS114_SPI
FF5717H   FF573FH   000029H   BYTE   INSEG    CODE           ?PR?IPS114_WRITEINDEX_SIMSPI?SEEKFREE_IPS114_SPI
FF5740H   FF5766H   000027H   BYTE   INSEG    CODE           ?PR?OLED_SET_POS?OLED
FF5767H   FF578BH   000025H   BYTE   INSEG    CODE           ?PR?MEMCPY?_?MEMCPY
FF578CH   FF57AFH   000024H   BYTE   INSEG    CODE           ?PR?BRUSHLESS_INIT?BRUSHLESS
FF57B0H   FF57D2H   000023H   BYTE   INSEG    CODE           ?PR?ICM20602_SIMSPI_WR_BYTE?SEEKFREE_ICM20602
FF57D3H   FF57F5H   000023H   BYTE   INSEG    CODE           ?PR?IMU660RA_SIMSPI_WR_BYTE?SEEKFREE_IMU660RA
FF57F6H   FF5818H   000023H   BYTE   INSEG    CODE           ?PR?IMU963RA_SIMSPI_WR_BYTE?SEEKFREE_IMU963RA
FF5819H   FF5838H   000020H   BYTE   INSEG    CODE           ?PR?AT24C02_SIMIIC_SENDACK?SEEKFREE_AT24C02
FF5839H   FF5858H   000020H   BYTE   INSEG    CODE           ?PR?DL1A_SIMIIC_SENDACK?SEEKFREE_DL1A
FF5859H   FF5878H   000020H   BYTE   INSEG    CODE           ?PR?MPU6050_SIMIIC_SENDACK?SEEKFREE_MPU6050
FF5879H   FF5897H   00001FH   BYTE   INSEG    CODE           ?PR?IPS114_WRITEDATA_16BIT?SEEKFREE_IPS114_SPI
FF5898H   FF58B5H   00001EH   BYTE   INSEG    CODE           ?PR?UART2_ISR?ISR
FF58B6H   FF58D3H   00001EH   BYTE   INSEG    CODE           ?PR?UART3_ISR?ISR
FF58D4H   FF58EEH   00001BH   BYTE   INSEG    CODE           ?PR?IMU963RA_READ_ACC_GYRO_REGISTER?SEEKFREE_IMU963RA
FF58EFH   FF5907H   000019H   BYTE   INSEG    CODE           ?PR?DELAY_US?ZF_DELAY
FF5908H   FF5920H   000019H   BYTE   INSEG    CODE           ?PR?BLUETOOTH_CH9141_UART_CALLBACK?SEEKFREE_BLUETOOTH_CH91
                                                             -41
FF5921H   FF5939H   000019H   BYTE   INSEG    CODE           ?PR?WIRELESS_UART_CALLBACK?SEEKFREE_WIRELESS
FF593AH   FF5952H   000019H   BYTE   INSEG    CODE           ?PR?WIRELESS_CH573_CALLBACK?SEEKFREE_WIRELESS_CH573
FF5953H   FF596AH   000018H   BYTE   INSEG    CODE           ?PR?ICM20602_SIMSPI_R_REG_BYTE?SEEKFREE_ICM20602
FF596BH   FF5981H   000017H   BYTE   INSEG    CODE           ?PR?DELAY_MS?ZF_DELAY
FF5982H   FF5997H   000016H   BYTE   INSEG    CODE           ?PR?IMU660RA_READ_REGISTER?SEEKFREE_IMU660RA
FF5998H   FF59ACH   000015H   BYTE   INSEG    CODE           ?PR?EEPROM_TRIG?ZF_EEPROM
FF59ADH   FF59C1H   000015H   BYTE   INSEG    CODE           ?PR?IIC_DELAY_US?ZF_IIC
FF59C2H   FF59D4H   000013H   BYTE   INSEG    CODE           ?PR?IMU963RA_SIMSPI_W_REG_BYTE?SEEKFREE_IMU963RA
FF59D5H   FF59E7H   000013H   BYTE   INSEG    CODE           ?PR?STEER_INIT?STEER
FF59E8H   FF59F9H   000012H   BYTE   INSEG    CODE           ?PR?ICM20602_READ_REGISTER?SEEKFREE_ICM20602
L251 LINKER/LOCATER V4.66.93.0                                                        04/27/2023  18:30:04  PAGE 6


FF59FAH   FF5A0AH   000011H   BYTE   INSEG    CODE           ?PR?AT24C02_SIMIIC_STOP?SEEKFREE_AT24C02
FF5A0BH   FF5A1BH   000011H   BYTE   INSEG    CODE           ?PR?DL1A_SIMIIC_STOP?SEEKFREE_DL1A
FF5A1CH   FF5A2CH   000011H   BYTE   INSEG    CODE           ?PR?MPU6050_SIMIIC_STOP?SEEKFREE_MPU6050
FF5A2DH   FF5A3CH   000010H   BYTE   INSEG    CODE           ?PR?DL1A_DECODE_TIMEOUT?SEEKFREE_DL1A
FF5A3DH   FF5A4BH   00000FH   BYTE   INSEG    CODE           ?PR?DL1A_SIMIIC_START?SEEKFREE_DL1A
FF5A4CH   FF5A5AH   00000FH   BYTE   INSEG    CODE           ?PR?MPU6050_SIMIIC_START?SEEKFREE_MPU6050
FF5A5BH   FF5A68H   00000EH   BYTE   INSEG    CODE           ?PR?PUTCHAR?BOARD
FF5A69H   FF5A76H   00000EH   BYTE   INSEG    CODE           ?PR?SPI_MOSI?ZF_SPI
FF5A77H   FF5A83H   00000DH   BYTE   INSEG    CODE           ?PR?DL1A_SIMIIC_DELAY?SEEKFREE_DL1A
FF5A84H   FF5A8EH   00000BH   BYTE   INSEG    CODE           ?PR?MPU6050_SIMIIC_DELAY?SEEKFREE_MPU6050
FF5A8FH   FF5A98H   00000AH   BYTE   INSEG    CODE           ?PR?IPS114_WRITEINDEX?SEEKFREE_IPS114_SPI
FF5A99H   FF5AA1H   000009H   BYTE   INSEG    CODE           ?PR?TIMER4_INIT?TIMER
FF5AA2H   FF5AA9H   000008H   BYTE   INSEG    CODE           ?PR?IMU963RA_WRITE_ACC_GYRO_REGISTER?SEEKFREE_IMU963RA
FF5AAAH   FF5AB1H   000008H   BYTE   INSEG    CODE           ?PR?INT2_ISR?ISR
FF5AB2H   FF5AB9H   000008H   BYTE   INSEG    CODE           ?PR?INT3_ISR?ISR
FF5ABAH   FF5AC1H   000008H   BYTE   INSEG    CODE           ?PR?INT4_ISR?ISR
FF5AC2H   FF5AC9H   000008H   BYTE   INSEG    CODE           ?PR?TM2_ISR?ISR
FF5ACAH   FF5AD1H   000008H   BYTE   INSEG    CODE           ?PR?TM3_ISR?ISR
FF5AD2H   FF5AD9H   000008H   BYTE   INSEG    CODE           ?PR?TM4_ISR?ISR
FF5ADAH   FF5AE0H   000007H   BYTE   INSEG    CODE           ?PR?INT0_ISR?ISR
FF5AE1H   FF5AE7H   000007H   BYTE   INSEG    CODE           ?PR?PID_ON?CONTROL
FF5AE8H   FF62FFH   000818H   BYTE   UNIT     HCONST         ?HC?OLED
FF6300H   FF67E8H   0004E9H   BYTE   UNIT     HCONST         ?C_INITEDATA
FF67E9H   FF6840H   000058H   BYTE   UNIT     HCONST         ?HC?ZF_PWM
FF6841H   FF688BH   00004BH   BYTE   UNIT     HCONST         ?HC?SEEKFREE_IMU963RA
FF688CH   FF68C2H   000037H   BYTE   UNIT     HCONST         ?HC?MAIN
FF68C3H   FF68F6H   000034H   BYTE   UNIT     HCONST         ?HC?SEEKFREE_IMU660RA
FF68F7H   FF6929H   000033H   BYTE   UNIT     HCONST         ?HC?SEEKFREE_ICM20602
FF692AH   FF693FH   000016H   BYTE   UNIT     HCONST         ?HC?SEEKFREE_MPU6050
FF6940H   FF6952H   000013H   BYTE   UNIT     HCONST         ?HC?SEEKFREE_DL1A
FF6953H   FF6958H   000006H   BYTE   UNIT     HCONST         ?HC?SEEKFREE_IPS114_SPI

* * * * * * * * *   R E M O V E D     S E G M E N T S   * * * * * * * *
   *DEL*:           000003H   BYTE   INSEG    CODE           ?PR?DISABLEGLOBALIRQ?BOARD
   *DEL*:           000016H   BYTE   INSEG    CODE           ?PR?IAP_SET_TPS?ZF_EEPROM
   *DEL*:           00000EH   BYTE   INSEG    CODE           ?PR?IAP_ERASE_PAGE?ZF_EEPROM
   *DEL*:           000004H   BYTE   INSEG    CODE           ?PR?IAP_IDLE?ZF_EEPROM
   *DEL*:           000047H   BYTE   INSEG    CODE           ?PR?IAP_READ_BYTES?ZF_EEPROM
   *DEL*:           00006DH   BYTE   INSEG    CODE           ?PR?EXTERN_IAP_WRITE_BYTES?ZF_EEPROM
   *DEL*:           000006H   BYTE   INSEG    CODE           ?PR?IAP_INIT?ZF_EEPROM
   *DEL*:           000047H   BYTE   INSEG    CODE           ?PR?IAP_WRITE_BYTES?ZF_EEPROM
   *DEL*:           00000CH   BYTE   INSEG    CODE           ?PR?IAP_GET_CMD_STATE?ZF_EEPROM
   *DEL*:           000004H   BYTE   UNIT     EDATA          ?ED?IAP_READ_BYTES?ZF_EEPROM
   *DEL*:           000004H   BYTE   UNIT     EDATA          ?ED?IAP_WRITE_BYTES?ZF_EEPROM
   *DEL*:           000204H   BYTE   UNIT     EDATA          ?ED?EXTERN_IAP_WRITE_BYTES?ZF_EEPROM
   *DEL*:           00003EH   BYTE   INSEG    CODE           ?PR?EXIT_INIT?ZF_EXTI
   *DEL*:           00006EH   BYTE   INSEG    CODE           ?PR?GPIO_PULL_SET?ZF_GPIO
   *DEL*:           000017H   BYTE   INSEG    CODE           ?PR?SEND_DATA?ZF_IIC
   *DEL*:           00002FH   BYTE   INSEG    CODE           ?PR?IIC_CHANGE_PIN?ZF_IIC
   *DEL*:           00001CH   BYTE   INSEG    CODE           ?PR?RECV_DATA?ZF_IIC
   *DEL*:           000010H   BYTE   INSEG    CODE           ?PR?START?ZF_IIC
   *DEL*:           000018H   BYTE   INSEG    CODE           ?PR?SEND_ACK?ZF_IIC
   *DEL*:           000010H   BYTE   INSEG    CODE           ?PR?RECV_ACK?ZF_IIC
   *DEL*:           000010H   BYTE   INSEG    CODE           ?PR?STOP?ZF_IIC
   *DEL*:           000019H   BYTE   INSEG    CODE           ?PR?SEND_NAK?ZF_IIC
   *DEL*:           00005EH   BYTE   INSEG    CODE           ?PR?IIC_INIT?ZF_IIC
   *DEL*:           000075H   BYTE   INSEG    CODE           ?PR?IIC_READ_REG?ZF_IIC
   *DEL*:           00009CH   BYTE   INSEG    CODE           ?PR?IIC_READ_REG_BYTES?ZF_IIC
   *DEL*:           000060H   BYTE   INSEG    CODE           ?PR?IIC_WRITE_REG?ZF_IIC
   *DEL*:           000004H   BYTE   UNIT     EDATA          ?ED?IIC_INIT?ZF_IIC
   *DEL*:           000004H   BYTE   UNIT     EDATA          ?ED?IIC_READ_REG?ZF_IIC
   *DEL*:           000003H   BYTE   UNIT     EDATA          ?ED?IIC_READ_REG_BYTES?ZF_IIC
   *DEL*:           00006CH   BYTE   INSEG    CODE           ?PR?NVIC_SETPRIORITY?ZF_NVIC
   *DEL*:           000131H   BYTE   INSEG    CODE           ?PR?PWM_FREQ?ZF_PWM
   *DEL*:           000004H   BYTE   UNIT     EDATA          ?ED?PWM_FREQ?ZF_PWM
L251 LINKER/LOCATER V4.66.93.0                                                        04/27/2023  18:30:04  PAGE 7


   *DEL*:           00001DH   BYTE   INSEG    CODE           ?PR?SPI_CHANGE_MODE?ZF_SPI
   *DEL*:           0000AEH   BYTE   INSEG    CODE           ?PR?SPI_CHANGE_PIN?ZF_SPI
   *DEL*:           0000DFH   BYTE   INSEG    CODE           ?PR?SPI_INIT?ZF_SPI
   *DEL*:           000004H   BYTE   UNIT     EDATA          ?ED?SPI_INIT?ZF_SPI
   *DEL*:           00004DH   BYTE   INSEG    CODE           ?PR?CTIMER_COUNT_READ?ZF_TIM
   *DEL*:           000051H   BYTE   INSEG    CODE           ?PR?CTIMER_COUNT_CLEAN?ZF_TIM
   *DEL*:           00002DH   BYTE   INSEG    CODE           ?PR?UART_PUTBUFF?ZF_UART
   *DEL*:           00001EH   BYTE   INSEG    CODE           ?PR?UART_PUTSTR?ZF_UART
   *DEL*:           000004H   BYTE   UNIT     EDATA          ?ED?UART_PUTBUFF?ZF_UART
   *DEL*:           000002H   BYTE   UNIT     EDATA          ?ED?UART_PUTSTR?ZF_UART
   *DEL*:           000113H   BYTE   INSEG    CODE           ?PR?FIFO_READ_BUFFER?ZF_FIFO
   *DEL*:           000025H   BYTE   INSEG    CODE           ?PR?FIFO_CLEAR?ZF_FIFO
   *DEL*:           000046H   BYTE   INSEG    CODE           ?PR?FIFO_END_OFFSET?ZF_FIFO
   *DEL*:           000015H   BYTE   INSEG    CODE           ?PR?FIFO_USED?ZF_FIFO
   *DEL*:           000043H   BYTE   INSEG    CODE           ?PR?FIFO_INIT?ZF_FIFO
   *DEL*:           000004H   BYTE   UNIT     EDATA          ?ED?FIFO_INIT?ZF_FIFO
   *DEL*:           00000FH   BYTE   UNIT     EDATA          ?ED?FIFO_READ_BUFFER?ZF_FIFO
   *DEL*:           000011H   BYTE   INSEG    CODE           ?PR?ENCODER_SELF4_CHECK?SEEKFREE_ABSOLUTE_ENCODER
   *DEL*:           000011H   BYTE   INSEG    CODE           ?PR?ENCODER_SELF5_CHECK?SEEKFREE_ABSOLUTE_ENCODER
   *DEL*:           00002FH   BYTE   INSEG    CODE           ?PR?ENCODER_SPI_R_REG_BYTE?SEEKFREE_ABSOLUTE_ENCODER
   *DEL*:           000038H   BYTE   INSEG    CODE           ?PR?ENCODER_SPI_W_REG_BYTE?SEEKFREE_ABSOLUTE_ENCODER
   *DEL*:           00001CH   BYTE   INSEG    CODE           ?PR?SIMSPI_R_REG_BYTE?SEEKFREE_ABSOLUTE_ENCODER
   *DEL*:           00001AH   BYTE   INSEG    CODE           ?PR?SIMSPI_W_REG_BYTE?SEEKFREE_ABSOLUTE_ENCODER
   *DEL*:           000029H   BYTE   INSEG    CODE           ?PR?ENCODER_INIT_SPI?SEEKFREE_ABSOLUTE_ENCODER
   *DEL*:           000004H   BYTE   INSEG    CODE           ?PR?SPI_WR_BYTE?SEEKFREE_ABSOLUTE_ENCODER
   *DEL*:           000024H   BYTE   INSEG    CODE           ?PR?SET_ZERO_POSITION_SIMSPI?SEEKFREE_ABSOLUTE_ENCODER
   *DEL*:           000023H   BYTE   INSEG    CODE           ?PR?ENCODER_ANGLE_SIMSPI?SEEKFREE_ABSOLUTE_ENCODER
   *DEL*:           00001CH   BYTE   INSEG    CODE           ?PR?SPI_R_REG_BYTE?SEEKFREE_ABSOLUTE_ENCODER
   *DEL*:           00001AH   BYTE   INSEG    CODE           ?PR?SPI_W_REG_BYTE?SEEKFREE_ABSOLUTE_ENCODER
   *DEL*:           00002FH   BYTE   INSEG    CODE           ?PR?ENCODER_SIMSPI_R_REG_BYTE?SEEKFREE_ABSOLUTE_ENCODER
   *DEL*:           000038H   BYTE   INSEG    CODE           ?PR?ENCODER_SIMSPI_W_REG_BYTE?SEEKFREE_ABSOLUTE_ENCODER
   *DEL*:           00000FH   BYTE   INSEG    CODE           ?PR?ENCODER_INIT_SIMSPI?SEEKFREE_ABSOLUTE_ENCODER
   *DEL*:           000024H   BYTE   INSEG    CODE           ?PR?SET_ZERO_POSITION_SPI?SEEKFREE_ABSOLUTE_ENCODER
   *DEL*:           00001FH   BYTE   INSEG    CODE           ?PR?SIMSPI_WR_BYTE?SEEKFREE_ABSOLUTE_ENCODER
   *DEL*:           000023H   BYTE   INSEG    CODE           ?PR?ENCODER_ANGLE_SPI?SEEKFREE_ABSOLUTE_ENCODER
   *DEL*:           000001H   BYTE   UNIT     EDATA          ?ED?ENCODER_SELF4_CHECK?SEEKFREE_ABSOLUTE_ENCODER
   *DEL*:           000001H   BYTE   UNIT     EDATA          ?ED?ENCODER_SELF5_CHECK?SEEKFREE_ABSOLUTE_ENCODER
   *DEL*:           000029H   BYTE   INSEG    CODE           ?PR?AT24C02_SIMIIC_READ_REG?SEEKFREE_AT24C02
   *DEL*:           00005EH   BYTE   INSEG    CODE           ?PR?AT24C02_READ_BYTES?SEEKFREE_AT24C02
   *DEL*:           000022H   BYTE   INSEG    CODE           ?PR?AT24C02_SIMIIC_WRITE_REG?SEEKFREE_AT24C02
   *DEL*:           000015H   BYTE   INSEG    CODE           ?PR?AT24C02_READ_BYTE?SEEKFREE_AT24C02
   *DEL*:           00005BH   BYTE   INSEG    CODE           ?PR?AT24C02_WRITE_BYTES?SEEKFREE_AT24C02
   *DEL*:           000019H   BYTE   INSEG    CODE           ?PR?AT24C02_WRITE_BYTE?SEEKFREE_AT24C02
   *DEL*:           00003BH   BYTE   INSEG    CODE           ?PR?AT24C02_READ_CH?SEEKFREE_AT24C02
   *DEL*:           00002EH   BYTE   INSEG    CODE           ?PR?AT24C02_SEND_CH?SEEKFREE_AT24C02
   *DEL*:           00001CH   BYTE   INSEG    CODE           ?PR?AT24C02_SCCB_WAITACK?SEEKFREE_AT24C02
   *DEL*:           00000FH   BYTE   INSEG    CODE           ?PR?AT24C02_SIMIIC_START?SEEKFREE_AT24C02
   *DEL*:           000002H   BYTE   UNIT     EDATA          ?ED?AT24C02_WRITE_BYTES?SEEKFREE_AT24C02
   *DEL*:           000002H   BYTE   UNIT     EDATA          ?ED?AT24C02_READ_BYTES?SEEKFREE_AT24C02
   *DEL*:           000022H   BYTE   INSEG    CODE           ?PR?BLUETOOTH_CH9141_READ_BUFF?SEEKFREE_BLUETOOTH_CH9141
   *DEL*:           0000ABH   BYTE   INSEG    CODE           ?PR?BLUETOOTH_CH9141_SEND_BUFF?SEEKFREE_BLUETOOTH_CH9141
   *DEL*:           00003CH   BYTE   INSEG    CODE           ?PR?BLUETOOTH_CH9141_INIT?SEEKFREE_BLUETOOTH_CH9141
   *DEL*:           000006H   BYTE   UNIT     EDATA          ?ED?BLUETOOTH_CH9141_SEND_BUFF?SEEKFREE_BLUETOOTH_CH9141
   *DEL*:           000004H   BYTE   UNIT     EDATA          ?ED?BLUETOOTH_CH9141_READ_BUFF?SEEKFREE_BLUETOOTH_CH9141
   *DEL*:           000027H   BYTE   INSEG    CODE           ?PR?DL1A_SET_SIGNAL_RATE_LIMIT?SEEKFREE_DL1A
   *DEL*:           00017CH   BYTE   INSEG    CODE           ?PR?DL1A_GET_SPAD_INFO?SEEKFREE_DL1A
   *DEL*:           00005DH   BYTE   INSEG    CODE           ?PR?DL1A_GET_DISTANCE?SEEKFREE_DL1A
   *DEL*:           000077H   BYTE   INSEG    CODE           ?PR?DL1A_PERFORM_SINGLE_REF_CALIBRATION?SEEKFREE_DL1A
   *DEL*:           000073H   BYTE   INSEG    CODE           ?PR?DL1A_GET_MEASUREMENT_TIMING_BUDGET?SEEKFREE_DL1A
   *DEL*:           000029H   BYTE   INSEG    CODE           ?PR?DL1A_SIMIIC_READ_REG?SEEKFREE_DL1A
   *DEL*:           000054H   BYTE   INSEG    CODE           ?PR?DL1A_SIMIIC_READ_REGS_1?SEEKFREE_DL1A
   *DEL*:           0000E4H   BYTE   INSEG    CODE           ?PR?DL1A_SET_MEASUREMENT_TIMING_BUDGET?SEEKFREE_DL1A
   *DEL*:           000022H   BYTE   INSEG    CODE           ?PR?DL1A_SIMIIC_WRITE_REG?SEEKFREE_DL1A
   *DEL*:           00061BH   BYTE   INSEG    CODE           ?PR?DL1A_INIT?SEEKFREE_DL1A
   *DEL*:           000006H   BYTE   UNIT     EDATA          ?ED?DL1A_SIMIIC_READ_REGS_1?SEEKFREE_DL1A
L251 LINKER/LOCATER V4.66.93.0                                                        04/27/2023  18:30:04  PAGE 8


   *DEL*:           000008H   BYTE   UNIT     EDATA          ?ED?DL1A_GET_SPAD_INFO?SEEKFREE_DL1A
   *DEL*:           000003H   BYTE   UNIT     EDATA          ?ED?DL1A_PERFORM_SINGLE_REF_CALIBRATION?SEEKFREE_DL1A
   *DEL*:           000023H   BYTE   UNIT     EDATA          ?ED?DL1A_SET_MEASUREMENT_TIMING_BUDGET?SEEKFREE_DL1A
   *DEL*:           00001BH   BYTE   UNIT     EDATA          ?ED?DL1A_GET_MEASUREMENT_TIMING_BUDGET?SEEKFREE_DL1A
   *DEL*:           000003H   BYTE   UNIT     EDATA          ?ED?DL1A_SET_SIGNAL_RATE_LIMIT?SEEKFREE_DL1A
   *DEL*:           000003H   BYTE   UNIT     EDATA          ?ED?DL1A_GET_DISTANCE?SEEKFREE_DL1A
   *DEL*:           000012H   BYTE   UNIT     EDATA          ?ED?DL1A_INIT?SEEKFREE_DL1A
   *DEL*:           000012H   BYTE   INSEG    CODE           ?PR?ICM20602_GYRO_TRANSITION?SEEKFREE_ICM20602
   *DEL*:           000008H   BYTE   INSEG    CODE           ?PR?ICM20602_WRITE_REGISTER?SEEKFREE_ICM20602
   *DEL*:           00002DH   BYTE   INSEG    CODE           ?PR?ICM20602_SELF_CHECK?SEEKFREE_ICM20602
   *DEL*:           00000FH   BYTE   INSEG    CODE           ?PR?ICM20602_SIMSPI_W_REG_BYTE?SEEKFREE_ICM20602
   *DEL*:           000098H   BYTE   INSEG    CODE           ?PR?ICM20602_INIT?SEEKFREE_ICM20602
   *DEL*:           000040H   BYTE   INSEG    CODE           ?PR?ICM20602_GET_ACC?SEEKFREE_ICM20602
   *DEL*:           000010H   BYTE   INSEG    CODE           ?PR?ICM20602_ACC_TRANSITION?SEEKFREE_ICM20602
   *DEL*:           000010H   BYTE   INSEG    CODE           ?PR?ICM20602_READ_REGISTERS?SEEKFREE_ICM20602
   *DEL*:           000040H   BYTE   INSEG    CODE           ?PR?ICM20602_GET_GYRO?SEEKFREE_ICM20602
   *DEL*:           000006H   BYTE   UNIT     EDATA          ?ED?ICM20602_GET_ACC?SEEKFREE_ICM20602
   *DEL*:           000006H   BYTE   UNIT     EDATA          ?ED?ICM20602_GET_GYRO?SEEKFREE_ICM20602
   *DEL*:           000040H   BYTE   INSEG    CODE           ?PR?IMU660RA_GET_GYRO?SEEKFREE_IMU660RA
   *DEL*:           00000EH   BYTE   INSEG    CODE           ?PR?IMU660RA_WRITE_REGISTERS?SEEKFREE_IMU660RA
   *DEL*:           000012H   BYTE   INSEG    CODE           ?PR?IMU660RA_GYRO_TRANSITION?SEEKFREE_IMU660RA
   *DEL*:           000008H   BYTE   INSEG    CODE           ?PR?IMU660RA_WRITE_REGISTER?SEEKFREE_IMU660RA
   *DEL*:           00002CH   BYTE   INSEG    CODE           ?PR?IMU660RA_SELF_CHECK?SEEKFREE_IMU660RA
   *DEL*:           000025H   BYTE   INSEG    CODE           ?PR?IMU660RA_SIMSPI_W_REG_BYTES?SEEKFREE_IMU660RA
   *DEL*:           00000FH   BYTE   INSEG    CODE           ?PR?IMU660RA_SIMSPI_W_REG_BYTE?SEEKFREE_IMU660RA
   *DEL*:           00009AH   BYTE   INSEG    CODE           ?PR?IMU660RA_INIT?SEEKFREE_IMU660RA
   *DEL*:           000040H   BYTE   INSEG    CODE           ?PR?IMU660RA_GET_ACC?SEEKFREE_IMU660RA
   *DEL*:           000010H   BYTE   INSEG    CODE           ?PR?IMU660RA_ACC_TRANSITION?SEEKFREE_IMU660RA
   *DEL*:           000010H   BYTE   INSEG    CODE           ?PR?IMU660RA_READ_REGISTERS?SEEKFREE_IMU660RA
   *DEL*:           000004H   BYTE   UNIT     EDATA          ?ED?IMU660RA_SIMSPI_W_REG_BYTES?SEEKFREE_IMU660RA
   *DEL*:           000007H   BYTE   UNIT     EDATA          ?ED?IMU660RA_GET_ACC?SEEKFREE_IMU660RA
   *DEL*:           000007H   BYTE   UNIT     EDATA          ?ED?IMU660RA_GET_GYRO?SEEKFREE_IMU660RA
   *DEL*:           000003H   BYTE   INSEG    CODE           ?PR?IMU963RA_ACC_TRANSITION?SEEKFREE_IMU963RA
   *DEL*:           000040H   BYTE   INSEG    CODE           ?PR?IMU963RA_GET_GYRO?SEEKFREE_IMU963RA
   *DEL*:           000012H   BYTE   INSEG    CODE           ?PR?IMU963RA_MAG_TRANSITION?SEEKFREE_IMU963RA
   *DEL*:           000003H   BYTE   INSEG    CODE           ?PR?IMU963RA_GYRO_TRANSITION?SEEKFREE_IMU963RA
   *DEL*:           00002CH   BYTE   INSEG    CODE           ?PR?IMU963RA_CONNECT_MAG?SEEKFREE_IMU963RA
   *DEL*:           000010H   BYTE   INSEG    CODE           ?PR?IMU963RA_READ_ACC_GYRO_REGISTERS?SEEKFREE_IMU963RA
   *DEL*:           000061H   BYTE   INSEG    CODE           ?PR?IMU963RA_WRITE_MAG_REGISTER?SEEKFREE_IMU963RA
   *DEL*:           000030H   BYTE   INSEG    CODE           ?PR?IMU963RA_SIMSPI_R_REG_BYTES?SEEKFREE_IMU963RA
   *DEL*:           000030H   BYTE   INSEG    CODE           ?PR?IMU963RA_MAG_SELF_CHECK?SEEKFREE_IMU963RA
   *DEL*:           00010AH   BYTE   INSEG    CODE           ?PR?IMU963RA_INIT?SEEKFREE_IMU963RA
   *DEL*:           00002DH   BYTE   INSEG    CODE           ?PR?IMU963RA_ACC_GYRO_SELF_CHECK?SEEKFREE_IMU963RA
   *DEL*:           000040H   BYTE   INSEG    CODE           ?PR?IMU963RA_GET_ACC?SEEKFREE_IMU963RA
   *DEL*:           000056H   BYTE   INSEG    CODE           ?PR?IMU963RA_GET_MAG?SEEKFREE_IMU963RA
   *DEL*:           000004H   BYTE   UNIT     EDATA          ?ED?IMU963RA_SIMSPI_R_REG_BYTES?SEEKFREE_IMU963RA
   *DEL*:           000002H   BYTE   UNIT     EDATA          ?ED?IMU963RA_WRITE_MAG_REGISTER?SEEKFREE_IMU963RA
   *DEL*:           000006H   BYTE   UNIT     EDATA          ?ED?IMU963RA_GET_ACC?SEEKFREE_IMU963RA
   *DEL*:           000006H   BYTE   UNIT     EDATA          ?ED?IMU963RA_GET_GYRO?SEEKFREE_IMU963RA
   *DEL*:           000006H   BYTE   UNIT     EDATA          ?ED?IMU963RA_GET_MAG?SEEKFREE_IMU963RA
   *DEL*:           00007BH   BYTE   INSEG    CODE           ?PR?IPS114_SHOWUINT8_SIMSPI?SEEKFREE_IPS114_SPI
   *DEL*:           000077H   BYTE   INSEG    CODE           ?PR?IPS114_SHOWUINT8?SEEKFREE_IPS114_SPI
   *DEL*:           0000B9H   BYTE   INSEG    CODE           ?PR?IPS114_SHOWINT8_SIMSPI?SEEKFREE_IPS114_SPI
   *DEL*:           0000B5H   BYTE   INSEG    CODE           ?PR?IPS114_SHOWINT8?SEEKFREE_IPS114_SPI
   *DEL*:           0000F8H   BYTE   INSEG    CODE           ?PR?IPS114_SHOWFLOAT_SIMSPI?SEEKFREE_IPS114_SPI
   *DEL*:           000013H   BYTE   INSEG    CODE           ?PR?IPS114_DRAWPOINT_SIMSPI?SEEKFREE_IPS114_SPI
   *DEL*:           0000F8H   BYTE   INSEG    CODE           ?PR?IPS114_SHOWFLOAT?SEEKFREE_IPS114_SPI
   *DEL*:           000013H   BYTE   INSEG    CODE           ?PR?IPS114_DRAWPOINT?SEEKFREE_IPS114_SPI
   *DEL*:           00008EH   BYTE   INSEG    CODE           ?PR?IPS114_SHOWCHAR_SIMSPI?SEEKFREE_IPS114_SPI
   *DEL*:           00008EH   BYTE   INSEG    CODE           ?PR?IPS114_SHOWCHAR?SEEKFREE_IPS114_SPI
   *DEL*:           00008BH   BYTE   INSEG    CODE           ?PR?IPS114_SHOWUINT16_SIMSPI?SEEKFREE_IPS114_SPI
   *DEL*:           00008BH   BYTE   INSEG    CODE           ?PR?IPS114_SHOWUINT16?SEEKFREE_IPS114_SPI
   *DEL*:           000082H   BYTE   INSEG    CODE           ?PR?IPS114_SHOWINT32_SIMSPI?SEEKFREE_IPS114_SPI
   *DEL*:           0000DDH   BYTE   INSEG    CODE           ?PR?IPS114_SHOWINT16_SIMSPI?SEEKFREE_IPS114_SPI
   *DEL*:           000082H   BYTE   INSEG    CODE           ?PR?IPS114_SHOWINT32?SEEKFREE_IPS114_SPI
L251 LINKER/LOCATER V4.66.93.0                                                        04/27/2023  18:30:04  PAGE 9


   *DEL*:           0000D9H   BYTE   INSEG    CODE           ?PR?IPS114_SHOWINT16?SEEKFREE_IPS114_SPI
   *DEL*:           00003CH   BYTE   INSEG    CODE           ?PR?IPS114_CLEAR_SIMSPI?SEEKFREE_IPS114_SPI
   *DEL*:           00003CH   BYTE   INSEG    CODE           ?PR?IPS114_CLEAR?SEEKFREE_IPS114_SPI
   *DEL*:           00004EH   BYTE   INSEG    CODE           ?PR?IPS114_SHOWSTR_SIMSPI?SEEKFREE_IPS114_SPI
   *DEL*:           00004EH   BYTE   INSEG    CODE           ?PR?IPS114_SHOWSTR?SEEKFREE_IPS114_SPI
   *DEL*:           000029H   BYTE   INSEG    CODE           ?PR?IPS114_WRITEDATA_SIMSPI?SEEKFREE_IPS114_SPI
   *DEL*:           00000AH   BYTE   INSEG    CODE           ?PR?IPS114_WRITEDATA?SEEKFREE_IPS114_SPI
   *DEL*:           000044H   BYTE   INSEG    CODE           ?PR?IPS114_SET_REGION_SIMSPI?SEEKFREE_IPS114_SPI
   *DEL*:           00014FH   BYTE   INSEG    CODE           ?PR?IPS114_INIT_SIMSPI?SEEKFREE_IPS114_SPI
   *DEL*:           000048H   BYTE   INSEG    CODE           ?PR?IPS114_SET_REGION?SEEKFREE_IPS114_SPI
   *DEL*:           00016DH   BYTE   INSEG    CODE           ?PR?IPS114_INIT?SEEKFREE_IPS114_SPI
   *DEL*:           000004H   BYTE   UNIT     EDATA          ?ED?IPS114_SET_REGION_SIMSPI?SEEKFREE_IPS114_SPI
   *DEL*:           000002H   BYTE   UNIT     EDATA          ?ED?IPS114_CLEAR_SIMSPI?SEEKFREE_IPS114_SPI
   *DEL*:           000004H   BYTE   UNIT     EDATA          ?ED?IPS114_SHOWCHAR_SIMSPI?SEEKFREE_IPS114_SPI
   *DEL*:           000006H   BYTE   UNIT     EDATA          ?ED?IPS114_SHOWSTR_SIMSPI?SEEKFREE_IPS114_SPI
   *DEL*:           000005H   BYTE   UNIT     EDATA          ?ED?IPS114_SHOWINT8_SIMSPI?SEEKFREE_IPS114_SPI
   *DEL*:           000004H   BYTE   UNIT     EDATA          ?ED?IPS114_SHOWUINT8_SIMSPI?SEEKFREE_IPS114_SPI
   *DEL*:           000008H   BYTE   UNIT     EDATA          ?ED?IPS114_SHOWINT16_SIMSPI?SEEKFREE_IPS114_SPI
   *DEL*:           000006H   BYTE   UNIT     EDATA          ?ED?IPS114_SHOWUINT16_SIMSPI?SEEKFREE_IPS114_SPI
   *DEL*:           000028H   BYTE   UNIT     EDATA          ?ED?IPS114_SHOWINT32_SIMSPI?SEEKFREE_IPS114_SPI
   *DEL*:           00002BH   BYTE   UNIT     EDATA          ?ED?IPS114_SHOWFLOAT_SIMSPI?SEEKFREE_IPS114_SPI
   *DEL*:           000004H   BYTE   UNIT     EDATA          ?ED?IPS114_SET_REGION?SEEKFREE_IPS114_SPI
   *DEL*:           000002H   BYTE   UNIT     EDATA          ?ED?IPS114_CLEAR?SEEKFREE_IPS114_SPI
   *DEL*:           000004H   BYTE   UNIT     EDATA          ?ED?IPS114_SHOWCHAR?SEEKFREE_IPS114_SPI
   *DEL*:           000006H   BYTE   UNIT     EDATA          ?ED?IPS114_SHOWSTR?SEEKFREE_IPS114_SPI
   *DEL*:           000005H   BYTE   UNIT     EDATA          ?ED?IPS114_SHOWINT8?SEEKFREE_IPS114_SPI
   *DEL*:           000004H   BYTE   UNIT     EDATA          ?ED?IPS114_SHOWUINT8?SEEKFREE_IPS114_SPI
   *DEL*:           000008H   BYTE   UNIT     EDATA          ?ED?IPS114_SHOWINT16?SEEKFREE_IPS114_SPI
   *DEL*:           000006H   BYTE   UNIT     EDATA          ?ED?IPS114_SHOWUINT16?SEEKFREE_IPS114_SPI
   *DEL*:           000028H   BYTE   UNIT     EDATA          ?ED?IPS114_SHOWINT32?SEEKFREE_IPS114_SPI
   *DEL*:           00002BH   BYTE   UNIT     EDATA          ?ED?IPS114_SHOWFLOAT?SEEKFREE_IPS114_SPI
   *DEL*:           000055H   BYTE   INSEG    CODE           ?PR?MPU6050_SIMIIC_READ_REGS?SEEKFREE_MPU6050
   *DEL*:           000029H   BYTE   INSEG    CODE           ?PR?MPU6050_SIMIIC_READ_REG?SEEKFREE_MPU6050
   *DEL*:           000022H   BYTE   INSEG    CODE           ?PR?MPU6050_SIMIIC_WRITE_REG?SEEKFREE_MPU6050
   *DEL*:           00005CH   BYTE   INSEG    CODE           ?PR?MPU6050_INIT?SEEKFREE_MPU6050
   *DEL*:           000032H   BYTE   INSEG    CODE           ?PR?MPU6050_SELF1_CHECK?SEEKFREE_MPU6050
   *DEL*:           00003BH   BYTE   INSEG    CODE           ?PR?MPU6050_READ_CH?SEEKFREE_MPU6050
   *DEL*:           00002EH   BYTE   INSEG    CODE           ?PR?MPU6050_SEND_CH?SEEKFREE_MPU6050
   *DEL*:           000040H   BYTE   INSEG    CODE           ?PR?MPU6050_GET_GYRO?SEEKFREE_MPU6050
   *DEL*:           00001CH   BYTE   INSEG    CODE           ?PR?MPU6050_SCCB_WAITACK?SEEKFREE_MPU6050
   *DEL*:           000040H   BYTE   INSEG    CODE           ?PR?MPU6050_GET_ACCDATA?SEEKFREE_MPU6050
   *DEL*:           000003H   BYTE   UNIT     EDATA          ?ED?MPU6050_SIMIIC_READ_REGS?SEEKFREE_MPU6050
   *DEL*:           000006H   BYTE   UNIT     EDATA          ?ED?MPU6050_GET_ACCDATA?SEEKFREE_MPU6050
   *DEL*:           000006H   BYTE   UNIT     EDATA          ?ED?MPU6050_GET_GYRO?SEEKFREE_MPU6050
   *DEL*:           000092H   BYTE   INSEG    CODE           ?PR?NUMBER_CONVERSION_ASCII?SEEKFREE_PRINTF
   *DEL*:           0004FAH   BYTE   INSEG    CODE           ?PR?ZF_SPRINTF?SEEKFREE_PRINTF
   *DEL*:           00003EH   BYTE   INSEG    CODE           ?PR?PRINTF_REVERSE_ORDER?SEEKFREE_PRINTF
   *DEL*:           000001H   BYTE   UNIT     EDATA          ?ED?NUMBER_CONVERSION_ASCII?SEEKFREE_PRINTF
   *DEL*:           00005FH   BYTE   UNIT     EDATA          ?ED?ZF_SPRINTF?SEEKFREE_PRINTF
   *DEL*:           000070H   BYTE   INSEG    CODE           ?PR?CCD_SEND_DATA?SEEKFREE_TSL1401
   *DEL*:           000016H   BYTE   INSEG    CODE           ?PR?CCD_INIT?SEEKFREE_TSL1401
   *DEL*:           000035H   BYTE   INSEG    CODE           ?PR?CCD_COLLECT?SEEKFREE_TSL1401
   *DEL*:           000003H   BYTE   UNIT     EDATA          ?ED?CCD_SEND_DATA?SEEKFREE_TSL1401
   *DEL*:           00003AH   BYTE   INSEG    CODE           ?PR?CRC_CHECK?SEEKFREE_VIRSCO
   *DEL*:           000069H   BYTE   INSEG    CODE           ?PR?DATA_CONVERSION?SEEKFREE_VIRSCO
   *DEL*:           000004H   BYTE   UNIT     EDATA          ?ED?DATA_CONVERSION?SEEKFREE_VIRSCO
   *DEL*:           000022H   BYTE   INSEG    CODE           ?PR?WIRELESS_UART_READ_BUFF?SEEKFREE_WIRELESS
   *DEL*:           00005DH   BYTE   INSEG    CODE           ?PR?WIRELESS_UART_SEND_BUFF?SEEKFREE_WIRELESS
   *DEL*:           00003CH   BYTE   INSEG    CODE           ?PR?WIRELESS_UART_INIT?SEEKFREE_WIRELESS
   *DEL*:           000002H   BYTE   UNIT     EDATA          ?ED?WIRELESS_UART_SEND_BUFF?SEEKFREE_WIRELESS
   *DEL*:           000004H   BYTE   UNIT     EDATA          ?ED?WIRELESS_UART_READ_BUFF?SEEKFREE_WIRELESS
   *DEL*:           000022H   BYTE   INSEG    CODE           ?PR?WIRELESS_CH573_READ_BUFF?SEEKFREE_WIRELESS_CH573
   *DEL*:           00005DH   BYTE   INSEG    CODE           ?PR?WIRELESS_CH573_SEND_BUFF?SEEKFREE_WIRELESS_CH573
   *DEL*:           00003CH   BYTE   INSEG    CODE           ?PR?WIRELESS_CH573_INIT?SEEKFREE_WIRELESS_CH573
   *DEL*:           000002H   BYTE   UNIT     EDATA          ?ED?WIRELESS_CH573_SEND_BUFF?SEEKFREE_WIRELESS_CH573
L251 LINKER/LOCATER V4.66.93.0                                                        04/27/2023  18:30:04  PAGE 10


   *DEL*:           000004H   BYTE   UNIT     EDATA          ?ED?WIRELESS_CH573_READ_BUFF?SEEKFREE_WIRELESS_CH573
   *DEL*:           000001H   BYTE   INSEG    CODE           ?PR?CORNERS_DETECTION?CONTROL
   *DEL*:           0000B1H   BYTE   INSEG    CODE           ?PR?AKEMAN_CONTROL?CONTROL
   *DEL*:           00003DH   BYTE   INSEG    CODE           ?PR?MOTOR_PID_CONTROL?CONTROL
   *DEL*:           000030H   BYTE   INSEG    CODE           ?PR?ADC_ERROR_ACCELERATION?CONTROL
   *DEL*:           000019H   BYTE   INSEG    CODE           ?PR?ROUNDABOUT_DETECTION?CONTROL
   *DEL*:           000006H   BYTE   INSEG    CODE           ?PR?PID_OFF?CONTROL
   *DEL*:           000004H   BYTE   UNIT     EDATA          ?ED?AKEMAN_CONTROL?CONTROL
   *DEL*:           000008H   BYTE   UNIT     EDATA          ?ED?MOTOR_PID_CONTROL?CONTROL
   *DEL*:           00007DH   BYTE   INSEG    CODE           ?PR?KEY_SCAN?KEY
   *DEL*:           00000CH   BYTE   INSEG    CODE           ?PR?ENCODER_CLEAR?MOTOR
   *DEL*:           000024H   BYTE   INSEG    CODE           ?PR?MOTOR_SHUT?MOTOR
   *DEL*:           000049H   BYTE   INSEG    CODE           ?PR?ENCODER_READ?MOTOR
   *DEL*:           000011H   BYTE   INSEG    CODE           ?PR?OLED_DISPLAY_ON?OLED
   *DEL*:           000064H   BYTE   INSEG    CODE           ?PR?OLED_SHOWSTRING?OLED
   *DEL*:           0000AFH   BYTE   INSEG    CODE           ?PR?OLED_SHOWCHAR?OLED
   *DEL*:           00007CH   BYTE   INSEG    CODE           ?PR?OLED_SHOWCHINESE?OLED
   *DEL*:           0000AAH   BYTE   INSEG    CODE           ?PR?OLED_SHOWNUM?OLED
   *DEL*:           000011H   BYTE   INSEG    CODE           ?PR?OLED_DISPLAY_OFF?OLED
   *DEL*:           000017H   BYTE   INSEG    CODE           ?PR?OLED_POW?OLED
   *DEL*:           00009DH   BYTE   INSEG    CODE           ?PR?OLED_DRAWBMP?OLED
   *DEL*:           000005H   BYTE   UNIT     EDATA          ?ED?OLED_SHOWNUM?OLED
   *DEL*:           000003H   BYTE   UNIT     EDATA          ?ED?OLED_SHOWSTRING?OLED
   *DEL*:           000001H   BYTE   UNIT     EDATA          ?ED?OLED_SHOWCHINESE?OLED
   *DEL*:           000007H   BYTE   UNIT     EDATA          ?ED?OLED_DRAWBMP?OLED
   *DEL*:           000044H   BYTE   INSEG    CODE           ?PR?SET_BRUSHLESS_OUTPUT?BRUSHLESS
   *DEL*:           000110H   BYTE   INSEG    CODE           ?PR?POSITION_PID_CALC?PID
   *DEL*:           000237H   BYTE   INSEG    CODE           ?PR?PID_CALC?PID
   *DEL*:           000034H   BYTE   INSEG    CODE           ?PR?ABS_LIMIT?PID
   *DEL*:           00000DH   BYTE   INSEG    CODE           ?PR?PID_CLEAR_INTEGRAL?PID
   *DEL*:           000004H   BYTE   UNIT     EDATA          ?ED?PID_CALC?PID
   *DEL*:           000004H   BYTE   UNIT     EDATA          ?ED?POSITION_PID_CALC?PID
   *DEL*:           000056H   BYTE   INSEG    CODE           ?PR?SEND_FOUR_DATA?HOST
   *DEL*:           00001AH   BYTE   INSEG    CODE           ?PR?MEMSET?_?MEMSET



OVERLAY MAP OF MODULE:   .\Out_File\SEEKFREE (board)


FUNCTION/MODULE                               EDATA_GROUP
--> CALLED FUNCTION/MODULE                    START  STOP
=========================================================
UART1_Isr/isr                                 ----- -----

*** NEW ROOT ********************************

UART2_Isr/isr                                 ----- -----

*** NEW ROOT ********************************

UART3_Isr/isr                                 ----- -----

*** NEW ROOT ********************************

UART4_Isr/isr                                 ----- -----
  +--> wireless_uart_callback/SEEKFREE_WIRELESS
  +--> bluetooth_ch9141_uart_callback/SEEKFREE_BLUETOOTH_CH9141
  +--> wireless_ch573_callback/SEEKFREE_WIRELESS_CH573

wireless_uart_callback/SEEKFREE_WIRELESS      ----- -----
  +--> fifo_write_buffer/zf_fifo

fifo_write_buffer/zf_fifo                     0787H 0792H
  +--> memcpy?_/memcpy
L251 LINKER/LOCATER V4.66.93.0                                                        04/27/2023  18:30:04  PAGE 11


  +--> fifo_head_offset/zf_fifo

memcpy?_/memcpy                               ----- -----

fifo_head_offset/zf_fifo                      ----- -----

bluetooth_ch9141_uart_callback/SEEKFREE_+     ----- -----
... BLUETOOTH_CH9141
  +--> fifo_write_buffer/zf_fifo

wireless_ch573_callback/SEEKFREE_WIRELES+     ----- -----
... S_CH573
  +--> fifo_write_buffer/zf_fifo

*** NEW ROOT ********************************

INT0_Isr/isr                                  ----- -----

*** NEW ROOT ********************************

INT1_Isr/isr                                  ----- -----

*** NEW ROOT ********************************

INT2_Isr/isr                                  ----- -----

*** NEW ROOT ********************************

INT3_Isr/isr                                  ----- -----

*** NEW ROOT ********************************

INT4_Isr/isr                                  ----- -----

*** NEW ROOT ********************************

TM0_Isr/isr                                   ----- -----

*** NEW ROOT ********************************

TM1_Isr/isr                                   ----- -----

*** NEW ROOT ********************************

TM2_Isr/isr                                   ----- -----

*** NEW ROOT ********************************

TM3_Isr/isr                                   ----- -----

*** NEW ROOT ********************************

TM4_Isr/isr                                   ----- -----

*** NEW ROOT ********************************

?C_C51STARTUP                                 ----- -----

*** NEW ROOT ********************************

?C_C51STARTUP?3                               ----- -----
  +--> main/main

main/main                                     ----- -----
  +--> board_init/board
L251 LINKER/LOCATER V4.66.93.0                                                        04/27/2023  18:30:04  PAGE 12


  +--> PID_struct_init/pid
  +--> My_Adc_Init/adc
  +--> Motor_Init/motor
  +--> Steer_Init/steer
  +--> Brushless_Init/brushless
  +--> OLED_Init/oled
  +--> Timer4_Init/timer
  +--> PRINTF/PRINTF
  +--> PID_on/control
  +--> Motor_Control/motor
  +--> Read_Adc_Value/adc
  +--> ADC_error_processing/control
  +--> ADC_error_window_filtering/control
  +--> ADC_error_weight_filtering/control
  +--> Correct_Angle/control
  +--> Steer_Spin/steer
  +--> delay_ms/zf_delay

board_init/board                              ----- -----
  +--> set_clk/board
  +--> delay_init/zf_delay
  +--> uart_init/zf_uart
  +--> EnableGlobalIRQ/board

set_clk/board                                 ----- -----

delay_init/zf_delay                           ----- -----
  +--> ?C?SLDIV/?C?SLDIV

?C?SLDIV/?C?SLDIV                             ----- -----
  +--> ?C?ULIDIV/?C?ULDIV

?C?ULIDIV/?C?ULDIV                            ----- -----

uart_init/zf_uart                             0793H 0798H
  +--> ?C?ULIDIV/?C?ULDIV

EnableGlobalIRQ/board                         ----- -----

PID_struct_init/pid                           0793H 07A6H
  +--> pid_param_init/pid
  +--> pid_reset/pid

pid_param_init/pid                            07A7H 07BAH

pid_reset/pid                                 07A7H 07AEH

My_Adc_Init/adc                               ----- -----
  +--> adc_init/zf_adc

adc_init/zf_adc                               ----- -----

Motor_Init/motor                              ----- -----
  +--> pwm_init/zf_pwm
  +--> ctimer_count_init/zf_tim

pwm_init/zf_pwm                               0793H 079EH
  +--> pwm_set_gpio/zf_pwm
  +--> ?C?ULIDIV/?C?ULDIV

pwm_set_gpio/zf_pwm                           ----- -----
  +--> gpio_mode/zf_gpio

gpio_mode/zf_gpio                             ----- -----

L251 LINKER/LOCATER V4.66.93.0                                                        04/27/2023  18:30:04  PAGE 13


ctimer_count_init/zf_tim                      ----- -----

Steer_Init/steer                              ----- -----
  +--> pwm_init/zf_pwm

Brushless_Init/brushless                      ----- -----
  +--> pwm_init/zf_pwm

OLED_Init/oled                                ----- -----
  +--> delay_ms/zf_delay
  +--> OLED_WR_Byte/oled
  +--> OLED_Clear/oled
  +--> OLED_Set_Pos/oled

delay_ms/zf_delay                             ----- -----

OLED_WR_Byte/oled                             ----- -----

OLED_Clear/oled                               ----- -----
  +--> OLED_WR_Byte/oled

OLED_Set_Pos/oled                             ----- -----
  +--> OLED_WR_Byte/oled

Timer4_Init/timer                             ----- -----
  +--> pit_timer_ms/zf_tim

pit_timer_ms/zf_tim                           ----- -----
  +--> ?C?SLDIV/?C?SLDIV

PRINTF/PRINTF                                 0793H 07BAH
  +--> OUT/PRINTF

OUT/PRINTF                                    ----- -----
  +--> PUTCH/PRINTF

PUTCH/PRINTF                                  ----- -----
  +--> putchar/board
  +--> OUT/PRINTF

putchar/board                                 ----- -----
  +--> uart_putchar/zf_uart

uart_putchar/zf_uart                          ----- -----

PID_on/control                                ----- -----

Motor_Control/motor                           0793H 0796H
  +--> pwm_duty/zf_pwm

pwm_duty/zf_pwm                               ----- -----

Read_Adc_Value/adc                            ----- -----
  +--> adc_mean_filter/adc

adc_mean_filter/adc                           0793H 0798H
  +--> adc_once/zf_adc
  +--> ?C?ULIDIV/?C?ULDIV

adc_once/zf_adc                               ----- -----

ADC_error_processing/control                  0793H 0796H

ADC_error_window_filtering/control            ----- -----

L251 LINKER/LOCATER V4.66.93.0                                                        04/27/2023  18:30:04  PAGE 14


ADC_error_weight_filtering/control            ----- -----

Correct_Angle/control                         0793H 0796H

Steer_Spin/steer                              ----- -----
  +--> pwm_duty/zf_pwm

*** NEW ROOT ********************************

?C_C51STARTUP?2                               ----- -----



PUBLIC SYMBOLS OF MODULE:  .\Out_File\SEEKFREE (board)


      VALUE       CLASS    TYPE      PUBLIC SYMBOL NAME
      =================================================
      0000078BH   EDATA    BYTE      ?ADC_error_processing?BYTE
      00FF311EH   CODE     NEAR LAB  ?C?CASTF
      000000FFH   NUMBER   ---       ?C?CODESEG
      00FF30EBH   CODE     NEAR LAB  ?C?FCASTC
      00FF30E6H   CODE     NEAR LAB  ?C?FCASTI
      00FF30E1H   CODE     NEAR LAB  ?C?FCASTL
      00FF375BH   CODE     ---       ?C?FP2SERIES
      00FF2EB4H   CODE     ---       ?C?FPADD
      00FF308FH   CODE     ---       ?C?FPCMP
      00FF308DH   CODE     ---       ?C?FPCMP3
      00FF3796H   CODE     ---       ?C?FPCONVERT
      00FF300CH   CODE     ---       ?C?FPDIV
      00FF32CEH   CODE     ---       ?C?FPGETOPN2
      00FF2F6CH   CODE     ---       ?C?FPMUL
      00FF330BH   CODE     ---       ?C?FPNANRESULT
      00FF30D3H   CODE     ---       ?C?FPNEG
      00FF3313H   CODE     ---       ?C?FPOVERFLOW
      00FF32E7H   CODE     ---       ?C?FPRESULT
      00FF32FDH   CODE     ---       ?C?FPRESULT2
      00FF384EH   CODE     ---       ?C?FPROUND
      00FF3764H   CODE     ---       ?C?FPSERIES
      00FF2EB1H   CODE     ---       ?C?FPSUB
      00FF3310H   CODE     ---       ?C?FPUNDERFLOW
      00FF38C1H   CODE     ---       ?C?FTNPWR
      00FF540FH   CODE     ---       ?C?INITEDATA
      00FF67E7H   HCONST   WORD      ?C?INITEDATA_END
      00FF393BH   CODE     ---       ?C?LIMUL
      00FF392AH   CODE     ---       ?C?LMUL
      00FF334CH   CODE     ---       ?C?PRNFMT
      00FF38F8H   CODE     ---       ?C?SIDIV
      00FF3997H   CODE     NEAR LAB  ?C?SLDIV
      00FF0000H   CODE     ---       ?C?STARTUP
      00FF3946H   CODE     NEAR LAB  ?C?ULDIV
      00FF3944H   CODE     NEAR LAB  ?C?ULIDIV
      00000001H   NUMBER   ---       ?C?XDATASEG
      00FF0000H   CODE     ---       ?C_STARTUP
      0000078BH   EDATA    BYTE      ?Correct_Angle?BYTE
*DEL*:1FFFFFF8H   EDATA    BYTE      ?data_conversion?BYTE
*DEL*:1FFFFFF8H   EDATA    BYTE      ?fifo_init?BYTE
*DEL*:1FFFFFFCH   EDATA    BYTE      ?fifo_read_buffer?BYTE
      00000783H   EDATA    BYTE      ?fifo_write_buffer?BYTE
*DEL*:1FFFFFFAH   EDATA    BYTE      ?iic_init?BYTE
*DEL*:1FFFFFFCH   EDATA    BYTE      ?ips114_showfloat?BYTE
*DEL*:1FFFFFFCH   EDATA    BYTE      ?ips114_showfloat_simspi?BYTE
*DEL*:1FFFFFF8H   EDATA    BYTE      ?Motor_PID_Control?BYTE
*DEL*:1FFFFFF7H   EDATA    BYTE      ?number_conversion_ascii?BYTE
*DEL*:1FFFFFF8H   EDATA    BYTE      ?pid_calc?BYTE
L251 LINKER/LOCATER V4.66.93.0                                                        04/27/2023  18:30:04  PAGE 15


      0000078BH   EDATA    BYTE      ?PID_struct_init?BYTE
*DEL*:1FFFFFF8H   EDATA    BYTE      ?position_pid_calc?BYTE
      000007BBH   EDATA    ---       ?printf?BYTE
*DEL*:1FFFFFFAH   EDATA    BYTE      ?pwm_freq?BYTE
      00000791H   EDATA    BYTE      ?pwm_init?BYTE
*DEL*:1FFFFFF7H   EDATA    BYTE      ?spi_init?BYTE
      0000078DH   EDATA    BYTE      ?uart_init?BYTE
*DEL*:00000028H   EDATA    BYTE      ?zf_sprintf?BYTE
*DEL*:00000000H   CODE     ---       abs_limit
      000007E1H   EDATA    INT       adc1
      000007E3H   EDATA    INT       adc2
      000007E5H   EDATA    INT       adc3
      000007E7H   EDATA    INT       adc4
      000007E9H   EDATA    INT       adc5
      000007EBH   EDATA    INT       adc6
      000007EDH   EDATA    INT       adc7
      000007EFH   EDATA    INT       adc8
*SFR* 000000BCH   DATA     BYTE      ADC_CONTR
      0000064CH   EDATA    FLOAT     adc_err
      00000650H   EDATA    ---       adc_err_array
      00000643H   EDATA    FLOAT     ADC_error_a
*DEL*:00000000H   CODE     ---       ADC_error_acceleration
      00FF4D69H   CODE     ---       ADC_error_processing
      00FF56BDH   CODE     ---       ADC_error_weight_filtering
      00FF4F66H   CODE     ---       ADC_error_window_filtering
      00FF4F08H   CODE     ---       adc_init
      00FF520AH   CODE     ---       adc_mean_filter
      00FF5661H   CODE     ---       adc_once
*SFR* 000000BDH   DATA     BYTE      ADC_RES
*SFR* 000000BEH   DATA     BYTE      ADC_RESL
*SFR* 000000DEH   DATA     BYTE      ADCCFG
*DEL*:00000000H   CODE     ---       Akeman_Control
      00000627H   EDATA    ---       akeman_left
      00000664H   EDATA    ---       akeman_right
*DEL*:00000000H   CODE     ---       at24c02_read_byte
*DEL*:00000000H   CODE     ---       at24c02_read_bytes
*DEL*:00000000H   CODE     ---       at24c02_write_byte
*DEL*:00000000H   CODE     ---       at24c02_write_bytes
*SFR* 000000EFH   DATA     BYTE      AUXINTIF
*SFR* 0000008EH   DATA     BYTE      AUXR
*SFR* 00000097H   DATA     BYTE      AUXR2
*DEL*:00000000H   CODE     ---       bluetooth_ch9141_init
*DEL*:00000000H   CODE     ---       bluetooth_ch9141_read_buff
*DEL*:00000000H   CODE     ---       bluetooth_ch9141_send_buff
      00FF5908H   CODE     ---       bluetooth_ch9141_uart_callback
      00FF4BC8H   CODE     ---       board_init
      00FF578CH   CODE     ---       Brushless_Init
      00000592H   EDATA    ---       busy
*SFR* 000000F1H   DATA     BYTE      CANICR
*DEL*:00000000H   CODE     ---       ccd_collect
      000003CAH   EDATA    ---       ccd_data
*DEL*:00000000H   CODE     ---       ccd_init
*DEL*:00000000H   CODE     ---       ccd_send_data
*SFR* 000000EAH   DATA     BYTE      CKCON
*SFR* 000000E6H   DATA     BYTE      CMPCR1
*SFR* 000000E7H   DATA     BYTE      CMPCR2
*DEL*:00000000H   CODE     ---       Corners_detection
      00FF4E42H   CODE     ---       Correct_Angle
      00FF31DEH   CODE     ---       COS?_
*DEL*:00000000H   CODE     ---       CRC_CHECK
*DEL*:00000000H   CODE     ---       ctimer_count_clean
      00FF5257H   CODE     ---       ctimer_count_init
*DEL*:00000000H   CODE     ---       ctimer_count_read
*DEL*:00000000H   CODE     ---       data_conversion
      00FF552DH   CODE     ---       delay_init
L251 LINKER/LOCATER V4.66.93.0                                                        04/27/2023  18:30:04  PAGE 16


      00FF596BH   CODE     ---       delay_ms
      00FF58EFH   CODE     ---       delay_us
*DEL*:00000000H   CODE     ---       DisableGlobalIRQ
      00000844H   EDATA    WORD      dl1a_distance_mm
      00000846H   EDATA    BYTE      dl1a_finsh_flag
*DEL*:00000000H   CODE     ---       dl1a_get_distance
*DEL*:00000000H   CODE     ---       dl1a_init
*SFR* 000000A8H.7 DATA     BIT       EA
*SFR* 000000BAH.7 DATA     BIT       EAXFR
      00FF5998H   CODE     ---       eeprom_trig
      00FF000EH   CODE     ---       EnableGlobalIRQ
*DEL*:00000000H   CODE     ---       encoder_angle_simspi
*DEL*:00000000H   CODE     ---       encoder_angle_spi
*DEL*:00000000H   CODE     ---       Encoder_Clear
      00FF0006H   CODE     ---       encoder_delay_us
*DEL*:00000000H   CODE     ---       encoder_init_simspi
*DEL*:00000000H   CODE     ---       encoder_init_spi
*DEL*:00000000H   CODE     ---       Encoder_Read
*DEL*:00000000H   CODE     ---       encoder_self4_check
*DEL*:00000000H   CODE     ---       encoder_self5_check
*DEL*:00000000H   CODE     ---       encoder_simspi_r_reg_byte
*DEL*:00000000H   CODE     ---       encoder_simspi_w_reg_byte
*DEL*:00000000H   CODE     ---       encoder_spi_r_reg_byte
*DEL*:00000000H   CODE     ---       encoder_spi_w_reg_byte
*SFR* 000000A8H.4 DATA     BIT       ES
*SFR* 000000A8H.1 DATA     BIT       ET0
*SFR* 000000A8H.3 DATA     BIT       ET1
*SFR* 000000A8H.0 DATA     BIT       EX0
*SFR* 000000A8H.2 DATA     BIT       EX1
*DEL*:00000000H   CODE     ---       exit_init
*DEL*:00000000H   CODE     ---       extern_iap_write_bytes
*SFR* 000000D0H.5 DATA     BIT       F0
      00FF5AE8H   HCONST   ---       F6x8
      00FF5D10H   HCONST   ---       F8X16
      00FF3187H   CODE     NEAR LAB  fabs?_
*DEL*:00000000H   CODE     ---       fifo_clear
*DEL*:00000000H   CODE     ---       fifo_end_offset
      00FF53BAH   CODE     ---       fifo_head_offset
*DEL*:00000000H   CODE     ---       fifo_init
*DEL*:00000000H   CODE     ---       fifo_read_buffer
*DEL*:00000000H   CODE     ---       fifo_used
      00FF4758H   CODE     ---       fifo_write_buffer
      00FF39CBH   CODE     ---       gpio_mode
*DEL*:00000000H   CODE     ---       gpio_pull_set
      00000008H   EDATA    ---       Hzk
*SFR* 000000F6H   DATA     BYTE      IAP_ADDRE
*SFR* 000000C3H   DATA     BYTE      IAP_ADDRH
*SFR* 000000C4H   DATA     BYTE      IAP_ADDRL
*SFR* 000000C5H   DATA     BYTE      IAP_CMD
*SFR* 000000C7H   DATA     BYTE      IAP_CONTR
*SFR* 000000C2H   DATA     BYTE      IAP_DATA
*DEL*:00000000H   CODE     ---       iap_erase_page
*DEL*:00000000H   CODE     ---       iap_get_cmd_state
*DEL*:00000000H   CODE     ---       iap_idle
*DEL*:00000000H   CODE     ---       iap_init
*DEL*:00000000H   CODE     ---       iap_read_bytes
*DEL*:00000000H   CODE     ---       iap_set_tps
*SFR* 000000F5H   DATA     BYTE      IAP_TPS
*SFR* 000000C6H   DATA     BYTE      IAP_TRIG
*DEL*:00000000H   CODE     ---       iap_write_bytes
*DEL*:00000000H   CODE     ---       icm20602_acc_transition
      000007F1H   EDATA    INT       icm20602_acc_x
      000007F3H   EDATA    INT       icm20602_acc_y
      000007F5H   EDATA    INT       icm20602_acc_z
*DEL*:00000000H   CODE     ---       icm20602_get_acc
L251 LINKER/LOCATER V4.66.93.0                                                        04/27/2023  18:30:04  PAGE 17


*DEL*:00000000H   CODE     ---       icm20602_get_gyro
*DEL*:00000000H   CODE     ---       icm20602_gyro_transition
      000007F7H   EDATA    INT       icm20602_gyro_x
      000007F9H   EDATA    INT       icm20602_gyro_y
      000007FBH   EDATA    INT       icm20602_gyro_z
*DEL*:00000000H   CODE     ---       icm20602_init
*SFR* 000000A8H   DATA     BYTE      IE
*SFR* 000000AFH   DATA     BYTE      IE2
*DEL*:00000000H   CODE     ---       iic_change_pin
      00FF59ADH   CODE     ---       iic_delay_us
*DEL*:00000000H   CODE     ---       iic_init
*DEL*:00000000H   CODE     ---       iic_read_reg
*DEL*:00000000H   CODE     ---       iic_read_reg_bytes
*DEL*:00000000H   CODE     ---       iic_write_reg
*DEL*:00000000H   CODE     ---       imu660ra_acc_transition
      000007FDH   EDATA    INT       imu660ra_acc_x
      000007FFH   EDATA    INT       imu660ra_acc_y
      00000801H   EDATA    INT       imu660ra_acc_z
      00FF00A6H   CODE     ---       imu660ra_config_file
*DEL*:00000000H   CODE     ---       imu660ra_get_acc
*DEL*:00000000H   CODE     ---       imu660ra_get_gyro
*DEL*:00000000H   CODE     ---       imu660ra_gyro_transition
      00000803H   EDATA    INT       imu660ra_gyro_x
      00000805H   EDATA    INT       imu660ra_gyro_y
      00000807H   EDATA    INT       imu660ra_gyro_z
*DEL*:00000000H   CODE     ---       imu660ra_init
*DEL*:00000000H   CODE     ---       imu963ra_acc_transition
      000007CFH   EDATA    INT       imu963ra_acc_x
      000007D1H   EDATA    INT       imu963ra_acc_y
      000007D3H   EDATA    INT       imu963ra_acc_z
*DEL*:00000000H   CODE     ---       imu963ra_get_acc
*DEL*:00000000H   CODE     ---       imu963ra_get_gyro
*DEL*:00000000H   CODE     ---       imu963ra_get_mag
*DEL*:00000000H   CODE     ---       imu963ra_gyro_transition
      000007DBH   EDATA    INT       imu963ra_gyro_x
      000007DDH   EDATA    INT       imu963ra_gyro_y
      000007DFH   EDATA    INT       imu963ra_gyro_z
*DEL*:00000000H   CODE     ---       imu963ra_init
*DEL*:00000000H   CODE     ---       imu963ra_mag_transition
      000007D5H   EDATA    INT       imu963ra_mag_x
      000007D7H   EDATA    INT       imu963ra_mag_y
      000007D9H   EDATA    INT       imu963ra_mag_z
      000007BBH   EDATA    ---       inf
      00FF5ADAH   CODE     ---       INT0_Isr
      00FF0011H   CODE     ---       INT1_Isr
      00FF5AAAH   CODE     ---       INT2_Isr
      00FF5AB2H   CODE     ---       INT3_Isr
      00FF5ABAH   CODE     ---       INT4_Isr
*SFR* 0000008FH   DATA     BYTE      INTCLKO
*SFR* 000000B8H   DATA     BYTE      IP
*SFR* 000000B5H   DATA     BYTE      IP2
*SFR* 000000B6H   DATA     BYTE      IP2H
*SFR* 000000DFH   DATA     BYTE      IP3
*SFR* 000000EEH   DATA     BYTE      IP3H
*SFR* 000000B7H   DATA     BYTE      IPH
*DEL*:00000000H   CODE     ---       ips114_clear
*DEL*:00000000H   CODE     ---       ips114_clear_simspi
*DEL*:00000000H   CODE     ---       ips114_drawpoint
*DEL*:00000000H   CODE     ---       ips114_drawpoint_simspi
*DEL*:00000000H   CODE     ---       ips114_init
*DEL*:00000000H   CODE     ---       ips114_init_simspi
*DEL*:00000000H   CODE     ---       ips114_set_region
*DEL*:00000000H   CODE     ---       ips114_set_region_simspi
*DEL*:00000000H   CODE     ---       ips114_showchar
*DEL*:00000000H   CODE     ---       ips114_showchar_simspi
L251 LINKER/LOCATER V4.66.93.0                                                        04/27/2023  18:30:04  PAGE 18


*DEL*:00000000H   CODE     ---       ips114_showfloat
*DEL*:00000000H   CODE     ---       ips114_showfloat_simspi
*DEL*:00000000H   CODE     ---       ips114_showint16
*DEL*:00000000H   CODE     ---       ips114_showint16_simspi
*DEL*:00000000H   CODE     ---       ips114_showint32
*DEL*:00000000H   CODE     ---       ips114_showint32_simspi
*DEL*:00000000H   CODE     ---       ips114_showint8
*DEL*:00000000H   CODE     ---       ips114_showint8_simspi
*DEL*:00000000H   CODE     ---       ips114_showstr
*DEL*:00000000H   CODE     ---       ips114_showstr_simspi
*DEL*:00000000H   CODE     ---       ips114_showuint16
*DEL*:00000000H   CODE     ---       ips114_showuint16_simspi
*DEL*:00000000H   CODE     ---       ips114_showuint8
*DEL*:00000000H   CODE     ---       ips114_showuint8_simspi
*DEL*:00000000H   CODE     ---       ips114_writeData
      00FF5879H   CODE     ---       ips114_writedata_16bit
*DEL*:00000000H   CODE     ---       ips114_writeData_simspi
      00FF56EBH   CODE     ---       ips114_writeDatai_16bit_simspi
      00FF5A8FH   CODE     ---       ips114_writeIndex
      00FF5717H   CODE     ---       ips114_writeIndex_simspi
*SFR* 0000009DH   DATA     BYTE      IRCBAND
*SFR* 0000009FH   DATA     BYTE      IRTRIM
*SFR* 00000088H.0 DATA     BIT       IT0
*SFR* 00000088H.2 DATA     BIT       IT1
*DEL*:00000000H   CODE     ---       Key_Scan
*SFR* 000000F9H   DATA     BYTE      LINICR
      00FF4640H   CODE     ---       main
      00FF5767H   CODE     ---       memcpy?_
*DEL*:00000000H   CODE     ---       memset?_
      00FF4A89H   CODE     ---       Motor_Control
      00FF516DH   CODE     ---       Motor_Init
*DEL*:00000000H   CODE     ---       Motor_PID_Control
*DEL*:00000000H   CODE     ---       Motor_Shut
      00000809H   EDATA    INT       mpu6050_acc_x
      0000080BH   EDATA    INT       mpu6050_acc_y
      0000080DH   EDATA    INT       mpu6050_acc_z
*DEL*:00000000H   CODE     ---       mpu6050_get_accdata
*DEL*:00000000H   CODE     ---       mpu6050_get_gyro
      0000080FH   EDATA    INT       mpu6050_gyro_x
      00000811H   EDATA    INT       mpu6050_gyro_y
      00000813H   EDATA    INT       mpu6050_gyro_z
*DEL*:00000000H   CODE     ---       mpu6050_init
*DEL*:00000000H   CODE     ---       mpu6050_simiic_read_reg
*DEL*:00000000H   CODE     ---       mpu6050_simiic_read_regs
      00FF52A1H   CODE     ---       My_Adc_Init
*DEL*:00000000H   CODE     ---       number_conversion_ascii
*DEL*:00000000H   CODE     ---       NVIC_SetPriority
      00FF2C86H   CODE     ---       oled_6x8
      00FF20A6H   CODE     ---       oled_8x16
      00FF55CFH   CODE     ---       OLED_Clear
*SFR* 00000080H.2 DATA     BIT       OLED_CS
*SFR* 000000C8H.2 DATA     BIT       OLED_DC
*DEL*:00000000H   CODE     ---       OLED_Display_Off
*DEL*:00000000H   CODE     ---       OLED_Display_On
*DEL*:00000000H   CODE     ---       OLED_DrawBMP
      00FF49DBH   CODE     ---       OLED_Init
*DEL*:00000000H   CODE     ---       oled_pow
*SFR* 000000C8H.1 DATA     BIT       OLED_RST
*SFR* 000000B0H.7 DATA     BIT       OLED_SCL
*SFR* 000000B0H.6 DATA     BIT       OLED_SDIN
      00FF5740H   CODE     ---       OLED_Set_Pos
*DEL*:00000000H   CODE     ---       OLED_ShowChar
*DEL*:00000000H   CODE     ---       OLED_ShowCHinese
*DEL*:00000000H   CODE     ---       OLED_ShowNum
*DEL*:00000000H   CODE     ---       OLED_ShowString
L251 LINKER/LOCATER V4.66.93.0                                                        04/27/2023  18:30:04  PAGE 19


      00FF4FC1H   CODE     ---       OLED_WR_Byte
      0000063BH   EDATA    FLOAT     order_angle
      0000063FH   EDATA    FLOAT     order_speed
*SFR* 00000080H   DATA     BYTE      P0
*SFR* 00000080H.7 DATA     BIT       P07
*SFR* 00000094H   DATA     BYTE      P0M0
*SFR* 00000093H   DATA     BYTE      P0M1
*SFR* 00000090H   DATA     BYTE      P1
*SFR* 00000092H   DATA     BYTE      P1M0
*SFR* 00000091H   DATA     BYTE      P1M1
*SFR* 000000A0H   DATA     BYTE      P2
*SFR* 000000A0H.0 DATA     BIT       P20
*SFR* 000000A0H.1 DATA     BIT       P21
*SFR* 000000A0H.2 DATA     BIT       P22
*SFR* 000000A0H.3 DATA     BIT       P23
*SFR* 000000A0H.4 DATA     BIT       P24
*SFR* 000000A0H.5 DATA     BIT       P25
*SFR* 000000A0H.6 DATA     BIT       P26
*SFR* 000000A0H.7 DATA     BIT       P27
*SFR* 00000096H   DATA     BYTE      P2M0
*SFR* 00000095H   DATA     BYTE      P2M1
*SFR* 000000B0H   DATA     BYTE      P3
*SFR* 000000B0H.2 DATA     BIT       P32
*SFR* 000000B0H.3 DATA     BIT       P33
*SFR* 000000B0H.5 DATA     BIT       P35
*SFR* 000000B2H   DATA     BYTE      P3M0
*SFR* 000000B1H   DATA     BYTE      P3M1
*SFR* 000000C0H   DATA     BYTE      P4
*SFR* 000000C0H.0 DATA     BIT       P40
*SFR* 000000C0H.1 DATA     BIT       P41
*SFR* 000000C0H.2 DATA     BIT       P42
*SFR* 000000C0H.3 DATA     BIT       P43
*SFR* 000000C0H.4 DATA     BIT       P44
*SFR* 000000C0H.5 DATA     BIT       P45
*SFR* 000000B4H   DATA     BYTE      P4M0
*SFR* 000000B3H   DATA     BYTE      P4M1
*SFR* 000000C8H   DATA     BYTE      P5
*SFR* 000000C8H.0 DATA     BIT       P50
*SFR* 000000C8H.3 DATA     BIT       P53
*SFR* 000000CAH   DATA     BYTE      P5M0
*SFR* 000000C9H   DATA     BYTE      P5M1
*SFR* 000000E8H   DATA     BYTE      P6
*SFR* 000000CCH   DATA     BYTE      P6M0
*SFR* 000000CBH   DATA     BYTE      P6M1
*SFR* 000000F8H   DATA     BYTE      P7
*SFR* 000000F8H.0 DATA     BIT       P70
*SFR* 000000F8H.1 DATA     BIT       P71
*SFR* 000000F8H.2 DATA     BIT       P72
*SFR* 000000F8H.3 DATA     BIT       P73
*SFR* 000000E2H   DATA     BYTE      P7M0
*SFR* 000000E1H   DATA     BYTE      P7M1
*SFR* 000000A2H   DATA     BYTE      P_SW1
*SFR* 000000BAH   DATA     BYTE      P_SW2
*SFR* 000000BBH   DATA     BYTE      P_SW3
*SFR* 00000087H   DATA     BYTE      PCON
*DEL*:00000000H   CODE     ---       pid_calc
*DEL*:00000000H   CODE     ---       pid_clear_integral
      0000064BH   EDATA    BYTE      pid_flag
      000005DFH   EDATA    ---       pid_left_
*DEL*:00000000H   CODE     ---       PID_off
      00FF5AE1H   CODE     ---       PID_on
      00000597H   EDATA    ---       pid_right_
      00FF4EA9H   CODE     ---       PID_struct_init
      00FF4C5CH   CODE     ---       pit_timer_ms
*DEL*:00000000H   CODE     ---       position_pid_calc
L251 LINKER/LOCATER V4.66.93.0                                                        04/27/2023  18:30:04  PAGE 20


      00FF315BH   CODE     NEAR LAB  printf
*DEL*:00000000H   CODE     ---       printf_reverse_order
*SFR* 000000D0H   DATA     BYTE      PSW
      00000842H   EDATA    INT       pulse_left
      00000840H   EDATA    INT       pulse_right
      00FF5A5BH   CODE     ---       putchar
      00FF6809H   HCONST   ---       PWM_ARR_ADDR
      00FF6811H   HCONST   ---       PWM_CCER_ADDR
      00FF6821H   HCONST   ---       PWM_CCMR_ADDR
      00FF67E9H   HCONST   ---       PWM_CCR_ADDR
      00FF4913H   CODE     ---       pwm_duty
*DEL*:00000000H   CODE     ---       pwm_freq
      00FF3DC2H   CODE     ---       pwm_init
      00FF40BEH   CODE     ---       pwm_set_gpio
      00FF4CF0H   CODE     ---       Read_Adc_Value
*DEL*:00000000H   CODE     ---       recv_ack
*DEL*:00000000H   CODE     ---       recv_data
*DEL*:00000000H   CODE     ---       Roundabout_detection
      00000649H   EDATA    INT       Roundabout_flag
*SFR* 000000FFH   DATA     BYTE      RSTCFG
*SFR* 0000009BH   DATA     BYTE      S2BUF
*SFR* 0000009AH   DATA     BYTE      S2CON
*SFR* 000000ADH   DATA     BYTE      S3BUF
*SFR* 000000ACH   DATA     BYTE      S3CON
*SFR* 000000FEH   DATA     BYTE      S4BUF
*SFR* 000000FDH   DATA     BYTE      S4CON
*SFR* 00000099H   DATA     BYTE      SBUF
*SFR* 00000098H   DATA     BYTE      SCON
*DEL*:00000000H   CODE     ---       send_ack
*DEL*:00000000H   CODE     ---       send_data
*DEL*:00000000H   CODE     ---       send_four_data
*DEL*:00000000H   CODE     ---       send_nak
*DEL*:00000000H   CODE     ---       Set_Brushless_Output
      00FF451EH   CODE     ---       set_clk
*DEL*:00000000H   CODE     ---       set_zero_position_simspi
*DEL*:00000000H   CODE     ---       set_zero_position_spi
      000003C8H   EDATA    BYTE      show_mode
*DEL*:00000000H   CODE     ---       simspi_r_reg_byte
*DEL*:00000000H   CODE     ---       simspi_w_reg_byte
*DEL*:00000000H   CODE     ---       simspi_wr_byte
      00FF31FBH   CODE     ---       SIN?_
*SFR* 000000CEH   DATA     BYTE      SPCTL
*SFR* 000000CFH   DATA     BYTE      SPDAT
*DEL*:00000000H   CODE     ---       spi_change_mode
*DEL*:00000000H   CODE     ---       spi_change_pin
*DEL*:00000000H   CODE     ---       spi_init
      00FF5A69H   CODE     ---       spi_mosi
*DEL*:00000000H   CODE     ---       spi_r_reg_byte
*DEL*:00000000H   CODE     ---       spi_w_reg_byte
*DEL*:00000000H   CODE     ---       spi_wr_byte
*SFR* 000000CDH   DATA     BYTE      SPSTAT
*DEL*:00000000H   CODE     ---       start
      00FF59D5H   CODE     ---       Steer_Init
      00FF4B2EH   CODE     ---       Steer_Spin
*DEL*:00000000H   CODE     ---       stop
      00000830H   EDATA    LONG      sys_clk
*SFR* 000000D6H   DATA     BYTE      T2H
*SFR* 000000D7H   DATA     BYTE      T2L
*SFR* 000000D4H   DATA     BYTE      T3H
*SFR* 000000D5H   DATA     BYTE      T3L
*SFR* 000000D2H   DATA     BYTE      T4H
*SFR* 000000D3H   DATA     BYTE      T4L
*SFR* 000000DDH   DATA     BYTE      T4T3M
      00FF3228H   CODE     ---       tan?_
*SFR* 00000088H   DATA     BYTE      TCON
L251 LINKER/LOCATER V4.66.93.0                                                        04/27/2023  18:30:04  PAGE 21


      00FF2696H   CODE     ---       tft_ascii
*SFR* 0000008CH   DATA     BYTE      TH0
*SFR* 0000008DH   DATA     BYTE      TH1
      00FF5A99H   CODE     ---       Timer4_Init
*SFR* 0000008AH   DATA     BYTE      TL0
*SFR* 0000008BH   DATA     BYTE      TL1
      00FF0012H   CODE     ---       TM0_Isr
      00FF0016H   CODE     ---       TM1_Isr
      00FF5AC2H   CODE     ---       TM2_Isr
      00FF5ACAH   CODE     ---       TM3_Isr
      00FF5AD2H   CODE     ---       TM4_Isr
*SFR* 00000089H   DATA     BYTE      TMOD
*SFR* 00000088H.4 DATA     BIT       TR0
*SFR* 00000088H.6 DATA     BIT       TR1
      000003C9H   EDATA    BYTE      tsl1401_finish_flag
      00FF5479H   CODE     ---       UART1_Isr
      000004CAH   EDATA    ---       uart1_rx_buff
      0000052EH   EDATA    ---       uart1_tx_buff
      00FF5898H   CODE     ---       UART2_Isr
      00FF58B6H   CODE     ---       UART3_Isr
      00FF4DD9H   CODE     ---       UART4_Isr
      00FF435FH   CODE     ---       uart_init
*DEL*:00000000H   CODE     ---       uart_putbuff
      00FF5073H   CODE     ---       uart_putchar
*DEL*:00000000H   CODE     ---       uart_putstr
*SFR* 000000F4H   DATA     BYTE      USBCON
      00000815H   EDATA    ---       virtual_scope_data
*SFR* 000000A6H   DATA     BYTE      VRTRIM
      00FF5331H   CODE     ---       wait
*SFR* 000000C1H   DATA     BYTE      WDT_CONTR
      00000647H   EDATA    INT       window_flag
      00FF593AH   CODE     ---       wireless_ch573_callback
*DEL*:00000000H   CODE     ---       wireless_ch573_init
*DEL*:00000000H   CODE     ---       wireless_ch573_read_buff
*DEL*:00000000H   CODE     ---       wireless_ch573_send_buff
      00000847H   EDATA    INT       wireless_type
      00FF5921H   CODE     ---       wireless_uart_callback
*DEL*:00000000H   CODE     ---       wireless_uart_init
*DEL*:00000000H   CODE     ---       wireless_uart_read_buff
*DEL*:00000000H   CODE     ---       wireless_uart_send_buff
*SFR* 000000E9H   DATA     BYTE      WTST
      00000834H   EDATA    WORD      zf_delay_ms
      00000836H   EDATA    WORD      zf_delay_us
*DEL*:00000000H   CODE     ---       zf_sprintf



SYMBOL TABLE OF MODULE:  .\Out_File\SEEKFREE (board)

      VALUE       REP       CLASS    TYPE      SYMBOL NAME
      ====================================================
      ---         MODULE    ---      ---       board
      00FF000EH   PUBLIC    CODE     ---       EnableGlobalIRQ
      00FF4BC8H   PUBLIC    CODE     ---       board_init
      00FF451EH   PUBLIC    CODE     ---       set_clk
      00FF5A5BH   PUBLIC    CODE     ---       putchar
      00000830H   PUBLIC    EDATA    LONG      sys_clk
      00000094H   SFRSYM    DATA     BYTE      P0M0
      000000D0H   SFRSYM    DATA     BYTE      PSW
      000000BAH.7 SFRSYM    DATA     BIT       EAXFR
      0000009DH   SFRSYM    DATA     BYTE      IRCBAND
      00000097H   SFRSYM    DATA     BYTE      AUXR2
      000000EAH   SFRSYM    DATA     BYTE      CKCON
      000000EFH   SFRSYM    DATA     BYTE      AUXINTIF
      000000FDH   SFRSYM    DATA     BYTE      S4CON
L251 LINKER/LOCATER V4.66.93.0                                                        04/27/2023  18:30:04  PAGE 22


      000000ACH   SFRSYM    DATA     BYTE      S3CON
      0000009AH   SFRSYM    DATA     BYTE      S2CON
      000000A6H   SFRSYM    DATA     BYTE      VRTRIM
      000000B7H   SFRSYM    DATA     BYTE      IPH
      000000CDH   SFRSYM    DATA     BYTE      SPSTAT
      000000DDH   SFRSYM    DATA     BYTE      T4T3M
      0000009FH   SFRSYM    DATA     BYTE      IRTRIM
      000000C1H   SFRSYM    DATA     BYTE      WDT_CONTR
      000000E9H   SFRSYM    DATA     BYTE      WTST
      000000DFH   SFRSYM    DATA     BYTE      IP3
      000000F4H   SFRSYM    DATA     BYTE      USBCON
      000000B5H   SFRSYM    DATA     BYTE      IP2
      000000FFH   SFRSYM    DATA     BYTE      RSTCFG
      000000F9H   SFRSYM    DATA     BYTE      LINICR
      0000008EH   SFRSYM    DATA     BYTE      AUXR
      000000AFH   SFRSYM    DATA     BYTE      IE2
      00000088H   SFRSYM    DATA     BYTE      TCON
      00000089H   SFRSYM    DATA     BYTE      TMOD
      00000098H   SFRSYM    DATA     BYTE      SCON
      000000F1H   SFRSYM    DATA     BYTE      CANICR
      00000087H   SFRSYM    DATA     BYTE      PCON
      000000BCH   SFRSYM    DATA     BYTE      ADC_CONTR
      000000E7H   SFRSYM    DATA     BYTE      CMPCR2
      000000E6H   SFRSYM    DATA     BYTE      CMPCR1
      000000DEH   SFRSYM    DATA     BYTE      ADCCFG
      000000B8H   SFRSYM    DATA     BYTE      IP
      0000008FH   SFRSYM    DATA     BYTE      INTCLKO
      000000EEH   SFRSYM    DATA     BYTE      IP3H
      000000B6H   SFRSYM    DATA     BYTE      IP2H
      000000A8H   SFRSYM    DATA     BYTE      IE
      000000BBH   SFRSYM    DATA     BYTE      P_SW3
      000000BAH   SFRSYM    DATA     BYTE      P_SW2
      000000A2H   SFRSYM    DATA     BYTE      P_SW1
      000000CEH   SFRSYM    DATA     BYTE      SPCTL
      000000F8H   SFRSYM    DATA     BYTE      P7
      000000A8H.7 SFRSYM    DATA     BIT       EA
      000000E1H   SFRSYM    DATA     BYTE      P7M1
      000000E8H   SFRSYM    DATA     BYTE      P6
      000000C8H   SFRSYM    DATA     BYTE      P5
      000000CBH   SFRSYM    DATA     BYTE      P6M1
      000000E2H   SFRSYM    DATA     BYTE      P7M0
      000000C0H   SFRSYM    DATA     BYTE      P4
      000000C9H   SFRSYM    DATA     BYTE      P5M1
      000000CCH   SFRSYM    DATA     BYTE      P6M0
      000000B0H   SFRSYM    DATA     BYTE      P3
      000000B3H   SFRSYM    DATA     BYTE      P4M1
      000000CAH   SFRSYM    DATA     BYTE      P5M0
      000000A0H   SFRSYM    DATA     BYTE      P2
      000000B1H   SFRSYM    DATA     BYTE      P3M1
      000000B4H   SFRSYM    DATA     BYTE      P4M0
      00000090H   SFRSYM    DATA     BYTE      P1
      00000095H   SFRSYM    DATA     BYTE      P2M1
      000000B2H   SFRSYM    DATA     BYTE      P3M0
      00000080H   SFRSYM    DATA     BYTE      P0
      00000091H   SFRSYM    DATA     BYTE      P1M1
      00000096H   SFRSYM    DATA     BYTE      P2M0
      00000092H   SFRSYM    DATA     BYTE      P1M0
      00000093H   SFRSYM    DATA     BYTE      P0M1

      00FF451EH   BLOCK     CODE     ---       LVL=0
      00FF451EH   LINE      CODE     ---       #43
      00FF451EH   LINE      CODE     ---       #46
      00FF4521H   LINE      CODE     ---       #48
      00FF4531H   LINE      CODE     ---       #51
      00FF453EH   LINE      CODE     ---       #52
L251 LINKER/LOCATER V4.66.93.0                                                        04/27/2023  18:30:04  PAGE 23


      00FF4542H   LINE      CODE     ---       #53
      00FF4542H   LINE      CODE     ---       #54
      00FF4542H   LINE      CODE     ---       #55
      00FF4542H   LINE      CODE     ---       #56
      00FF4544H   LINE      CODE     ---       #57
      00FF4550H   LINE      CODE     ---       #60
      00FF455DH   LINE      CODE     ---       #61
      00FF4561H   LINE      CODE     ---       #62
      00FF4561H   LINE      CODE     ---       #63
      00FF4561H   LINE      CODE     ---       #64
      00FF4561H   LINE      CODE     ---       #65
      00FF4563H   LINE      CODE     ---       #66
      00FF456FH   LINE      CODE     ---       #69
      00FF457CH   LINE      CODE     ---       #70
      00FF4580H   LINE      CODE     ---       #71
      00FF4580H   LINE      CODE     ---       #72
      00FF4580H   LINE      CODE     ---       #73
      00FF4580H   LINE      CODE     ---       #74
      00FF4582H   LINE      CODE     ---       #75
      00FF458EH   LINE      CODE     ---       #79
      00FF459BH   LINE      CODE     ---       #80
      00FF459FH   LINE      CODE     ---       #81
      00FF459FH   LINE      CODE     ---       #82
      00FF459FH   LINE      CODE     ---       #83
      00FF459FH   LINE      CODE     ---       #84
      00FF45A1H   LINE      CODE     ---       #85
      00FF45ADH   LINE      CODE     ---       #88
      00FF45BAH   LINE      CODE     ---       #89
      00FF45C7H   LINE      CODE     ---       #90
      00FF45D0H   LINE      CODE     ---       #91
      00FF45D3H   LINE      CODE     ---       #92
      00FF45D3H   LINE      CODE     ---       #93
      00FF45D5H   LINE      CODE     ---       #94
      00FF45E1H   LINE      CODE     ---       #97
      00FF45EEH   LINE      CODE     ---       #98
      00FF45FBH   LINE      CODE     ---       #99
      00FF4604H   LINE      CODE     ---       #100
      00FF4607H   LINE      CODE     ---       #101
      00FF460BH   LINE      CODE     ---       #102
      00FF460DH   LINE      CODE     ---       #105
      00FF4611H   LINE      CODE     ---       #107
      00FF461EH   LINE      CODE     ---       #108
      00FF462BH   LINE      CODE     ---       #109
      00FF4634H   LINE      CODE     ---       #110
      00FF4637H   LINE      CODE     ---       #111
      00FF463BH   LINE      CODE     ---       #112
      00FF463BH   LINE      CODE     ---       #114
      00FF463FH   LINE      CODE     ---       #115
      ---         BLOCKEND  ---      ---       LVL=0

      00FF4BC8H   BLOCK     CODE     ---       LVL=0
      00FF4BC8H   LINE      CODE     ---       #121
      00FF4BC8H   LINE      CODE     ---       #123
      00FF4BCBH   LINE      CODE     ---       #124
      00FF4BCEH   LINE      CODE     ---       #125
      00FF4BD1H   LINE      CODE     ---       #126
      00FF4BD4H   LINE      CODE     ---       #127
      00FF4BD7H   LINE      CODE     ---       #137
      00FF4BDEH   LINE      CODE     ---       #143
      00FF4BE1H   LINE      CODE     ---       #145
      00FF4BE4H   LINE      CODE     ---       #146
      00FF4BE7H   LINE      CODE     ---       #147
      00FF4BF3H   LINE      CODE     ---       #149
      00FF4BF6H   LINE      CODE     ---       #150
      00FF4BF9H   LINE      CODE     ---       #151
L251 LINKER/LOCATER V4.66.93.0                                                        04/27/2023  18:30:04  PAGE 24


      00FF4BFCH   LINE      CODE     ---       #152
      00FF4BFFH   LINE      CODE     ---       #153
      00FF4C02H   LINE      CODE     ---       #154
      00FF4C05H   LINE      CODE     ---       #155
      00FF4C08H   LINE      CODE     ---       #156
      00FF4C0BH   LINE      CODE     ---       #157
      00FF4C0EH   LINE      CODE     ---       #158
      00FF4C11H   LINE      CODE     ---       #159
      00FF4C14H   LINE      CODE     ---       #160
      00FF4C17H   LINE      CODE     ---       #161
      00FF4C1AH   LINE      CODE     ---       #162
      00FF4C1DH   LINE      CODE     ---       #163
      00FF4C20H   LINE      CODE     ---       #164
      00FF4C23H   LINE      CODE     ---       #166
      00FF4C26H   LINE      CODE     ---       #167
      00FF4C29H   LINE      CODE     ---       #168
      00FF4C2CH   LINE      CODE     ---       #169
      00FF4C2FH   LINE      CODE     ---       #170
      00FF4C32H   LINE      CODE     ---       #171
      00FF4C35H   LINE      CODE     ---       #172
      00FF4C38H   LINE      CODE     ---       #173
      00FF4C3BH   LINE      CODE     ---       #174
      00FF4C3EH   LINE      CODE     ---       #176
      00FF4C59H   LINE      CODE     ---       #177
      ---         BLOCKEND  ---      ---       LVL=0

      00FF5A5BH   BLOCK     CODE     ---       LVL=0
      R15         REGSYM    ---      CHAR      c
      00FF5A5BH   LINE      CODE     ---       #183
      00FF5A5FH   LINE      CODE     ---       #185
      00FF5A64H   LINE      CODE     ---       #187
      00FF5A66H   LINE      CODE     ---       #188
      ---         BLOCKEND  ---      ---       LVL=0

      00FF000EH   BLOCK     CODE     ---       LVL=0
      00FF000EH   LINE      CODE     ---       #197
      00FF000EH   LINE      CODE     ---       #199
      00FF0010H   LINE      CODE     ---       #200
      ---         BLOCKEND  ---      ---       LVL=0

      ---         MODULE    ---      ---       common
      00000847H   PUBLIC    EDATA    INT       wireless_type
      000000D0H   SFRSYM    DATA     BYTE      PSW
      0000009DH   SFRSYM    DATA     BYTE      IRCBAND
      00000097H   SFRSYM    DATA     BYTE      AUXR2
      000000EFH   SFRSYM    DATA     BYTE      AUXINTIF
      000000FDH   SFRSYM    DATA     BYTE      S4CON
      000000ACH   SFRSYM    DATA     BYTE      S3CON
      0000009AH   SFRSYM    DATA     BYTE      S2CON
      000000B7H   SFRSYM    DATA     BYTE      IPH
      000000CDH   SFRSYM    DATA     BYTE      SPSTAT
      000000DDH   SFRSYM    DATA     BYTE      T4T3M
      000000C1H   SFRSYM    DATA     BYTE      WDT_CONTR
      000000DFH   SFRSYM    DATA     BYTE      IP3
      000000F4H   SFRSYM    DATA     BYTE      USBCON
      000000B5H   SFRSYM    DATA     BYTE      IP2
      000000FFH   SFRSYM    DATA     BYTE      RSTCFG
      000000F9H   SFRSYM    DATA     BYTE      LINICR
      0000008EH   SFRSYM    DATA     BYTE      AUXR
      000000AFH   SFRSYM    DATA     BYTE      IE2
      00000088H   SFRSYM    DATA     BYTE      TCON
      00000098H   SFRSYM    DATA     BYTE      SCON
      000000F1H   SFRSYM    DATA     BYTE      CANICR
      00000087H   SFRSYM    DATA     BYTE      PCON
      000000BCH   SFRSYM    DATA     BYTE      ADC_CONTR
L251 LINKER/LOCATER V4.66.93.0                                                        04/27/2023  18:30:04  PAGE 25


      000000E7H   SFRSYM    DATA     BYTE      CMPCR2
      000000E6H   SFRSYM    DATA     BYTE      CMPCR1
      000000B8H   SFRSYM    DATA     BYTE      IP
      0000008FH   SFRSYM    DATA     BYTE      INTCLKO
      000000EEH   SFRSYM    DATA     BYTE      IP3H
      000000B6H   SFRSYM    DATA     BYTE      IP2H
      000000A8H   SFRSYM    DATA     BYTE      IE
      000000BBH   SFRSYM    DATA     BYTE      P_SW3
      000000BAH   SFRSYM    DATA     BYTE      P_SW2
      000000A2H   SFRSYM    DATA     BYTE      P_SW1
      000000CEH   SFRSYM    DATA     BYTE      SPCTL
      000000F8H   SFRSYM    DATA     BYTE      P7
      000000E8H   SFRSYM    DATA     BYTE      P6
      000000C8H   SFRSYM    DATA     BYTE      P5
      000000C0H   SFRSYM    DATA     BYTE      P4
      000000B0H   SFRSYM    DATA     BYTE      P3
      000000A0H   SFRSYM    DATA     BYTE      P2
      00000090H   SFRSYM    DATA     BYTE      P1
      00000080H   SFRSYM    DATA     BYTE      P0

      ---         MODULE    ---      ---       zf_adc
      00FF5661H   PUBLIC    CODE     ---       adc_once
      00FF4F08H   PUBLIC    CODE     ---       adc_init
      00000094H   SFRSYM    DATA     BYTE      P0M0
      000000D0H   SFRSYM    DATA     BYTE      PSW
      0000009DH   SFRSYM    DATA     BYTE      IRCBAND
      00000097H   SFRSYM    DATA     BYTE      AUXR2
      000000EFH   SFRSYM    DATA     BYTE      AUXINTIF
      000000FDH   SFRSYM    DATA     BYTE      S4CON
      000000ACH   SFRSYM    DATA     BYTE      S3CON
      0000009AH   SFRSYM    DATA     BYTE      S2CON
      000000B7H   SFRSYM    DATA     BYTE      IPH
      000000CDH   SFRSYM    DATA     BYTE      SPSTAT
      000000BEH   SFRSYM    DATA     BYTE      ADC_RESL
      000000DDH   SFRSYM    DATA     BYTE      T4T3M
      000000C1H   SFRSYM    DATA     BYTE      WDT_CONTR
      000000DFH   SFRSYM    DATA     BYTE      IP3
      000000F4H   SFRSYM    DATA     BYTE      USBCON
      000000B5H   SFRSYM    DATA     BYTE      IP2
      000000FFH   SFRSYM    DATA     BYTE      RSTCFG
      000000F9H   SFRSYM    DATA     BYTE      LINICR
      0000008EH   SFRSYM    DATA     BYTE      AUXR
      000000AFH   SFRSYM    DATA     BYTE      IE2
      00000088H   SFRSYM    DATA     BYTE      TCON
      00000098H   SFRSYM    DATA     BYTE      SCON
      000000F1H   SFRSYM    DATA     BYTE      CANICR
      00000087H   SFRSYM    DATA     BYTE      PCON
      000000BCH   SFRSYM    DATA     BYTE      ADC_CONTR
      000000E7H   SFRSYM    DATA     BYTE      CMPCR2
      000000E6H   SFRSYM    DATA     BYTE      CMPCR1
      000000DEH   SFRSYM    DATA     BYTE      ADCCFG
      000000B8H   SFRSYM    DATA     BYTE      IP
      0000008FH   SFRSYM    DATA     BYTE      INTCLKO
      000000EEH   SFRSYM    DATA     BYTE      IP3H
      000000B6H   SFRSYM    DATA     BYTE      IP2H
      000000BDH   SFRSYM    DATA     BYTE      ADC_RES
      000000A8H   SFRSYM    DATA     BYTE      IE
      000000BBH   SFRSYM    DATA     BYTE      P_SW3
      000000BAH   SFRSYM    DATA     BYTE      P_SW2
      000000A2H   SFRSYM    DATA     BYTE      P_SW1
      000000CEH   SFRSYM    DATA     BYTE      SPCTL
      000000F8H   SFRSYM    DATA     BYTE      P7
      000000E8H   SFRSYM    DATA     BYTE      P6
      000000C8H   SFRSYM    DATA     BYTE      P5
      000000C0H   SFRSYM    DATA     BYTE      P4
L251 LINKER/LOCATER V4.66.93.0                                                        04/27/2023  18:30:04  PAGE 26


      000000B0H   SFRSYM    DATA     BYTE      P3
      000000A0H   SFRSYM    DATA     BYTE      P2
      00000090H   SFRSYM    DATA     BYTE      P1
      00000080H   SFRSYM    DATA     BYTE      P0
      00000091H   SFRSYM    DATA     BYTE      P1M1
      00000092H   SFRSYM    DATA     BYTE      P1M0
      00000093H   SFRSYM    DATA     BYTE      P0M1

      00FF4F08H   BLOCK     CODE     ---       LVL=0
      WR4         REGSYM    ---      INT       adcn
      WR2         REGSYM    ---      INT       speed
      00FF4F08H   LINE      CODE     ---       #32
      00FF4F0CH   LINE      CODE     ---       #34
      00FF4F0FH   LINE      CODE     ---       #36
      00FF4F12H   LINE      CODE     ---       #37
      00FF4F18H   LINE      CODE     ---       #39
      00FF4F24H   LINE      CODE     ---       #42
      00FF4F39H   LINE      CODE     ---       #43
      00FF4F3DH   LINE      CODE     ---       #44
      00FF4F3FH   LINE      CODE     ---       #45
      00FF4F43H   LINE      CODE     ---       #48
      00FF4F58H   LINE      CODE     ---       #49
      00FF4F5CH   LINE      CODE     ---       #50
      00FF4F5CH   LINE      CODE     ---       #52
      00FF4F62H   LINE      CODE     ---       #54
      00FF4F65H   LINE      CODE     ---       #55
      ---         BLOCKEND  ---      ---       LVL=0

      00FF5661H   BLOCK     CODE     ---       LVL=0
      WR6         REGSYM    ---      INT       adcn
      WR4         REGSYM    ---      INT       resolution
      WR6         REGSYM    ---      WORD      adc_value
      00FF5661H   LINE      CODE     ---       #66
      00FF5661H   LINE      CODE     ---       #67
      00FF5661H   LINE      CODE     ---       #70
      00FF5664H   LINE      CODE     ---       #71
      00FF5668H   LINE      CODE     ---       #73
      00FF566BH   LINE      CODE     ---       #74
      00FF5670H   LINE      CODE     ---       #75
      00FF5673H   LINE      CODE     ---       #77
      00FF5675H   LINE      CODE     ---       #78
      00FF5679H   LINE      CODE     ---       #79
      00FF567FH   LINE      CODE     ---       #81
      00FF5682H   LINE      CODE     ---       #82
      00FF5685H   LINE      CODE     ---       #84
      00FF568EH   LINE      CODE     ---       #87
      00FF568EH   LINE      CODE     ---       #88
      ---         BLOCKEND  ---      ---       LVL=0

      ---         MODULE    ---      ---       zf_delay
      00FF552DH   PUBLIC    CODE     ---       delay_init
      00FF596BH   PUBLIC    CODE     ---       delay_ms
      00FF58EFH   PUBLIC    CODE     ---       delay_us
      00000834H   PUBLIC    EDATA    WORD      zf_delay_ms
      00000836H   PUBLIC    EDATA    WORD      zf_delay_us
      000000D0H   SFRSYM    DATA     BYTE      PSW
      0000009DH   SFRSYM    DATA     BYTE      IRCBAND
      00000097H   SFRSYM    DATA     BYTE      AUXR2
      000000EFH   SFRSYM    DATA     BYTE      AUXINTIF
      000000FDH   SFRSYM    DATA     BYTE      S4CON
      000000ACH   SFRSYM    DATA     BYTE      S3CON
      0000009AH   SFRSYM    DATA     BYTE      S2CON
      000000B7H   SFRSYM    DATA     BYTE      IPH
      000000CDH   SFRSYM    DATA     BYTE      SPSTAT
      000000DDH   SFRSYM    DATA     BYTE      T4T3M
L251 LINKER/LOCATER V4.66.93.0                                                        04/27/2023  18:30:04  PAGE 27


      000000C1H   SFRSYM    DATA     BYTE      WDT_CONTR
      000000DFH   SFRSYM    DATA     BYTE      IP3
      000000F4H   SFRSYM    DATA     BYTE      USBCON
      000000B5H   SFRSYM    DATA     BYTE      IP2
      000000FFH   SFRSYM    DATA     BYTE      RSTCFG
      000000F9H   SFRSYM    DATA     BYTE      LINICR
      0000008EH   SFRSYM    DATA     BYTE      AUXR
      000000AFH   SFRSYM    DATA     BYTE      IE2
      00000088H   SFRSYM    DATA     BYTE      TCON
      00000098H   SFRSYM    DATA     BYTE      SCON
      000000F1H   SFRSYM    DATA     BYTE      CANICR
      00000087H   SFRSYM    DATA     BYTE      PCON
      000000BCH   SFRSYM    DATA     BYTE      ADC_CONTR
      000000E7H   SFRSYM    DATA     BYTE      CMPCR2
      000000E6H   SFRSYM    DATA     BYTE      CMPCR1
      000000B8H   SFRSYM    DATA     BYTE      IP
      0000008FH   SFRSYM    DATA     BYTE      INTCLKO
      000000EEH   SFRSYM    DATA     BYTE      IP3H
      000000B6H   SFRSYM    DATA     BYTE      IP2H
      000000A8H   SFRSYM    DATA     BYTE      IE
      000000BBH   SFRSYM    DATA     BYTE      P_SW3
      000000BAH   SFRSYM    DATA     BYTE      P_SW2
      000000A2H   SFRSYM    DATA     BYTE      P_SW1
      000000CEH   SFRSYM    DATA     BYTE      SPCTL
      000000F8H   SFRSYM    DATA     BYTE      P7
      000000E8H   SFRSYM    DATA     BYTE      P6
      000000C8H   SFRSYM    DATA     BYTE      P5
      000000C0H   SFRSYM    DATA     BYTE      P4
      000000B0H   SFRSYM    DATA     BYTE      P3
      000000A0H   SFRSYM    DATA     BYTE      P2
      00000090H   SFRSYM    DATA     BYTE      P1
      00000080H   SFRSYM    DATA     BYTE      P0

      00FF552DH   BLOCK     CODE     ---       LVL=0
      00FF552DH   LINE      CODE     ---       #34
      00FF552DH   LINE      CODE     ---       #36
      00FF553EH   LINE      CODE     ---       #37
      00FF554FH   LINE      CODE     ---       #38
      00FF5565H   LINE      CODE     ---       #40
      ---         BLOCKEND  ---      ---       LVL=0

      00FF596BH   BLOCK     CODE     ---       LVL=0
      WR4         REGSYM    ---      WORD      ms
      00FF596DH   BLOCK     CODE     NEAR LAB  LVL=1
      WR6         REGSYM    ---      WORD      i
      ---         BLOCKEND  ---      ---       LVL=1
      00FF596BH   LINE      CODE     ---       #48
      00FF596DH   LINE      CODE     ---       #49
      00FF596DH   LINE      CODE     ---       #51
      00FF596DH   LINE      CODE     ---       #52
      00FF5971H   LINE      CODE     ---       #54
      00FF5979H   LINE      CODE     ---       #55
      00FF5981H   LINE      CODE     ---       #56
      ---         BLOCKEND  ---      ---       LVL=0

      00FF58EFH   BLOCK     CODE     ---       LVL=0
      DR0         REGSYM    ---      DWORD     us
      00FF58F1H   BLOCK     CODE     NEAR LAB  LVL=1
      WR6         REGSYM    ---      WORD      i
      ---         BLOCKEND  ---      ---       LVL=1
      00FF58EFH   LINE      CODE     ---       #64
      00FF58F1H   LINE      CODE     ---       #65
      00FF58F1H   LINE      CODE     ---       #67
      00FF58F1H   LINE      CODE     ---       #68
      00FF58F5H   LINE      CODE     ---       #70
L251 LINKER/LOCATER V4.66.93.0                                                        04/27/2023  18:30:04  PAGE 28


      00FF58FDH   LINE      CODE     ---       #71
      00FF5907H   LINE      CODE     ---       #72
      ---         BLOCKEND  ---      ---       LVL=0

      ---         MODULE    ---      ---       zf_eeprom
      00FF5998H   PUBLIC    CODE     ---       eeprom_trig
      000000D0H   SFRSYM    DATA     BYTE      PSW
      0000009DH   SFRSYM    DATA     BYTE      IRCBAND
      000000D0H.5 SFRSYM    DATA     BIT       F0
      00000097H   SFRSYM    DATA     BYTE      AUXR2
      000000C6H   SFRSYM    DATA     BYTE      IAP_TRIG
      000000EFH   SFRSYM    DATA     BYTE      AUXINTIF
      000000FDH   SFRSYM    DATA     BYTE      S4CON
      000000ACH   SFRSYM    DATA     BYTE      S3CON
      0000009AH   SFRSYM    DATA     BYTE      S2CON
      000000B7H   SFRSYM    DATA     BYTE      IPH
      000000CDH   SFRSYM    DATA     BYTE      SPSTAT
      000000DDH   SFRSYM    DATA     BYTE      T4T3M
      000000C1H   SFRSYM    DATA     BYTE      WDT_CONTR
      000000C2H   SFRSYM    DATA     BYTE      IAP_DATA
      000000DFH   SFRSYM    DATA     BYTE      IP3
      000000F4H   SFRSYM    DATA     BYTE      USBCON
      000000B5H   SFRSYM    DATA     BYTE      IP2
      000000FFH   SFRSYM    DATA     BYTE      RSTCFG
      000000C7H   SFRSYM    DATA     BYTE      IAP_CONTR
      000000F9H   SFRSYM    DATA     BYTE      LINICR
      0000008EH   SFRSYM    DATA     BYTE      AUXR
      000000AFH   SFRSYM    DATA     BYTE      IE2
      00000088H   SFRSYM    DATA     BYTE      TCON
      00000098H   SFRSYM    DATA     BYTE      SCON
      000000F5H   SFRSYM    DATA     BYTE      IAP_TPS
      000000F1H   SFRSYM    DATA     BYTE      CANICR
      00000087H   SFRSYM    DATA     BYTE      PCON
      000000BCH   SFRSYM    DATA     BYTE      ADC_CONTR
      000000E7H   SFRSYM    DATA     BYTE      CMPCR2
      000000E6H   SFRSYM    DATA     BYTE      CMPCR1
      000000C4H   SFRSYM    DATA     BYTE      IAP_ADDRL
      000000C3H   SFRSYM    DATA     BYTE      IAP_ADDRH
      000000F6H   SFRSYM    DATA     BYTE      IAP_ADDRE
      000000B8H   SFRSYM    DATA     BYTE      IP
      0000008FH   SFRSYM    DATA     BYTE      INTCLKO
      000000EEH   SFRSYM    DATA     BYTE      IP3H
      000000B6H   SFRSYM    DATA     BYTE      IP2H
      000000C5H   SFRSYM    DATA     BYTE      IAP_CMD
      000000A8H   SFRSYM    DATA     BYTE      IE
      000000BBH   SFRSYM    DATA     BYTE      P_SW3
      000000BAH   SFRSYM    DATA     BYTE      P_SW2
      000000A2H   SFRSYM    DATA     BYTE      P_SW1
      000000CEH   SFRSYM    DATA     BYTE      SPCTL
      000000F8H   SFRSYM    DATA     BYTE      P7
      000000A8H.7 SFRSYM    DATA     BIT       EA
      000000E8H   SFRSYM    DATA     BYTE      P6
      000000C8H   SFRSYM    DATA     BYTE      P5
      000000C0H   SFRSYM    DATA     BYTE      P4
      000000B0H   SFRSYM    DATA     BYTE      P3
      000000A0H   SFRSYM    DATA     BYTE      P2
      00000090H   SFRSYM    DATA     BYTE      P1
      00000080H   SFRSYM    DATA     BYTE      P0

      00FF5998H   BLOCK     CODE     ---       LVL=0
      00FF5998H   LINE      CODE     ---       #30
      00FF5998H   LINE      CODE     ---       #32
      00FF599CH   LINE      CODE     ---       #33
      00FF599EH   LINE      CODE     ---       #34
      00FF59A1H   LINE      CODE     ---       #35
L251 LINKER/LOCATER V4.66.93.0                                                        04/27/2023  18:30:04  PAGE 29


      00FF59A4H   LINE      CODE     ---       #38
      00FF59A5H   LINE      CODE     ---       #39
      00FF59A6H   LINE      CODE     ---       #40
      00FF59A7H   LINE      CODE     ---       #41
      00FF59A8H   LINE      CODE     ---       #42
      00FF59ACH   LINE      CODE     ---       #43
      ---         BLOCKEND  ---      ---       LVL=0
      R11         REGSYM    ---      BYTE      write_time
      REG=3       REGSYM    ---      ---       buf
      REG=3       REGSYM    ---      ---       buf
      WR6         REGSYM    ---      WORD      addr
      REG=3       REGSYM    ---      ---       buf
      WR6         REGSYM    ---      WORD      i

      ---         MODULE    ---      ---       zf_exti
      000000D0H   SFRSYM    DATA     BYTE      PSW
      0000009DH   SFRSYM    DATA     BYTE      IRCBAND
      00000097H   SFRSYM    DATA     BYTE      AUXR2
      000000EFH   SFRSYM    DATA     BYTE      AUXINTIF
      000000FDH   SFRSYM    DATA     BYTE      S4CON
      000000ACH   SFRSYM    DATA     BYTE      S3CON
      0000009AH   SFRSYM    DATA     BYTE      S2CON
      000000B7H   SFRSYM    DATA     BYTE      IPH
      000000CDH   SFRSYM    DATA     BYTE      SPSTAT
      000000DDH   SFRSYM    DATA     BYTE      T4T3M
      000000C1H   SFRSYM    DATA     BYTE      WDT_CONTR
      00000088H.2 SFRSYM    DATA     BIT       IT1
      000000A8H.2 SFRSYM    DATA     BIT       EX1
      00000088H.0 SFRSYM    DATA     BIT       IT0
      000000A8H.0 SFRSYM    DATA     BIT       EX0
      000000DFH   SFRSYM    DATA     BYTE      IP3
      000000F4H   SFRSYM    DATA     BYTE      USBCON
      000000B5H   SFRSYM    DATA     BYTE      IP2
      000000FFH   SFRSYM    DATA     BYTE      RSTCFG
      000000F9H   SFRSYM    DATA     BYTE      LINICR
      0000008EH   SFRSYM    DATA     BYTE      AUXR
      000000AFH   SFRSYM    DATA     BYTE      IE2
      00000088H   SFRSYM    DATA     BYTE      TCON
      00000098H   SFRSYM    DATA     BYTE      SCON
      000000F1H   SFRSYM    DATA     BYTE      CANICR
      00000087H   SFRSYM    DATA     BYTE      PCON
      000000BCH   SFRSYM    DATA     BYTE      ADC_CONTR
      000000E7H   SFRSYM    DATA     BYTE      CMPCR2
      000000E6H   SFRSYM    DATA     BYTE      CMPCR1
      000000B8H   SFRSYM    DATA     BYTE      IP
      0000008FH   SFRSYM    DATA     BYTE      INTCLKO
      000000EEH   SFRSYM    DATA     BYTE      IP3H
      000000B6H   SFRSYM    DATA     BYTE      IP2H
      000000A8H   SFRSYM    DATA     BYTE      IE
      000000BBH   SFRSYM    DATA     BYTE      P_SW3
      000000BAH   SFRSYM    DATA     BYTE      P_SW2
      000000A2H   SFRSYM    DATA     BYTE      P_SW1
      000000CEH   SFRSYM    DATA     BYTE      SPCTL
      000000F8H   SFRSYM    DATA     BYTE      P7
      000000E8H   SFRSYM    DATA     BYTE      P6
      000000C8H   SFRSYM    DATA     BYTE      P5
      000000C0H   SFRSYM    DATA     BYTE      P4
      000000B0H   SFRSYM    DATA     BYTE      P3
      000000A0H   SFRSYM    DATA     BYTE      P2
      00000090H   SFRSYM    DATA     BYTE      P1
      00000080H   SFRSYM    DATA     BYTE      P0
      WR4         REGSYM    ---      INT       int_n
      WR2         REGSYM    ---      INT       mode

      ---         MODULE    ---      ---       zf_gpio
L251 LINKER/LOCATER V4.66.93.0                                                        04/27/2023  18:30:04  PAGE 30


      00FF39CBH   PUBLIC    CODE     ---       gpio_mode
      00000094H   SFRSYM    DATA     BYTE      P0M0
      000000D0H   SFRSYM    DATA     BYTE      PSW
      0000009DH   SFRSYM    DATA     BYTE      IRCBAND
      00000097H   SFRSYM    DATA     BYTE      AUXR2
      000000EFH   SFRSYM    DATA     BYTE      AUXINTIF
      000000FDH   SFRSYM    DATA     BYTE      S4CON
      000000ACH   SFRSYM    DATA     BYTE      S3CON
      0000009AH   SFRSYM    DATA     BYTE      S2CON
      000000B7H   SFRSYM    DATA     BYTE      IPH
      000000CDH   SFRSYM    DATA     BYTE      SPSTAT
      000000DDH   SFRSYM    DATA     BYTE      T4T3M
      000000C1H   SFRSYM    DATA     BYTE      WDT_CONTR
      000000DFH   SFRSYM    DATA     BYTE      IP3
      000000F4H   SFRSYM    DATA     BYTE      USBCON
      000000B5H   SFRSYM    DATA     BYTE      IP2
      000000FFH   SFRSYM    DATA     BYTE      RSTCFG
      000000F9H   SFRSYM    DATA     BYTE      LINICR
      0000008EH   SFRSYM    DATA     BYTE      AUXR
      000000AFH   SFRSYM    DATA     BYTE      IE2
      00000088H   SFRSYM    DATA     BYTE      TCON
      00000098H   SFRSYM    DATA     BYTE      SCON
      000000F1H   SFRSYM    DATA     BYTE      CANICR
      00000087H   SFRSYM    DATA     BYTE      PCON
      000000BCH   SFRSYM    DATA     BYTE      ADC_CONTR
      000000E7H   SFRSYM    DATA     BYTE      CMPCR2
      000000E6H   SFRSYM    DATA     BYTE      CMPCR1
      000000B8H   SFRSYM    DATA     BYTE      IP
      0000008FH   SFRSYM    DATA     BYTE      INTCLKO
      000000EEH   SFRSYM    DATA     BYTE      IP3H
      000000B6H   SFRSYM    DATA     BYTE      IP2H
      000000A8H   SFRSYM    DATA     BYTE      IE
      000000BBH   SFRSYM    DATA     BYTE      P_SW3
      000000BAH   SFRSYM    DATA     BYTE      P_SW2
      000000A2H   SFRSYM    DATA     BYTE      P_SW1
      000000CEH   SFRSYM    DATA     BYTE      SPCTL
      000000F8H   SFRSYM    DATA     BYTE      P7
      000000E1H   SFRSYM    DATA     BYTE      P7M1
      000000E8H   SFRSYM    DATA     BYTE      P6
      000000C8H   SFRSYM    DATA     BYTE      P5
      000000CBH   SFRSYM    DATA     BYTE      P6M1
      000000E2H   SFRSYM    DATA     BYTE      P7M0
      000000C0H   SFRSYM    DATA     BYTE      P4
      000000C9H   SFRSYM    DATA     BYTE      P5M1
      000000CCH   SFRSYM    DATA     BYTE      P6M0
      000000B0H   SFRSYM    DATA     BYTE      P3
      000000B3H   SFRSYM    DATA     BYTE      P4M1
      000000CAH   SFRSYM    DATA     BYTE      P5M0
      000000A0H   SFRSYM    DATA     BYTE      P2
      000000B1H   SFRSYM    DATA     BYTE      P3M1
      000000B4H   SFRSYM    DATA     BYTE      P4M0
      00000090H   SFRSYM    DATA     BYTE      P1
      00000095H   SFRSYM    DATA     BYTE      P2M1
      000000B2H   SFRSYM    DATA     BYTE      P3M0
      00000080H   SFRSYM    DATA     BYTE      P0
      00000091H   SFRSYM    DATA     BYTE      P1M1
      00000096H   SFRSYM    DATA     BYTE      P2M0
      00000092H   SFRSYM    DATA     BYTE      P1M0
      00000093H   SFRSYM    DATA     BYTE      P0M1
      WR4         REGSYM    ---      INT       pin
      WR2         REGSYM    ---      INT       pull

      00FF39CBH   BLOCK     CODE     ---       LVL=0
      WR4         REGSYM    ---      INT       pin
      WR2         REGSYM    ---      INT       mode
L251 LINKER/LOCATER V4.66.93.0                                                        04/27/2023  18:30:04  PAGE 31


      00FF39CBH   LINE      CODE     ---       #54
      00FF39CFH   LINE      CODE     ---       #56
      00FF39D6H   LINE      CODE     ---       #58
      00FF39DEH   LINE      CODE     ---       #60
      00FF39F6H   LINE      CODE     ---       #61
      00FF39F8H   LINE      CODE     ---       #62
      00FF39F8H   LINE      CODE     ---       #63
      00FF39FEH   LINE      CODE     ---       #65
      00FF3A16H   LINE      CODE     ---       #66
      00FF3A18H   LINE      CODE     ---       #67
      00FF3A18H   LINE      CODE     ---       #68
      00FF3A1EH   LINE      CODE     ---       #70
      00FF3A36H   LINE      CODE     ---       #71
      00FF3A38H   LINE      CODE     ---       #72
      00FF3A38H   LINE      CODE     ---       #74
      00FF3A3EH   LINE      CODE     ---       #76
      00FF3A56H   LINE      CODE     ---       #77
      00FF3A58H   LINE      CODE     ---       #78
      00FF3A58H   LINE      CODE     ---       #79
      00FF3A5EH   LINE      CODE     ---       #81
      00FF3A76H   LINE      CODE     ---       #82
      00FF3A78H   LINE      CODE     ---       #83
      00FF3A78H   LINE      CODE     ---       #84
      00FF3A7EH   LINE      CODE     ---       #86
      00FF3A96H   LINE      CODE     ---       #87
      00FF3A98H   LINE      CODE     ---       #88
      00FF3A98H   LINE      CODE     ---       #89
      00FF3A9EH   LINE      CODE     ---       #91
      00FF3AB6H   LINE      CODE     ---       #92
      00FF3AB8H   LINE      CODE     ---       #93
      00FF3AB8H   LINE      CODE     ---       #94
      00FF3AC1H   LINE      CODE     ---       #96
      00FF3AD9H   LINE      CODE     ---       #97
      00FF3ADBH   LINE      CODE     ---       #98
      00FF3ADCH   LINE      CODE     ---       #100
      00FF3AE5H   LINE      CODE     ---       #102
      00FF3AEDH   LINE      CODE     ---       #104
      00FF3B02H   LINE      CODE     ---       #105
      00FF3B06H   LINE      CODE     ---       #106
      00FF3B06H   LINE      CODE     ---       #107
      00FF3B0CH   LINE      CODE     ---       #109
      00FF3B21H   LINE      CODE     ---       #110
      00FF3B25H   LINE      CODE     ---       #111
      00FF3B25H   LINE      CODE     ---       #112
      00FF3B2BH   LINE      CODE     ---       #114
      00FF3B40H   LINE      CODE     ---       #115
      00FF3B44H   LINE      CODE     ---       #116
      00FF3B44H   LINE      CODE     ---       #118
      00FF3B4AH   LINE      CODE     ---       #120
      00FF3B5FH   LINE      CODE     ---       #121
      00FF3B63H   LINE      CODE     ---       #122
      00FF3B63H   LINE      CODE     ---       #123
      00FF3B69H   LINE      CODE     ---       #125
      00FF3B7EH   LINE      CODE     ---       #126
      00FF3B82H   LINE      CODE     ---       #127
      00FF3B82H   LINE      CODE     ---       #128
      00FF3B88H   LINE      CODE     ---       #130
      00FF3B9DH   LINE      CODE     ---       #131
      00FF3BA1H   LINE      CODE     ---       #132
      00FF3BA1H   LINE      CODE     ---       #133
      00FF3BA7H   LINE      CODE     ---       #135
      00FF3BBCH   LINE      CODE     ---       #136
      00FF3BC0H   LINE      CODE     ---       #137
      00FF3BC0H   LINE      CODE     ---       #138
      00FF3BC9H   LINE      CODE     ---       #140
L251 LINKER/LOCATER V4.66.93.0                                                        04/27/2023  18:30:04  PAGE 32


      00FF3BE0H   LINE      CODE     ---       #141
      00FF3BE0H   LINE      CODE     ---       #142
      00FF3BE3H   LINE      CODE     ---       #145
      00FF3BECH   LINE      CODE     ---       #147
      00FF3BF4H   LINE      CODE     ---       #149
      00FF3C07H   LINE      CODE     ---       #150
      00FF3C0BH   LINE      CODE     ---       #151
      00FF3C0BH   LINE      CODE     ---       #152
      00FF3C11H   LINE      CODE     ---       #154
      00FF3C24H   LINE      CODE     ---       #155
      00FF3C28H   LINE      CODE     ---       #156
      00FF3C28H   LINE      CODE     ---       #157
      00FF3C2EH   LINE      CODE     ---       #159
      00FF3C41H   LINE      CODE     ---       #160
      00FF3C45H   LINE      CODE     ---       #161
      00FF3C45H   LINE      CODE     ---       #163
      00FF3C4BH   LINE      CODE     ---       #165
      00FF3C5EH   LINE      CODE     ---       #166
      00FF3C62H   LINE      CODE     ---       #167
      00FF3C62H   LINE      CODE     ---       #168
      00FF3C68H   LINE      CODE     ---       #170
      00FF3C7BH   LINE      CODE     ---       #171
      00FF3C7FH   LINE      CODE     ---       #172
      00FF3C7FH   LINE      CODE     ---       #173
      00FF3C85H   LINE      CODE     ---       #175
      00FF3C98H   LINE      CODE     ---       #176
      00FF3C9CH   LINE      CODE     ---       #177
      00FF3C9CH   LINE      CODE     ---       #178
      00FF3CA2H   LINE      CODE     ---       #180
      00FF3CB5H   LINE      CODE     ---       #181
      00FF3CB9H   LINE      CODE     ---       #182
      00FF3CB9H   LINE      CODE     ---       #183
      00FF3CC2H   LINE      CODE     ---       #185
      00FF3CD5H   LINE      CODE     ---       #186
      00FF3CD9H   LINE      CODE     ---       #187
      00FF3CDAH   LINE      CODE     ---       #189
      00FF3CE3H   LINE      CODE     ---       #191
      00FF3CEBH   LINE      CODE     ---       #193
      00FF3CFEH   LINE      CODE     ---       #194
      00FF3D00H   LINE      CODE     ---       #195
      00FF3D00H   LINE      CODE     ---       #196
      00FF3D06H   LINE      CODE     ---       #198
      00FF3D19H   LINE      CODE     ---       #199
      00FF3D1BH   LINE      CODE     ---       #200
      00FF3D1BH   LINE      CODE     ---       #201
      00FF3D21H   LINE      CODE     ---       #203
      00FF3D34H   LINE      CODE     ---       #204
      00FF3D36H   LINE      CODE     ---       #205
      00FF3D36H   LINE      CODE     ---       #207
      00FF3D3CH   LINE      CODE     ---       #209
      00FF3D4FH   LINE      CODE     ---       #210
      00FF3D51H   LINE      CODE     ---       #211
      00FF3D51H   LINE      CODE     ---       #212
      00FF3D57H   LINE      CODE     ---       #214
      00FF3D6AH   LINE      CODE     ---       #215
      00FF3D6CH   LINE      CODE     ---       #216
      00FF3D6CH   LINE      CODE     ---       #217
      00FF3D72H   LINE      CODE     ---       #219
      00FF3D85H   LINE      CODE     ---       #220
      00FF3D87H   LINE      CODE     ---       #221
      00FF3D87H   LINE      CODE     ---       #222
      00FF3D8DH   LINE      CODE     ---       #224
      00FF3DA0H   LINE      CODE     ---       #225
      00FF3DA2H   LINE      CODE     ---       #226
      00FF3DA2H   LINE      CODE     ---       #227
L251 LINKER/LOCATER V4.66.93.0                                                        04/27/2023  18:30:04  PAGE 33


      00FF3DA8H   LINE      CODE     ---       #229
      00FF3DBDH   LINE      CODE     ---       #230
      00FF3DC1H   LINE      CODE     ---       #231
      00FF3DC1H   LINE      CODE     ---       #233
      ---         BLOCKEND  ---      ---       LVL=0

      ---         MODULE    ---      ---       zf_iic
      00FF5331H   PUBLIC    CODE     ---       wait
      00FF59ADH   PUBLIC    CODE     ---       iic_delay_us
      000000D0H   SFRSYM    DATA     BYTE      PSW
      0000009DH   SFRSYM    DATA     BYTE      IRCBAND
      00000097H   SFRSYM    DATA     BYTE      AUXR2
      000000EFH   SFRSYM    DATA     BYTE      AUXINTIF
      000000FDH   SFRSYM    DATA     BYTE      S4CON
      000000ACH   SFRSYM    DATA     BYTE      S3CON
      0000009AH   SFRSYM    DATA     BYTE      S2CON
      000000B7H   SFRSYM    DATA     BYTE      IPH
      000000CDH   SFRSYM    DATA     BYTE      SPSTAT
      000000DDH   SFRSYM    DATA     BYTE      T4T3M
      000000C1H   SFRSYM    DATA     BYTE      WDT_CONTR
      000000DFH   SFRSYM    DATA     BYTE      IP3
      000000F4H   SFRSYM    DATA     BYTE      USBCON
      000000B5H   SFRSYM    DATA     BYTE      IP2
      000000FFH   SFRSYM    DATA     BYTE      RSTCFG
      000000F9H   SFRSYM    DATA     BYTE      LINICR
      0000008EH   SFRSYM    DATA     BYTE      AUXR
      000000AFH   SFRSYM    DATA     BYTE      IE2
      00000088H   SFRSYM    DATA     BYTE      TCON
      00000098H   SFRSYM    DATA     BYTE      SCON
      000000F1H   SFRSYM    DATA     BYTE      CANICR
      00000087H   SFRSYM    DATA     BYTE      PCON
      000000BCH   SFRSYM    DATA     BYTE      ADC_CONTR
      000000E7H   SFRSYM    DATA     BYTE      CMPCR2
      000000E6H   SFRSYM    DATA     BYTE      CMPCR1
      000000B8H   SFRSYM    DATA     BYTE      IP
      0000008FH   SFRSYM    DATA     BYTE      INTCLKO
      000000EEH   SFRSYM    DATA     BYTE      IP3H
      000000B6H   SFRSYM    DATA     BYTE      IP2H
      000000A8H   SFRSYM    DATA     BYTE      IE
      000000BBH   SFRSYM    DATA     BYTE      P_SW3
      000000BAH   SFRSYM    DATA     BYTE      P_SW2
      000000A2H   SFRSYM    DATA     BYTE      P_SW1
      000000CEH   SFRSYM    DATA     BYTE      SPCTL
      000000F8H   SFRSYM    DATA     BYTE      P7
      000000E8H   SFRSYM    DATA     BYTE      P6
      000000C8H   SFRSYM    DATA     BYTE      P5
      000000C0H   SFRSYM    DATA     BYTE      P4
      000000B0H   SFRSYM    DATA     BYTE      P3
      000000A0H   SFRSYM    DATA     BYTE      P2
      00000090H   SFRSYM    DATA     BYTE      P1
      00000080H   SFRSYM    DATA     BYTE      P0

      00FF59ADH   BLOCK     CODE     ---       LVL=0
      WR6         REGSYM    ---      WORD      x
      R10         REGSYM    ---      BYTE      i
      00FF59ADH   LINE      CODE     ---       #30
      00FF59ADH   LINE      CODE     ---       #31
      00FF59ADH   LINE      CODE     ---       #33
      00FF59AFH   LINE      CODE     ---       #35
      00FF59B2H   LINE      CODE     ---       #36
      00FF59B9H   LINE      CODE     ---       #37
      00FF59C1H   LINE      CODE     ---       #38
      ---         BLOCKEND  ---      ---       LVL=0

      00FF5331H   BLOCK     CODE     ---       LVL=0
L251 LINKER/LOCATER V4.66.93.0                                                        04/27/2023  18:30:04  PAGE 34


      00FF5335H   BLOCK     CODE     NEAR LAB  LVL=1
      WR12        REGSYM    ---      WORD      count
      R15         REGSYM    ---      BYTE      ret
      ---         BLOCKEND  ---      ---       LVL=1
      00FF5331H   LINE      CODE     ---       #47
      00FF5335H   LINE      CODE     ---       #48
      00FF5335H   LINE      CODE     ---       #49
      00FF5337H   LINE      CODE     ---       #50
      00FF5339H   LINE      CODE     ---       #51
      00FF533BH   LINE      CODE     ---       #53
      00FF5342H   LINE      CODE     ---       #54
      00FF534CH   LINE      CODE     ---       #56
      00FF534FH   LINE      CODE     ---       #57
      00FF5351H   LINE      CODE     ---       #58
      00FF535FH   LINE      CODE     ---       #60
      00FF536FH   LINE      CODE     ---       #61
      00FF5371H   LINE      CODE     ---       #62
      ---         BLOCKEND  ---      ---       LVL=0
      R11         REGSYM    ---      BYTE      ret
      R11         REGSYM    ---      CHAR      dat
      R11         REGSYM    ---      BYTE      ret
      R11         REGSYM    ---      BYTE      ret
      R11         REGSYM    ---      BYTE      ret
      R11         REGSYM    ---      BYTE      ret
      WR6         REGSYM    ---      INT       iic_n
      R13         REGSYM    ---      BYTE      dev_add
      R14         REGSYM    ---      BYTE      reg
      R15         REGSYM    ---      BYTE      dat
      R15         REGSYM    ---      BYTE      dev_add
      R14         REGSYM    ---      BYTE      reg
      REG=3       REGSYM    ---      ---       dat
      WR6         REGSYM    ---      INT       iic_n

      ---         MODULE    ---      ---       zf_nvic
      000000D0H   SFRSYM    DATA     BYTE      PSW
      0000009DH   SFRSYM    DATA     BYTE      IRCBAND
      00000097H   SFRSYM    DATA     BYTE      AUXR2
      000000EFH   SFRSYM    DATA     BYTE      AUXINTIF
      000000FDH   SFRSYM    DATA     BYTE      S4CON
      000000ACH   SFRSYM    DATA     BYTE      S3CON
      0000009AH   SFRSYM    DATA     BYTE      S2CON
      000000B7H   SFRSYM    DATA     BYTE      IPH
      000000CDH   SFRSYM    DATA     BYTE      SPSTAT
      000000DDH   SFRSYM    DATA     BYTE      T4T3M
      000000C1H   SFRSYM    DATA     BYTE      WDT_CONTR
      000000DFH   SFRSYM    DATA     BYTE      IP3
      000000F4H   SFRSYM    DATA     BYTE      USBCON
      000000B5H   SFRSYM    DATA     BYTE      IP2
      000000FFH   SFRSYM    DATA     BYTE      RSTCFG
      000000F9H   SFRSYM    DATA     BYTE      LINICR
      0000008EH   SFRSYM    DATA     BYTE      AUXR
      000000AFH   SFRSYM    DATA     BYTE      IE2
      00000088H   SFRSYM    DATA     BYTE      TCON
      00000098H   SFRSYM    DATA     BYTE      SCON
      000000F1H   SFRSYM    DATA     BYTE      CANICR
      00000087H   SFRSYM    DATA     BYTE      PCON
      000000BCH   SFRSYM    DATA     BYTE      ADC_CONTR
      000000E7H   SFRSYM    DATA     BYTE      CMPCR2
      000000E6H   SFRSYM    DATA     BYTE      CMPCR1
      000000B8H   SFRSYM    DATA     BYTE      IP
      0000008FH   SFRSYM    DATA     BYTE      INTCLKO
      000000EEH   SFRSYM    DATA     BYTE      IP3H
      000000B6H   SFRSYM    DATA     BYTE      IP2H
      000000A8H   SFRSYM    DATA     BYTE      IE
      000000BBH   SFRSYM    DATA     BYTE      P_SW3
L251 LINKER/LOCATER V4.66.93.0                                                        04/27/2023  18:30:04  PAGE 35


      000000BAH   SFRSYM    DATA     BYTE      P_SW2
      000000A2H   SFRSYM    DATA     BYTE      P_SW1
      000000CEH   SFRSYM    DATA     BYTE      SPCTL
      000000F8H   SFRSYM    DATA     BYTE      P7
      000000E8H   SFRSYM    DATA     BYTE      P6
      000000C8H   SFRSYM    DATA     BYTE      P5
      000000C0H   SFRSYM    DATA     BYTE      P4
      000000B0H   SFRSYM    DATA     BYTE      P3
      000000A0H   SFRSYM    DATA     BYTE      P2
      00000090H   SFRSYM    DATA     BYTE      P1
      00000080H   SFRSYM    DATA     BYTE      P0
      WR4         REGSYM    ---      INT       irqn
      R3          REGSYM    ---      BYTE      priority

      ---         MODULE    ---      ---       zf_pwm
      00FF4913H   PUBLIC    CODE     ---       pwm_duty
      00FF40BEH   PUBLIC    CODE     ---       pwm_set_gpio
      00FF3DC2H   PUBLIC    CODE     ---       pwm_init
      00FF67E9H   PUBLIC    HCONST   ---       PWM_CCR_ADDR
      00FF6809H   PUBLIC    HCONST   ---       PWM_ARR_ADDR
      00FF6811H   PUBLIC    HCONST   ---       PWM_CCER_ADDR
      00FF6821H   PUBLIC    HCONST   ---       PWM_CCMR_ADDR
      00000791H   PUBLIC    EDATA    BYTE      ?pwm_init?BYTE
      000000D0H   SFRSYM    DATA     BYTE      PSW
      0000009DH   SFRSYM    DATA     BYTE      IRCBAND
      00000097H   SFRSYM    DATA     BYTE      AUXR2
      000000EFH   SFRSYM    DATA     BYTE      AUXINTIF
      000000FDH   SFRSYM    DATA     BYTE      S4CON
      000000ACH   SFRSYM    DATA     BYTE      S3CON
      0000009AH   SFRSYM    DATA     BYTE      S2CON
      000000B7H   SFRSYM    DATA     BYTE      IPH
      000000CDH   SFRSYM    DATA     BYTE      SPSTAT
      000000DDH   SFRSYM    DATA     BYTE      T4T3M
      000000C1H   SFRSYM    DATA     BYTE      WDT_CONTR
      000000DFH   SFRSYM    DATA     BYTE      IP3
      000000F4H   SFRSYM    DATA     BYTE      USBCON
      000000B5H   SFRSYM    DATA     BYTE      IP2
      000000FFH   SFRSYM    DATA     BYTE      RSTCFG
      000000F9H   SFRSYM    DATA     BYTE      LINICR
      0000008EH   SFRSYM    DATA     BYTE      AUXR
      000000AFH   SFRSYM    DATA     BYTE      IE2
      00000088H   SFRSYM    DATA     BYTE      TCON
      00000098H   SFRSYM    DATA     BYTE      SCON
      000000F1H   SFRSYM    DATA     BYTE      CANICR
      00000087H   SFRSYM    DATA     BYTE      PCON
      000000BCH   SFRSYM    DATA     BYTE      ADC_CONTR
      000000E7H   SFRSYM    DATA     BYTE      CMPCR2
      000000E6H   SFRSYM    DATA     BYTE      CMPCR1
      000000B8H   SFRSYM    DATA     BYTE      IP
      0000008FH   SFRSYM    DATA     BYTE      INTCLKO
      000000EEH   SFRSYM    DATA     BYTE      IP3H
      000000B6H   SFRSYM    DATA     BYTE      IP2H
      000000A8H   SFRSYM    DATA     BYTE      IE
      000000BBH   SFRSYM    DATA     BYTE      P_SW3
      000000BAH   SFRSYM    DATA     BYTE      P_SW2
      000000A2H   SFRSYM    DATA     BYTE      P_SW1
      000000CEH   SFRSYM    DATA     BYTE      SPCTL
      000000F8H   SFRSYM    DATA     BYTE      P7
      000000E8H   SFRSYM    DATA     BYTE      P6
      000000C8H   SFRSYM    DATA     BYTE      P5
      000000C0H   SFRSYM    DATA     BYTE      P4
      000000B0H   SFRSYM    DATA     BYTE      P3
      000000A0H   SFRSYM    DATA     BYTE      P2
      00000090H   SFRSYM    DATA     BYTE      P1
      00000080H   SFRSYM    DATA     BYTE      P0
L251 LINKER/LOCATER V4.66.93.0                                                        04/27/2023  18:30:04  PAGE 36



      00FF40BEH   BLOCK     CODE     ---       LVL=0
      WR6         REGSYM    ---      INT       pwmch
      00FF40BEH   LINE      CODE     ---       #49
      00FF40BEH   LINE      CODE     ---       #51
      00FF4231H   LINE      CODE     ---       #53
      00FF4231H   LINE      CODE     ---       #55
      00FF4235H   LINE      CODE     ---       #56
      00FF4238H   LINE      CODE     ---       #58
      00FF4238H   LINE      CODE     ---       #60
      00FF423CH   LINE      CODE     ---       #61
      00FF423FH   LINE      CODE     ---       #63
      00FF423FH   LINE      CODE     ---       #65
      00FF4243H   LINE      CODE     ---       #66
      00FF4246H   LINE      CODE     ---       #68
      00FF4246H   LINE      CODE     ---       #70
      00FF424AH   LINE      CODE     ---       #71
      00FF424DH   LINE      CODE     ---       #73
      00FF424DH   LINE      CODE     ---       #75
      00FF4251H   LINE      CODE     ---       #76
      00FF4254H   LINE      CODE     ---       #78
      00FF4254H   LINE      CODE     ---       #80
      00FF4258H   LINE      CODE     ---       #81
      00FF425BH   LINE      CODE     ---       #84
      00FF425BH   LINE      CODE     ---       #86
      00FF425FH   LINE      CODE     ---       #87
      00FF4262H   LINE      CODE     ---       #89
      00FF4262H   LINE      CODE     ---       #91
      00FF4266H   LINE      CODE     ---       #92
      00FF4269H   LINE      CODE     ---       #94
      00FF4269H   LINE      CODE     ---       #96
      00FF426DH   LINE      CODE     ---       #97
      00FF4270H   LINE      CODE     ---       #99
      00FF4270H   LINE      CODE     ---       #101
      00FF4274H   LINE      CODE     ---       #102
      00FF4277H   LINE      CODE     ---       #104
      00FF4277H   LINE      CODE     ---       #106
      00FF427BH   LINE      CODE     ---       #107
      00FF427EH   LINE      CODE     ---       #109
      00FF427EH   LINE      CODE     ---       #111
      00FF4282H   LINE      CODE     ---       #112
      00FF4285H   LINE      CODE     ---       #115
      00FF4285H   LINE      CODE     ---       #117
      00FF4289H   LINE      CODE     ---       #118
      00FF428BH   LINE      CODE     ---       #120
      00FF428BH   LINE      CODE     ---       #122
      00FF428FH   LINE      CODE     ---       #123
      00FF4291H   LINE      CODE     ---       #125
      00FF4291H   LINE      CODE     ---       #127
      00FF4295H   LINE      CODE     ---       #128
      00FF4297H   LINE      CODE     ---       #130
      00FF4297H   LINE      CODE     ---       #132
      00FF429BH   LINE      CODE     ---       #133
      00FF429DH   LINE      CODE     ---       #135
      00FF429DH   LINE      CODE     ---       #137
      00FF42A1H   LINE      CODE     ---       #138
      00FF42A3H   LINE      CODE     ---       #140
      00FF42A3H   LINE      CODE     ---       #142
      00FF42A7H   LINE      CODE     ---       #143
      00FF42A9H   LINE      CODE     ---       #147
      00FF42A9H   LINE      CODE     ---       #149
      00FF42ADH   LINE      CODE     ---       #150
      00FF42AFH   LINE      CODE     ---       #152
      00FF42AFH   LINE      CODE     ---       #154
      00FF42B3H   LINE      CODE     ---       #155
L251 LINKER/LOCATER V4.66.93.0                                                        04/27/2023  18:30:04  PAGE 37


      00FF42B5H   LINE      CODE     ---       #157
      00FF42B5H   LINE      CODE     ---       #159
      00FF42B9H   LINE      CODE     ---       #160
      00FF42BBH   LINE      CODE     ---       #162
      00FF42BBH   LINE      CODE     ---       #164
      00FF42BFH   LINE      CODE     ---       #165
      00FF42C1H   LINE      CODE     ---       #167
      00FF42C1H   LINE      CODE     ---       #169
      00FF42C5H   LINE      CODE     ---       #170
      00FF42C7H   LINE      CODE     ---       #172
      00FF42C7H   LINE      CODE     ---       #174
      00FF42CBH   LINE      CODE     ---       #175
      00FF42CDH   LINE      CODE     ---       #177
      00FF42CDH   LINE      CODE     ---       #179
      00FF42D1H   LINE      CODE     ---       #180
      00FF42D3H   LINE      CODE     ---       #182
      00FF42D3H   LINE      CODE     ---       #184
      00FF42D7H   LINE      CODE     ---       #185
      00FF42D9H   LINE      CODE     ---       #189
      00FF42D9H   LINE      CODE     ---       #191
      00FF42DDH   LINE      CODE     ---       #192
      00FF42DFH   LINE      CODE     ---       #194
      00FF42DFH   LINE      CODE     ---       #196
      00FF42E3H   LINE      CODE     ---       #197
      00FF42E5H   LINE      CODE     ---       #199
      00FF42E5H   LINE      CODE     ---       #201
      00FF42E7H   LINE      CODE     ---       #202
      00FF42E9H   LINE      CODE     ---       #204
      00FF42E9H   LINE      CODE     ---       #206
      00FF42EDH   LINE      CODE     ---       #207
      00FF42EFH   LINE      CODE     ---       #210
      00FF42EFH   LINE      CODE     ---       #212
      00FF42F3H   LINE      CODE     ---       #213
      00FF42F5H   LINE      CODE     ---       #215
      00FF42F5H   LINE      CODE     ---       #217
      00FF42F9H   LINE      CODE     ---       #218
      00FF42FBH   LINE      CODE     ---       #220
      00FF42FBH   LINE      CODE     ---       #222
      00FF4301H   LINE      CODE     ---       #223
      00FF4303H   LINE      CODE     ---       #225
      00FF4303H   LINE      CODE     ---       #227
      00FF430BH   LINE      CODE     ---       #228
      00FF430DH   LINE      CODE     ---       #232
      00FF430DH   LINE      CODE     ---       #234
      00FF4315H   LINE      CODE     ---       #235
      00FF4317H   LINE      CODE     ---       #237
      00FF4317H   LINE      CODE     ---       #239
      00FF431FH   LINE      CODE     ---       #240
      00FF4321H   LINE      CODE     ---       #242
      00FF4321H   LINE      CODE     ---       #244
      00FF4329H   LINE      CODE     ---       #245
      00FF432BH   LINE      CODE     ---       #247
      00FF432BH   LINE      CODE     ---       #249
      00FF4333H   LINE      CODE     ---       #250
      00FF4335H   LINE      CODE     ---       #254
      00FF4335H   LINE      CODE     ---       #256
      00FF433DH   LINE      CODE     ---       #257
      00FF433FH   LINE      CODE     ---       #259
      00FF433FH   LINE      CODE     ---       #261
      00FF4347H   LINE      CODE     ---       #262
      00FF4349H   LINE      CODE     ---       #264
      00FF4349H   LINE      CODE     ---       #266
      00FF4351H   LINE      CODE     ---       #267
      00FF4353H   LINE      CODE     ---       #269
      00FF4353H   LINE      CODE     ---       #271
L251 LINKER/LOCATER V4.66.93.0                                                        04/27/2023  18:30:04  PAGE 38


      00FF435EH   LINE      CODE     ---       #272
      00FF435EH   LINE      CODE     ---       #275
      00FF435EH   LINE      CODE     ---       #277
      ---         BLOCKEND  ---      ---       LVL=0

      00FF3DC2H   BLOCK     CODE     ---       LVL=0
      WR14        REGSYM    ---      INT       pwmch
      00000793H   SYMBOL    EDATA    DWORD     freq
      00000797H   SYMBOL    EDATA    DWORD     duty
      00FF3DCAH   BLOCK     CODE     NEAR LAB  LVL=1
      0000079BH   SYMBOL    EDATA    DWORD     match_temp
      DR28        REGSYM    ---      DWORD     period_temp
      WR26        REGSYM    ---      WORD      freq_div
      ---         BLOCKEND  ---      ---       LVL=1
      00FF3DC2H   LINE      CODE     ---       #290
      00FF3DCAH   LINE      CODE     ---       #291
      00FF3DCAH   LINE      CODE     ---       #295
      00FF3DCAH   LINE      CODE     ---       #298
      00FF3DCDH   LINE      CODE     ---       #301
      00FF3DD0H   LINE      CODE     ---       #305
      00FF3DE1H   LINE      CODE     ---       #306
      00FF3DE1H   LINE      CODE     ---       #307
      00FF3DEAH   LINE      CODE     ---       #309
      00FF3DF4H   LINE      CODE     ---       #311
      00FF3E11H   LINE      CODE     ---       #312
      00FF3E13H   LINE      CODE     ---       #315
      00FF3E1BH   LINE      CODE     ---       #316
      00FF3E1BH   LINE      CODE     ---       #319
      00FF3E24H   LINE      CODE     ---       #322
      00FF3E4FH   LINE      CODE     ---       #323
      00FF3E70H   LINE      CODE     ---       #326
      00FF3EBCH   LINE      CODE     ---       #329
      00FF3ECBH   LINE      CODE     ---       #330
      00FF3ED6H   LINE      CODE     ---       #332
      00FF3EDFH   LINE      CODE     ---       #333
      00FF3EE5H   LINE      CODE     ---       #334
      00FF3EE8H   LINE      CODE     ---       #337
      00FF3F20H   LINE      CODE     ---       #338
      00FF3F43H   LINE      CODE     ---       #341
      00FF3F95H   LINE      CODE     ---       #345
      00FF3FA4H   LINE      CODE     ---       #346
      00FF3FAFH   LINE      CODE     ---       #348
      00FF3FB8H   LINE      CODE     ---       #349
      00FF3FC5H   LINE      CODE     ---       #350
      00FF3FC5H   LINE      CODE     ---       #353
      00FF3FF1H   LINE      CODE     ---       #354
      00FF401FH   LINE      CODE     ---       #357
      00FF404BH   LINE      CODE     ---       #358
      00FF4079H   LINE      CODE     ---       #361
      00FF4090H   LINE      CODE     ---       #362
      00FF40BBH   LINE      CODE     ---       #367
      ---         BLOCKEND  ---      ---       LVL=0

      00FF4913H   BLOCK     CODE     ---       LVL=0
      WR30        REGSYM    ---      INT       pwmch
      DR24        REGSYM    ---      DWORD     duty
      00FF4917H   BLOCK     CODE     NEAR LAB  LVL=1
      DR20        REGSYM    ---      DWORD     match_temp
      DR16        REGSYM    ---      DWORD     arr
      ---         BLOCKEND  ---      ---       LVL=1
      00FF4913H   LINE      CODE     ---       #377
      00FF4917H   LINE      CODE     ---       #378
      00FF4917H   LINE      CODE     ---       #380
      00FF495BH   LINE      CODE     ---       #384
      00FF4961H   LINE      CODE     ---       #386
L251 LINKER/LOCATER V4.66.93.0                                                        04/27/2023  18:30:04  PAGE 39


      00FF4982H   LINE      CODE     ---       #387
      00FF4984H   LINE      CODE     ---       #390
      00FF4988H   LINE      CODE     ---       #391
      00FF4988H   LINE      CODE     ---       #396
      00FF49B0H   LINE      CODE     ---       #397
      00FF49DAH   LINE      CODE     ---       #401
      ---         BLOCKEND  ---      ---       LVL=0
      WR30        REGSYM    ---      INT       pwmch
      DR24        REGSYM    ---      DWORD     freq
      DR20        REGSYM    ---      DWORD     match_temp
      DR24        REGSYM    ---      DWORD     period_temp
      WR28        REGSYM    ---      WORD      freq_div

      ---         MODULE    ---      ---       zf_spi
      00FF5A69H   PUBLIC    CODE     ---       spi_mosi
      000000CFH   SFRSYM    DATA     BYTE      SPDAT
      000000D0H   SFRSYM    DATA     BYTE      PSW
      0000009DH   SFRSYM    DATA     BYTE      IRCBAND
      00000097H   SFRSYM    DATA     BYTE      AUXR2
      000000EFH   SFRSYM    DATA     BYTE      AUXINTIF
      000000FDH   SFRSYM    DATA     BYTE      S4CON
      000000ACH   SFRSYM    DATA     BYTE      S3CON
      0000009AH   SFRSYM    DATA     BYTE      S2CON
      000000B7H   SFRSYM    DATA     BYTE      IPH
      000000CDH   SFRSYM    DATA     BYTE      SPSTAT
      000000DDH   SFRSYM    DATA     BYTE      T4T3M
      000000C1H   SFRSYM    DATA     BYTE      WDT_CONTR
      000000DFH   SFRSYM    DATA     BYTE      IP3
      000000F4H   SFRSYM    DATA     BYTE      USBCON
      000000B5H   SFRSYM    DATA     BYTE      IP2
      000000FFH   SFRSYM    DATA     BYTE      RSTCFG
      000000F9H   SFRSYM    DATA     BYTE      LINICR
      0000008EH   SFRSYM    DATA     BYTE      AUXR
      000000AFH   SFRSYM    DATA     BYTE      IE2
      00000088H   SFRSYM    DATA     BYTE      TCON
      00000098H   SFRSYM    DATA     BYTE      SCON
      000000F1H   SFRSYM    DATA     BYTE      CANICR
      00000087H   SFRSYM    DATA     BYTE      PCON
      000000BCH   SFRSYM    DATA     BYTE      ADC_CONTR
      000000E7H   SFRSYM    DATA     BYTE      CMPCR2
      000000E6H   SFRSYM    DATA     BYTE      CMPCR1
      000000B8H   SFRSYM    DATA     BYTE      IP
      0000008FH   SFRSYM    DATA     BYTE      INTCLKO
      000000EEH   SFRSYM    DATA     BYTE      IP3H
      000000B6H   SFRSYM    DATA     BYTE      IP2H
      000000A8H   SFRSYM    DATA     BYTE      IE
      000000BBH   SFRSYM    DATA     BYTE      P_SW3
      000000BAH   SFRSYM    DATA     BYTE      P_SW2
      000000A2H   SFRSYM    DATA     BYTE      P_SW1
      000000CEH   SFRSYM    DATA     BYTE      SPCTL
      000000F8H   SFRSYM    DATA     BYTE      P7
      000000E8H   SFRSYM    DATA     BYTE      P6
      000000C8H   SFRSYM    DATA     BYTE      P5
      000000C0H   SFRSYM    DATA     BYTE      P4
      000000B0H   SFRSYM    DATA     BYTE      P3
      000000A0H   SFRSYM    DATA     BYTE      P2
      00000090H   SFRSYM    DATA     BYTE      P1
      00000080H   SFRSYM    DATA     BYTE      P0
      WR14        REGSYM    ---      INT       spi_n
      R13         REGSYM    ---      BYTE      mode

      00FF5A69H   BLOCK     CODE     ---       LVL=0
      R11         REGSYM    ---      BYTE      dat
      00FF5A69H   LINE      CODE     ---       #129
      00FF5A69H   LINE      CODE     ---       #131
L251 LINKER/LOCATER V4.66.93.0                                                        04/27/2023  18:30:04  PAGE 40


      00FF5A6CH   LINE      CODE     ---       #132
      00FF5A71H   LINE      CODE     ---       #133
      00FF5A74H   LINE      CODE     ---       #134
      00FF5A76H   LINE      CODE     ---       #135
      ---         BLOCKEND  ---      ---       LVL=0
      WR14        REGSYM    ---      INT       spi_n
      R7          REGSYM    ---      BYTE      mode

      ---         MODULE    ---      ---       zf_tim
      00FF4C5CH   PUBLIC    CODE     ---       pit_timer_ms
      00FF5257H   PUBLIC    CODE     ---       ctimer_count_init
      000000D0H   SFRSYM    DATA     BYTE      PSW
      0000009DH   SFRSYM    DATA     BYTE      IRCBAND
      00000097H   SFRSYM    DATA     BYTE      AUXR2
      000000EFH   SFRSYM    DATA     BYTE      AUXINTIF
      000000FDH   SFRSYM    DATA     BYTE      S4CON
      000000ACH   SFRSYM    DATA     BYTE      S3CON
      0000009AH   SFRSYM    DATA     BYTE      S2CON
      000000B7H   SFRSYM    DATA     BYTE      IPH
      000000CDH   SFRSYM    DATA     BYTE      SPSTAT
      000000DDH   SFRSYM    DATA     BYTE      T4T3M
      000000C1H   SFRSYM    DATA     BYTE      WDT_CONTR
      00000088H.6 SFRSYM    DATA     BIT       TR1
      00000088H.4 SFRSYM    DATA     BIT       TR0
      000000D3H   SFRSYM    DATA     BYTE      T4L
      000000D5H   SFRSYM    DATA     BYTE      T3L
      000000D7H   SFRSYM    DATA     BYTE      T2L
      0000008BH   SFRSYM    DATA     BYTE      TL1
      0000008AH   SFRSYM    DATA     BYTE      TL0
      000000D2H   SFRSYM    DATA     BYTE      T4H
      000000D4H   SFRSYM    DATA     BYTE      T3H
      000000D6H   SFRSYM    DATA     BYTE      T2H
      0000008DH   SFRSYM    DATA     BYTE      TH1
      0000008CH   SFRSYM    DATA     BYTE      TH0
      000000DFH   SFRSYM    DATA     BYTE      IP3
      000000F4H   SFRSYM    DATA     BYTE      USBCON
      000000B5H   SFRSYM    DATA     BYTE      IP2
      000000FFH   SFRSYM    DATA     BYTE      RSTCFG
      000000A8H.3 SFRSYM    DATA     BIT       ET1
      000000A8H.1 SFRSYM    DATA     BIT       ET0
      000000F9H   SFRSYM    DATA     BYTE      LINICR
      0000008EH   SFRSYM    DATA     BYTE      AUXR
      000000AFH   SFRSYM    DATA     BYTE      IE2
      00000088H   SFRSYM    DATA     BYTE      TCON
      00000089H   SFRSYM    DATA     BYTE      TMOD
      00000098H   SFRSYM    DATA     BYTE      SCON
      000000F1H   SFRSYM    DATA     BYTE      CANICR
      00000087H   SFRSYM    DATA     BYTE      PCON
      000000BCH   SFRSYM    DATA     BYTE      ADC_CONTR
      000000E7H   SFRSYM    DATA     BYTE      CMPCR2
      000000E6H   SFRSYM    DATA     BYTE      CMPCR1
      000000B8H   SFRSYM    DATA     BYTE      IP
      0000008FH   SFRSYM    DATA     BYTE      INTCLKO
      000000EEH   SFRSYM    DATA     BYTE      IP3H
      000000B6H   SFRSYM    DATA     BYTE      IP2H
      000000A8H   SFRSYM    DATA     BYTE      IE
      000000BBH   SFRSYM    DATA     BYTE      P_SW3
      000000BAH   SFRSYM    DATA     BYTE      P_SW2
      000000A2H   SFRSYM    DATA     BYTE      P_SW1
      000000CEH   SFRSYM    DATA     BYTE      SPCTL
      000000F8H   SFRSYM    DATA     BYTE      P7
      000000E8H   SFRSYM    DATA     BYTE      P6
      000000C8H   SFRSYM    DATA     BYTE      P5
      000000C0H   SFRSYM    DATA     BYTE      P4
      000000B0H   SFRSYM    DATA     BYTE      P3
L251 LINKER/LOCATER V4.66.93.0                                                        04/27/2023  18:30:04  PAGE 41


      000000A0H   SFRSYM    DATA     BYTE      P2
      00000090H   SFRSYM    DATA     BYTE      P1
      00000080H   SFRSYM    DATA     BYTE      P0

      00FF5257H   BLOCK     CODE     ---       LVL=0
      WR6         REGSYM    ---      INT       tim_n
      00FF5257H   LINE      CODE     ---       #39
      00FF5257H   LINE      CODE     ---       #42
      00FF526BH   LINE      CODE     ---       #44
      00FF526BH   LINE      CODE     ---       #46
      00FF526EH   LINE      CODE     ---       #47
      00FF5271H   LINE      CODE     ---       #48
      00FF5274H   LINE      CODE     ---       #49
      00FF5276H   LINE      CODE     ---       #50
      00FF5277H   LINE      CODE     ---       #53
      00FF5277H   LINE      CODE     ---       #55
      00FF527AH   LINE      CODE     ---       #56
      00FF527DH   LINE      CODE     ---       #57
      00FF5280H   LINE      CODE     ---       #58
      00FF5282H   LINE      CODE     ---       #59
      00FF5283H   LINE      CODE     ---       #62
      00FF5283H   LINE      CODE     ---       #64
      00FF5286H   LINE      CODE     ---       #65
      00FF5289H   LINE      CODE     ---       #66
      00FF528CH   LINE      CODE     ---       #67
      00FF528DH   LINE      CODE     ---       #70
      00FF528DH   LINE      CODE     ---       #72
      00FF5290H   LINE      CODE     ---       #73
      00FF5293H   LINE      CODE     ---       #74
      00FF5296H   LINE      CODE     ---       #75
      00FF5297H   LINE      CODE     ---       #78
      00FF5297H   LINE      CODE     ---       #80
      00FF529AH   LINE      CODE     ---       #81
      00FF529DH   LINE      CODE     ---       #82
      00FF52A0H   LINE      CODE     ---       #83
      00FF52A0H   LINE      CODE     ---       #86
      00FF52A0H   LINE      CODE     ---       #87
      ---         BLOCKEND  ---      ---       LVL=0
      WR4         REGSYM    ---      INT       tim_n
      WR6         REGSYM    ---      WORD      dat
      WR6         REGSYM    ---      INT       tim_n

      00FF4C5CH   BLOCK     CODE     ---       LVL=0
      WR30        REGSYM    ---      INT       tim_n
      WR28        REGSYM    ---      WORD      time_ms
      00FF4C5EH   BLOCK     CODE     NEAR LAB  LVL=1
      WR28        REGSYM    ---      WORD      temp
      ---         BLOCKEND  ---      ---       LVL=1
      00FF4C5CH   LINE      CODE     ---       #198
      00FF4C5EH   LINE      CODE     ---       #199
      00FF4C5EH   LINE      CODE     ---       #201
      00FF4C7BH   LINE      CODE     ---       #203
      00FF4C7FH   LINE      CODE     ---       #205
      00FF4C83H   LINE      CODE     ---       #206
      00FF4C89H   LINE      CODE     ---       #207
      00FF4C8DH   LINE      CODE     ---       #208
      00FF4C8FH   LINE      CODE     ---       #209
      00FF4C91H   LINE      CODE     ---       #210
      00FF4C92H   LINE      CODE     ---       #211
      00FF4C98H   LINE      CODE     ---       #213
      00FF4C9CH   LINE      CODE     ---       #214
      00FF4CA2H   LINE      CODE     ---       #215
      00FF4CA6H   LINE      CODE     ---       #216
      00FF4CA8H   LINE      CODE     ---       #217
      00FF4CAAH   LINE      CODE     ---       #218
L251 LINKER/LOCATER V4.66.93.0                                                        04/27/2023  18:30:04  PAGE 42


      00FF4CABH   LINE      CODE     ---       #219
      00FF4CB1H   LINE      CODE     ---       #221
      00FF4CB7H   LINE      CODE     ---       #222
      00FF4CBBH   LINE      CODE     ---       #223
      00FF4CBEH   LINE      CODE     ---       #224
      00FF4CC1H   LINE      CODE     ---       #225
      00FF4CC2H   LINE      CODE     ---       #226
      00FF4CC8H   LINE      CODE     ---       #228
      00FF4CCEH   LINE      CODE     ---       #229
      00FF4CD2H   LINE      CODE     ---       #230
      00FF4CD5H   LINE      CODE     ---       #231
      00FF4CD8H   LINE      CODE     ---       #232
      00FF4CD9H   LINE      CODE     ---       #233
      00FF4CDFH   LINE      CODE     ---       #235
      00FF4CE5H   LINE      CODE     ---       #236
      00FF4CE9H   LINE      CODE     ---       #237
      00FF4CECH   LINE      CODE     ---       #238
      00FF4CEFH   LINE      CODE     ---       #239
      ---         BLOCKEND  ---      ---       LVL=0

      ---         MODULE    ---      ---       zf_uart
      00FF5073H   PUBLIC    CODE     ---       uart_putchar
      00FF435FH   PUBLIC    CODE     ---       uart_init
      000004CAH   PUBLIC    EDATA    ---       uart1_rx_buff
      0000052EH   PUBLIC    EDATA    ---       uart1_tx_buff
      00000592H   PUBLIC    EDATA    ---       busy
      0000078DH   PUBLIC    EDATA    BYTE      ?uart_init?BYTE
      000000D0H   SFRSYM    DATA     BYTE      PSW
      0000009DH   SFRSYM    DATA     BYTE      IRCBAND
      00000097H   SFRSYM    DATA     BYTE      AUXR2
      000000EFH   SFRSYM    DATA     BYTE      AUXINTIF
      000000FDH   SFRSYM    DATA     BYTE      S4CON
      000000ACH   SFRSYM    DATA     BYTE      S3CON
      0000009AH   SFRSYM    DATA     BYTE      S2CON
      000000FEH   SFRSYM    DATA     BYTE      S4BUF
      000000ADH   SFRSYM    DATA     BYTE      S3BUF
      0000009BH   SFRSYM    DATA     BYTE      S2BUF
      000000B7H   SFRSYM    DATA     BYTE      IPH
      000000CDH   SFRSYM    DATA     BYTE      SPSTAT
      000000DDH   SFRSYM    DATA     BYTE      T4T3M
      000000C1H   SFRSYM    DATA     BYTE      WDT_CONTR
      00000088H.6 SFRSYM    DATA     BIT       TR1
      000000D3H   SFRSYM    DATA     BYTE      T4L
      000000D5H   SFRSYM    DATA     BYTE      T3L
      000000D7H   SFRSYM    DATA     BYTE      T2L
      0000008BH   SFRSYM    DATA     BYTE      TL1
      000000D2H   SFRSYM    DATA     BYTE      T4H
      000000D4H   SFRSYM    DATA     BYTE      T3H
      000000D6H   SFRSYM    DATA     BYTE      T2H
      0000008DH   SFRSYM    DATA     BYTE      TH1
      000000DFH   SFRSYM    DATA     BYTE      IP3
      000000F4H   SFRSYM    DATA     BYTE      USBCON
      000000B5H   SFRSYM    DATA     BYTE      IP2
      000000FFH   SFRSYM    DATA     BYTE      RSTCFG
      000000F9H   SFRSYM    DATA     BYTE      LINICR
      0000008EH   SFRSYM    DATA     BYTE      AUXR
      000000AFH   SFRSYM    DATA     BYTE      IE2
      00000088H   SFRSYM    DATA     BYTE      TCON
      00000089H   SFRSYM    DATA     BYTE      TMOD
      00000098H   SFRSYM    DATA     BYTE      SCON
      000000F1H   SFRSYM    DATA     BYTE      CANICR
      00000087H   SFRSYM    DATA     BYTE      PCON
      00000099H   SFRSYM    DATA     BYTE      SBUF
      000000BCH   SFRSYM    DATA     BYTE      ADC_CONTR
      000000E7H   SFRSYM    DATA     BYTE      CMPCR2
L251 LINKER/LOCATER V4.66.93.0                                                        04/27/2023  18:30:04  PAGE 43


      000000E6H   SFRSYM    DATA     BYTE      CMPCR1
      000000B8H   SFRSYM    DATA     BYTE      IP
      000000A8H.4 SFRSYM    DATA     BIT       ES
      0000008FH   SFRSYM    DATA     BYTE      INTCLKO
      000000EEH   SFRSYM    DATA     BYTE      IP3H
      000000B6H   SFRSYM    DATA     BYTE      IP2H
      000000A8H   SFRSYM    DATA     BYTE      IE
      000000BBH   SFRSYM    DATA     BYTE      P_SW3
      000000BAH   SFRSYM    DATA     BYTE      P_SW2
      000000A2H   SFRSYM    DATA     BYTE      P_SW1
      000000CEH   SFRSYM    DATA     BYTE      SPCTL
      000000F8H   SFRSYM    DATA     BYTE      P7
      000000E8H   SFRSYM    DATA     BYTE      P6
      000000C8H   SFRSYM    DATA     BYTE      P5
      000000C0H   SFRSYM    DATA     BYTE      P4
      000000C9H   SFRSYM    DATA     BYTE      P5M1
      000000B0H   SFRSYM    DATA     BYTE      P3
      000000CAH   SFRSYM    DATA     BYTE      P5M0
      000000A0H   SFRSYM    DATA     BYTE      P2
      00000090H   SFRSYM    DATA     BYTE      P1
      00000080H   SFRSYM    DATA     BYTE      P0

      00FF435FH   BLOCK     CODE     ---       LVL=0
      WR24        REGSYM    ---      INT       uart_n
      WR28        REGSYM    ---      INT       uart_rx_pin
      WR30        REGSYM    ---      INT       uart_tx_pin
      00000793H   SYMBOL    EDATA    DWORD     baud
      WR26        REGSYM    ---      INT       tim_n
      00FF4367H   BLOCK     CODE     NEAR LAB  LVL=1
      WR6         REGSYM    ---      WORD      brt
      ---         BLOCKEND  ---      ---       LVL=1
      00FF435FH   LINE      CODE     ---       #48
      00FF4367H   LINE      CODE     ---       #49
      00FF4367H   LINE      CODE     ---       #52
      00FF438AH   LINE      CODE     ---       #55
      00FF43A8H   LINE      CODE     ---       #57
      00FF43A8H   LINE      CODE     ---       #59
      00FF43AEH   LINE      CODE     ---       #61
      00FF43B1H   LINE      CODE     ---       #62
      00FF43B5H   LINE      CODE     ---       #63
      00FF43B9H   LINE      CODE     ---       #64
      00FF43BDH   LINE      CODE     ---       #65
      00FF43C0H   LINE      CODE     ---       #66
      00FF43C2H   LINE      CODE     ---       #67
      00FF43C7H   LINE      CODE     ---       #68
      00FF43C9H   LINE      CODE     ---       #69
      00FF43CFH   LINE      CODE     ---       #71
      00FF43D2H   LINE      CODE     ---       #72
      00FF43D6H   LINE      CODE     ---       #73
      00FF43DAH   LINE      CODE     ---       #74
      00FF43DDH   LINE      CODE     ---       #75
      00FF43DDH   LINE      CODE     ---       #76
      00FF43E0H   LINE      CODE     ---       #77
      00FF43EAH   LINE      CODE     ---       #79
      00FF43EEH   LINE      CODE     ---       #80
      00FF43F0H   LINE      CODE     ---       #81
      00FF43FCH   LINE      CODE     ---       #83
      00FF43FFH   LINE      CODE     ---       #84
      00FF4401H   LINE      CODE     ---       #85
      00FF440DH   LINE      CODE     ---       #87
      00FF4410H   LINE      CODE     ---       #88
      00FF4412H   LINE      CODE     ---       #89
      00FF441EH   LINE      CODE     ---       #91
      00FF4421H   LINE      CODE     ---       #92
      00FF4421H   LINE      CODE     ---       #93
L251 LINKER/LOCATER V4.66.93.0                                                        04/27/2023  18:30:04  PAGE 44


      00FF4426H   LINE      CODE     ---       #94
      00FF4428H   LINE      CODE     ---       #95
      00FF4429H   LINE      CODE     ---       #98
      00FF4429H   LINE      CODE     ---       #100
      00FF442FH   LINE      CODE     ---       #102
      00FF4432H   LINE      CODE     ---       #103
      00FF4436H   LINE      CODE     ---       #104
      00FF443AH   LINE      CODE     ---       #105
      00FF443DH   LINE      CODE     ---       #106
      00FF443DH   LINE      CODE     ---       #108
      00FF4440H   LINE      CODE     ---       #109
      00FF444CH   LINE      CODE     ---       #111
      00FF4450H   LINE      CODE     ---       #112
      00FF4452H   LINE      CODE     ---       #113
      00FF445EH   LINE      CODE     ---       #115
      00FF4461H   LINE      CODE     ---       #116
      00FF4461H   LINE      CODE     ---       #118
      00FF4464H   LINE      CODE     ---       #119
      00FF4469H   LINE      CODE     ---       #120
      00FF446AH   LINE      CODE     ---       #123
      00FF446AH   LINE      CODE     ---       #125
      00FF4470H   LINE      CODE     ---       #127
      00FF4473H   LINE      CODE     ---       #128
      00FF4477H   LINE      CODE     ---       #129
      00FF447BH   LINE      CODE     ---       #130
      00FF447EH   LINE      CODE     ---       #131
      00FF4480H   LINE      CODE     ---       #132
      00FF4486H   LINE      CODE     ---       #134
      00FF4489H   LINE      CODE     ---       #135
      00FF448DH   LINE      CODE     ---       #136
      00FF4491H   LINE      CODE     ---       #137
      00FF4494H   LINE      CODE     ---       #138
      00FF4494H   LINE      CODE     ---       #140
      00FF4497H   LINE      CODE     ---       #141
      00FF44A3H   LINE      CODE     ---       #143
      00FF44A7H   LINE      CODE     ---       #144
      00FF44A9H   LINE      CODE     ---       #145
      00FF44B5H   LINE      CODE     ---       #147
      00FF44B8H   LINE      CODE     ---       #148
      00FF44B8H   LINE      CODE     ---       #150
      00FF44BBH   LINE      CODE     ---       #151
      00FF44C0H   LINE      CODE     ---       #152
      00FF44C1H   LINE      CODE     ---       #155
      00FF44C1H   LINE      CODE     ---       #157
      00FF44C7H   LINE      CODE     ---       #159
      00FF44CAH   LINE      CODE     ---       #160
      00FF44CEH   LINE      CODE     ---       #161
      00FF44D2H   LINE      CODE     ---       #162
      00FF44D5H   LINE      CODE     ---       #163
      00FF44D7H   LINE      CODE     ---       #164
      00FF44DDH   LINE      CODE     ---       #166
      00FF44E0H   LINE      CODE     ---       #167
      00FF44E4H   LINE      CODE     ---       #168
      00FF44E8H   LINE      CODE     ---       #169
      00FF44EBH   LINE      CODE     ---       #170
      00FF44EBH   LINE      CODE     ---       #172
      00FF44EEH   LINE      CODE     ---       #173
      00FF44FAH   LINE      CODE     ---       #175
      00FF44FEH   LINE      CODE     ---       #176
      00FF4500H   LINE      CODE     ---       #177
      00FF450CH   LINE      CODE     ---       #179
      00FF450FH   LINE      CODE     ---       #180
      00FF4512H   LINE      CODE     ---       #181
      00FF4515H   LINE      CODE     ---       #182
      00FF4515H   LINE      CODE     ---       #183
L251 LINKER/LOCATER V4.66.93.0                                                        04/27/2023  18:30:04  PAGE 45


      00FF4518H   LINE      CODE     ---       #184
      00FF451DH   LINE      CODE     ---       #185
      00FF451DH   LINE      CODE     ---       #188
      00FF451DH   LINE      CODE     ---       #190
      ---         BLOCKEND  ---      ---       LVL=0

      00FF5073H   BLOCK     CODE     ---       LVL=0
      WR6         REGSYM    ---      INT       uart_n
      R10         REGSYM    ---      BYTE      dat
      00FF5073H   LINE      CODE     ---       #199
      00FF5075H   LINE      CODE     ---       #201
      00FF5087H   LINE      CODE     ---       #203
      00FF5087H   LINE      CODE     ---       #204
      00FF508DH   LINE      CODE     ---       #205
      00FF5093H   LINE      CODE     ---       #206
      00FF5096H   LINE      CODE     ---       #207
      00FF5097H   LINE      CODE     ---       #208
      00FF5097H   LINE      CODE     ---       #209
      00FF509DH   LINE      CODE     ---       #210
      00FF50A3H   LINE      CODE     ---       #211
      00FF50A6H   LINE      CODE     ---       #212
      00FF50A7H   LINE      CODE     ---       #213
      00FF50A7H   LINE      CODE     ---       #214
      00FF50ADH   LINE      CODE     ---       #215
      00FF50B3H   LINE      CODE     ---       #216
      00FF50B6H   LINE      CODE     ---       #217
      00FF50B7H   LINE      CODE     ---       #218
      00FF50B7H   LINE      CODE     ---       #219
      00FF50BDH   LINE      CODE     ---       #220
      00FF50C3H   LINE      CODE     ---       #221
      00FF50C6H   LINE      CODE     ---       #222
      00FF50C6H   LINE      CODE     ---       #223
      00FF50C6H   LINE      CODE     ---       #224
      ---         BLOCKEND  ---      ---       LVL=0
      REG=3       REGSYM    ---      ---       p
      REG=3       REGSYM    ---      ---       str

      ---         MODULE    ---      ---       zf_fifo
      00FF53BAH   PUBLIC    CODE     ---       fifo_head_offset
      00FF4758H   PUBLIC    CODE     ---       fifo_write_buffer
      00000783H   PUBLIC    EDATA    BYTE      ?fifo_write_buffer?BYTE
      000000D0H   SFRSYM    DATA     BYTE      PSW
      0000009DH   SFRSYM    DATA     BYTE      IRCBAND
      00000097H   SFRSYM    DATA     BYTE      AUXR2
      000000EFH   SFRSYM    DATA     BYTE      AUXINTIF
      000000FDH   SFRSYM    DATA     BYTE      S4CON
      000000ACH   SFRSYM    DATA     BYTE      S3CON
      0000009AH   SFRSYM    DATA     BYTE      S2CON
      000000B7H   SFRSYM    DATA     BYTE      IPH
      000000CDH   SFRSYM    DATA     BYTE      SPSTAT
      000000DDH   SFRSYM    DATA     BYTE      T4T3M
      000000C1H   SFRSYM    DATA     BYTE      WDT_CONTR
      000000DFH   SFRSYM    DATA     BYTE      IP3
      000000F4H   SFRSYM    DATA     BYTE      USBCON
      000000B5H   SFRSYM    DATA     BYTE      IP2
      000000FFH   SFRSYM    DATA     BYTE      RSTCFG
      000000F9H   SFRSYM    DATA     BYTE      LINICR
      0000008EH   SFRSYM    DATA     BYTE      AUXR
      000000AFH   SFRSYM    DATA     BYTE      IE2
      00000088H   SFRSYM    DATA     BYTE      TCON
      00000098H   SFRSYM    DATA     BYTE      SCON
      000000F1H   SFRSYM    DATA     BYTE      CANICR
      00000087H   SFRSYM    DATA     BYTE      PCON
      000000BCH   SFRSYM    DATA     BYTE      ADC_CONTR
      000000E7H   SFRSYM    DATA     BYTE      CMPCR2
L251 LINKER/LOCATER V4.66.93.0                                                        04/27/2023  18:30:04  PAGE 46


      000000E6H   SFRSYM    DATA     BYTE      CMPCR1
      000000B8H   SFRSYM    DATA     BYTE      IP
      0000008FH   SFRSYM    DATA     BYTE      INTCLKO
      000000EEH   SFRSYM    DATA     BYTE      IP3H
      000000B6H   SFRSYM    DATA     BYTE      IP2H
      000000A8H   SFRSYM    DATA     BYTE      IE
      000000BBH   SFRSYM    DATA     BYTE      P_SW3
      000000BAH   SFRSYM    DATA     BYTE      P_SW2
      000000A2H   SFRSYM    DATA     BYTE      P_SW1
      000000CEH   SFRSYM    DATA     BYTE      SPCTL
      000000F8H   SFRSYM    DATA     BYTE      P7
      000000E8H   SFRSYM    DATA     BYTE      P6
      000000C8H   SFRSYM    DATA     BYTE      P5
      000000C0H   SFRSYM    DATA     BYTE      P4
      000000B0H   SFRSYM    DATA     BYTE      P3
      000000A0H   SFRSYM    DATA     BYTE      P2
      00000090H   SFRSYM    DATA     BYTE      P1
      00000080H   SFRSYM    DATA     BYTE      P0
      REG=2       REGSYM    ---      ---       fifo
      REG=7       REGSYM    ---      ---       buffer_addr

      00FF53BAH   BLOCK     CODE     ---       LVL=0
      REG=7       REGSYM    ---      ---       fifo
      DR24        REGSYM    ---      DWORD     offset
      00FF53BAH   LINE      CODE     ---       #61
      00FF53BEH   LINE      CODE     ---       #63
      00FF53C9H   LINE      CODE     ---       #65
      00FF53CBH   LINE      CODE     ---       #67
      00FF53E7H   LINE      CODE     ---       #68
      00FF53FBH   LINE      CODE     ---       #69
      ---         BLOCKEND  ---      ---       LVL=0
      REG=7       REGSYM    ---      ---       fifo
      DR24        REGSYM    ---      DWORD     offset
      REG=2       REGSYM    ---      ---       fifo
      REG=7       REGSYM    ---      ---       fifo

      00FF4758H   BLOCK     CODE     ---       LVL=0
      REG=3       REGSYM    ---      ---       fifo
      00000787H   SYMBOL    EDATA    ---       dat
      0000078BH   SYMBOL    EDATA    DWORD     length
      00FF4760H   BLOCK     CODE     NEAR LAB  LVL=1
      0000078FH   SYMBOL    EDATA    DWORD     temp_length
      ---         BLOCKEND  ---      ---       LVL=1
      00FF4758H   LINE      CODE     ---       #120
      00FF4760H   LINE      CODE     ---       #121
      00FF4760H   LINE      CODE     ---       #124
      00FF4773H   LINE      CODE     ---       #126
      00FF4789H   LINE      CODE     ---       #128
      00FF478DH   LINE      CODE     ---       #130
      00FF47A5H   LINE      CODE     ---       #131
      00FF47AEH   LINE      CODE     ---       #132
      00FF47BEH   LINE      CODE     ---       #133
      00FF47DEH   LINE      CODE     ---       #134
      00FF47EAH   LINE      CODE     ---       #135
      00FF47ECH   LINE      CODE     ---       #138
      00FF4808H   LINE      CODE     ---       #139
      00FF4811H   LINE      CODE     ---       #140
      00FF4811H   LINE      CODE     ---       #142
      00FF482BH   LINE      CODE     ---       #143
      00FF482DH   LINE      CODE     ---       #146
      00FF4833H   LINE      CODE     ---       #147
      00FF4833H   LINE      CODE     ---       #149
      00FF4835H   LINE      CODE     ---       #150
      ---         BLOCKEND  ---      ---       LVL=0
      REG=3       REGSYM    ---      ---       fifo
L251 LINKER/LOCATER V4.66.93.0                                                        04/27/2023  18:30:04  PAGE 47



      ---         MODULE    ---      ---       SEEKFREE_ABSOLUTE_ENCODER
      00FF0006H   PUBLIC    CODE     ---       encoder_delay_us
      000000D0H   SFRSYM    DATA     BYTE      PSW
      0000009DH   SFRSYM    DATA     BYTE      IRCBAND
      00000097H   SFRSYM    DATA     BYTE      AUXR2
      000000EFH   SFRSYM    DATA     BYTE      AUXINTIF
      000000FDH   SFRSYM    DATA     BYTE      S4CON
      000000ACH   SFRSYM    DATA     BYTE      S3CON
      0000009AH   SFRSYM    DATA     BYTE      S2CON
      000000B7H   SFRSYM    DATA     BYTE      IPH
      000000CDH   SFRSYM    DATA     BYTE      SPSTAT
      000000DDH   SFRSYM    DATA     BYTE      T4T3M
      000000C1H   SFRSYM    DATA     BYTE      WDT_CONTR
      000000DFH   SFRSYM    DATA     BYTE      IP3
      000000F4H   SFRSYM    DATA     BYTE      USBCON
      000000B5H   SFRSYM    DATA     BYTE      IP2
      000000FFH   SFRSYM    DATA     BYTE      RSTCFG
      000000F9H   SFRSYM    DATA     BYTE      LINICR
      0000008EH   SFRSYM    DATA     BYTE      AUXR
      000000AFH   SFRSYM    DATA     BYTE      IE2
      000000A0H.7 SFRSYM    DATA     BIT       P27
      000000A0H.6 SFRSYM    DATA     BIT       P26
      000000A0H.5 SFRSYM    DATA     BIT       P25
      000000A0H.4 SFRSYM    DATA     BIT       P24
      00000088H   SFRSYM    DATA     BYTE      TCON
      00000098H   SFRSYM    DATA     BYTE      SCON
      000000A0H.2 SFRSYM    DATA     BIT       P22
      000000F1H   SFRSYM    DATA     BYTE      CANICR
      00000087H   SFRSYM    DATA     BYTE      PCON
      000000BCH   SFRSYM    DATA     BYTE      ADC_CONTR
      000000E7H   SFRSYM    DATA     BYTE      CMPCR2
      000000E6H   SFRSYM    DATA     BYTE      CMPCR1
      000000B8H   SFRSYM    DATA     BYTE      IP
      0000008FH   SFRSYM    DATA     BYTE      INTCLKO
      000000EEH   SFRSYM    DATA     BYTE      IP3H
      000000B6H   SFRSYM    DATA     BYTE      IP2H
      000000A8H   SFRSYM    DATA     BYTE      IE
      000000BBH   SFRSYM    DATA     BYTE      P_SW3
      000000BAH   SFRSYM    DATA     BYTE      P_SW2
      000000A2H   SFRSYM    DATA     BYTE      P_SW1
      000000CEH   SFRSYM    DATA     BYTE      SPCTL
      000000F8H   SFRSYM    DATA     BYTE      P7
      000000E8H   SFRSYM    DATA     BYTE      P6
      000000C8H   SFRSYM    DATA     BYTE      P5
      000000C0H   SFRSYM    DATA     BYTE      P4
      000000B0H   SFRSYM    DATA     BYTE      P3
      000000A0H   SFRSYM    DATA     BYTE      P2
      00000090H   SFRSYM    DATA     BYTE      P1
      00000080H   SFRSYM    DATA     BYTE      P0

      00FF0006H   BLOCK     CODE     ---       LVL=0
      WR6         REGSYM    ---      WORD      x
      00FF0006H   LINE      CODE     ---       #43
      00FF0006H   LINE      CODE     ---       #45
      ---         BLOCKEND  ---      ---       LVL=0
      R6          REGSYM    ---      BYTE      byte
      R7          REGSYM    ---      BYTE      i
      R7          REGSYM    ---      BYTE      cmd
      R15         REGSYM    ---      BYTE      val
      R7          REGSYM    ---      BYTE      cmd
      REG=3       REGSYM    ---      ---       val
      R7          REGSYM    ---      BYTE      cmd
      R15         REGSYM    ---      BYTE      val
      R14         REGSYM    ---      BYTE      dat
L251 LINKER/LOCATER V4.66.93.0                                                        04/27/2023  18:30:04  PAGE 48


      R7          REGSYM    ---      BYTE      cmd
      REG=3       REGSYM    ---      ---       val
      WR14        REGSYM    ---      WORD      zero_position
      WR14        REGSYM    ---      WORD      angle
      R10         REGSYM    ---      BYTE      byte
      R7          REGSYM    ---      BYTE      cmd
      R15         REGSYM    ---      BYTE      val
      R7          REGSYM    ---      BYTE      cmd
      REG=3       REGSYM    ---      ---       val
      R7          REGSYM    ---      BYTE      cmd
      R15         REGSYM    ---      BYTE      val
      R14         REGSYM    ---      BYTE      dat
      R7          REGSYM    ---      BYTE      cmd
      REG=3       REGSYM    ---      ---       val
      WR14        REGSYM    ---      WORD      zero_position
      WR14        REGSYM    ---      WORD      angle

      ---         MODULE    ---      ---       SEEKFREE_AT24C02
      000000D0H   SFRSYM    DATA     BYTE      PSW
      0000009DH   SFRSYM    DATA     BYTE      IRCBAND
      00000097H   SFRSYM    DATA     BYTE      AUXR2
      000000EFH   SFRSYM    DATA     BYTE      AUXINTIF
      000000FDH   SFRSYM    DATA     BYTE      S4CON
      000000ACH   SFRSYM    DATA     BYTE      S3CON
      0000009AH   SFRSYM    DATA     BYTE      S2CON
      000000B7H   SFRSYM    DATA     BYTE      IPH
      000000CDH   SFRSYM    DATA     BYTE      SPSTAT
      000000DDH   SFRSYM    DATA     BYTE      T4T3M
      000000C1H   SFRSYM    DATA     BYTE      WDT_CONTR
      000000DFH   SFRSYM    DATA     BYTE      IP3
      000000F4H   SFRSYM    DATA     BYTE      USBCON
      000000B5H   SFRSYM    DATA     BYTE      IP2
      000000FFH   SFRSYM    DATA     BYTE      RSTCFG
      000000F9H   SFRSYM    DATA     BYTE      LINICR
      0000008EH   SFRSYM    DATA     BYTE      AUXR
      000000AFH   SFRSYM    DATA     BYTE      IE2
      00000088H   SFRSYM    DATA     BYTE      TCON
      000000A0H.3 SFRSYM    DATA     BIT       P23
      00000098H   SFRSYM    DATA     BYTE      SCON
      000000A0H.2 SFRSYM    DATA     BIT       P22
      000000F1H   SFRSYM    DATA     BYTE      CANICR
      00000087H   SFRSYM    DATA     BYTE      PCON
      000000BCH   SFRSYM    DATA     BYTE      ADC_CONTR
      000000E7H   SFRSYM    DATA     BYTE      CMPCR2
      000000E6H   SFRSYM    DATA     BYTE      CMPCR1
      000000B8H   SFRSYM    DATA     BYTE      IP
      0000008FH   SFRSYM    DATA     BYTE      INTCLKO
      000000EEH   SFRSYM    DATA     BYTE      IP3H
      000000B6H   SFRSYM    DATA     BYTE      IP2H
      000000A8H   SFRSYM    DATA     BYTE      IE
      000000BBH   SFRSYM    DATA     BYTE      P_SW3
      000000BAH   SFRSYM    DATA     BYTE      P_SW2
      000000A2H   SFRSYM    DATA     BYTE      P_SW1
      000000CEH   SFRSYM    DATA     BYTE      SPCTL
      000000F8H   SFRSYM    DATA     BYTE      P7
      000000E8H   SFRSYM    DATA     BYTE      P6
      000000C8H   SFRSYM    DATA     BYTE      P5
      000000C0H   SFRSYM    DATA     BYTE      P4
      000000B0H   SFRSYM    DATA     BYTE      P3
      000000A0H   SFRSYM    DATA     BYTE      P2
      00000090H   SFRSYM    DATA     BYTE      P1
      00000080H   SFRSYM    DATA     BYTE      P0
      00FF59FAH   SYMBOL    CODE     ---       at24c02_simiic_stop
      00FF5819H   SYMBOL    CODE     ---       at24c02_simiic_sendack
      00FF0046H   SYMBOL    CODE     ---       at24c02_simiic_delay
L251 LINKER/LOCATER V4.66.93.0                                                        04/27/2023  18:30:04  PAGE 49



      00FF0046H   BLOCK     CODE     ---       LVL=0
      WR6         REGSYM    ---      WORD      j
      00FF0046H   LINE      CODE     ---       #45
      00FF0046H   LINE      CODE     ---       #46
      00FF0046H   LINE      CODE     ---       #47
      00FF004AH   LINE      CODE     ---       #48
      00FF0052H   LINE      CODE     ---       #49
      ---         BLOCKEND  ---      ---       LVL=0

      00FF59FAH   BLOCK     CODE     ---       LVL=0
      00FF59FAH   LINE      CODE     ---       #63
      00FF59FAH   LINE      CODE     ---       #65
      00FF59FCH   LINE      CODE     ---       #66
      00FF59FEH   LINE      CODE     ---       #67
      00FF5A01H   LINE      CODE     ---       #68
      00FF5A03H   LINE      CODE     ---       #69
      00FF5A06H   LINE      CODE     ---       #70
      00FF5A08H   LINE      CODE     ---       #71
      ---         BLOCKEND  ---      ---       LVL=0

      00FF5819H   BLOCK     CODE     ---       LVL=0
      R15         REGSYM    ---      BYTE      ack_dat
      00FF5819H   LINE      CODE     ---       #76
      00FF581DH   LINE      CODE     ---       #78
      00FF581FH   LINE      CODE     ---       #79
      00FF5822H   LINE      CODE     ---       #80
      00FF582AH   LINE      CODE     ---       #81
      00FF582CH   LINE      CODE     ---       #83
      00FF582EH   LINE      CODE     ---       #84
      00FF5831H   LINE      CODE     ---       #85
      00FF5833H   LINE      CODE     ---       #86
      00FF5836H   LINE      CODE     ---       #87
      ---         BLOCKEND  ---      ---       LVL=0
      R15         REGSYM    ---      BYTE      c
      R14         REGSYM    ---      BYTE      i
      R15         REGSYM    ---      BYTE      ack_x
      R13         REGSYM    ---      BYTE      i
      R14         REGSYM    ---      BYTE      c
      R13         REGSYM    ---      BYTE      dev_add
      R14         REGSYM    ---      BYTE      reg
      R15         REGSYM    ---      BYTE      dat
      R15         REGSYM    ---      BYTE      dev_add
      R14         REGSYM    ---      BYTE      reg
      R15         REGSYM    ---      BYTE      dat
      R14         REGSYM    ---      BYTE      byte_reg
      R15         REGSYM    ---      BYTE      dat
      R15         REGSYM    ---      BYTE      byte_reg
      REG=3       REGSYM    ---      ---       dat_add
      REG=3       REGSYM    ---      ---       dat_add

      ---         MODULE    ---      ---       SEEKFREE_BLUETOOTH_CH9141
      00FF5908H   PUBLIC    CODE     ---       bluetooth_ch9141_uart_callback
      000000D0H   SFRSYM    DATA     BYTE      PSW
      0000009DH   SFRSYM    DATA     BYTE      IRCBAND
      00000097H   SFRSYM    DATA     BYTE      AUXR2
      000000EFH   SFRSYM    DATA     BYTE      AUXINTIF
      000000FDH   SFRSYM    DATA     BYTE      S4CON
      000000ACH   SFRSYM    DATA     BYTE      S3CON
      0000009AH   SFRSYM    DATA     BYTE      S2CON
      000000FEH   SFRSYM    DATA     BYTE      S4BUF
      000000B7H   SFRSYM    DATA     BYTE      IPH
      000000CDH   SFRSYM    DATA     BYTE      SPSTAT
      000000DDH   SFRSYM    DATA     BYTE      T4T3M
      000000C1H   SFRSYM    DATA     BYTE      WDT_CONTR
L251 LINKER/LOCATER V4.66.93.0                                                        04/27/2023  18:30:04  PAGE 50


      000000DFH   SFRSYM    DATA     BYTE      IP3
      000000F4H   SFRSYM    DATA     BYTE      USBCON
      000000B5H   SFRSYM    DATA     BYTE      IP2
      000000FFH   SFRSYM    DATA     BYTE      RSTCFG
      000000F9H   SFRSYM    DATA     BYTE      LINICR
      0000008EH   SFRSYM    DATA     BYTE      AUXR
      000000AFH   SFRSYM    DATA     BYTE      IE2
      00000080H.7 SFRSYM    DATA     BIT       P07
      00000088H   SFRSYM    DATA     BYTE      TCON
      00000098H   SFRSYM    DATA     BYTE      SCON
      000000F1H   SFRSYM    DATA     BYTE      CANICR
      00000087H   SFRSYM    DATA     BYTE      PCON
      000000BCH   SFRSYM    DATA     BYTE      ADC_CONTR
      000000E7H   SFRSYM    DATA     BYTE      CMPCR2
      000000E6H   SFRSYM    DATA     BYTE      CMPCR1
      000000B8H   SFRSYM    DATA     BYTE      IP
      0000008FH   SFRSYM    DATA     BYTE      INTCLKO
      000000EEH   SFRSYM    DATA     BYTE      IP3H
      000000B6H   SFRSYM    DATA     BYTE      IP2H
      000000A8H   SFRSYM    DATA     BYTE      IE
      000000BBH   SFRSYM    DATA     BYTE      P_SW3
      000000BAH   SFRSYM    DATA     BYTE      P_SW2
      000000A2H   SFRSYM    DATA     BYTE      P_SW1
      000000CEH   SFRSYM    DATA     BYTE      SPCTL
      000000F8H   SFRSYM    DATA     BYTE      P7
      000000E8H   SFRSYM    DATA     BYTE      P6
      000000C8H   SFRSYM    DATA     BYTE      P5
      000000C0H   SFRSYM    DATA     BYTE      P4
      000000B0H   SFRSYM    DATA     BYTE      P3
      000000A0H   SFRSYM    DATA     BYTE      P2
      00000090H   SFRSYM    DATA     BYTE      P1
      00000080H   SFRSYM    DATA     BYTE      P0
      00000688H   SYMBOL    EDATA    ---       bluetooth_ch9141_buffer
      000006C8H   SYMBOL    EDATA    BYTE      bluetooth_ch9141_data
      000006C9H   SYMBOL    EDATA    ---       bluetooth_ch9141_fifo

      00FF5908H   BLOCK     CODE     ---       LVL=0
      00FF5908H   LINE      CODE     ---       #67
      00FF5908H   LINE      CODE     ---       #70
      00FF590EH   LINE      CODE     ---       #71
      ---         BLOCKEND  ---      ---       LVL=0
      DR12        REGSYM    ---      DWORD     len
      REG=7       REGSYM    ---      ---       buff
      DR8         REGSYM    ---      DWORD     len

      ---         MODULE    ---      ---       SEEKFREE_DL1A
      00000844H   PUBLIC    EDATA    WORD      dl1a_distance_mm
      00000846H   PUBLIC    EDATA    BYTE      dl1a_finsh_flag
      000000D0H   SFRSYM    DATA     BYTE      PSW
      0000009DH   SFRSYM    DATA     BYTE      IRCBAND
      00000097H   SFRSYM    DATA     BYTE      AUXR2
      000000EFH   SFRSYM    DATA     BYTE      AUXINTIF
      000000FDH   SFRSYM    DATA     BYTE      S4CON
      000000ACH   SFRSYM    DATA     BYTE      S3CON
      0000009AH   SFRSYM    DATA     BYTE      S2CON
      000000B7H   SFRSYM    DATA     BYTE      IPH
      000000CDH   SFRSYM    DATA     BYTE      SPSTAT
      000000DDH   SFRSYM    DATA     BYTE      T4T3M
      000000C1H   SFRSYM    DATA     BYTE      WDT_CONTR
      000000DFH   SFRSYM    DATA     BYTE      IP3
      000000F4H   SFRSYM    DATA     BYTE      USBCON
      000000B5H   SFRSYM    DATA     BYTE      IP2
      000000FFH   SFRSYM    DATA     BYTE      RSTCFG
      000000F9H   SFRSYM    DATA     BYTE      LINICR
      0000008EH   SFRSYM    DATA     BYTE      AUXR
L251 LINKER/LOCATER V4.66.93.0                                                        04/27/2023  18:30:04  PAGE 51


      000000AFH   SFRSYM    DATA     BYTE      IE2
      000000A0H.7 SFRSYM    DATA     BIT       P27
      000000C0H.5 SFRSYM    DATA     BIT       P45
      000000A0H.6 SFRSYM    DATA     BIT       P26
      00000088H   SFRSYM    DATA     BYTE      TCON
      00000098H   SFRSYM    DATA     BYTE      SCON
      000000F1H   SFRSYM    DATA     BYTE      CANICR
      00000087H   SFRSYM    DATA     BYTE      PCON
      000000BCH   SFRSYM    DATA     BYTE      ADC_CONTR
      000000E7H   SFRSYM    DATA     BYTE      CMPCR2
      000000E6H   SFRSYM    DATA     BYTE      CMPCR1
      000000B8H   SFRSYM    DATA     BYTE      IP
      0000008FH   SFRSYM    DATA     BYTE      INTCLKO
      000000EEH   SFRSYM    DATA     BYTE      IP3H
      000000B6H   SFRSYM    DATA     BYTE      IP2H
      000000A8H   SFRSYM    DATA     BYTE      IE
      000000BBH   SFRSYM    DATA     BYTE      P_SW3
      000000BAH   SFRSYM    DATA     BYTE      P_SW2
      000000A2H   SFRSYM    DATA     BYTE      P_SW1
      000000CEH   SFRSYM    DATA     BYTE      SPCTL
      000000F8H   SFRSYM    DATA     BYTE      P7
      000000E8H   SFRSYM    DATA     BYTE      P6
      000000C8H   SFRSYM    DATA     BYTE      P5
      000000C0H   SFRSYM    DATA     BYTE      P4
      000000B0H   SFRSYM    DATA     BYTE      P3
      000000A0H   SFRSYM    DATA     BYTE      P2
      00000090H   SFRSYM    DATA     BYTE      P1
      00000080H   SFRSYM    DATA     BYTE      P0
      00FF5839H   SYMBOL    CODE     ---       dl1a_simiic_sendack
      00FF54B6H   SYMBOL    CODE     ---       dl1a_timeout_microseconds_to_mclks
      00FF543BH   SYMBOL    CODE     ---       dl1a_timeout_mclks_to_microseconds
      00FF54F2H   SYMBOL    CODE     ---       dl1a_read_ch
      00FF5A2DH   SYMBOL    CODE     ---       dl1a_decode_timeout
      00FF568FH   SYMBOL    CODE     ---       dl1a_send_ch
      00FF559BH   SYMBOL    CODE     ---       dl1a_encode_timeout
      00FF501BH   SYMBOL    CODE     ---       dl1a_get_sequence_step_enables
      00FF0026H   SYMBOL    CODE     ---       dl1a_sccb_waitack
      00FF5A77H   SYMBOL    CODE     ---       dl1a_simiic_delay
      00FF4838H   SYMBOL    CODE     ---       dl1a_get_sequence_step_timeouts
      00FF5A3DH   SYMBOL    CODE     ---       dl1a_simiic_start
      00FF50C7H   SYMBOL    CODE     ---       dl1a_simiic_read_regs
      00FF5566H   SYMBOL    CODE     ---       dl1a_simiic_write_dats
      00FF5A0BH   SYMBOL    CODE     ---       dl1a_simiic_stop
      00FF51BDH   SYMBOL    CODE     ---       dl1a_get_vcsel_pulse_period

      00FF5A77H   BLOCK     CODE     ---       LVL=0
      WR6         REGSYM    ---      WORD      j
      00FF5A77H   LINE      CODE     ---       #75
      00FF5A77H   LINE      CODE     ---       #76
      00FF5A77H   LINE      CODE     ---       #77
      00FF5A7BH   LINE      CODE     ---       #78
      00FF5A83H   LINE      CODE     ---       #79
      ---         BLOCKEND  ---      ---       LVL=0

      00FF5A3DH   BLOCK     CODE     ---       LVL=0
      00FF5A3DH   LINE      CODE     ---       #82
      00FF5A3DH   LINE      CODE     ---       #84
      00FF5A3FH   LINE      CODE     ---       #85
      00FF5A41H   LINE      CODE     ---       #86
      00FF5A44H   LINE      CODE     ---       #87
      00FF5A46H   LINE      CODE     ---       #88
      00FF5A49H   LINE      CODE     ---       #89
      00FF5A4BH   LINE      CODE     ---       #90
      ---         BLOCKEND  ---      ---       LVL=0

L251 LINKER/LOCATER V4.66.93.0                                                        04/27/2023  18:30:04  PAGE 52


      00FF5A0BH   BLOCK     CODE     ---       LVL=0
      00FF5A0BH   LINE      CODE     ---       #93
      00FF5A0BH   LINE      CODE     ---       #95
      00FF5A0DH   LINE      CODE     ---       #96
      00FF5A0FH   LINE      CODE     ---       #97
      00FF5A12H   LINE      CODE     ---       #98
      00FF5A14H   LINE      CODE     ---       #99
      00FF5A17H   LINE      CODE     ---       #100
      00FF5A19H   LINE      CODE     ---       #101
      ---         BLOCKEND  ---      ---       LVL=0

      00FF5839H   BLOCK     CODE     ---       LVL=0
      R15         REGSYM    ---      BYTE      ack_dat
      00FF5839H   LINE      CODE     ---       #106
      00FF583DH   LINE      CODE     ---       #108
      00FF583FH   LINE      CODE     ---       #109
      00FF5842H   LINE      CODE     ---       #110
      00FF584AH   LINE      CODE     ---       #111
      00FF584CH   LINE      CODE     ---       #113
      00FF584EH   LINE      CODE     ---       #114
      00FF5851H   LINE      CODE     ---       #115
      00FF5853H   LINE      CODE     ---       #116
      00FF5856H   LINE      CODE     ---       #117
      ---         BLOCKEND  ---      ---       LVL=0

      00FF0026H   BLOCK     CODE     ---       LVL=0
      00FF0026H   LINE      CODE     ---       #120
      00FF0026H   LINE      CODE     ---       #122
      00FF0028H   LINE      CODE     ---       #124
      00FF002BH   LINE      CODE     ---       #126
      00FF002DH   LINE      CODE     ---       #127
      00FF0030H   LINE      CODE     ---       #129
      00FF0033H   LINE      CODE     ---       #132
      00FF0035H   LINE      CODE     ---       #133
      00FF0038H   LINE      CODE     ---       #134
      00FF0038H   LINE      CODE     ---       #136
      00FF003AH   LINE      CODE     ---       #137
      00FF003DH   LINE      CODE     ---       #138
      00FF0041H   LINE      CODE     ---       #139
      ---         BLOCKEND  ---      ---       LVL=0

      00FF568FH   BLOCK     CODE     ---       LVL=0
      R15         REGSYM    ---      BYTE      c
      00FF5693H   BLOCK     CODE     NEAR LAB  LVL=1
      R14         REGSYM    ---      BYTE      i
      ---         BLOCKEND  ---      ---       LVL=1
      00FF568FH   LINE      CODE     ---       #145
      00FF5693H   LINE      CODE     ---       #146
      00FF5693H   LINE      CODE     ---       #147
      00FF5696H   LINE      CODE     ---       #148
      00FF5698H   LINE      CODE     ---       #150
      00FF56A1H   LINE      CODE     ---       #151
      00FF56A3H   LINE      CODE     ---       #152
      00FF56A5H   LINE      CODE     ---       #153
      00FF56A8H   LINE      CODE     ---       #154
      00FF56AAH   LINE      CODE     ---       #155
      00FF56ADH   LINE      CODE     ---       #156
      00FF56AFH   LINE      CODE     ---       #157
      00FF56B7H   LINE      CODE     ---       #158
      00FF56BAH   LINE      CODE     ---       #159
      ---         BLOCKEND  ---      ---       LVL=0

      00FF54F2H   BLOCK     CODE     ---       LVL=0
      R15         REGSYM    ---      BYTE      ack_x
      00FF54F8H   BLOCK     CODE     NEAR LAB  LVL=1
L251 LINKER/LOCATER V4.66.93.0                                                        04/27/2023  18:30:04  PAGE 53


      R13         REGSYM    ---      BYTE      i
      R14         REGSYM    ---      BYTE      c
      ---         BLOCKEND  ---      ---       LVL=1
      00FF54F2H   LINE      CODE     ---       #165
      00FF54F8H   LINE      CODE     ---       #166
      00FF54F8H   LINE      CODE     ---       #169
      00FF54FAH   LINE      CODE     ---       #170
      00FF54FCH   LINE      CODE     ---       #171
      00FF54FFH   LINE      CODE     ---       #172
      00FF5501H   LINE      CODE     ---       #174
      00FF5504H   LINE      CODE     ---       #176
      00FF5507H   LINE      CODE     ---       #177
      00FF5509H   LINE      CODE     ---       #178
      00FF550CH   LINE      CODE     ---       #179
      00FF550EH   LINE      CODE     ---       #180
      00FF5511H   LINE      CODE     ---       #181
      00FF5513H   LINE      CODE     ---       #182
      00FF5516H   LINE      CODE     ---       #184
      00FF5518H   LINE      CODE     ---       #185
      00FF551CH   LINE      CODE     ---       #188
      00FF551EH   LINE      CODE     ---       #189
      00FF5521H   LINE      CODE     ---       #190
      00FF5526H   LINE      CODE     ---       #192
      00FF5528H   LINE      CODE     ---       #193
      ---         BLOCKEND  ---      ---       LVL=0

      00FF5566H   BLOCK     CODE     ---       LVL=0
      0000082BH   SYMBOL    EDATA    BYTE      dev_add
      0000082CH   SYMBOL    EDATA    ---       dat
      DR12        REGSYM    ---      DWORD     len
      00FF5566H   LINE      CODE     ---       #205
      00FF5572H   LINE      CODE     ---       #207
      00FF5575H   LINE      CODE     ---       #208
      00FF557BH   LINE      CODE     ---       #209
      00FF557DH   LINE      CODE     ---       #211
      00FF558DH   LINE      CODE     ---       #212
      00FF5595H   LINE      CODE     ---       #215
      00FF5598H   LINE      CODE     ---       #216
      ---         BLOCKEND  ---      ---       LVL=0
      R13         REGSYM    ---      BYTE      dev_add
      R14         REGSYM    ---      BYTE      reg
      R15         REGSYM    ---      BYTE      dat
      R15         REGSYM    ---      BYTE      dev_add
      R14         REGSYM    ---      BYTE      reg
      R15         REGSYM    ---      BYTE      dat

      00FF50C7H   BLOCK     CODE     ---       LVL=0
      0000081FH   SYMBOL    EDATA    BYTE      dev_add
      00000820H   SYMBOL    EDATA    BYTE      reg
      REG=3       REGSYM    ---      ---       dat_add
      00000821H   SYMBOL    EDATA    DWORD     num
      00FF50C7H   LINE      CODE     ---       #273
      00FF50D3H   LINE      CODE     ---       #275
      00FF50D6H   LINE      CODE     ---       #276
      00FF50DFH   LINE      CODE     ---       #277
      00FF50E6H   LINE      CODE     ---       #280
      00FF50E9H   LINE      CODE     ---       #281
      00FF50F4H   LINE      CODE     ---       #282
      00FF50F6H   LINE      CODE     ---       #284
      00FF50FEH   LINE      CODE     ---       #285
      00FF5100H   LINE      CODE     ---       #286
      00FF510EH   LINE      CODE     ---       #287
      00FF5115H   LINE      CODE     ---       #288
      00FF5118H   LINE      CODE     ---       #289
      ---         BLOCKEND  ---      ---       LVL=0
L251 LINKER/LOCATER V4.66.93.0                                                        04/27/2023  18:30:04  PAGE 54


      REG=3       REGSYM    ---      ---       dat_add
      REG=3       REGSYM    ---      ---       type_is_aperture

      00FF543BH   BLOCK     CODE     ---       LVL=0
      WR30        REGSYM    ---      WORD      timeout_period_mclks
      R5          REGSYM    ---      BYTE      vcsel_period_pclks
      00FF543DH   BLOCK     CODE     NEAR LAB  LVL=1
      DR24        REGSYM    ---      DWORD     macro_period_ns
      ---         BLOCKEND  ---      ---       LVL=1
      00FF543BH   LINE      CODE     ---       #417
      00FF543DH   LINE      CODE     ---       #418
      00FF543DH   LINE      CODE     ---       #419
      00FF545EH   LINE      CODE     ---       #421
      ---         BLOCKEND  ---      ---       LVL=0

      00FF54B6H   BLOCK     CODE     ---       LVL=0
      DR28        REGSYM    ---      DWORD     timeout_period_us
      R3          REGSYM    ---      BYTE      vcsel_period_pclks
      00FF54B8H   BLOCK     CODE     NEAR LAB  LVL=1
      DR8         REGSYM    ---      DWORD     macro_period_ns
      ---         BLOCKEND  ---      ---       LVL=1
      00FF54B6H   LINE      CODE     ---       #432
      00FF54B8H   LINE      CODE     ---       #433
      00FF54B8H   LINE      CODE     ---       #434
      00FF54D9H   LINE      CODE     ---       #436
      ---         BLOCKEND  ---      ---       LVL=0

      00FF5A2DH   BLOCK     CODE     ---       LVL=0
      WR4         REGSYM    ---      WORD      reg_val
      00FF5A2DH   LINE      CODE     ---       #446
      00FF5A2FH   LINE      CODE     ---       #449
      00FF5A3CH   LINE      CODE     ---       #451
      ---         BLOCKEND  ---      ---       LVL=0

      00FF559BH   BLOCK     CODE     ---       LVL=0
      WR2         REGSYM    ---      WORD      timeout_mclks
      00FF559DH   BLOCK     CODE     NEAR LAB  LVL=1
      DR8         REGSYM    ---      DWORD     ls_byte
      WR4         REGSYM    ---      WORD      ms_byte
      WR6         REGSYM    ---      WORD      return_data
      ---         BLOCKEND  ---      ---       LVL=1
      00FF559BH   LINE      CODE     ---       #460
      00FF559DH   LINE      CODE     ---       #461
      00FF559DH   LINE      CODE     ---       #462
      00FF559DH   LINE      CODE     ---       #463
      00FF55A1H   LINE      CODE     ---       #464
      00FF55A1H   LINE      CODE     ---       #466
      00FF55A7H   LINE      CODE     ---       #469
      00FF55ADH   LINE      CODE     ---       #470
      00FF55AFH   LINE      CODE     ---       #472
      00FF55B8H   LINE      CODE     ---       #473
      00FF55BAH   LINE      CODE     ---       #474
      00FF55C4H   LINE      CODE     ---       #475
      00FF55CEH   LINE      CODE     ---       #476
      00FF55CEH   LINE      CODE     ---       #477
      00FF55CEH   LINE      CODE     ---       #478
      ---         BLOCKEND  ---      ---       LVL=0

      00FF501BH   BLOCK     CODE     ---       LVL=0
      REG=3       REGSYM    ---      ---       enables
      00FF501FH   BLOCK     CODE     NEAR LAB  LVL=1
      0000084DH   SYMBOL    EDATA    BYTE      sequence_config
      ---         BLOCKEND  ---      ---       LVL=1
      00FF501BH   LINE      CODE     ---       #487
      00FF501FH   LINE      CODE     ---       #488
L251 LINKER/LOCATER V4.66.93.0                                                        04/27/2023  18:30:04  PAGE 55


      00FF501FH   LINE      CODE     ---       #489
      00FF5024H   LINE      CODE     ---       #490
      00FF5035H   LINE      CODE     ---       #492
      00FF503FH   LINE      CODE     ---       #493
      00FF504BH   LINE      CODE     ---       #494
      00FF5059H   LINE      CODE     ---       #495
      00FF5065H   LINE      CODE     ---       #496
      00FF5070H   LINE      CODE     ---       #497
      ---         BLOCKEND  ---      ---       LVL=0

      00FF51BDH   BLOCK     CODE     ---       LVL=0
      WR6         REGSYM    ---      INT       type
      0000084EH   SYMBOL    EDATA    BYTE      data_buffer
      00FF51BDH   LINE      CODE     ---       #506
      00FF51BDH   LINE      CODE     ---       #507
      00FF51BDH   LINE      CODE     ---       #508
      00FF51C2H   LINE      CODE     ---       #509
      00FF51C6H   LINE      CODE     ---       #511
      00FF51D3H   LINE      CODE     ---       #512
      00FF51D3H   LINE      CODE     ---       #513
      00FF51D5H   LINE      CODE     ---       #514
      00FF51DBH   LINE      CODE     ---       #516
      00FF51EFH   LINE      CODE     ---       #517
      00FF51FDH   LINE      CODE     ---       #518
      00FF51FFH   LINE      CODE     ---       #521
      00FF5205H   LINE      CODE     ---       #522
      00FF5205H   LINE      CODE     ---       #523
      00FF5209H   LINE      CODE     ---       #524
      ---         BLOCKEND  ---      ---       LVL=0

      00FF4838H   BLOCK     CODE     ---       LVL=0
      00000825H   SYMBOL    EDATA    ---       enables
      REG=3       REGSYM    ---      ---       timeouts
      00FF4840H   BLOCK     CODE     NEAR LAB  LVL=1
      00000829H   SYMBOL    EDATA    ---       reg_buffer
      WR6         REGSYM    ---      WORD      reg16_buffer
      ---         BLOCKEND  ---      ---       LVL=1
      00FF4838H   LINE      CODE     ---       #534
      00FF4840H   LINE      CODE     ---       #535
      00FF4840H   LINE      CODE     ---       #537
      00FF4840H   LINE      CODE     ---       #539
      00FF484AH   LINE      CODE     ---       #541
      00FF485EH   LINE      CODE     ---       #542
      00FF486AH   LINE      CODE     ---       #543
      00FF4878H   LINE      CODE     ---       #545
      00FF488CH   LINE      CODE     ---       #546
      00FF4898H   LINE      CODE     ---       #547
      00FF489FH   LINE      CODE     ---       #548
      00FF48ADH   LINE      CODE     ---       #550
      00FF48BAH   LINE      CODE     ---       #552
      00FF48CEH   LINE      CODE     ---       #553
      00FF48DAH   LINE      CODE     ---       #554
      00FF48E1H   LINE      CODE     ---       #556
      00FF48EBH   LINE      CODE     ---       #558
      00FF48FDH   LINE      CODE     ---       #559
      00FF48FDH   LINE      CODE     ---       #561
      00FF4910H   LINE      CODE     ---       #562
      ---         BLOCKEND  ---      ---       LVL=0
      R10         REGSYM    ---      BYTE      vhv_init_byte
      R15         REGSYM    ---      BYTE      return_state
      DR12        REGSYM    ---      DWORD     budget_us
      WR6         REGSYM    ---      WORD      dat
      DR4         REGSYM    ---      DWORD     final_range_timeout_us
      WR6         REGSYM    ---      WORD      final_range_timeout_mclks
      DR12        REGSYM    ---      DWORD     budget_us
L251 LINKER/LOCATER V4.66.93.0                                                        04/27/2023  18:30:04  PAGE 56


      DR4         REGSYM    ---      FLOAT     limit_mcps
      WR6         REGSYM    ---      WORD      limit_mcps_16bit
      R15         REGSYM    ---      BYTE      return_state
      R14         REGSYM    ---      BYTE      reg_data_buffer
      R13         REGSYM    ---      BYTE      i

      ---         MODULE    ---      ---       SEEKFREE_FONT
      00FF20A6H   PUBLIC    CODE     ---       oled_8x16
      00FF2696H   PUBLIC    CODE     ---       tft_ascii
      00FF2C86H   PUBLIC    CODE     ---       oled_6x8
      000000D0H   SFRSYM    DATA     BYTE      PSW
      0000009DH   SFRSYM    DATA     BYTE      IRCBAND
      00000097H   SFRSYM    DATA     BYTE      AUXR2
      000000EFH   SFRSYM    DATA     BYTE      AUXINTIF
      000000FDH   SFRSYM    DATA     BYTE      S4CON
      000000ACH   SFRSYM    DATA     BYTE      S3CON
      0000009AH   SFRSYM    DATA     BYTE      S2CON
      000000B7H   SFRSYM    DATA     BYTE      IPH
      000000CDH   SFRSYM    DATA     BYTE      SPSTAT
      000000DDH   SFRSYM    DATA     BYTE      T4T3M
      000000C1H   SFRSYM    DATA     BYTE      WDT_CONTR
      000000DFH   SFRSYM    DATA     BYTE      IP3
      000000F4H   SFRSYM    DATA     BYTE      USBCON
      000000B5H   SFRSYM    DATA     BYTE      IP2
      000000FFH   SFRSYM    DATA     BYTE      RSTCFG
      000000F9H   SFRSYM    DATA     BYTE      LINICR
      0000008EH   SFRSYM    DATA     BYTE      AUXR
      000000AFH   SFRSYM    DATA     BYTE      IE2
      00000088H   SFRSYM    DATA     BYTE      TCON
      00000098H   SFRSYM    DATA     BYTE      SCON
      000000F1H   SFRSYM    DATA     BYTE      CANICR
      00000087H   SFRSYM    DATA     BYTE      PCON
      000000BCH   SFRSYM    DATA     BYTE      ADC_CONTR
      000000E7H   SFRSYM    DATA     BYTE      CMPCR2
      000000E6H   SFRSYM    DATA     BYTE      CMPCR1
      000000B8H   SFRSYM    DATA     BYTE      IP
      0000008FH   SFRSYM    DATA     BYTE      INTCLKO
      000000EEH   SFRSYM    DATA     BYTE      IP3H
      000000B6H   SFRSYM    DATA     BYTE      IP2H
      000000A8H   SFRSYM    DATA     BYTE      IE
      000000BBH   SFRSYM    DATA     BYTE      P_SW3
      000000BAH   SFRSYM    DATA     BYTE      P_SW2
      000000A2H   SFRSYM    DATA     BYTE      P_SW1
      000000CEH   SFRSYM    DATA     BYTE      SPCTL
      000000F8H   SFRSYM    DATA     BYTE      P7
      000000E8H   SFRSYM    DATA     BYTE      P6
      000000C8H   SFRSYM    DATA     BYTE      P5
      000000C0H   SFRSYM    DATA     BYTE      P4
      000000B0H   SFRSYM    DATA     BYTE      P3
      000000A0H   SFRSYM    DATA     BYTE      P2
      00000090H   SFRSYM    DATA     BYTE      P1
      00000080H   SFRSYM    DATA     BYTE      P0

      ---         MODULE    ---      ---       SEEKFREE_ICM20602
      000007F1H   PUBLIC    EDATA    INT       icm20602_acc_x
      000007F3H   PUBLIC    EDATA    INT       icm20602_acc_y
      000007F5H   PUBLIC    EDATA    INT       icm20602_acc_z
      000007F7H   PUBLIC    EDATA    INT       icm20602_gyro_x
      000007F9H   PUBLIC    EDATA    INT       icm20602_gyro_y
      000007FBH   PUBLIC    EDATA    INT       icm20602_gyro_z
      000000D0H   SFRSYM    DATA     BYTE      PSW
      0000009DH   SFRSYM    DATA     BYTE      IRCBAND
      00000097H   SFRSYM    DATA     BYTE      AUXR2
      000000EFH   SFRSYM    DATA     BYTE      AUXINTIF
      000000FDH   SFRSYM    DATA     BYTE      S4CON
L251 LINKER/LOCATER V4.66.93.0                                                        04/27/2023  18:30:04  PAGE 57


      000000ACH   SFRSYM    DATA     BYTE      S3CON
      0000009AH   SFRSYM    DATA     BYTE      S2CON
      000000B7H   SFRSYM    DATA     BYTE      IPH
      000000CDH   SFRSYM    DATA     BYTE      SPSTAT
      000000DDH   SFRSYM    DATA     BYTE      T4T3M
      000000C1H   SFRSYM    DATA     BYTE      WDT_CONTR
      000000DFH   SFRSYM    DATA     BYTE      IP3
      000000F4H   SFRSYM    DATA     BYTE      USBCON
      000000B5H   SFRSYM    DATA     BYTE      IP2
      000000FFH   SFRSYM    DATA     BYTE      RSTCFG
      000000F9H   SFRSYM    DATA     BYTE      LINICR
      0000008EH   SFRSYM    DATA     BYTE      AUXR
      000000AFH   SFRSYM    DATA     BYTE      IE2
      000000C0H.3 SFRSYM    DATA     BIT       P43
      000000C0H.2 SFRSYM    DATA     BIT       P42
      00000088H   SFRSYM    DATA     BYTE      TCON
      000000C0H.1 SFRSYM    DATA     BIT       P41
      00000098H   SFRSYM    DATA     BYTE      SCON
      000000C0H.0 SFRSYM    DATA     BIT       P40
      000000F1H   SFRSYM    DATA     BYTE      CANICR
      00000087H   SFRSYM    DATA     BYTE      PCON
      000000BCH   SFRSYM    DATA     BYTE      ADC_CONTR
      000000E7H   SFRSYM    DATA     BYTE      CMPCR2
      000000E6H   SFRSYM    DATA     BYTE      CMPCR1
      000000B8H   SFRSYM    DATA     BYTE      IP
      0000008FH   SFRSYM    DATA     BYTE      INTCLKO
      000000EEH   SFRSYM    DATA     BYTE      IP3H
      000000B6H   SFRSYM    DATA     BYTE      IP2H
      000000A8H   SFRSYM    DATA     BYTE      IE
      000000BBH   SFRSYM    DATA     BYTE      P_SW3
      000000BAH   SFRSYM    DATA     BYTE      P_SW2
      000000A2H   SFRSYM    DATA     BYTE      P_SW1
      000000CEH   SFRSYM    DATA     BYTE      SPCTL
      000000F8H   SFRSYM    DATA     BYTE      P7
      000000E8H   SFRSYM    DATA     BYTE      P6
      000000C8H   SFRSYM    DATA     BYTE      P5
      000000C0H   SFRSYM    DATA     BYTE      P4
      000000B0H   SFRSYM    DATA     BYTE      P3
      000000A0H   SFRSYM    DATA     BYTE      P2
      00000090H   SFRSYM    DATA     BYTE      P1
      00000080H   SFRSYM    DATA     BYTE      P0
      00FF59E8H   SYMBOL    CODE     ---       icm20602_read_register
      00FF57B0H   SYMBOL    CODE     ---       icm20602_simspi_wr_byte
      00FF5601H   SYMBOL    CODE     ---       icm20602_simspi_r_reg_bytes
      00FF5953H   SYMBOL    CODE     ---       icm20602_simspi_r_reg_byte

      00FF57B0H   BLOCK     CODE     ---       LVL=0
      R6          REGSYM    ---      BYTE      byte
      00FF57B2H   BLOCK     CODE     NEAR LAB  LVL=1
      R7          REGSYM    ---      BYTE      i
      ---         BLOCKEND  ---      ---       LVL=1
      00FF57B0H   LINE      CODE     ---       #270
      00FF57B2H   LINE      CODE     ---       #271
      00FF57B2H   LINE      CODE     ---       #274
      00FF57B4H   LINE      CODE     ---       #276
      00FF57B9H   LINE      CODE     ---       #277
      00FF57BBH   LINE      CODE     ---       #278
      00FF57BDH   LINE      CODE     ---       #279
      00FF57BFH   LINE      CODE     ---       #281
      00FF57C1H   LINE      CODE     ---       #282
      00FF57C3H   LINE      CODE     ---       #283
      00FF57C9H   LINE      CODE     ---       #284
      00FF57D0H   LINE      CODE     ---       #285
      00FF57D2H   LINE      CODE     ---       #286
      ---         BLOCKEND  ---      ---       LVL=0
L251 LINKER/LOCATER V4.66.93.0                                                        04/27/2023  18:30:04  PAGE 58


      R7          REGSYM    ---      BYTE      cmd
      R15         REGSYM    ---      BYTE      val

      00FF5953H   BLOCK     CODE     ---       LVL=0
      R7          REGSYM    ---      BYTE      cmd
      REG=3       REGSYM    ---      ---       val
      00FF5953H   LINE      CODE     ---       #332
      00FF5959H   LINE      CODE     ---       #335
      00FF595CH   LINE      CODE     ---       #336
      00FF5961H   LINE      CODE     ---       #337
      00FF5968H   LINE      CODE     ---       #339
      ---         BLOCKEND  ---      ---       LVL=0

      00FF5601H   BLOCK     CODE     ---       LVL=0
      R7          REGSYM    ---      BYTE      cmd
      REG=3       REGSYM    ---      ---       val
      00000838H   SYMBOL    EDATA    DWORD     num
      00FF560BH   BLOCK     CODE     NEAR LAB  LVL=1
      ---         BLOCKEND  ---      ---       LVL=1
      00FF5601H   LINE      CODE     ---       #349
      00FF560BH   LINE      CODE     ---       #350
      00FF560BH   LINE      CODE     ---       #351
      00FF560BH   LINE      CODE     ---       #352
      00FF560EH   LINE      CODE     ---       #353
      00FF5613H   LINE      CODE     ---       #355
      00FF5615H   LINE      CODE     ---       #357
      00FF561EH   LINE      CODE     ---       #358
      00FF562EH   LINE      CODE     ---       #359
      ---         BLOCKEND  ---      ---       LVL=0
      R11         REGSYM    ---      BYTE      reg
      R7          REGSYM    ---      BYTE      dat

      00FF59E8H   BLOCK     CODE     ---       LVL=0
      R7          REGSYM    ---      BYTE      reg
      0000084FH   SYMBOL    EDATA    BYTE      dat
      00FF59E8H   LINE      CODE     ---       #399
      00FF59E8H   LINE      CODE     ---       #400
      00FF59E8H   LINE      CODE     ---       #402
      00FF59EAH   LINE      CODE     ---       #403
      00FF59F3H   LINE      CODE     ---       #404
      00FF59F5H   LINE      CODE     ---       #405
      00FF59F9H   LINE      CODE     ---       #406
      ---         BLOCKEND  ---      ---       LVL=0
      R3          REGSYM    ---      BYTE      reg
      REG=1       REGSYM    ---      ---       dat
      DR28        REGSYM    ---      DWORD     len
      R14         REGSYM    ---      BYTE      dat
      R15         REGSYM    ---      BYTE      return_state
      WR12        REGSYM    ---      WORD      timeout_count
      WR8         REGSYM    ---      INT       acc_value
      DR4         REGSYM    ---      FLOAT     acc_data
      WR8         REGSYM    ---      INT       gyro_value
      DR4         REGSYM    ---      FLOAT     gyro_data
      R14         REGSYM    ---      BYTE      val
      R15         REGSYM    ---      BYTE      return_state
      WR12        REGSYM    ---      WORD      timeout_count

      ---         MODULE    ---      ---       SEEKFREE_IMU660RA
      000007FDH   PUBLIC    EDATA    INT       imu660ra_acc_x
      000007FFH   PUBLIC    EDATA    INT       imu660ra_acc_y
      00000801H   PUBLIC    EDATA    INT       imu660ra_acc_z
      00000803H   PUBLIC    EDATA    INT       imu660ra_gyro_x
      00000805H   PUBLIC    EDATA    INT       imu660ra_gyro_y
      00000807H   PUBLIC    EDATA    INT       imu660ra_gyro_z
      000000D0H   SFRSYM    DATA     BYTE      PSW
L251 LINKER/LOCATER V4.66.93.0                                                        04/27/2023  18:30:04  PAGE 59


      0000009DH   SFRSYM    DATA     BYTE      IRCBAND
      00000097H   SFRSYM    DATA     BYTE      AUXR2
      000000EFH   SFRSYM    DATA     BYTE      AUXINTIF
      000000FDH   SFRSYM    DATA     BYTE      S4CON
      000000ACH   SFRSYM    DATA     BYTE      S3CON
      0000009AH   SFRSYM    DATA     BYTE      S2CON
      000000B7H   SFRSYM    DATA     BYTE      IPH
      000000CDH   SFRSYM    DATA     BYTE      SPSTAT
      000000DDH   SFRSYM    DATA     BYTE      T4T3M
      000000C1H   SFRSYM    DATA     BYTE      WDT_CONTR
      000000DFH   SFRSYM    DATA     BYTE      IP3
      000000F4H   SFRSYM    DATA     BYTE      USBCON
      000000B5H   SFRSYM    DATA     BYTE      IP2
      000000FFH   SFRSYM    DATA     BYTE      RSTCFG
      000000F9H   SFRSYM    DATA     BYTE      LINICR
      0000008EH   SFRSYM    DATA     BYTE      AUXR
      000000AFH   SFRSYM    DATA     BYTE      IE2
      000000C0H.3 SFRSYM    DATA     BIT       P43
      000000C0H.2 SFRSYM    DATA     BIT       P42
      00000088H   SFRSYM    DATA     BYTE      TCON
      000000C0H.1 SFRSYM    DATA     BIT       P41
      00000098H   SFRSYM    DATA     BYTE      SCON
      000000C0H.0 SFRSYM    DATA     BIT       P40
      000000F1H   SFRSYM    DATA     BYTE      CANICR
      00000087H   SFRSYM    DATA     BYTE      PCON
      000000BCH   SFRSYM    DATA     BYTE      ADC_CONTR
      000000E7H   SFRSYM    DATA     BYTE      CMPCR2
      000000E6H   SFRSYM    DATA     BYTE      CMPCR1
      000000B8H   SFRSYM    DATA     BYTE      IP
      0000008FH   SFRSYM    DATA     BYTE      INTCLKO
      000000EEH   SFRSYM    DATA     BYTE      IP3H
      000000B6H   SFRSYM    DATA     BYTE      IP2H
      000000A8H   SFRSYM    DATA     BYTE      IE
      000000BBH   SFRSYM    DATA     BYTE      P_SW3
      000000BAH   SFRSYM    DATA     BYTE      P_SW2
      000000A2H   SFRSYM    DATA     BYTE      P_SW1
      000000CEH   SFRSYM    DATA     BYTE      SPCTL
      000000F8H   SFRSYM    DATA     BYTE      P7
      000000E8H   SFRSYM    DATA     BYTE      P6
      000000C8H   SFRSYM    DATA     BYTE      P5
      000000C0H   SFRSYM    DATA     BYTE      P4
      000000B0H   SFRSYM    DATA     BYTE      P3
      000000A0H   SFRSYM    DATA     BYTE      P2
      00000090H   SFRSYM    DATA     BYTE      P1
      00000080H   SFRSYM    DATA     BYTE      P0
      00FF5982H   SYMBOL    CODE     ---       imu660ra_read_register
      00FF57D3H   SYMBOL    CODE     ---       imu660ra_simspi_wr_byte
      00FF5631H   SYMBOL    CODE     ---       imu660ra_simspi_r_reg_bytes

      00FF57D3H   BLOCK     CODE     ---       LVL=0
      R6          REGSYM    ---      BYTE      byte
      00FF57D5H   BLOCK     CODE     NEAR LAB  LVL=1
      R7          REGSYM    ---      BYTE      i
      ---         BLOCKEND  ---      ---       LVL=1
      00FF57D3H   LINE      CODE     ---       #326
      00FF57D5H   LINE      CODE     ---       #327
      00FF57D5H   LINE      CODE     ---       #330
      00FF57D7H   LINE      CODE     ---       #332
      00FF57DCH   LINE      CODE     ---       #333
      00FF57DEH   LINE      CODE     ---       #334
      00FF57E0H   LINE      CODE     ---       #335
      00FF57E2H   LINE      CODE     ---       #336
      00FF57E4H   LINE      CODE     ---       #337
      00FF57E6H   LINE      CODE     ---       #339
      00FF57ECH   LINE      CODE     ---       #340
L251 LINKER/LOCATER V4.66.93.0                                                        04/27/2023  18:30:04  PAGE 60


      00FF57F3H   LINE      CODE     ---       #341
      00FF57F5H   LINE      CODE     ---       #342
      ---         BLOCKEND  ---      ---       LVL=0
      R7          REGSYM    ---      BYTE      cmd
      R15         REGSYM    ---      BYTE      val
      R11         REGSYM    ---      BYTE      cmd
      DR12        REGSYM    ---      DWORD     len

      00FF5631H   BLOCK     CODE     ---       LVL=0
      R7          REGSYM    ---      BYTE      cmd
      REG=3       REGSYM    ---      ---       val
      0000083CH   SYMBOL    EDATA    DWORD     num
      00FF5631H   LINE      CODE     ---       #399
      00FF563BH   LINE      CODE     ---       #401
      00FF563EH   LINE      CODE     ---       #402
      00FF5643H   LINE      CODE     ---       #404
      00FF5645H   LINE      CODE     ---       #406
      00FF564EH   LINE      CODE     ---       #407
      00FF565EH   LINE      CODE     ---       #408
      ---         BLOCKEND  ---      ---       LVL=0
      R11         REGSYM    ---      BYTE      reg
      R7          REGSYM    ---      BYTE      dat
      R3          REGSYM    ---      BYTE      reg
      REG=1       REGSYM    ---      ---       dat
      DR28        REGSYM    ---      DWORD     len

      00FF5982H   BLOCK     CODE     ---       LVL=0
      R7          REGSYM    ---      BYTE      reg
      00000849H   SYMBOL    EDATA    ---       dat
      00FF5982H   LINE      CODE     ---       #449
      00FF5982H   LINE      CODE     ---       #450
      00FF5982H   LINE      CODE     ---       #452
      00FF5984H   LINE      CODE     ---       #453
      00FF5991H   LINE      CODE     ---       #454
      00FF5993H   LINE      CODE     ---       #455
      00FF5997H   LINE      CODE     ---       #456
      ---         BLOCKEND  ---      ---       LVL=0
      R3          REGSYM    ---      BYTE      reg
      REG=1       REGSYM    ---      ---       dat
      DR28        REGSYM    ---      DWORD     len
      R14         REGSYM    ---      BYTE      dat
      R15         REGSYM    ---      BYTE      return_state
      WR12        REGSYM    ---      WORD      timeout_count
      WR8         REGSYM    ---      INT       acc_value
      DR4         REGSYM    ---      FLOAT     acc_dat
      WR8         REGSYM    ---      INT       gyro_value
      DR4         REGSYM    ---      FLOAT     gyro_dat
      R15         REGSYM    ---      BYTE      return_state

      ---         MODULE    ---      ---       SEEKFREE_IMU963RA
      000007CFH   PUBLIC    EDATA    INT       imu963ra_acc_x
      000007D1H   PUBLIC    EDATA    INT       imu963ra_acc_y
      000007D3H   PUBLIC    EDATA    INT       imu963ra_acc_z
      000007D5H   PUBLIC    EDATA    INT       imu963ra_mag_x
      000007D7H   PUBLIC    EDATA    INT       imu963ra_mag_y
      000007D9H   PUBLIC    EDATA    INT       imu963ra_mag_z
      000007DBH   PUBLIC    EDATA    INT       imu963ra_gyro_x
      000007DDH   PUBLIC    EDATA    INT       imu963ra_gyro_y
      000007DFH   PUBLIC    EDATA    INT       imu963ra_gyro_z
      000000D0H   SFRSYM    DATA     BYTE      PSW
      0000009DH   SFRSYM    DATA     BYTE      IRCBAND
      00000097H   SFRSYM    DATA     BYTE      AUXR2
      000000EFH   SFRSYM    DATA     BYTE      AUXINTIF
      000000FDH   SFRSYM    DATA     BYTE      S4CON
      000000ACH   SFRSYM    DATA     BYTE      S3CON
L251 LINKER/LOCATER V4.66.93.0                                                        04/27/2023  18:30:04  PAGE 61


      0000009AH   SFRSYM    DATA     BYTE      S2CON
      000000B7H   SFRSYM    DATA     BYTE      IPH
      000000CDH   SFRSYM    DATA     BYTE      SPSTAT
      000000DDH   SFRSYM    DATA     BYTE      T4T3M
      000000C1H   SFRSYM    DATA     BYTE      WDT_CONTR
      000000DFH   SFRSYM    DATA     BYTE      IP3
      000000F4H   SFRSYM    DATA     BYTE      USBCON
      000000B5H   SFRSYM    DATA     BYTE      IP2
      000000FFH   SFRSYM    DATA     BYTE      RSTCFG
      000000F9H   SFRSYM    DATA     BYTE      LINICR
      0000008EH   SFRSYM    DATA     BYTE      AUXR
      000000AFH   SFRSYM    DATA     BYTE      IE2
      000000C0H.4 SFRSYM    DATA     BIT       P44
      000000C0H.3 SFRSYM    DATA     BIT       P43
      000000C0H.2 SFRSYM    DATA     BIT       P42
      00000088H   SFRSYM    DATA     BYTE      TCON
      000000C0H.1 SFRSYM    DATA     BIT       P41
      00000098H   SFRSYM    DATA     BYTE      SCON
      000000F1H   SFRSYM    DATA     BYTE      CANICR
      00000087H   SFRSYM    DATA     BYTE      PCON
      000000BCH   SFRSYM    DATA     BYTE      ADC_CONTR
      000000E7H   SFRSYM    DATA     BYTE      CMPCR2
      000000E6H   SFRSYM    DATA     BYTE      CMPCR1
      000000B8H   SFRSYM    DATA     BYTE      IP
      0000008FH   SFRSYM    DATA     BYTE      INTCLKO
      000000EEH   SFRSYM    DATA     BYTE      IP3H
      000000B6H   SFRSYM    DATA     BYTE      IP2H
      000000A8H   SFRSYM    DATA     BYTE      IE
      000000BBH   SFRSYM    DATA     BYTE      P_SW3
      000000BAH   SFRSYM    DATA     BYTE      P_SW2
      000000A2H   SFRSYM    DATA     BYTE      P_SW1
      000000CEH   SFRSYM    DATA     BYTE      SPCTL
      000000F8H   SFRSYM    DATA     BYTE      P7
      000000E8H   SFRSYM    DATA     BYTE      P6
      000000C8H   SFRSYM    DATA     BYTE      P5
      000000C0H   SFRSYM    DATA     BYTE      P4
      000000B0H   SFRSYM    DATA     BYTE      P3
      000000A0H   SFRSYM    DATA     BYTE      P2
      00000090H   SFRSYM    DATA     BYTE      P1
      00000080H   SFRSYM    DATA     BYTE      P0
      00FF57F6H   SYMBOL    CODE     ---       imu963ra_simspi_wr_byte
      00FF511BH   SYMBOL    CODE     ---       imu963ra_read_mag_register
      00FF58D4H   SYMBOL    CODE     ---       imu963ra_read_acc_gyro_register
      00FF0066H   SYMBOL    CODE     ---       imu963ra_simspi_r_reg_byte
      00FF5AA2H   SYMBOL    CODE     ---       imu963ra_write_acc_gyro_register
      00FF59C2H   SYMBOL    CODE     ---       imu963ra_simspi_w_reg_byte

      00FF57F6H   BLOCK     CODE     ---       LVL=0
      R6          REGSYM    ---      BYTE      byte
      00FF57F8H   BLOCK     CODE     NEAR LAB  LVL=1
      R7          REGSYM    ---      BYTE      i
      ---         BLOCKEND  ---      ---       LVL=1
      00FF57F6H   LINE      CODE     ---       #361
      00FF57F8H   LINE      CODE     ---       #362
      00FF57F8H   LINE      CODE     ---       #365
      00FF57FAH   LINE      CODE     ---       #367
      00FF57FFH   LINE      CODE     ---       #368
      00FF5801H   LINE      CODE     ---       #369
      00FF5803H   LINE      CODE     ---       #370
      00FF5805H   LINE      CODE     ---       #372
      00FF5807H   LINE      CODE     ---       #373
      00FF5809H   LINE      CODE     ---       #374
      00FF580FH   LINE      CODE     ---       #375
      00FF5816H   LINE      CODE     ---       #376
      00FF5818H   LINE      CODE     ---       #377
L251 LINKER/LOCATER V4.66.93.0                                                        04/27/2023  18:30:04  PAGE 62


      ---         BLOCKEND  ---      ---       LVL=0

      00FF59C2H   BLOCK     CODE     ---       LVL=0
      R7          REGSYM    ---      BYTE      cmd
      R15         REGSYM    ---      BYTE      val
      00FF59C2H   LINE      CODE     ---       #385
      00FF59C6H   LINE      CODE     ---       #387
      00FF59C8H   LINE      CODE     ---       #388
      00FF59C8H   LINE      CODE     ---       #389
      00FF59CBH   LINE      CODE     ---       #390
      00FF59D0H   LINE      CODE     ---       #391
      00FF59D2H   LINE      CODE     ---       #392
      ---         BLOCKEND  ---      ---       LVL=0

      00FF0066H   BLOCK     CODE     ---       LVL=0
      R7          REGSYM    ---      BYTE      cmd
      REG=3       REGSYM    ---      ---       val
      00FF0066H   LINE      CODE     ---       #423
      00FF006CH   LINE      CODE     ---       #425
      00FF006EH   LINE      CODE     ---       #426
      00FF0071H   LINE      CODE     ---       #427
      00FF0076H   LINE      CODE     ---       #428
      00FF007DH   LINE      CODE     ---       #429
      00FF007FH   LINE      CODE     ---       #430
      ---         BLOCKEND  ---      ---       LVL=0
      R7          REGSYM    ---      BYTE      cmd
      REG=3       REGSYM    ---      ---       val

      00FF5AA2H   BLOCK     CODE     ---       LVL=0
      R11         REGSYM    ---      BYTE      reg
      R7          REGSYM    ---      BYTE      dat
      00FF5AA2H   LINE      CODE     ---       #462
      00FF5AA2H   LINE      CODE     ---       #464
      00FF5AA4H   LINE      CODE     ---       #465
      00FF5AA7H   LINE      CODE     ---       #467
      00FF5AA9H   LINE      CODE     ---       #468
      ---         BLOCKEND  ---      ---       LVL=0

      00FF58D4H   BLOCK     CODE     ---       LVL=0
      R10         REGSYM    ---      BYTE      reg
      00FF58D6H   BLOCK     CODE     NEAR LAB  LVL=1
      00000850H   SYMBOL    EDATA    BYTE      dat
      ---         BLOCKEND  ---      ---       LVL=1
      00FF58D4H   LINE      CODE     ---       #477
      00FF58D6H   LINE      CODE     ---       #478
      00FF58D6H   LINE      CODE     ---       #479
      00FF58DBH   LINE      CODE     ---       #480
      00FF58DDH   LINE      CODE     ---       #481
      00FF58E8H   LINE      CODE     ---       #482
      00FF58EAH   LINE      CODE     ---       #483
      00FF58EEH   LINE      CODE     ---       #484
      ---         BLOCKEND  ---      ---       LVL=0
      R3          REGSYM    ---      BYTE      reg
      REG=1       REGSYM    ---      ---       dat
      DR28        REGSYM    ---      DWORD     len
      R15         REGSYM    ---      BYTE      addr
      R13         REGSYM    ---      BYTE      reg
      R14         REGSYM    ---      BYTE      dat
      R12         REGSYM    ---      BYTE      return_state

      00FF511BH   BLOCK     CODE     ---       LVL=0
      R10         REGSYM    ---      BYTE      addr
      R15         REGSYM    ---      BYTE      reg
      00FF5123H   BLOCK     CODE     NEAR LAB  LVL=1
      WR12        REGSYM    ---      WORD      timeout_count
L251 LINKER/LOCATER V4.66.93.0                                                        04/27/2023  18:30:04  PAGE 63


      ---         BLOCKEND  ---      ---       LVL=1
      00FF511BH   LINE      CODE     ---       #546
      00FF5123H   LINE      CODE     ---       #547
      00FF5123H   LINE      CODE     ---       #548
      00FF5125H   LINE      CODE     ---       #550
      00FF5127H   LINE      CODE     ---       #551
      00FF5131H   LINE      CODE     ---       #552
      00FF5138H   LINE      CODE     ---       #553
      00FF5140H   LINE      CODE     ---       #554
      00FF5148H   LINE      CODE     ---       #557
      00FF514AH   LINE      CODE     ---       #559
      00FF5154H   LINE      CODE     ---       #561
      00FF5154H   LINE      CODE     ---       #562
      00FF5154H   LINE      CODE     ---       #563
      00FF515BH   LINE      CODE     ---       #564
      00FF5163H   LINE      CODE     ---       #566
      00FF5168H   LINE      CODE     ---       #567
      ---         BLOCKEND  ---      ---       LVL=0
      R10         REGSYM    ---      BYTE      addr
      R15         REGSYM    ---      BYTE      reg
      R15         REGSYM    ---      BYTE      return_state
      R14         REGSYM    ---      BYTE      dat
      WR12        REGSYM    ---      WORD      timeout_count
      R15         REGSYM    ---      BYTE      return_state
      R14         REGSYM    ---      BYTE      dat
      WR12        REGSYM    ---      WORD      timeout_count
      R11         REGSYM    ---      BYTE      temp_status
      WR8         REGSYM    ---      INT       mag_value
      DR4         REGSYM    ---      FLOAT     mag_dat
      R15         REGSYM    ---      BYTE      return_state

      ---         MODULE    ---      ---       SEEKFREE_IPS114_SPI
      00FF5879H   PUBLIC    CODE     ---       ips114_writedata_16bit
      00FF56EBH   PUBLIC    CODE     ---       ips114_writeDatai_16bit_simspi
      00FF5717H   PUBLIC    CODE     ---       ips114_writeIndex_simspi
      00FF5A8FH   PUBLIC    CODE     ---       ips114_writeIndex
      000000D0H   SFRSYM    DATA     BYTE      PSW
      0000009DH   SFRSYM    DATA     BYTE      IRCBAND
      00000097H   SFRSYM    DATA     BYTE      AUXR2
      000000EFH   SFRSYM    DATA     BYTE      AUXINTIF
      000000FDH   SFRSYM    DATA     BYTE      S4CON
      000000ACH   SFRSYM    DATA     BYTE      S3CON
      0000009AH   SFRSYM    DATA     BYTE      S2CON
      000000B7H   SFRSYM    DATA     BYTE      IPH
      000000CDH   SFRSYM    DATA     BYTE      SPSTAT
      000000DDH   SFRSYM    DATA     BYTE      T4T3M
      000000C1H   SFRSYM    DATA     BYTE      WDT_CONTR
      000000DFH   SFRSYM    DATA     BYTE      IP3
      000000F4H   SFRSYM    DATA     BYTE      USBCON
      000000B5H   SFRSYM    DATA     BYTE      IP2
      000000FFH   SFRSYM    DATA     BYTE      RSTCFG
      000000F9H   SFRSYM    DATA     BYTE      LINICR
      0000008EH   SFRSYM    DATA     BYTE      AUXR
      000000AFH   SFRSYM    DATA     BYTE      IE2
      000000A0H.7 SFRSYM    DATA     BIT       P27
      000000A0H.5 SFRSYM    DATA     BIT       P25
      00000088H   SFRSYM    DATA     BYTE      TCON
      000000A0H.3 SFRSYM    DATA     BIT       P23
      00000098H   SFRSYM    DATA     BYTE      SCON
      000000A0H.2 SFRSYM    DATA     BIT       P22
      000000A0H.1 SFRSYM    DATA     BIT       P21
      000000A0H.0 SFRSYM    DATA     BIT       P20
      000000F1H   SFRSYM    DATA     BYTE      CANICR
      00000087H   SFRSYM    DATA     BYTE      PCON
      000000BCH   SFRSYM    DATA     BYTE      ADC_CONTR
L251 LINKER/LOCATER V4.66.93.0                                                        04/27/2023  18:30:04  PAGE 64


      000000E7H   SFRSYM    DATA     BYTE      CMPCR2
      000000E6H   SFRSYM    DATA     BYTE      CMPCR1
      000000B8H   SFRSYM    DATA     BYTE      IP
      0000008FH   SFRSYM    DATA     BYTE      INTCLKO
      000000EEH   SFRSYM    DATA     BYTE      IP3H
      000000B6H   SFRSYM    DATA     BYTE      IP2H
      000000A8H   SFRSYM    DATA     BYTE      IE
      000000BBH   SFRSYM    DATA     BYTE      P_SW3
      000000BAH   SFRSYM    DATA     BYTE      P_SW2
      000000A2H   SFRSYM    DATA     BYTE      P_SW1
      000000CEH   SFRSYM    DATA     BYTE      SPCTL
      000000F8H   SFRSYM    DATA     BYTE      P7
      000000E8H   SFRSYM    DATA     BYTE      P6
      000000C8H   SFRSYM    DATA     BYTE      P5
      000000C0H   SFRSYM    DATA     BYTE      P4
      000000B0H   SFRSYM    DATA     BYTE      P3
      000000A0H   SFRSYM    DATA     BYTE      P2
      00000090H   SFRSYM    DATA     BYTE      P1
      00000080H   SFRSYM    DATA     BYTE      P0

      00FF5717H   BLOCK     CODE     ---       LVL=0
      R7          REGSYM    ---      BYTE      dat
      00FF5719H   BLOCK     CODE     NEAR LAB  LVL=1
      R6          REGSYM    ---      BYTE      i
      ---         BLOCKEND  ---      ---       LVL=1
      00FF5717H   LINE      CODE     ---       #61
      00FF5719H   LINE      CODE     ---       #62
      00FF5719H   LINE      CODE     ---       #63
      00FF571CH   LINE      CODE     ---       #64
      00FF571EH   LINE      CODE     ---       #65
      00FF5720H   LINE      CODE     ---       #67
      00FF5722H   LINE      CODE     ---       #69
      00FF5724H   LINE      CODE     ---       #71
      00FF572DH   LINE      CODE     ---       #72
      00FF572FH   LINE      CODE     ---       #73
      00FF5731H   LINE      CODE     ---       #75
      00FF5733H   LINE      CODE     ---       #76
      00FF5735H   LINE      CODE     ---       #77
      00FF573DH   LINE      CODE     ---       #78
      00FF573FH   LINE      CODE     ---       #79
      ---         BLOCKEND  ---      ---       LVL=0
      R7          REGSYM    ---      BYTE      dat
      R6          REGSYM    ---      BYTE      i

      00FF56EBH   BLOCK     CODE     ---       LVL=0
      WR4         REGSYM    ---      WORD      dat
      00FF56EDH   BLOCK     CODE     NEAR LAB  LVL=1
      R10         REGSYM    ---      BYTE      i
      ---         BLOCKEND  ---      ---       LVL=1
      00FF56EBH   LINE      CODE     ---       #115
      00FF56EDH   LINE      CODE     ---       #116
      00FF56EDH   LINE      CODE     ---       #117
      00FF56F0H   LINE      CODE     ---       #118
      00FF56F2H   LINE      CODE     ---       #119
      00FF56F4H   LINE      CODE     ---       #120
      00FF56F6H   LINE      CODE     ---       #121
      00FF56F8H   LINE      CODE     ---       #123
      00FF5704H   LINE      CODE     ---       #124
      00FF5706H   LINE      CODE     ---       #125
      00FF5708H   LINE      CODE     ---       #127
      00FF570AH   LINE      CODE     ---       #128
      00FF570CH   LINE      CODE     ---       #129
      00FF5714H   LINE      CODE     ---       #130
      00FF5716H   LINE      CODE     ---       #131
      ---         BLOCKEND  ---      ---       LVL=0
L251 LINKER/LOCATER V4.66.93.0                                                        04/27/2023  18:30:04  PAGE 65


      WR12        REGSYM    ---      WORD      x2
      WR14        REGSYM    ---      WORD      y2
      WR14        REGSYM    ---      WORD      color
      R13         REGSYM    ---      BYTE      i
      WR2         REGSYM    ---      WORD      x
      WR0         REGSYM    ---      WORD      y
      WR14        REGSYM    ---      WORD      color
      WR12        REGSYM    ---      WORD      x
      WR14        REGSYM    ---      WORD      y
      REG=3       REGSYM    ---      ---       dat
      WR12        REGSYM    ---      WORD      x
      WR14        REGSYM    ---      WORD      y
      WR12        REGSYM    ---      WORD      x
      WR14        REGSYM    ---      WORD      y
      R10         REGSYM    ---      BYTE      dat
      WR12        REGSYM    ---      WORD      x
      WR14        REGSYM    ---      WORD      y
      WR12        REGSYM    ---      WORD      x
      WR14        REGSYM    ---      WORD      y
      WR2         REGSYM    ---      WORD      dat
      WR12        REGSYM    ---      WORD      y
      R15         REGSYM    ---      BYTE      num
      R14         REGSYM    ---      BYTE      length
      DR12        REGSYM    ---      FLOAT     dat
      R7          REGSYM    ---      CHAR      point

      00FF5A8FH   BLOCK     CODE     ---       LVL=0
      R7          REGSYM    ---      BYTE      dat
      00FF5A8FH   LINE      CODE     ---       #594
      00FF5A8FH   LINE      CODE     ---       #596
      00FF5A91H   LINE      CODE     ---       #597
      00FF5A93H   LINE      CODE     ---       #599
      00FF5A96H   LINE      CODE     ---       #600
      00FF5A98H   LINE      CODE     ---       #601
      ---         BLOCKEND  ---      ---       LVL=0
      R7          REGSYM    ---      BYTE      dat

      00FF5879H   BLOCK     CODE     ---       LVL=0
      WR4         REGSYM    ---      WORD      dat
      00FF587BH   BLOCK     CODE     NEAR LAB  LVL=1
      0000084BH   SYMBOL    EDATA    ---       dat1
      ---         BLOCKEND  ---      ---       LVL=1
      00FF5879H   LINE      CODE     ---       #626
      00FF587BH   LINE      CODE     ---       #627
      00FF587BH   LINE      CODE     ---       #629
      00FF587FH   LINE      CODE     ---       #630
      00FF5883H   LINE      CODE     ---       #631
      00FF5885H   LINE      CODE     ---       #632
      00FF5887H   LINE      CODE     ---       #633
      00FF588EH   LINE      CODE     ---       #634
      00FF5895H   LINE      CODE     ---       #635
      00FF5897H   LINE      CODE     ---       #636
      ---         BLOCKEND  ---      ---       LVL=0
      WR12        REGSYM    ---      WORD      x2
      WR14        REGSYM    ---      WORD      y2
      WR14        REGSYM    ---      WORD      color
      R13         REGSYM    ---      BYTE      i
      WR2         REGSYM    ---      WORD      x
      WR0         REGSYM    ---      WORD      y
      WR14        REGSYM    ---      WORD      color
      WR12        REGSYM    ---      WORD      x
      WR14        REGSYM    ---      WORD      y
      REG=3       REGSYM    ---      ---       dat
      WR12        REGSYM    ---      WORD      x
      WR14        REGSYM    ---      WORD      y
L251 LINKER/LOCATER V4.66.93.0                                                        04/27/2023  18:30:04  PAGE 66


      WR12        REGSYM    ---      WORD      x
      WR14        REGSYM    ---      WORD      y
      R10         REGSYM    ---      BYTE      dat
      WR12        REGSYM    ---      WORD      x
      WR14        REGSYM    ---      WORD      y
      WR12        REGSYM    ---      WORD      x
      WR14        REGSYM    ---      WORD      y
      WR2         REGSYM    ---      WORD      dat
      WR12        REGSYM    ---      WORD      y
      R15         REGSYM    ---      BYTE      num
      R14         REGSYM    ---      BYTE      length
      DR12        REGSYM    ---      FLOAT     dat
      R7          REGSYM    ---      CHAR      point

      ---         MODULE    ---      ---       SEEKFREE_MPU6050
      00000809H   PUBLIC    EDATA    INT       mpu6050_acc_x
      0000080BH   PUBLIC    EDATA    INT       mpu6050_acc_y
      0000080DH   PUBLIC    EDATA    INT       mpu6050_acc_z
      0000080FH   PUBLIC    EDATA    INT       mpu6050_gyro_x
      00000811H   PUBLIC    EDATA    INT       mpu6050_gyro_y
      00000813H   PUBLIC    EDATA    INT       mpu6050_gyro_z
      000000D0H   SFRSYM    DATA     BYTE      PSW
      0000009DH   SFRSYM    DATA     BYTE      IRCBAND
      00000097H   SFRSYM    DATA     BYTE      AUXR2
      000000EFH   SFRSYM    DATA     BYTE      AUXINTIF
      000000FDH   SFRSYM    DATA     BYTE      S4CON
      000000ACH   SFRSYM    DATA     BYTE      S3CON
      0000009AH   SFRSYM    DATA     BYTE      S2CON
      000000B7H   SFRSYM    DATA     BYTE      IPH
      000000CDH   SFRSYM    DATA     BYTE      SPSTAT
      000000DDH   SFRSYM    DATA     BYTE      T4T3M
      000000C1H   SFRSYM    DATA     BYTE      WDT_CONTR
      000000DFH   SFRSYM    DATA     BYTE      IP3
      000000F4H   SFRSYM    DATA     BYTE      USBCON
      000000B5H   SFRSYM    DATA     BYTE      IP2
      000000FFH   SFRSYM    DATA     BYTE      RSTCFG
      000000F9H   SFRSYM    DATA     BYTE      LINICR
      0000008EH   SFRSYM    DATA     BYTE      AUXR
      000000AFH   SFRSYM    DATA     BYTE      IE2
      00000088H   SFRSYM    DATA     BYTE      TCON
      000000C0H.1 SFRSYM    DATA     BIT       P41
      00000098H   SFRSYM    DATA     BYTE      SCON
      000000C0H.0 SFRSYM    DATA     BIT       P40
      000000F1H   SFRSYM    DATA     BYTE      CANICR
      00000087H   SFRSYM    DATA     BYTE      PCON
      000000BCH   SFRSYM    DATA     BYTE      ADC_CONTR
      000000E7H   SFRSYM    DATA     BYTE      CMPCR2
      000000E6H   SFRSYM    DATA     BYTE      CMPCR1
      000000B8H   SFRSYM    DATA     BYTE      IP
      0000008FH   SFRSYM    DATA     BYTE      INTCLKO
      000000EEH   SFRSYM    DATA     BYTE      IP3H
      000000B6H   SFRSYM    DATA     BYTE      IP2H
      000000A8H   SFRSYM    DATA     BYTE      IE
      000000BBH   SFRSYM    DATA     BYTE      P_SW3
      000000BAH   SFRSYM    DATA     BYTE      P_SW2
      000000A2H   SFRSYM    DATA     BYTE      P_SW1
      000000CEH   SFRSYM    DATA     BYTE      SPCTL
      000000F8H   SFRSYM    DATA     BYTE      P7
      000000E8H   SFRSYM    DATA     BYTE      P6
      000000C8H   SFRSYM    DATA     BYTE      P5
      000000C0H   SFRSYM    DATA     BYTE      P4
      000000B0H   SFRSYM    DATA     BYTE      P3
      000000A0H   SFRSYM    DATA     BYTE      P2
      00000090H   SFRSYM    DATA     BYTE      P1
      00000080H   SFRSYM    DATA     BYTE      P0
L251 LINKER/LOCATER V4.66.93.0                                                        04/27/2023  18:30:04  PAGE 67


      00FF5A4CH   SYMBOL    CODE     ---       mpu6050_simiic_start
      00FF5A1CH   SYMBOL    CODE     ---       mpu6050_simiic_stop
      00FF5859H   SYMBOL    CODE     ---       mpu6050_simiic_sendack
      00FF5A84H   SYMBOL    CODE     ---       mpu6050_simiic_delay

      00FF5A84H   BLOCK     CODE     ---       LVL=0
      WR6         REGSYM    ---      WORD      j
      00FF5A84H   LINE      CODE     ---       #52
      00FF5A84H   LINE      CODE     ---       #53
      00FF5A84H   LINE      CODE     ---       #54
      00FF5A86H   LINE      CODE     ---       #55
      00FF5A8EH   LINE      CODE     ---       #56
      ---         BLOCKEND  ---      ---       LVL=0

      00FF5A4CH   BLOCK     CODE     ---       LVL=0
      00FF5A4CH   LINE      CODE     ---       #59
      00FF5A4CH   LINE      CODE     ---       #61
      00FF5A4EH   LINE      CODE     ---       #62
      00FF5A50H   LINE      CODE     ---       #63
      00FF5A53H   LINE      CODE     ---       #64
      00FF5A55H   LINE      CODE     ---       #65
      00FF5A58H   LINE      CODE     ---       #66
      00FF5A5AH   LINE      CODE     ---       #67
      ---         BLOCKEND  ---      ---       LVL=0

      00FF5A1CH   BLOCK     CODE     ---       LVL=0
      00FF5A1CH   LINE      CODE     ---       #70
      00FF5A1CH   LINE      CODE     ---       #72
      00FF5A1EH   LINE      CODE     ---       #73
      00FF5A20H   LINE      CODE     ---       #74
      00FF5A23H   LINE      CODE     ---       #75
      00FF5A25H   LINE      CODE     ---       #76
      00FF5A28H   LINE      CODE     ---       #77
      00FF5A2AH   LINE      CODE     ---       #78
      ---         BLOCKEND  ---      ---       LVL=0

      00FF5859H   BLOCK     CODE     ---       LVL=0
      R15         REGSYM    ---      BYTE      ack_dat
      00FF5859H   LINE      CODE     ---       #83
      00FF585DH   LINE      CODE     ---       #85
      00FF585FH   LINE      CODE     ---       #86
      00FF5862H   LINE      CODE     ---       #87
      00FF586AH   LINE      CODE     ---       #88
      00FF586CH   LINE      CODE     ---       #90
      00FF586EH   LINE      CODE     ---       #91
      00FF5871H   LINE      CODE     ---       #92
      00FF5873H   LINE      CODE     ---       #93
      00FF5876H   LINE      CODE     ---       #94
      ---         BLOCKEND  ---      ---       LVL=0
      R15         REGSYM    ---      BYTE      c
      R14         REGSYM    ---      BYTE      i
      R15         REGSYM    ---      BYTE      ack_x
      R13         REGSYM    ---      BYTE      i
      R14         REGSYM    ---      BYTE      c
      R13         REGSYM    ---      BYTE      dev_add
      R14         REGSYM    ---      BYTE      reg
      R15         REGSYM    ---      BYTE      dat
      R15         REGSYM    ---      BYTE      dev_add
      R14         REGSYM    ---      BYTE      reg
      R15         REGSYM    ---      BYTE      dat
      REG=3       REGSYM    ---      ---       dat_add

      ---         MODULE    ---      ---       SEEKFREE_PRINTF
      000000D0H   SFRSYM    DATA     BYTE      PSW
      0000009DH   SFRSYM    DATA     BYTE      IRCBAND
L251 LINKER/LOCATER V4.66.93.0                                                        04/27/2023  18:30:04  PAGE 68


      00000097H   SFRSYM    DATA     BYTE      AUXR2
      000000EFH   SFRSYM    DATA     BYTE      AUXINTIF
      000000FDH   SFRSYM    DATA     BYTE      S4CON
      000000ACH   SFRSYM    DATA     BYTE      S3CON
      0000009AH   SFRSYM    DATA     BYTE      S2CON
      000000B7H   SFRSYM    DATA     BYTE      IPH
      000000CDH   SFRSYM    DATA     BYTE      SPSTAT
      000000DDH   SFRSYM    DATA     BYTE      T4T3M
      000000C1H   SFRSYM    DATA     BYTE      WDT_CONTR
      000000DFH   SFRSYM    DATA     BYTE      IP3
      000000F4H   SFRSYM    DATA     BYTE      USBCON
      000000B5H   SFRSYM    DATA     BYTE      IP2
      000000FFH   SFRSYM    DATA     BYTE      RSTCFG
      000000F9H   SFRSYM    DATA     BYTE      LINICR
      0000008EH   SFRSYM    DATA     BYTE      AUXR
      000000AFH   SFRSYM    DATA     BYTE      IE2
      00000088H   SFRSYM    DATA     BYTE      TCON
      00000098H   SFRSYM    DATA     BYTE      SCON
      000000F1H   SFRSYM    DATA     BYTE      CANICR
      00000087H   SFRSYM    DATA     BYTE      PCON
      000000BCH   SFRSYM    DATA     BYTE      ADC_CONTR
      000000E7H   SFRSYM    DATA     BYTE      CMPCR2
      000000E6H   SFRSYM    DATA     BYTE      CMPCR1
      000000B8H   SFRSYM    DATA     BYTE      IP
      0000008FH   SFRSYM    DATA     BYTE      INTCLKO
      000000EEH   SFRSYM    DATA     BYTE      IP3H
      000000B6H   SFRSYM    DATA     BYTE      IP2H
      000000A8H   SFRSYM    DATA     BYTE      IE
      000000BBH   SFRSYM    DATA     BYTE      P_SW3
      000000BAH   SFRSYM    DATA     BYTE      P_SW2
      000000A2H   SFRSYM    DATA     BYTE      P_SW1
      000000CEH   SFRSYM    DATA     BYTE      SPCTL
      000000F8H   SFRSYM    DATA     BYTE      P7
      000000E8H   SFRSYM    DATA     BYTE      P6
      000000C8H   SFRSYM    DATA     BYTE      P5
      000000C0H   SFRSYM    DATA     BYTE      P4
      000000B0H   SFRSYM    DATA     BYTE      P3
      000000A0H   SFRSYM    DATA     BYTE      P2
      00000090H   SFRSYM    DATA     BYTE      P1
      00000080H   SFRSYM    DATA     BYTE      P0
      DR24        REGSYM    ---      DWORD     dat
      REG=7       REGSYM    ---      ---       p
      R10         REGSYM    ---      BYTE      neg_type
      DR20        REGSYM    ---      LONG      neg_dat
      DR24        REGSYM    ---      DWORD     pos_dat
      R14         REGSYM    ---      BYTE      temp_data
      R15         REGSYM    ---      BYTE      valid_num
      REG=7       REGSYM    ---      ---       d_buff
      DR24        REGSYM    ---      DWORD     len
      DR4         REGSYM    ---      DWORD     i
      R3          REGSYM    ---      CHAR      temp_data
      REG=3       REGSYM    ---      ---       buff

      ---         MODULE    ---      ---       SEEKFREE_TSL1401
      000003C9H   PUBLIC    EDATA    BYTE      tsl1401_finish_flag
      000003CAH   PUBLIC    EDATA    ---       ccd_data
      000000D0H   SFRSYM    DATA     BYTE      PSW
      0000009DH   SFRSYM    DATA     BYTE      IRCBAND
      00000097H   SFRSYM    DATA     BYTE      AUXR2
      000000EFH   SFRSYM    DATA     BYTE      AUXINTIF
      000000FDH   SFRSYM    DATA     BYTE      S4CON
      000000ACH   SFRSYM    DATA     BYTE      S3CON
      0000009AH   SFRSYM    DATA     BYTE      S2CON
      000000B7H   SFRSYM    DATA     BYTE      IPH
      000000CDH   SFRSYM    DATA     BYTE      SPSTAT
L251 LINKER/LOCATER V4.66.93.0                                                        04/27/2023  18:30:04  PAGE 69


      000000DDH   SFRSYM    DATA     BYTE      T4T3M
      000000C1H   SFRSYM    DATA     BYTE      WDT_CONTR
      000000DFH   SFRSYM    DATA     BYTE      IP3
      000000F4H   SFRSYM    DATA     BYTE      USBCON
      000000B5H   SFRSYM    DATA     BYTE      IP2
      000000FFH   SFRSYM    DATA     BYTE      RSTCFG
      000000F9H   SFRSYM    DATA     BYTE      LINICR
      0000008EH   SFRSYM    DATA     BYTE      AUXR
      000000AFH   SFRSYM    DATA     BYTE      IE2
      000000B0H.3 SFRSYM    DATA     BIT       P33
      00000088H   SFRSYM    DATA     BYTE      TCON
      000000B0H.2 SFRSYM    DATA     BIT       P32
      00000098H   SFRSYM    DATA     BYTE      SCON
      000000F1H   SFRSYM    DATA     BYTE      CANICR
      00000087H   SFRSYM    DATA     BYTE      PCON
      000000BCH   SFRSYM    DATA     BYTE      ADC_CONTR
      000000E7H   SFRSYM    DATA     BYTE      CMPCR2
      000000E6H   SFRSYM    DATA     BYTE      CMPCR1
      000000B8H   SFRSYM    DATA     BYTE      IP
      0000008FH   SFRSYM    DATA     BYTE      INTCLKO
      000000EEH   SFRSYM    DATA     BYTE      IP3H
      000000B6H   SFRSYM    DATA     BYTE      IP2H
      000000A8H   SFRSYM    DATA     BYTE      IE
      000000BBH   SFRSYM    DATA     BYTE      P_SW3
      000000BAH   SFRSYM    DATA     BYTE      P_SW2
      000000A2H   SFRSYM    DATA     BYTE      P_SW1
      000000CEH   SFRSYM    DATA     BYTE      SPCTL
      000000F8H   SFRSYM    DATA     BYTE      P7
      000000E8H   SFRSYM    DATA     BYTE      P6
      000000C8H   SFRSYM    DATA     BYTE      P5
      000000C0H   SFRSYM    DATA     BYTE      P4
      000000B0H   SFRSYM    DATA     BYTE      P3
      000000A0H   SFRSYM    DATA     BYTE      P2
      00000090H   SFRSYM    DATA     BYTE      P1
      00000080H   SFRSYM    DATA     BYTE      P0
      REG=3       REGSYM    ---      ---       dat
      R15         REGSYM    ---      BYTE      i

      ---         MODULE    ---      ---       SEEKFREE_VIRSCO
      00000815H   PUBLIC    EDATA    ---       virtual_scope_data
      000000D0H   SFRSYM    DATA     BYTE      PSW
      0000009DH   SFRSYM    DATA     BYTE      IRCBAND
      00000097H   SFRSYM    DATA     BYTE      AUXR2
      000000EFH   SFRSYM    DATA     BYTE      AUXINTIF
      000000FDH   SFRSYM    DATA     BYTE      S4CON
      000000ACH   SFRSYM    DATA     BYTE      S3CON
      0000009AH   SFRSYM    DATA     BYTE      S2CON
      000000B7H   SFRSYM    DATA     BYTE      IPH
      000000CDH   SFRSYM    DATA     BYTE      SPSTAT
      000000DDH   SFRSYM    DATA     BYTE      T4T3M
      000000C1H   SFRSYM    DATA     BYTE      WDT_CONTR
      000000DFH   SFRSYM    DATA     BYTE      IP3
      000000F4H   SFRSYM    DATA     BYTE      USBCON
      000000B5H   SFRSYM    DATA     BYTE      IP2
      000000FFH   SFRSYM    DATA     BYTE      RSTCFG
      000000F9H   SFRSYM    DATA     BYTE      LINICR
      0000008EH   SFRSYM    DATA     BYTE      AUXR
      000000AFH   SFRSYM    DATA     BYTE      IE2
      00000088H   SFRSYM    DATA     BYTE      TCON
      00000098H   SFRSYM    DATA     BYTE      SCON
      000000F1H   SFRSYM    DATA     BYTE      CANICR
      00000087H   SFRSYM    DATA     BYTE      PCON
      000000BCH   SFRSYM    DATA     BYTE      ADC_CONTR
      000000E7H   SFRSYM    DATA     BYTE      CMPCR2
      000000E6H   SFRSYM    DATA     BYTE      CMPCR1
L251 LINKER/LOCATER V4.66.93.0                                                        04/27/2023  18:30:04  PAGE 70


      000000B8H   SFRSYM    DATA     BYTE      IP
      0000008FH   SFRSYM    DATA     BYTE      INTCLKO
      000000EEH   SFRSYM    DATA     BYTE      IP3H
      000000B6H   SFRSYM    DATA     BYTE      IP2H
      000000A8H   SFRSYM    DATA     BYTE      IE
      000000BBH   SFRSYM    DATA     BYTE      P_SW3
      000000BAH   SFRSYM    DATA     BYTE      P_SW2
      000000A2H   SFRSYM    DATA     BYTE      P_SW1
      000000CEH   SFRSYM    DATA     BYTE      SPCTL
      000000F8H   SFRSYM    DATA     BYTE      P7
      000000E8H   SFRSYM    DATA     BYTE      P6
      000000C8H   SFRSYM    DATA     BYTE      P5
      000000C0H   SFRSYM    DATA     BYTE      P4
      000000B0H   SFRSYM    DATA     BYTE      P3
      000000A0H   SFRSYM    DATA     BYTE      P2
      00000090H   SFRSYM    DATA     BYTE      P1
      00000080H   SFRSYM    DATA     BYTE      P0
      REG=7       REGSYM    ---      ---       Buf
      R10         REGSYM    ---      BYTE      CRC_CNT
      WR6         REGSYM    ---      WORD      CRC_Temp
      R5          REGSYM    ---      BYTE      i
      R4          REGSYM    ---      BYTE      j
      WR0         REGSYM    ---      INT       data1
      WR30        REGSYM    ---      INT       data2
      WR8         REGSYM    ---      INT       data3
      WR10        REGSYM    ---      INT       data4
      WR6         REGSYM    ---      WORD      CRC16

      ---         MODULE    ---      ---       SEEKFREE_WIRELESS
      00FF5921H   PUBLIC    CODE     ---       wireless_uart_callback
      000000D0H   SFRSYM    DATA     BYTE      PSW
      0000009DH   SFRSYM    DATA     BYTE      IRCBAND
      00000097H   SFRSYM    DATA     BYTE      AUXR2
      000000EFH   SFRSYM    DATA     BYTE      AUXINTIF
      000000FDH   SFRSYM    DATA     BYTE      S4CON
      000000ACH   SFRSYM    DATA     BYTE      S3CON
      0000009AH   SFRSYM    DATA     BYTE      S2CON
      000000FEH   SFRSYM    DATA     BYTE      S4BUF
      000000B7H   SFRSYM    DATA     BYTE      IPH
      000000CDH   SFRSYM    DATA     BYTE      SPSTAT
      000000DDH   SFRSYM    DATA     BYTE      T4T3M
      000000C1H   SFRSYM    DATA     BYTE      WDT_CONTR
      000000DFH   SFRSYM    DATA     BYTE      IP3
      000000F4H   SFRSYM    DATA     BYTE      USBCON
      000000B5H   SFRSYM    DATA     BYTE      IP2
      000000FFH   SFRSYM    DATA     BYTE      RSTCFG
      000000F9H   SFRSYM    DATA     BYTE      LINICR
      0000008EH   SFRSYM    DATA     BYTE      AUXR
      000000AFH   SFRSYM    DATA     BYTE      IE2
      00000080H.7 SFRSYM    DATA     BIT       P07
      00000088H   SFRSYM    DATA     BYTE      TCON
      00000098H   SFRSYM    DATA     BYTE      SCON
      000000F1H   SFRSYM    DATA     BYTE      CANICR
      00000087H   SFRSYM    DATA     BYTE      PCON
      000000BCH   SFRSYM    DATA     BYTE      ADC_CONTR
      000000E7H   SFRSYM    DATA     BYTE      CMPCR2
      000000E6H   SFRSYM    DATA     BYTE      CMPCR1
      000000B8H   SFRSYM    DATA     BYTE      IP
      0000008FH   SFRSYM    DATA     BYTE      INTCLKO
      000000EEH   SFRSYM    DATA     BYTE      IP3H
      000000B6H   SFRSYM    DATA     BYTE      IP2H
      000000A8H   SFRSYM    DATA     BYTE      IE
      000000BBH   SFRSYM    DATA     BYTE      P_SW3
      000000BAH   SFRSYM    DATA     BYTE      P_SW2
      000000A2H   SFRSYM    DATA     BYTE      P_SW1
L251 LINKER/LOCATER V4.66.93.0                                                        04/27/2023  18:30:04  PAGE 71


      000000CEH   SFRSYM    DATA     BYTE      SPCTL
      000000F8H   SFRSYM    DATA     BYTE      P7
      000000E8H   SFRSYM    DATA     BYTE      P6
      000000C8H   SFRSYM    DATA     BYTE      P5
      000000C0H   SFRSYM    DATA     BYTE      P4
      000000B0H   SFRSYM    DATA     BYTE      P3
      000000A0H   SFRSYM    DATA     BYTE      P2
      00000090H   SFRSYM    DATA     BYTE      P1
      00000080H   SFRSYM    DATA     BYTE      P0
      000006DDH   SYMBOL    EDATA    BYTE      wireless_uart_data
      000006DEH   SYMBOL    EDATA    ---       wireless_uart_fifo
      000006F2H   SYMBOL    EDATA    ---       wireless_uart_buffer

      00FF5921H   BLOCK     CODE     ---       LVL=0
      00FF5921H   LINE      CODE     ---       #48
      00FF5921H   LINE      CODE     ---       #51
      00FF5927H   LINE      CODE     ---       #52
      ---         BLOCKEND  ---      ---       LVL=0
      REG=3       REGSYM    ---      ---       buff
      REG=7       REGSYM    ---      ---       buff
      DR8         REGSYM    ---      DWORD     len

      ---         MODULE    ---      ---       SEEKFREE_WIRELESS_CH573
      00FF593AH   PUBLIC    CODE     ---       wireless_ch573_callback
      000000D0H   SFRSYM    DATA     BYTE      PSW
      0000009DH   SFRSYM    DATA     BYTE      IRCBAND
      00000097H   SFRSYM    DATA     BYTE      AUXR2
      000000EFH   SFRSYM    DATA     BYTE      AUXINTIF
      000000FDH   SFRSYM    DATA     BYTE      S4CON
      000000ACH   SFRSYM    DATA     BYTE      S3CON
      0000009AH   SFRSYM    DATA     BYTE      S2CON
      000000FEH   SFRSYM    DATA     BYTE      S4BUF
      000000B7H   SFRSYM    DATA     BYTE      IPH
      000000CDH   SFRSYM    DATA     BYTE      SPSTAT
      000000DDH   SFRSYM    DATA     BYTE      T4T3M
      000000C1H   SFRSYM    DATA     BYTE      WDT_CONTR
      000000DFH   SFRSYM    DATA     BYTE      IP3
      000000F4H   SFRSYM    DATA     BYTE      USBCON
      000000B5H   SFRSYM    DATA     BYTE      IP2
      000000FFH   SFRSYM    DATA     BYTE      RSTCFG
      000000F9H   SFRSYM    DATA     BYTE      LINICR
      0000008EH   SFRSYM    DATA     BYTE      AUXR
      000000AFH   SFRSYM    DATA     BYTE      IE2
      00000080H.7 SFRSYM    DATA     BIT       P07
      00000088H   SFRSYM    DATA     BYTE      TCON
      00000098H   SFRSYM    DATA     BYTE      SCON
      000000F1H   SFRSYM    DATA     BYTE      CANICR
      00000087H   SFRSYM    DATA     BYTE      PCON
      000000BCH   SFRSYM    DATA     BYTE      ADC_CONTR
      000000E7H   SFRSYM    DATA     BYTE      CMPCR2
      000000E6H   SFRSYM    DATA     BYTE      CMPCR1
      000000B8H   SFRSYM    DATA     BYTE      IP
      0000008FH   SFRSYM    DATA     BYTE      INTCLKO
      000000EEH   SFRSYM    DATA     BYTE      IP3H
      000000B6H   SFRSYM    DATA     BYTE      IP2H
      000000A8H   SFRSYM    DATA     BYTE      IE
      000000BBH   SFRSYM    DATA     BYTE      P_SW3
      000000BAH   SFRSYM    DATA     BYTE      P_SW2
      000000A2H   SFRSYM    DATA     BYTE      P_SW1
      000000CEH   SFRSYM    DATA     BYTE      SPCTL
      000000F8H   SFRSYM    DATA     BYTE      P7
      000000E8H   SFRSYM    DATA     BYTE      P6
      000000C8H   SFRSYM    DATA     BYTE      P5
      000000C0H   SFRSYM    DATA     BYTE      P4
      000000B0H   SFRSYM    DATA     BYTE      P3
L251 LINKER/LOCATER V4.66.93.0                                                        04/27/2023  18:30:04  PAGE 72


      000000A0H   SFRSYM    DATA     BYTE      P2
      00000090H   SFRSYM    DATA     BYTE      P1
      00000080H   SFRSYM    DATA     BYTE      P0
      00000732H   SYMBOL    EDATA    ---       wireless_ch573_buffer
      00000772H   SYMBOL    EDATA    BYTE      wireless_ch573_data
      00000773H   SYMBOL    EDATA    ---       wireless_ch573_fifo

      00FF593AH   BLOCK     CODE     ---       LVL=0
      00FF593AH   LINE      CODE     ---       #39
      00FF593AH   LINE      CODE     ---       #42
      00FF5940H   LINE      CODE     ---       #43
      ---         BLOCKEND  ---      ---       LVL=0
      REG=3       REGSYM    ---      ---       buff
      REG=7       REGSYM    ---      ---       buff
      DR8         REGSYM    ---      DWORD     len

      ---         MODULE    ---      ---       isr
      00FF5479H   PUBLIC    CODE     ---       UART1_Isr
      00FF5898H   PUBLIC    CODE     ---       UART2_Isr
      00FF58B6H   PUBLIC    CODE     ---       UART3_Isr
      00FF4DD9H   PUBLIC    CODE     ---       UART4_Isr
      00FF5ADAH   PUBLIC    CODE     ---       INT0_Isr
      00FF0011H   PUBLIC    CODE     ---       INT1_Isr
      00FF5AAAH   PUBLIC    CODE     ---       INT2_Isr
      00FF5AB2H   PUBLIC    CODE     ---       INT3_Isr
      00FF5ABAH   PUBLIC    CODE     ---       INT4_Isr
      00FF0012H   PUBLIC    CODE     ---       TM0_Isr
      00FF0016H   PUBLIC    CODE     ---       TM1_Isr
      00FF5AC2H   PUBLIC    CODE     ---       TM2_Isr
      00FF5ACAH   PUBLIC    CODE     ---       TM3_Isr
      00FF5AD2H   PUBLIC    CODE     ---       TM4_Isr
      000000D0H   SFRSYM    DATA     BYTE      PSW
      0000009DH   SFRSYM    DATA     BYTE      IRCBAND
      00000097H   SFRSYM    DATA     BYTE      AUXR2
      000000EFH   SFRSYM    DATA     BYTE      AUXINTIF
      000000FDH   SFRSYM    DATA     BYTE      S4CON
      000000ACH   SFRSYM    DATA     BYTE      S3CON
      0000009AH   SFRSYM    DATA     BYTE      S2CON
      000000B7H   SFRSYM    DATA     BYTE      IPH
      000000CDH   SFRSYM    DATA     BYTE      SPSTAT
      000000DDH   SFRSYM    DATA     BYTE      T4T3M
      000000C1H   SFRSYM    DATA     BYTE      WDT_CONTR
      000000DFH   SFRSYM    DATA     BYTE      IP3
      000000F4H   SFRSYM    DATA     BYTE      USBCON
      000000B5H   SFRSYM    DATA     BYTE      IP2
      000000FFH   SFRSYM    DATA     BYTE      RSTCFG
      000000C7H   SFRSYM    DATA     BYTE      IAP_CONTR
      000000F9H   SFRSYM    DATA     BYTE      LINICR
      0000008EH   SFRSYM    DATA     BYTE      AUXR
      000000AFH   SFRSYM    DATA     BYTE      IE2
      00000080H.7 SFRSYM    DATA     BIT       P07
      00000088H   SFRSYM    DATA     BYTE      TCON
      00000098H   SFRSYM    DATA     BYTE      SCON
      000000F1H   SFRSYM    DATA     BYTE      CANICR
      00000087H   SFRSYM    DATA     BYTE      PCON
      00000099H   SFRSYM    DATA     BYTE      SBUF
      000000BCH   SFRSYM    DATA     BYTE      ADC_CONTR
      000000E7H   SFRSYM    DATA     BYTE      CMPCR2
      000000E6H   SFRSYM    DATA     BYTE      CMPCR1
      000000B8H   SFRSYM    DATA     BYTE      IP
      0000008FH   SFRSYM    DATA     BYTE      INTCLKO
      000000EEH   SFRSYM    DATA     BYTE      IP3H
      000000B6H   SFRSYM    DATA     BYTE      IP2H
      000000A8H   SFRSYM    DATA     BYTE      IE
      000000BBH   SFRSYM    DATA     BYTE      P_SW3
L251 LINKER/LOCATER V4.66.93.0                                                        04/27/2023  18:30:04  PAGE 73


      000000BAH   SFRSYM    DATA     BYTE      P_SW2
      000000A2H   SFRSYM    DATA     BYTE      P_SW1
      000000CEH   SFRSYM    DATA     BYTE      SPCTL
      000000F8H   SFRSYM    DATA     BYTE      P7
      000000E8H   SFRSYM    DATA     BYTE      P6
      000000C8H   SFRSYM    DATA     BYTE      P5
      000000C0H   SFRSYM    DATA     BYTE      P4
      000000B0H   SFRSYM    DATA     BYTE      P3
      000000A0H   SFRSYM    DATA     BYTE      P2
      00000090H   SFRSYM    DATA     BYTE      P1
      00000080H   SFRSYM    DATA     BYTE      P0

      00FF5479H   BLOCK     CODE     ---       LVL=0
      00FF547DH   BLOCK     CODE     NEAR LAB  LVL=1
      R11         REGSYM    ---      BYTE      res
      00000851H   SYMBOL    EDATA    BYTE      dwon_count
      ---         BLOCKEND  ---      ---       LVL=1
      00FF5479H   LINE      CODE     ---       #22
      00FF547DH   LINE      CODE     ---       #23
      00FF547DH   LINE      CODE     ---       #26
      00FF5482H   LINE      CODE     ---       #28
      00FF5485H   LINE      CODE     ---       #29
      00FF548AH   LINE      CODE     ---       #30
      00FF548AH   LINE      CODE     ---       #31
      00FF548FH   LINE      CODE     ---       #33
      00FF5492H   LINE      CODE     ---       #34
      00FF5494H   LINE      CODE     ---       #36
      00FF5497H   LINE      CODE     ---       #38
      00FF54A7H   LINE      CODE     ---       #39
      00FF54AAH   LINE      CODE     ---       #40
      00FF54ACH   LINE      CODE     ---       #43
      00FF54B1H   LINE      CODE     ---       #44
      00FF54B1H   LINE      CODE     ---       #45
      ---         BLOCKEND  ---      ---       LVL=0

      00FF5898H   BLOCK     CODE     ---       LVL=0
      00FF5898H   LINE      CODE     ---       #49
      00FF589CH   LINE      CODE     ---       #51
      00FF58A1H   LINE      CODE     ---       #53
      00FF58A4H   LINE      CODE     ---       #54
      00FF58A9H   LINE      CODE     ---       #55
      00FF58A9H   LINE      CODE     ---       #56
      00FF58AEH   LINE      CODE     ---       #58
      00FF58B1H   LINE      CODE     ---       #61
      ---         BLOCKEND  ---      ---       LVL=0

      00FF58B6H   BLOCK     CODE     ---       LVL=0
      00FF58B6H   LINE      CODE     ---       #66
      00FF58BAH   LINE      CODE     ---       #68
      00FF58BFH   LINE      CODE     ---       #70
      00FF58C2H   LINE      CODE     ---       #71
      00FF58C7H   LINE      CODE     ---       #72
      00FF58C7H   LINE      CODE     ---       #73
      00FF58CCH   LINE      CODE     ---       #75
      00FF58CFH   LINE      CODE     ---       #78
      ---         BLOCKEND  ---      ---       LVL=0

      00FF4DD9H   BLOCK     CODE     ---       LVL=0
      00FF4DD9H   LINE      CODE     ---       #83
      00FF4DF1H   LINE      CODE     ---       #85
      00FF4DF6H   LINE      CODE     ---       #87
      00FF4DF9H   LINE      CODE     ---       #88
      00FF4DFEH   LINE      CODE     ---       #89
      00FF4DFEH   LINE      CODE     ---       #90
      00FF4E03H   LINE      CODE     ---       #92
L251 LINKER/LOCATER V4.66.93.0                                                        04/27/2023  18:30:04  PAGE 74


      00FF4E06H   LINE      CODE     ---       #95
      00FF4E10H   LINE      CODE     ---       #97
      00FF4E13H   LINE      CODE     ---       #98
      00FF4E15H   LINE      CODE     ---       #99
      00FF4E1BH   LINE      CODE     ---       #101
      00FF4E1EH   LINE      CODE     ---       #102
      00FF4E20H   LINE      CODE     ---       #103
      00FF4E26H   LINE      CODE     ---       #105
      00FF4E29H   LINE      CODE     ---       #106
      00FF4E29H   LINE      CODE     ---       #108
      ---         BLOCKEND  ---      ---       LVL=0

      00FF5ADAH   BLOCK     CODE     ---       LVL=0
      00FF5ADAH   LINE      CODE     ---       #111
      00FF5ADCH   LINE      CODE     ---       #113
      00FF5ADEH   LINE      CODE     ---       #114
      ---         BLOCKEND  ---      ---       LVL=0

      00FF0011H   BLOCK     CODE     ---       LVL=0
      00FF0011H   LINE      CODE     ---       #115
      00FF0011H   LINE      CODE     ---       #118
      ---         BLOCKEND  ---      ---       LVL=0

      00FF5AAAH   BLOCK     CODE     ---       LVL=0
      00FF5AAAH   LINE      CODE     ---       #119
      00FF5AACH   LINE      CODE     ---       #121
      00FF5AAFH   LINE      CODE     ---       #122
      ---         BLOCKEND  ---      ---       LVL=0

      00FF5AB2H   BLOCK     CODE     ---       LVL=0
      00FF5AB2H   LINE      CODE     ---       #123
      00FF5AB4H   LINE      CODE     ---       #125
      00FF5AB7H   LINE      CODE     ---       #126
      ---         BLOCKEND  ---      ---       LVL=0

      00FF5ABAH   BLOCK     CODE     ---       LVL=0
      00FF5ABAH   LINE      CODE     ---       #128
      00FF5ABCH   LINE      CODE     ---       #130
      00FF5ABFH   LINE      CODE     ---       #131
      ---         BLOCKEND  ---      ---       LVL=0

      00FF0012H   BLOCK     CODE     ---       LVL=0
      00FF0012H   LINE      CODE     ---       #133
      00FF0012H   LINE      CODE     ---       #136
      ---         BLOCKEND  ---      ---       LVL=0

      00FF0016H   BLOCK     CODE     ---       LVL=0
      00FF0016H   LINE      CODE     ---       #137
      00FF0016H   LINE      CODE     ---       #140
      ---         BLOCKEND  ---      ---       LVL=0

      00FF5AC2H   BLOCK     CODE     ---       LVL=0
      00FF5AC2H   LINE      CODE     ---       #141
      00FF5AC4H   LINE      CODE     ---       #143
      00FF5AC7H   LINE      CODE     ---       #145
      ---         BLOCKEND  ---      ---       LVL=0

      00FF5ACAH   BLOCK     CODE     ---       LVL=0
      00FF5ACAH   LINE      CODE     ---       #146
      00FF5ACCH   LINE      CODE     ---       #148
      00FF5ACFH   LINE      CODE     ---       #150
      ---         BLOCKEND  ---      ---       LVL=0

      00FF5AD2H   BLOCK     CODE     ---       LVL=0
      00FF5AD2H   LINE      CODE     ---       #152
L251 LINKER/LOCATER V4.66.93.0                                                        04/27/2023  18:30:04  PAGE 75


      00FF5AD4H   LINE      CODE     ---       #154
      00FF5AD7H   LINE      CODE     ---       #173
      ---         BLOCKEND  ---      ---       LVL=0

      ---         MODULE    ---      ---       main
      00FF4640H   PUBLIC    CODE     ---       main
      000000D0H   SFRSYM    DATA     BYTE      PSW
      0000009DH   SFRSYM    DATA     BYTE      IRCBAND
      00000097H   SFRSYM    DATA     BYTE      AUXR2
      000000EFH   SFRSYM    DATA     BYTE      AUXINTIF
      000000FDH   SFRSYM    DATA     BYTE      S4CON
      000000ACH   SFRSYM    DATA     BYTE      S3CON
      0000009AH   SFRSYM    DATA     BYTE      S2CON
      000000B7H   SFRSYM    DATA     BYTE      IPH
      000000CDH   SFRSYM    DATA     BYTE      SPSTAT
      000000DDH   SFRSYM    DATA     BYTE      T4T3M
      000000C1H   SFRSYM    DATA     BYTE      WDT_CONTR
      000000DFH   SFRSYM    DATA     BYTE      IP3
      000000F4H   SFRSYM    DATA     BYTE      USBCON
      000000B5H   SFRSYM    DATA     BYTE      IP2
      000000FFH   SFRSYM    DATA     BYTE      RSTCFG
      000000F9H   SFRSYM    DATA     BYTE      LINICR
      0000008EH   SFRSYM    DATA     BYTE      AUXR
      000000AFH   SFRSYM    DATA     BYTE      IE2
      00000080H.7 SFRSYM    DATA     BIT       P07
      00000088H   SFRSYM    DATA     BYTE      TCON
      000000C8H.0 SFRSYM    DATA     BIT       P50
      00000098H   SFRSYM    DATA     BYTE      SCON
      000000F1H   SFRSYM    DATA     BYTE      CANICR
      00000087H   SFRSYM    DATA     BYTE      PCON
      000000BCH   SFRSYM    DATA     BYTE      ADC_CONTR
      000000E7H   SFRSYM    DATA     BYTE      CMPCR2
      000000E6H   SFRSYM    DATA     BYTE      CMPCR1
      000000B8H   SFRSYM    DATA     BYTE      IP
      0000008FH   SFRSYM    DATA     BYTE      INTCLKO
      000000EEH   SFRSYM    DATA     BYTE      IP3H
      000000B6H   SFRSYM    DATA     BYTE      IP2H
      000000A8H   SFRSYM    DATA     BYTE      IE
      000000BBH   SFRSYM    DATA     BYTE      P_SW3
      000000BAH   SFRSYM    DATA     BYTE      P_SW2
      000000A2H   SFRSYM    DATA     BYTE      P_SW1
      000000CEH   SFRSYM    DATA     BYTE      SPCTL
      000000F8H   SFRSYM    DATA     BYTE      P7
      000000E8H   SFRSYM    DATA     BYTE      P6
      000000C8H   SFRSYM    DATA     BYTE      P5
      000000C0H   SFRSYM    DATA     BYTE      P4
      000000B0H   SFRSYM    DATA     BYTE      P3
      000000A0H   SFRSYM    DATA     BYTE      P2
      00000090H   SFRSYM    DATA     BYTE      P1
      00000080H   SFRSYM    DATA     BYTE      P0

      00FF4640H   BLOCK     CODE     ---       LVL=0
      00FF4640H   LINE      CODE     ---       #30
      00FF4640H   LINE      CODE     ---       #32
      00FF4643H   LINE      CODE     ---       #36
      00FF4678H   LINE      CODE     ---       #37
      00FF46B3H   LINE      CODE     ---       #38
      00FF46B6H   LINE      CODE     ---       #39
      00FF46B9H   LINE      CODE     ---       #40
      00FF46BCH   LINE      CODE     ---       #41
      00FF46BFH   LINE      CODE     ---       #42
      00FF46C2H   LINE      CODE     ---       #43
      00FF46C9H   LINE      CODE     ---       #44
      00FF46CBH   LINE      CODE     ---       #45
      00FF46CDH   LINE      CODE     ---       #49
L251 LINKER/LOCATER V4.66.93.0                                                        04/27/2023  18:30:04  PAGE 76


      00FF46CDH   LINE      CODE     ---       #53
      00FF4700H   LINE      CODE     ---       #60
      00FF4703H   LINE      CODE     ---       #61
      00FF470FH   LINE      CODE     ---       #62
      00FF4718H   LINE      CODE     ---       #64
      00FF471BH   LINE      CODE     ---       #65
      00FF472AH   LINE      CODE     ---       #66
      00FF472DH   LINE      CODE     ---       #67
      00FF4730H   LINE      CODE     ---       #68
      00FF474BH   LINE      CODE     ---       #69
      00FF474EH   LINE      CODE     ---       #74
      00FF4755H   LINE      CODE     ---       #75
      ---         BLOCKEND  ---      ---       LVL=0

      ---         MODULE    ---      ---       adc
      00FF520AH   PUBLIC    CODE     ---       adc_mean_filter
      00FF52A1H   PUBLIC    CODE     ---       My_Adc_Init
      00FF4CF0H   PUBLIC    CODE     ---       Read_Adc_Value
      000007E1H   PUBLIC    EDATA    INT       adc1
      000007E3H   PUBLIC    EDATA    INT       adc2
      000007E5H   PUBLIC    EDATA    INT       adc3
      000007E7H   PUBLIC    EDATA    INT       adc4
      000007E9H   PUBLIC    EDATA    INT       adc5
      000007EBH   PUBLIC    EDATA    INT       adc6
      000007EDH   PUBLIC    EDATA    INT       adc7
      000007EFH   PUBLIC    EDATA    INT       adc8
      000000D0H   SFRSYM    DATA     BYTE      PSW
      0000009DH   SFRSYM    DATA     BYTE      IRCBAND
      00000097H   SFRSYM    DATA     BYTE      AUXR2
      000000EFH   SFRSYM    DATA     BYTE      AUXINTIF
      000000FDH   SFRSYM    DATA     BYTE      S4CON
      000000ACH   SFRSYM    DATA     BYTE      S3CON
      0000009AH   SFRSYM    DATA     BYTE      S2CON
      000000B7H   SFRSYM    DATA     BYTE      IPH
      000000CDH   SFRSYM    DATA     BYTE      SPSTAT
      000000DDH   SFRSYM    DATA     BYTE      T4T3M
      000000C1H   SFRSYM    DATA     BYTE      WDT_CONTR
      000000DFH   SFRSYM    DATA     BYTE      IP3
      000000F4H   SFRSYM    DATA     BYTE      USBCON
      000000B5H   SFRSYM    DATA     BYTE      IP2
      000000FFH   SFRSYM    DATA     BYTE      RSTCFG
      000000F9H   SFRSYM    DATA     BYTE      LINICR
      0000008EH   SFRSYM    DATA     BYTE      AUXR
      000000AFH   SFRSYM    DATA     BYTE      IE2
      00000088H   SFRSYM    DATA     BYTE      TCON
      00000098H   SFRSYM    DATA     BYTE      SCON
      000000F1H   SFRSYM    DATA     BYTE      CANICR
      00000087H   SFRSYM    DATA     BYTE      PCON
      000000BCH   SFRSYM    DATA     BYTE      ADC_CONTR
      000000E7H   SFRSYM    DATA     BYTE      CMPCR2
      000000E6H   SFRSYM    DATA     BYTE      CMPCR1
      000000B8H   SFRSYM    DATA     BYTE      IP
      0000008FH   SFRSYM    DATA     BYTE      INTCLKO
      000000EEH   SFRSYM    DATA     BYTE      IP3H
      000000B6H   SFRSYM    DATA     BYTE      IP2H
      000000A8H   SFRSYM    DATA     BYTE      IE
      000000BBH   SFRSYM    DATA     BYTE      P_SW3
      000000BAH   SFRSYM    DATA     BYTE      P_SW2
      000000A2H   SFRSYM    DATA     BYTE      P_SW1
      000000CEH   SFRSYM    DATA     BYTE      SPCTL
      000000F8H   SFRSYM    DATA     BYTE      P7
      000000E8H   SFRSYM    DATA     BYTE      P6
      000000C8H   SFRSYM    DATA     BYTE      P5
      000000C0H   SFRSYM    DATA     BYTE      P4
      000000B0H   SFRSYM    DATA     BYTE      P3
L251 LINKER/LOCATER V4.66.93.0                                                        04/27/2023  18:30:04  PAGE 77


      000000A0H   SFRSYM    DATA     BYTE      P2
      00000090H   SFRSYM    DATA     BYTE      P1
      00000080H   SFRSYM    DATA     BYTE      P0

      00FF52A1H   BLOCK     CODE     ---       LVL=0
      00FF52A1H   LINE      CODE     ---       #17
      00FF52A1H   LINE      CODE     ---       #19
      00FF52AAH   LINE      CODE     ---       #20
      00FF52B3H   LINE      CODE     ---       #21
      00FF52BCH   LINE      CODE     ---       #22
      00FF52C5H   LINE      CODE     ---       #24
      00FF52CEH   LINE      CODE     ---       #25
      00FF52D7H   LINE      CODE     ---       #26
      00FF52E0H   LINE      CODE     ---       #27
      ---         BLOCKEND  ---      ---       LVL=0

      00FF520AH   BLOCK     CODE     ---       LVL=0
      WR12        REGSYM    ---      INT       adcn
      WR14        REGSYM    ---      INT       speed
      00000793H   SYMBOL    EDATA    BYTE      count
      00FF5214H   BLOCK     CODE     NEAR LAB  LVL=1
      00000794H   SYMBOL    EDATA    BYTE      i
      00000795H   SYMBOL    EDATA    DWORD     sum
      ---         BLOCKEND  ---      ---       LVL=1
      00FF520AH   LINE      CODE     ---       #34
      00FF5214H   LINE      CODE     ---       #35
      00FF5214H   LINE      CODE     ---       #39
      00FF521AH   LINE      CODE     ---       #40
      00FF521DH   LINE      CODE     ---       #42
      00FF5232H   LINE      CODE     ---       #43
      00FF5245H   LINE      CODE     ---       #45
      00FF5254H   LINE      CODE     ---       #46
      00FF5254H   LINE      CODE     ---       #47
      ---         BLOCKEND  ---      ---       LVL=0

      00FF4CF0H   BLOCK     CODE     ---       LVL=0
      00FF4CF0H   LINE      CODE     ---       #52
      00FF4CF0H   LINE      CODE     ---       #55
      00FF4CFFH   LINE      CODE     ---       #56
      00FF4D0EH   LINE      CODE     ---       #57
      00FF4D1DH   LINE      CODE     ---       #58
      00FF4D2CH   LINE      CODE     ---       #60
      00FF4D3BH   LINE      CODE     ---       #61
      00FF4D4AH   LINE      CODE     ---       #62
      00FF4D59H   LINE      CODE     ---       #63
      00FF4D68H   LINE      CODE     ---       #64
      ---         BLOCKEND  ---      ---       LVL=0

      ---         MODULE    ---      ---       control
      00FF4F66H   PUBLIC    CODE     ---       ADC_error_window_filtering
      00FF5AE1H   PUBLIC    CODE     ---       PID_on
      00FF4E42H   PUBLIC    CODE     ---       Correct_Angle
      00FF56BDH   PUBLIC    CODE     ---       ADC_error_weight_filtering
      00FF4D69H   PUBLIC    CODE     ---       ADC_error_processing
      00000627H   PUBLIC    EDATA    ---       akeman_left
      0000063BH   PUBLIC    EDATA    FLOAT     order_angle
      0000063FH   PUBLIC    EDATA    FLOAT     order_speed
      00000643H   PUBLIC    EDATA    FLOAT     ADC_error_a
      00000647H   PUBLIC    EDATA    INT       window_flag
      00000649H   PUBLIC    EDATA    INT       Roundabout_flag
      0000064BH   PUBLIC    EDATA    BYTE      pid_flag
      0000064CH   PUBLIC    EDATA    FLOAT     adc_err
      00000650H   PUBLIC    EDATA    ---       adc_err_array
      00000664H   PUBLIC    EDATA    ---       akeman_right
      0000078BH   PUBLIC    EDATA    BYTE      ?ADC_error_processing?BYTE
L251 LINKER/LOCATER V4.66.93.0                                                        04/27/2023  18:30:04  PAGE 78


      0000078BH   PUBLIC    EDATA    BYTE      ?Correct_Angle?BYTE
      000000D0H   SFRSYM    DATA     BYTE      PSW
      0000009DH   SFRSYM    DATA     BYTE      IRCBAND
      00000097H   SFRSYM    DATA     BYTE      AUXR2
      000000EFH   SFRSYM    DATA     BYTE      AUXINTIF
      000000FDH   SFRSYM    DATA     BYTE      S4CON
      000000ACH   SFRSYM    DATA     BYTE      S3CON
      0000009AH   SFRSYM    DATA     BYTE      S2CON
      000000B7H   SFRSYM    DATA     BYTE      IPH
      000000CDH   SFRSYM    DATA     BYTE      SPSTAT
      000000DDH   SFRSYM    DATA     BYTE      T4T3M
      000000C1H   SFRSYM    DATA     BYTE      WDT_CONTR
      000000DFH   SFRSYM    DATA     BYTE      IP3
      000000F4H   SFRSYM    DATA     BYTE      USBCON
      000000B5H   SFRSYM    DATA     BYTE      IP2
      000000FFH   SFRSYM    DATA     BYTE      RSTCFG
      000000F9H   SFRSYM    DATA     BYTE      LINICR
      0000008EH   SFRSYM    DATA     BYTE      AUXR
      000000AFH   SFRSYM    DATA     BYTE      IE2
      00000088H   SFRSYM    DATA     BYTE      TCON
      00000098H   SFRSYM    DATA     BYTE      SCON
      000000F1H   SFRSYM    DATA     BYTE      CANICR
      00000087H   SFRSYM    DATA     BYTE      PCON
      000000BCH   SFRSYM    DATA     BYTE      ADC_CONTR
      000000E7H   SFRSYM    DATA     BYTE      CMPCR2
      000000E6H   SFRSYM    DATA     BYTE      CMPCR1
      000000B8H   SFRSYM    DATA     BYTE      IP
      0000008FH   SFRSYM    DATA     BYTE      INTCLKO
      000000EEH   SFRSYM    DATA     BYTE      IP3H
      000000B6H   SFRSYM    DATA     BYTE      IP2H
      000000A8H   SFRSYM    DATA     BYTE      IE
      000000BBH   SFRSYM    DATA     BYTE      P_SW3
      000000BAH   SFRSYM    DATA     BYTE      P_SW2
      000000A2H   SFRSYM    DATA     BYTE      P_SW1
      000000CEH   SFRSYM    DATA     BYTE      SPCTL
      000000F8H   SFRSYM    DATA     BYTE      P7
      000000E8H   SFRSYM    DATA     BYTE      P6
      000000C8H   SFRSYM    DATA     BYTE      P5
      000000C0H   SFRSYM    DATA     BYTE      P4
      000000B0H   SFRSYM    DATA     BYTE      P3
      000000A0H   SFRSYM    DATA     BYTE      P2
      00000090H   SFRSYM    DATA     BYTE      P1
      00000080H   SFRSYM    DATA     BYTE      P0
      DR12        REGSYM    ---      FLOAT     basic_speed
      DR28        REGSYM    ---      FLOAT     akeman_diff
      DR8         REGSYM    ---      FLOAT     current_l
      DR0         REGSYM    ---      FLOAT     target_l
      00000678H   SYMBOL    EDATA    FLOAT     pwm_l
      0000067CH   SYMBOL    EDATA    FLOAT     pwm_r

      00FF4D69H   BLOCK     CODE     ---       LVL=0
      DR24        REGSYM    ---      FLOAT     A
      DR28        REGSYM    ---      FLOAT     B
      00000793H   SYMBOL    EDATA    FLOAT     compensation
      00FF4D69H   LINE      CODE     ---       #98
      00FF4D6BH   LINE      CODE     ---       #103
      00FF4DD8H   LINE      CODE     ---       #104
      00FF4DD8H   LINE      CODE     ---       #105
      ---         BLOCKEND  ---      ---       LVL=0

      00FF56BDH   BLOCK     CODE     ---       LVL=0
      00000680H   SYMBOL    EDATA    FLOAT     adc_err_last
      00FF56BDH   LINE      CODE     ---       #112
      00FF56BDH   LINE      CODE     ---       #113
      00FF56BDH   LINE      CODE     ---       #115
L251 LINKER/LOCATER V4.66.93.0                                                        04/27/2023  18:30:04  PAGE 79


      00FF56E6H   LINE      CODE     ---       #116
      00FF56EAH   LINE      CODE     ---       #118
      00FF56EAH   LINE      CODE     ---       #119
      ---         BLOCKEND  ---      ---       LVL=0

      00FF4F66H   BLOCK     CODE     ---       LVL=0
      00FF4F66H   LINE      CODE     ---       #125
      00FF4F66H   LINE      CODE     ---       #127
      00FF4F7CH   LINE      CODE     ---       #128
      00FF4F82H   LINE      CODE     ---       #129
      00FF4F88H   LINE      CODE     ---       #130
      00FF4F8EH   LINE      CODE     ---       #131
      00FF4F96H   LINE      CODE     ---       #132
      00FF4FBCH   LINE      CODE     ---       #133
      00FF4FC0H   LINE      CODE     ---       #134
      ---         BLOCKEND  ---      ---       LVL=0

      00FF4E42H   BLOCK     CODE     ---       LVL=0
      DR20        REGSYM    ---      FLOAT     kp
      DR28        REGSYM    ---      FLOAT     kd
      DR24        REGSYM    ---      FLOAT     ki
      00FF4E4CH   BLOCK     CODE     NEAR LAB  LVL=1
      DR28        REGSYM    ---      FLOAT     target_angle
      DR16        REGSYM    ---      FLOAT     target_angle_last
      00000684H   SYMBOL    EDATA    FLOAT     adc_err_last
      ---         BLOCKEND  ---      ---       LVL=1
      00FF4E42H   LINE      CODE     ---       #169
      00FF4E4CH   LINE      CODE     ---       #170
      00FF4E4CH   LINE      CODE     ---       #180
      00FF4E81H   LINE      CODE     ---       #181
      00FF4EA2H   LINE      CODE     ---       #182
      00FF4EA2H   LINE      CODE     ---       #184
      00FF4EA6H   LINE      CODE     ---       #186
      00FF4EA6H   LINE      CODE     ---       #187
      ---         BLOCKEND  ---      ---       LVL=0

      00FF5AE1H   BLOCK     CODE     ---       LVL=0
      00FF5AE1H   LINE      CODE     ---       #192
      00FF5AE1H   LINE      CODE     ---       #194
      00FF5AE7H   LINE      CODE     ---       #195
      ---         BLOCKEND  ---      ---       LVL=0

      ---         MODULE    ---      ---       key
      000000D0H   SFRSYM    DATA     BYTE      PSW
      0000009DH   SFRSYM    DATA     BYTE      IRCBAND
      00000097H   SFRSYM    DATA     BYTE      AUXR2
      000000EFH   SFRSYM    DATA     BYTE      AUXINTIF
      000000FDH   SFRSYM    DATA     BYTE      S4CON
      000000ACH   SFRSYM    DATA     BYTE      S3CON
      0000009AH   SFRSYM    DATA     BYTE      S2CON
      000000B7H   SFRSYM    DATA     BYTE      IPH
      000000CDH   SFRSYM    DATA     BYTE      SPSTAT
      000000DDH   SFRSYM    DATA     BYTE      T4T3M
      000000C1H   SFRSYM    DATA     BYTE      WDT_CONTR
      000000DFH   SFRSYM    DATA     BYTE      IP3
      000000F4H   SFRSYM    DATA     BYTE      USBCON
      000000B5H   SFRSYM    DATA     BYTE      IP2
      000000FFH   SFRSYM    DATA     BYTE      RSTCFG
      000000F9H   SFRSYM    DATA     BYTE      LINICR
      0000008EH   SFRSYM    DATA     BYTE      AUXR
      000000AFH   SFRSYM    DATA     BYTE      IE2
      000000F8H.3 SFRSYM    DATA     BIT       P73
      000000F8H.2 SFRSYM    DATA     BIT       P72
      000000F8H.1 SFRSYM    DATA     BIT       P71
      000000F8H.0 SFRSYM    DATA     BIT       P70
L251 LINKER/LOCATER V4.66.93.0                                                        04/27/2023  18:30:04  PAGE 80


      00000088H   SFRSYM    DATA     BYTE      TCON
      00000098H   SFRSYM    DATA     BYTE      SCON
      000000F1H   SFRSYM    DATA     BYTE      CANICR
      00000087H   SFRSYM    DATA     BYTE      PCON
      000000BCH   SFRSYM    DATA     BYTE      ADC_CONTR
      000000E7H   SFRSYM    DATA     BYTE      CMPCR2
      000000E6H   SFRSYM    DATA     BYTE      CMPCR1
      000000B8H   SFRSYM    DATA     BYTE      IP
      0000008FH   SFRSYM    DATA     BYTE      INTCLKO
      000000EEH   SFRSYM    DATA     BYTE      IP3H
      000000B6H   SFRSYM    DATA     BYTE      IP2H
      000000A8H   SFRSYM    DATA     BYTE      IE
      000000BBH   SFRSYM    DATA     BYTE      P_SW3
      000000BAH   SFRSYM    DATA     BYTE      P_SW2
      000000A2H   SFRSYM    DATA     BYTE      P_SW1
      000000CEH   SFRSYM    DATA     BYTE      SPCTL
      000000F8H   SFRSYM    DATA     BYTE      P7
      000000E8H   SFRSYM    DATA     BYTE      P6
      000000C8H   SFRSYM    DATA     BYTE      P5
      000000C0H   SFRSYM    DATA     BYTE      P4
      000000B0H   SFRSYM    DATA     BYTE      P3
      000000A0H   SFRSYM    DATA     BYTE      P2
      00000090H   SFRSYM    DATA     BYTE      P1
      00000080H   SFRSYM    DATA     BYTE      P0
      R7          REGSYM    ---      BYTE      mode
      00000852H   SYMBOL    EDATA    BYTE      key_up

      ---         MODULE    ---      ---       motor
      00FF516DH   PUBLIC    CODE     ---       Motor_Init
      00FF4A89H   PUBLIC    CODE     ---       Motor_Control
      00000840H   PUBLIC    EDATA    INT       pulse_right
      00000842H   PUBLIC    EDATA    INT       pulse_left
      000000D0H   SFRSYM    DATA     BYTE      PSW
      0000009DH   SFRSYM    DATA     BYTE      IRCBAND
      00000097H   SFRSYM    DATA     BYTE      AUXR2
      000000EFH   SFRSYM    DATA     BYTE      AUXINTIF
      000000FDH   SFRSYM    DATA     BYTE      S4CON
      000000ACH   SFRSYM    DATA     BYTE      S3CON
      0000009AH   SFRSYM    DATA     BYTE      S2CON
      000000B7H   SFRSYM    DATA     BYTE      IPH
      000000CDH   SFRSYM    DATA     BYTE      SPSTAT
      000000DDH   SFRSYM    DATA     BYTE      T4T3M
      000000C1H   SFRSYM    DATA     BYTE      WDT_CONTR
      000000DFH   SFRSYM    DATA     BYTE      IP3
      000000F4H   SFRSYM    DATA     BYTE      USBCON
      000000B5H   SFRSYM    DATA     BYTE      IP2
      000000FFH   SFRSYM    DATA     BYTE      RSTCFG
      000000F9H   SFRSYM    DATA     BYTE      LINICR
      0000008EH   SFRSYM    DATA     BYTE      AUXR
      000000AFH   SFRSYM    DATA     BYTE      IE2
      000000B0H.5 SFRSYM    DATA     BIT       P35
      000000C8H.3 SFRSYM    DATA     BIT       P53
      00000088H   SFRSYM    DATA     BYTE      TCON
      00000098H   SFRSYM    DATA     BYTE      SCON
      000000F1H   SFRSYM    DATA     BYTE      CANICR
      00000087H   SFRSYM    DATA     BYTE      PCON
      000000BCH   SFRSYM    DATA     BYTE      ADC_CONTR
      000000E7H   SFRSYM    DATA     BYTE      CMPCR2
      000000E6H   SFRSYM    DATA     BYTE      CMPCR1
      000000B8H   SFRSYM    DATA     BYTE      IP
      0000008FH   SFRSYM    DATA     BYTE      INTCLKO
      000000EEH   SFRSYM    DATA     BYTE      IP3H
      000000B6H   SFRSYM    DATA     BYTE      IP2H
      000000A8H   SFRSYM    DATA     BYTE      IE
      000000BBH   SFRSYM    DATA     BYTE      P_SW3
L251 LINKER/LOCATER V4.66.93.0                                                        04/27/2023  18:30:04  PAGE 81


      000000BAH   SFRSYM    DATA     BYTE      P_SW2
      000000A2H   SFRSYM    DATA     BYTE      P_SW1
      000000CEH   SFRSYM    DATA     BYTE      SPCTL
      000000F8H   SFRSYM    DATA     BYTE      P7
      000000E8H   SFRSYM    DATA     BYTE      P6
      000000C8H   SFRSYM    DATA     BYTE      P5
      000000C0H   SFRSYM    DATA     BYTE      P4
      000000B0H   SFRSYM    DATA     BYTE      P3
      000000A0H   SFRSYM    DATA     BYTE      P2
      00000090H   SFRSYM    DATA     BYTE      P1
      00000080H   SFRSYM    DATA     BYTE      P0

      00FF516DH   BLOCK     CODE     ---       LVL=0
      00FF516DH   LINE      CODE     ---       #12
      00FF516DH   LINE      CODE     ---       #15
      00FF517EH   LINE      CODE     ---       #16
      00FF518FH   LINE      CODE     ---       #18
      00FF51A0H   LINE      CODE     ---       #19
      00FF51B1H   LINE      CODE     ---       #21
      00FF51B6H   LINE      CODE     ---       #22
      ---         BLOCKEND  ---      ---       LVL=0

      00FF4A89H   BLOCK     CODE     ---       LVL=0
      00000793H   SYMBOL    EDATA    LONG      left_duty
      DR12        REGSYM    ---      LONG      right_duty
      00FF4A89H   LINE      CODE     ---       #31
      00FF4A91H   LINE      CODE     ---       #34
      00FF4A9FH   LINE      CODE     ---       #35
      00FF4AB1H   LINE      CODE     ---       #36
      00FF4ABBH   LINE      CODE     ---       #37
      00FF4AC5H   LINE      CODE     ---       #39
      00FF4ACFH   LINE      CODE     ---       #41
      00FF4AD8H   LINE      CODE     ---       #42
      00FF4AE0H   LINE      CODE     ---       #43
      00FF4AE2H   LINE      CODE     ---       #46
      00FF4AF7H   LINE      CODE     ---       #47
      00FF4B00H   LINE      CODE     ---       #48
      00FF4B00H   LINE      CODE     ---       #50
      00FF4B06H   LINE      CODE     ---       #52
      00FF4B0FH   LINE      CODE     ---       #53
      00FF4B15H   LINE      CODE     ---       #54
      00FF4B17H   LINE      CODE     ---       #57
      00FF4B22H   LINE      CODE     ---       #58
      00FF4B2BH   LINE      CODE     ---       #59
      00FF4B2BH   LINE      CODE     ---       #60
      ---         BLOCKEND  ---      ---       LVL=0

      ---         MODULE    ---      ---       steer
      00FF4B2EH   PUBLIC    CODE     ---       Steer_Spin
      00FF59D5H   PUBLIC    CODE     ---       Steer_Init
      000000D0H   SFRSYM    DATA     BYTE      PSW
      0000009DH   SFRSYM    DATA     BYTE      IRCBAND
      00000097H   SFRSYM    DATA     BYTE      AUXR2
      000000EFH   SFRSYM    DATA     BYTE      AUXINTIF
      000000FDH   SFRSYM    DATA     BYTE      S4CON
      000000ACH   SFRSYM    DATA     BYTE      S3CON
      0000009AH   SFRSYM    DATA     BYTE      S2CON
      000000B7H   SFRSYM    DATA     BYTE      IPH
      000000CDH   SFRSYM    DATA     BYTE      SPSTAT
      000000DDH   SFRSYM    DATA     BYTE      T4T3M
      000000C1H   SFRSYM    DATA     BYTE      WDT_CONTR
      000000DFH   SFRSYM    DATA     BYTE      IP3
      000000F4H   SFRSYM    DATA     BYTE      USBCON
      000000B5H   SFRSYM    DATA     BYTE      IP2
      000000FFH   SFRSYM    DATA     BYTE      RSTCFG
L251 LINKER/LOCATER V4.66.93.0                                                        04/27/2023  18:30:04  PAGE 82


      000000F9H   SFRSYM    DATA     BYTE      LINICR
      0000008EH   SFRSYM    DATA     BYTE      AUXR
      000000AFH   SFRSYM    DATA     BYTE      IE2
      00000088H   SFRSYM    DATA     BYTE      TCON
      00000098H   SFRSYM    DATA     BYTE      SCON
      000000F1H   SFRSYM    DATA     BYTE      CANICR
      00000087H   SFRSYM    DATA     BYTE      PCON
      000000BCH   SFRSYM    DATA     BYTE      ADC_CONTR
      000000E7H   SFRSYM    DATA     BYTE      CMPCR2
      000000E6H   SFRSYM    DATA     BYTE      CMPCR1
      000000B8H   SFRSYM    DATA     BYTE      IP
      0000008FH   SFRSYM    DATA     BYTE      INTCLKO
      000000EEH   SFRSYM    DATA     BYTE      IP3H
      000000B6H   SFRSYM    DATA     BYTE      IP2H
      000000A8H   SFRSYM    DATA     BYTE      IE
      000000BBH   SFRSYM    DATA     BYTE      P_SW3
      000000BAH   SFRSYM    DATA     BYTE      P_SW2
      000000A2H   SFRSYM    DATA     BYTE      P_SW1
      000000CEH   SFRSYM    DATA     BYTE      SPCTL
      000000F8H   SFRSYM    DATA     BYTE      P7
      000000E8H   SFRSYM    DATA     BYTE      P6
      000000C8H   SFRSYM    DATA     BYTE      P5
      000000C0H   SFRSYM    DATA     BYTE      P4
      000000B0H   SFRSYM    DATA     BYTE      P3
      000000A0H   SFRSYM    DATA     BYTE      P2
      00000090H   SFRSYM    DATA     BYTE      P1
      00000080H   SFRSYM    DATA     BYTE      P0

      00FF59D5H   BLOCK     CODE     ---       LVL=0
      00FF59D5H   LINE      CODE     ---       #8
      00FF59D5H   LINE      CODE     ---       #10
      ---         BLOCKEND  ---      ---       LVL=0

      00FF4B2EH   BLOCK     CODE     ---       LVL=0
      DR28        REGSYM    ---      FLOAT     target_angle
      00FF4B32H   BLOCK     CODE     NEAR LAB  LVL=1
      DR12        REGSYM    ---      DWORD     duty
      ---         BLOCKEND  ---      ---       LVL=1
      00FF4B2EH   LINE      CODE     ---       #18
      00FF4B32H   LINE      CODE     ---       #19
      00FF4B32H   LINE      CODE     ---       #23
      00FF4B41H   LINE      CODE     ---       #24
      00FF4B52H   LINE      CODE     ---       #25
      00FF4B64H   LINE      CODE     ---       #27
      00FF4B6FH   LINE      CODE     ---       #29
      00FF4B91H   LINE      CODE     ---       #31
      00FF4B91H   LINE      CODE     ---       #33
      00FF4B9AH   LINE      CODE     ---       #35
      00FF4BBCH   LINE      CODE     ---       #37
      00FF4BBCH   LINE      CODE     ---       #39
      00FF4BC5H   LINE      CODE     ---       #40
      ---         BLOCKEND  ---      ---       LVL=0

      ---         MODULE    ---      ---       timer
      00FF5A99H   PUBLIC    CODE     ---       Timer4_Init
      000000D0H   SFRSYM    DATA     BYTE      PSW
      0000009DH   SFRSYM    DATA     BYTE      IRCBAND
      00000097H   SFRSYM    DATA     BYTE      AUXR2
      000000EFH   SFRSYM    DATA     BYTE      AUXINTIF
      000000FDH   SFRSYM    DATA     BYTE      S4CON
      000000ACH   SFRSYM    DATA     BYTE      S3CON
      0000009AH   SFRSYM    DATA     BYTE      S2CON
      000000B7H   SFRSYM    DATA     BYTE      IPH
      000000CDH   SFRSYM    DATA     BYTE      SPSTAT
      000000DDH   SFRSYM    DATA     BYTE      T4T3M
L251 LINKER/LOCATER V4.66.93.0                                                        04/27/2023  18:30:04  PAGE 83


      000000C1H   SFRSYM    DATA     BYTE      WDT_CONTR
      000000DFH   SFRSYM    DATA     BYTE      IP3
      000000F4H   SFRSYM    DATA     BYTE      USBCON
      000000B5H   SFRSYM    DATA     BYTE      IP2
      000000FFH   SFRSYM    DATA     BYTE      RSTCFG
      000000F9H   SFRSYM    DATA     BYTE      LINICR
      0000008EH   SFRSYM    DATA     BYTE      AUXR
      000000AFH   SFRSYM    DATA     BYTE      IE2
      00000088H   SFRSYM    DATA     BYTE      TCON
      00000098H   SFRSYM    DATA     BYTE      SCON
      000000F1H   SFRSYM    DATA     BYTE      CANICR
      00000087H   SFRSYM    DATA     BYTE      PCON
      000000BCH   SFRSYM    DATA     BYTE      ADC_CONTR
      000000E7H   SFRSYM    DATA     BYTE      CMPCR2
      000000E6H   SFRSYM    DATA     BYTE      CMPCR1
      000000B8H   SFRSYM    DATA     BYTE      IP
      0000008FH   SFRSYM    DATA     BYTE      INTCLKO
      000000EEH   SFRSYM    DATA     BYTE      IP3H
      000000B6H   SFRSYM    DATA     BYTE      IP2H
      000000A8H   SFRSYM    DATA     BYTE      IE
      000000BBH   SFRSYM    DATA     BYTE      P_SW3
      000000BAH   SFRSYM    DATA     BYTE      P_SW2
      000000A2H   SFRSYM    DATA     BYTE      P_SW1
      000000CEH   SFRSYM    DATA     BYTE      SPCTL
      000000F8H   SFRSYM    DATA     BYTE      P7
      000000E8H   SFRSYM    DATA     BYTE      P6
      000000C8H   SFRSYM    DATA     BYTE      P5
      000000C0H   SFRSYM    DATA     BYTE      P4
      000000B0H   SFRSYM    DATA     BYTE      P3
      000000A0H   SFRSYM    DATA     BYTE      P2
      00000090H   SFRSYM    DATA     BYTE      P1
      00000080H   SFRSYM    DATA     BYTE      P0

      00FF5A99H   BLOCK     CODE     ---       LVL=0
      WR4         REGSYM    ---      WORD      time_ms
      00FF5A99H   LINE      CODE     ---       #9
      00FF5A9BH   LINE      CODE     ---       #11
      ---         BLOCKEND  ---      ---       LVL=0

      ---         MODULE    ---      ---       oled
      00FF49DBH   PUBLIC    CODE     ---       OLED_Init
      00FF4FC1H   PUBLIC    CODE     ---       OLED_WR_Byte
      00FF5740H   PUBLIC    CODE     ---       OLED_Set_Pos
      00FF55CFH   PUBLIC    CODE     ---       OLED_Clear
      00FF5AE8H   PUBLIC    HCONST   ---       F6x8
      00FF5D10H   PUBLIC    HCONST   ---       F8X16
      00000008H   PUBLIC    EDATA    ---       Hzk
      000003C8H   PUBLIC    EDATA    BYTE      show_mode
      000000D0H   SFRSYM    DATA     BYTE      PSW
      0000009DH   SFRSYM    DATA     BYTE      IRCBAND
      00000097H   SFRSYM    DATA     BYTE      AUXR2
      000000EFH   SFRSYM    DATA     BYTE      AUXINTIF
      000000FDH   SFRSYM    DATA     BYTE      S4CON
      000000B0H.7 SFRSYM    DATA     BIT       OLED_SCL
      000000ACH   SFRSYM    DATA     BYTE      S3CON
      0000009AH   SFRSYM    DATA     BYTE      S2CON
      000000B7H   SFRSYM    DATA     BYTE      IPH
      000000CDH   SFRSYM    DATA     BYTE      SPSTAT
      000000DDH   SFRSYM    DATA     BYTE      T4T3M
      000000C1H   SFRSYM    DATA     BYTE      WDT_CONTR
      000000DFH   SFRSYM    DATA     BYTE      IP3
      000000F4H   SFRSYM    DATA     BYTE      USBCON
      000000B5H   SFRSYM    DATA     BYTE      IP2
      000000FFH   SFRSYM    DATA     BYTE      RSTCFG
      000000F9H   SFRSYM    DATA     BYTE      LINICR
L251 LINKER/LOCATER V4.66.93.0                                                        04/27/2023  18:30:04  PAGE 84


      0000008EH   SFRSYM    DATA     BYTE      AUXR
      000000AFH   SFRSYM    DATA     BYTE      IE2
      00000088H   SFRSYM    DATA     BYTE      TCON
      000000B0H.6 SFRSYM    DATA     BIT       OLED_SDIN
      00000098H   SFRSYM    DATA     BYTE      SCON
      000000F1H   SFRSYM    DATA     BYTE      CANICR
      00000087H   SFRSYM    DATA     BYTE      PCON
      000000BCH   SFRSYM    DATA     BYTE      ADC_CONTR
      000000E7H   SFRSYM    DATA     BYTE      CMPCR2
      000000E6H   SFRSYM    DATA     BYTE      CMPCR1
      00000080H.2 SFRSYM    DATA     BIT       OLED_CS
      000000B8H   SFRSYM    DATA     BYTE      IP
      0000008FH   SFRSYM    DATA     BYTE      INTCLKO
      000000EEH   SFRSYM    DATA     BYTE      IP3H
      000000B6H   SFRSYM    DATA     BYTE      IP2H
      000000A8H   SFRSYM    DATA     BYTE      IE
      000000BBH   SFRSYM    DATA     BYTE      P_SW3
      000000BAH   SFRSYM    DATA     BYTE      P_SW2
      000000C8H.2 SFRSYM    DATA     BIT       OLED_DC
      000000A2H   SFRSYM    DATA     BYTE      P_SW1
      000000CEH   SFRSYM    DATA     BYTE      SPCTL
      000000F8H   SFRSYM    DATA     BYTE      P7
      000000E8H   SFRSYM    DATA     BYTE      P6
      000000C8H   SFRSYM    DATA     BYTE      P5
      000000C0H   SFRSYM    DATA     BYTE      P4
      000000B0H   SFRSYM    DATA     BYTE      P3
      000000A0H   SFRSYM    DATA     BYTE      P2
      00000090H   SFRSYM    DATA     BYTE      P1
      00000080H   SFRSYM    DATA     BYTE      P0
      000000C8H.1 SFRSYM    DATA     BIT       OLED_RST

      00FF4FC1H   BLOCK     CODE     ---       LVL=0
      R10         REGSYM    ---      BYTE      dat
      R7          REGSYM    ---      BYTE      cmd
      00FF4FC3H   BLOCK     CODE     NEAR LAB  LVL=1
      R6          REGSYM    ---      BYTE      i
      ---         BLOCKEND  ---      ---       LVL=1
      00FF4FC1H   LINE      CODE     ---       #83
      00FF4FC3H   LINE      CODE     ---       #84
      00FF4FC3H   LINE      CODE     ---       #86
      00FF4FC7H   LINE      CODE     ---       #88
      00FF4FC9H   LINE      CODE     ---       #89
      00FF4FCBH   LINE      CODE     ---       #90
      00FF4FCDH   LINE      CODE     ---       #92
      00FF4FCFH   LINE      CODE     ---       #93
      00FF4FD5H   LINE      CODE     ---       #95
      00FF4FDAH   LINE      CODE     ---       #97
      00FF4FDCH   LINE      CODE     ---       #98
      00FF4FDEH   LINE      CODE     ---       #100
      00FF4FE0H   LINE      CODE     ---       #101
      00FF4FE2H   LINE      CODE     ---       #104
      00FF4FE7H   LINE      CODE     ---       #106
      00FF4FE9H   LINE      CODE     ---       #107
      00FF4FEBH   LINE      CODE     ---       #109
      00FF4FEDH   LINE      CODE     ---       #110
      00FF4FEDH   LINE      CODE     ---       #112
      00FF4FEFH   LINE      CODE     ---       #113
      00FF4FF1H   LINE      CODE     ---       #114
      00FF4FF7H   LINE      CODE     ---       #115
      00FF4FF9H   LINE      CODE     ---       #119
      00FF4FFBH   LINE      CODE     ---       #120
      00FF4FFDH   LINE      CODE     ---       #122
      00FF4FFFH   LINE      CODE     ---       #124
      00FF5001H   LINE      CODE     ---       #125
      00FF5006H   LINE      CODE     ---       #127
L251 LINKER/LOCATER V4.66.93.0                                                        04/27/2023  18:30:04  PAGE 85


      00FF5008H   LINE      CODE     ---       #128
      00FF500AH   LINE      CODE     ---       #130
      00FF500CH   LINE      CODE     ---       #131
      00FF500EH   LINE      CODE     ---       #132
      00FF5010H   LINE      CODE     ---       #133
      00FF5016H   LINE      CODE     ---       #135
      00FF5016H   LINE      CODE     ---       #138
      00FF5018H   LINE      CODE     ---       #139
      00FF501AH   LINE      CODE     ---       #140
      ---         BLOCKEND  ---      ---       LVL=0

      00FF5740H   BLOCK     CODE     ---       LVL=0
      R15         REGSYM    ---      BYTE      x
      R10         REGSYM    ---      BYTE      y
      00FF5740H   LINE      CODE     ---       #142
      00FF5744H   LINE      CODE     ---       #144
      00FF574FH   LINE      CODE     ---       #145
      00FF575BH   LINE      CODE     ---       #146
      00FF5764H   LINE      CODE     ---       #147
      ---         BLOCKEND  ---      ---       LVL=0

      00FF55CFH   BLOCK     CODE     ---       LVL=0
      00FF55D1H   BLOCK     CODE     NEAR LAB  LVL=1
      R15         REGSYM    ---      BYTE      i
      R14         REGSYM    ---      BYTE      n
      ---         BLOCKEND  ---      ---       LVL=1
      00FF55CFH   LINE      CODE     ---       #163
      00FF55D1H   LINE      CODE     ---       #164
      00FF55D1H   LINE      CODE     ---       #166
      00FF55D3H   LINE      CODE     ---       #168
      00FF55DEH   LINE      CODE     ---       #169
      00FF55E2H   LINE      CODE     ---       #170
      00FF55E7H   LINE      CODE     ---       #171
      00FF55F7H   LINE      CODE     ---       #172
      00FF55FEH   LINE      CODE     ---       #173
      ---         BLOCKEND  ---      ---       LVL=0
      R14         REGSYM    ---      BYTE      x
      R15         REGSYM    ---      BYTE      y
      R6          REGSYM    ---      BYTE      chr
      R12         REGSYM    ---      BYTE      c
      R13         REGSYM    ---      BYTE      i
      R3          REGSYM    ---      BYTE      m
      R10         REGSYM    ---      BYTE      n
      WR6         REGSYM    ---      WORD      result
      WR14        REGSYM    ---      WORD      num
      R13         REGSYM    ---      BYTE      len
      R12         REGSYM    ---      BYTE      size2
      REG=3       REGSYM    ---      ---       chr
      R13         REGSYM    ---      BYTE      x
      R14         REGSYM    ---      BYTE      y
      R15         REGSYM    ---      BYTE      no
      R12         REGSYM    ---      BYTE      t
      R10         REGSYM    ---      BYTE      y0
      REG=3       REGSYM    ---      ---       BMP

      00FF49DBH   BLOCK     CODE     ---       LVL=0
      00FF49DBH   LINE      CODE     ---       #282
      00FF49DBH   LINE      CODE     ---       #287
      00FF49DDH   LINE      CODE     ---       #288
      00FF49E4H   LINE      CODE     ---       #289
      00FF49E6H   LINE      CODE     ---       #290
      00FF49EDH   LINE      CODE     ---       #291
      00FF49EFH   LINE      CODE     ---       #323
      00FF49F6H   LINE      CODE     ---       #324
      00FF49FAH   LINE      CODE     ---       #325
L251 LINKER/LOCATER V4.66.93.0                                                        04/27/2023  18:30:04  PAGE 86


      00FF49FFH   LINE      CODE     ---       #326
      00FF4A04H   LINE      CODE     ---       #327
      00FF4A09H   LINE      CODE     ---       #328
      00FF4A0EH   LINE      CODE     ---       #329
      00FF4A13H   LINE      CODE     ---       #330
      00FF4A18H   LINE      CODE     ---       #331
      00FF4A1DH   LINE      CODE     ---       #332
      00FF4A22H   LINE      CODE     ---       #333
      00FF4A27H   LINE      CODE     ---       #334
      00FF4A2CH   LINE      CODE     ---       #335
      00FF4A30H   LINE      CODE     ---       #336
      00FF4A35H   LINE      CODE     ---       #337
      00FF4A3AH   LINE      CODE     ---       #338
      00FF4A3FH   LINE      CODE     ---       #339
      00FF4A44H   LINE      CODE     ---       #340
      00FF4A49H   LINE      CODE     ---       #341
      00FF4A4EH   LINE      CODE     ---       #342
      00FF4A53H   LINE      CODE     ---       #343
      00FF4A58H   LINE      CODE     ---       #344
      00FF4A5DH   LINE      CODE     ---       #345
      00FF4A62H   LINE      CODE     ---       #346
      00FF4A67H   LINE      CODE     ---       #347
      00FF4A6CH   LINE      CODE     ---       #348
      00FF4A71H   LINE      CODE     ---       #349
      00FF4A76H   LINE      CODE     ---       #350
      00FF4A7BH   LINE      CODE     ---       #352
      00FF4A80H   LINE      CODE     ---       #353
      00FF4A83H   LINE      CODE     ---       #354
      ---         BLOCKEND  ---      ---       LVL=0

      ---         MODULE    ---      ---       brushless
      00FF578CH   PUBLIC    CODE     ---       Brushless_Init
      000000D0H   SFRSYM    DATA     BYTE      PSW
      0000009DH   SFRSYM    DATA     BYTE      IRCBAND
      00000097H   SFRSYM    DATA     BYTE      AUXR2
      000000EFH   SFRSYM    DATA     BYTE      AUXINTIF
      000000FDH   SFRSYM    DATA     BYTE      S4CON
      000000ACH   SFRSYM    DATA     BYTE      S3CON
      0000009AH   SFRSYM    DATA     BYTE      S2CON
      000000B7H   SFRSYM    DATA     BYTE      IPH
      000000CDH   SFRSYM    DATA     BYTE      SPSTAT
      000000DDH   SFRSYM    DATA     BYTE      T4T3M
      000000C1H   SFRSYM    DATA     BYTE      WDT_CONTR
      000000DFH   SFRSYM    DATA     BYTE      IP3
      000000F4H   SFRSYM    DATA     BYTE      USBCON
      000000B5H   SFRSYM    DATA     BYTE      IP2
      000000FFH   SFRSYM    DATA     BYTE      RSTCFG
      000000F9H   SFRSYM    DATA     BYTE      LINICR
      0000008EH   SFRSYM    DATA     BYTE      AUXR
      000000AFH   SFRSYM    DATA     BYTE      IE2
      00000088H   SFRSYM    DATA     BYTE      TCON
      00000098H   SFRSYM    DATA     BYTE      SCON
      000000F1H   SFRSYM    DATA     BYTE      CANICR
      00000087H   SFRSYM    DATA     BYTE      PCON
      000000BCH   SFRSYM    DATA     BYTE      ADC_CONTR
      000000E7H   SFRSYM    DATA     BYTE      CMPCR2
      000000E6H   SFRSYM    DATA     BYTE      CMPCR1
      000000B8H   SFRSYM    DATA     BYTE      IP
      0000008FH   SFRSYM    DATA     BYTE      INTCLKO
      000000EEH   SFRSYM    DATA     BYTE      IP3H
      000000B6H   SFRSYM    DATA     BYTE      IP2H
      000000A8H   SFRSYM    DATA     BYTE      IE
      000000BBH   SFRSYM    DATA     BYTE      P_SW3
      000000BAH   SFRSYM    DATA     BYTE      P_SW2
      000000A2H   SFRSYM    DATA     BYTE      P_SW1
L251 LINKER/LOCATER V4.66.93.0                                                        04/27/2023  18:30:04  PAGE 87


      000000CEH   SFRSYM    DATA     BYTE      SPCTL
      000000F8H   SFRSYM    DATA     BYTE      P7
      000000E8H   SFRSYM    DATA     BYTE      P6
      000000C8H   SFRSYM    DATA     BYTE      P5
      000000C0H   SFRSYM    DATA     BYTE      P4
      000000B0H   SFRSYM    DATA     BYTE      P3
      000000A0H   SFRSYM    DATA     BYTE      P2
      00000090H   SFRSYM    DATA     BYTE      P1
      00000080H   SFRSYM    DATA     BYTE      P0

      00FF578CH   BLOCK     CODE     ---       LVL=0
      00FF578CH   LINE      CODE     ---       #13
      00FF578CH   LINE      CODE     ---       #16
      00FF579DH   LINE      CODE     ---       #17
      ---         BLOCKEND  ---      ---       LVL=0
      WR14        REGSYM    ---      WORD      value

      ---         MODULE    ---      ---       pid
      00FF4EA9H   PUBLIC    CODE     ---       PID_struct_init
      00000597H   PUBLIC    EDATA    ---       pid_right_
      000005DFH   PUBLIC    EDATA    ---       pid_left_
      0000078BH   PUBLIC    EDATA    BYTE      ?PID_struct_init?BYTE
      000000D0H   SFRSYM    DATA     BYTE      PSW
      0000009DH   SFRSYM    DATA     BYTE      IRCBAND
      00000097H   SFRSYM    DATA     BYTE      AUXR2
      000000EFH   SFRSYM    DATA     BYTE      AUXINTIF
      000000FDH   SFRSYM    DATA     BYTE      S4CON
      000000ACH   SFRSYM    DATA     BYTE      S3CON
      0000009AH   SFRSYM    DATA     BYTE      S2CON
      000000B7H   SFRSYM    DATA     BYTE      IPH
      000000CDH   SFRSYM    DATA     BYTE      SPSTAT
      000000DDH   SFRSYM    DATA     BYTE      T4T3M
      000000C1H   SFRSYM    DATA     BYTE      WDT_CONTR
      000000DFH   SFRSYM    DATA     BYTE      IP3
      000000F4H   SFRSYM    DATA     BYTE      USBCON
      000000B5H   SFRSYM    DATA     BYTE      IP2
      000000FFH   SFRSYM    DATA     BYTE      RSTCFG
      000000F9H   SFRSYM    DATA     BYTE      LINICR
      0000008EH   SFRSYM    DATA     BYTE      AUXR
      000000AFH   SFRSYM    DATA     BYTE      IE2
      00000088H   SFRSYM    DATA     BYTE      TCON
      00000098H   SFRSYM    DATA     BYTE      SCON
      000000F1H   SFRSYM    DATA     BYTE      CANICR
      00000087H   SFRSYM    DATA     BYTE      PCON
      000000BCH   SFRSYM    DATA     BYTE      ADC_CONTR
      000000E7H   SFRSYM    DATA     BYTE      CMPCR2
      000000E6H   SFRSYM    DATA     BYTE      CMPCR1
      000000B8H   SFRSYM    DATA     BYTE      IP
      0000008FH   SFRSYM    DATA     BYTE      INTCLKO
      000000EEH   SFRSYM    DATA     BYTE      IP3H
      000000B6H   SFRSYM    DATA     BYTE      IP2H
      000000A8H   SFRSYM    DATA     BYTE      IE
      000000BBH   SFRSYM    DATA     BYTE      P_SW3
      000000BAH   SFRSYM    DATA     BYTE      P_SW2
      000000A2H   SFRSYM    DATA     BYTE      P_SW1
      000000CEH   SFRSYM    DATA     BYTE      SPCTL
      000000F8H   SFRSYM    DATA     BYTE      P7
      000000E8H   SFRSYM    DATA     BYTE      P6
      000000C8H   SFRSYM    DATA     BYTE      P5
      000000C0H   SFRSYM    DATA     BYTE      P4
      000000B0H   SFRSYM    DATA     BYTE      P3
      000000A0H   SFRSYM    DATA     BYTE      P2
      00000090H   SFRSYM    DATA     BYTE      P1
      00000080H   SFRSYM    DATA     BYTE      P0
      00FF5376H   SYMBOL    CODE     ---       pid_reset
L251 LINKER/LOCATER V4.66.93.0                                                        04/27/2023  18:30:04  PAGE 88


      00FF52E9H   SYMBOL    CODE     ---       pid_param_init
      REG=6       REGSYM    ---      ---       a
      DR28        REGSYM    ---      FLOAT     ABS_MAX

      00FF52E9H   BLOCK     CODE     ---       LVL=0
      REG=2       REGSYM    ---      ---       pid
      DR28        REGSYM    ---      DWORD     mode
      000007A7H   SYMBOL    EDATA    DWORD     maxout
      000007ABH   SYMBOL    EDATA    DWORD     intergral_limit
      000007AFH   SYMBOL    EDATA    FLOAT     kp
      000007B3H   SYMBOL    EDATA    FLOAT     ki
      000007B7H   SYMBOL    EDATA    FLOAT     kd
      00FF52E9H   LINE      CODE     ---       #25
      00FF52EDH   LINE      CODE     ---       #35
      00FF52F9H   LINE      CODE     ---       #36
      00FF5305H   LINE      CODE     ---       #37
      00FF530DH   LINE      CODE     ---       #39
      00FF5318H   LINE      CODE     ---       #40
      00FF5324H   LINE      CODE     ---       #41
      00FF5330H   LINE      CODE     ---       #42
      ---         BLOCKEND  ---      ---       LVL=0

      00FF5376H   BLOCK     CODE     ---       LVL=0
      REG=2       REGSYM    ---      ---       pid
      DR4         REGSYM    ---      FLOAT     kp
      000007A7H   SYMBOL    EDATA    FLOAT     ki
      000007ABH   SYMBOL    EDATA    FLOAT     kd
      00FF5376H   LINE      CODE     ---       #49
      00FF5378H   LINE      CODE     ---       #51
      00FF537FH   LINE      CODE     ---       #52
      00FF538BH   LINE      CODE     ---       #53
      00FF5397H   LINE      CODE     ---       #55
      00FF53A1H   LINE      CODE     ---       #56
      00FF53A9H   LINE      CODE     ---       #57
      00FF53B1H   LINE      CODE     ---       #58
      00FF53B9H   LINE      CODE     ---       #59
      ---         BLOCKEND  ---      ---       LVL=0
      REG=3       REGSYM    ---      ---       pid
      DR28        REGSYM    ---      FLOAT     get

      00FF4EA9H   BLOCK     CODE     ---       LVL=0
      REG=3       REGSYM    ---      ---       pid
      DR8         REGSYM    ---      DWORD     mode
      00000793H   SYMBOL    EDATA    DWORD     maxout
      00000797H   SYMBOL    EDATA    DWORD     intergral_limit
      0000079BH   SYMBOL    EDATA    FLOAT     kp
      0000079FH   SYMBOL    EDATA    FLOAT     ki
      000007A3H   SYMBOL    EDATA    FLOAT     kd
      00FF4EA9H   LINE      CODE     ---       #109
      00FF4EAFH   LINE      CODE     ---       #119
      00FF4EB7H   LINE      CODE     ---       #120
      00FF4EBFH   LINE      CODE     ---       #122
      00FF4EE9H   LINE      CODE     ---       #123
      00FF4F05H   LINE      CODE     ---       #124
      ---         BLOCKEND  ---      ---       LVL=0
      REG=3       REGSYM    ---      ---       pid
      DR28        REGSYM    ---      FLOAT     get
      REG=2       REGSYM    ---      ---       pid

      ---         MODULE    ---      ---       host
      000007BBH   PUBLIC    EDATA    ---       inf
      000000D0H   SFRSYM    DATA     BYTE      PSW
      0000009DH   SFRSYM    DATA     BYTE      IRCBAND
      00000097H   SFRSYM    DATA     BYTE      AUXR2
      000000EFH   SFRSYM    DATA     BYTE      AUXINTIF
L251 LINKER/LOCATER V4.66.93.0                                                        04/27/2023  18:30:04  PAGE 89


      000000FDH   SFRSYM    DATA     BYTE      S4CON
      000000ACH   SFRSYM    DATA     BYTE      S3CON
      0000009AH   SFRSYM    DATA     BYTE      S2CON
      000000B7H   SFRSYM    DATA     BYTE      IPH
      000000CDH   SFRSYM    DATA     BYTE      SPSTAT
      000000DDH   SFRSYM    DATA     BYTE      T4T3M
      000000C1H   SFRSYM    DATA     BYTE      WDT_CONTR
      000000DFH   SFRSYM    DATA     BYTE      IP3
      000000F4H   SFRSYM    DATA     BYTE      USBCON
      000000B5H   SFRSYM    DATA     BYTE      IP2
      000000FFH   SFRSYM    DATA     BYTE      RSTCFG
      000000F9H   SFRSYM    DATA     BYTE      LINICR
      0000008EH   SFRSYM    DATA     BYTE      AUXR
      000000AFH   SFRSYM    DATA     BYTE      IE2
      00000088H   SFRSYM    DATA     BYTE      TCON
      00000098H   SFRSYM    DATA     BYTE      SCON
      000000F1H   SFRSYM    DATA     BYTE      CANICR
      00000087H   SFRSYM    DATA     BYTE      PCON
      000000BCH   SFRSYM    DATA     BYTE      ADC_CONTR
      000000E7H   SFRSYM    DATA     BYTE      CMPCR2
      000000E6H   SFRSYM    DATA     BYTE      CMPCR1
      000000B8H   SFRSYM    DATA     BYTE      IP
      0000008FH   SFRSYM    DATA     BYTE      INTCLKO
      000000EEH   SFRSYM    DATA     BYTE      IP3H
      000000B6H   SFRSYM    DATA     BYTE      IP2H
      000000A8H   SFRSYM    DATA     BYTE      IE
      000000BBH   SFRSYM    DATA     BYTE      P_SW3
      000000BAH   SFRSYM    DATA     BYTE      P_SW2
      000000A2H   SFRSYM    DATA     BYTE      P_SW1
      000000CEH   SFRSYM    DATA     BYTE      SPCTL
      000000F8H   SFRSYM    DATA     BYTE      P7
      000000E8H   SFRSYM    DATA     BYTE      P6
      000000C8H   SFRSYM    DATA     BYTE      P5
      000000C0H   SFRSYM    DATA     BYTE      P4
      000000B0H   SFRSYM    DATA     BYTE      P3
      000000A0H   SFRSYM    DATA     BYTE      P2
      00000090H   SFRSYM    DATA     BYTE      P1
      00000080H   SFRSYM    DATA     BYTE      P0
      R11         REGSYM    ---      BYTE      frame
      WR8         REGSYM    ---      INT       num1
      WR4         REGSYM    ---      INT       num2
      WR2         REGSYM    ---      INT       num3
      WR0         REGSYM    ---      INT       num4
      R14         REGSYM    ---      BYTE      t
      R15         REGSYM    ---      BYTE      sum

      ---         MODULE    ---      ---       SEEKFREE_CONFIG
      00FF00A6H   PUBLIC    CODE     ---       imu660ra_config_file

      ---         MODULE    ---      ---       ?C?FPADD
      00FF2EB4H   PUBLIC    CODE     ---       ?C?FPADD
      00FF2EB1H   PUBLIC    CODE     ---       ?C?FPSUB

      ---         MODULE    ---      ---       ?C?FPMUL
      00FF2F6CH   PUBLIC    CODE     ---       ?C?FPMUL

      ---         MODULE    ---      ---       ?C?FPDIV
      00FF300CH   PUBLIC    CODE     ---       ?C?FPDIV

      ---         MODULE    ---      ---       ?C?FPCMP
      00FF308FH   PUBLIC    CODE     ---       ?C?FPCMP
      00FF308DH   PUBLIC    CODE     ---       ?C?FPCMP3

      ---         MODULE    ---      ---       ?C?FPNEG
      00FF30D3H   PUBLIC    CODE     ---       ?C?FPNEG
L251 LINKER/LOCATER V4.66.93.0                                                        04/27/2023  18:30:04  PAGE 90



      ---         MODULE    ---      ---       ?C?FCAST
      00FF30EBH   PUBLIC    CODE     NEAR LAB  ?C?FCASTC
      00FF30E6H   PUBLIC    CODE     NEAR LAB  ?C?FCASTI
      00FF30E1H   PUBLIC    CODE     NEAR LAB  ?C?FCASTL

      ---         MODULE    ---      ---       ?C?CASTF
      00FF311EH   PUBLIC    CODE     NEAR LAB  ?C?CASTF

      ---         MODULE    ---      ---       PRINTF
      000007BBH   PUBLIC    EDATA    ---       ?PRINTF?BYTE
      00FF315BH   PUBLIC    CODE     NEAR LAB  PRINTF

      ---         MODULE    ---      ---       FABS
      00FF3187H   PUBLIC    CODE     NEAR LAB  FABS?_

      ---         MODULE    ---      ---       SIN?_
      00FF31DEH   PUBLIC    CODE     ---       COS?_
      00FF31FBH   PUBLIC    CODE     ---       SIN?_
      00FF3228H   PUBLIC    CODE     ---       TAN?_

      ---         MODULE    ---      ---       ?C?FPGETOPN
      00FF32CEH   PUBLIC    CODE     ---       ?C?FPGETOPN2
      00FF330BH   PUBLIC    CODE     ---       ?C?FPNANRESULT
      00FF3313H   PUBLIC    CODE     ---       ?C?FPOVERFLOW
      00FF32E7H   PUBLIC    CODE     ---       ?C?FPRESULT
      00FF32FDH   PUBLIC    CODE     ---       ?C?FPRESULT2
      00FF3310H   PUBLIC    CODE     ---       ?C?FPUNDERFLOW

      ---         MODULE    ---      ---       ?C?PRNFMT
      00FF334CH   PUBLIC    CODE     ---       ?C?PRNFMT

      ---         MODULE    ---      ---       ?C?FPSERIES
      00FF375BH   PUBLIC    CODE     ---       ?C?FP2SERIES
      00FF3764H   PUBLIC    CODE     ---       ?C?FPSERIES

      ---         MODULE    ---      ---       ?C?FPCONVERT
      00FF3796H   PUBLIC    CODE     ---       ?C?FPCONVERT
      00FF384EH   PUBLIC    CODE     ---       ?C?FPROUND

      ---         MODULE    ---      ---       ?C?FTNPWR
      00FF38C1H   PUBLIC    CODE     ---       ?C?FTNPWR

      ---         MODULE    ---      ---       ?C_START
      00FF0000H   PUBLIC    CODE     ---       ?C?STARTUP
      00FF0000H   PUBLIC    CODE     ---       ?C_STARTUP

      ---         MODULE    ---      ---       ?C?INITEDATA
      00FF540FH   PUBLIC    CODE     ---       ?C?INITEDATA

      ---         MODULE    ---      ---       ?C?SIDIV
      00FF38F8H   PUBLIC    CODE     ---       ?C?SIDIV

      ---         MODULE    ---      ---       ?C?LMUL
      00FF392AH   PUBLIC    CODE     ---       ?C?LMUL

      ---         MODULE    ---      ---       ?C?LIMUL
      00FF393BH   PUBLIC    CODE     ---       ?C?LIMUL

      ---         MODULE    ---      ---       ?C?ULDIV
      00FF3946H   PUBLIC    CODE     NEAR LAB  ?C?ULDIV
      00FF3944H   PUBLIC    CODE     NEAR LAB  ?C?ULIDIV

      ---         MODULE    ---      ---       ?C?SLDIV
      00FF3997H   PUBLIC    CODE     NEAR LAB  ?C?SLDIV
L251 LINKER/LOCATER V4.66.93.0                                                        04/27/2023  18:30:04  PAGE 91



      ---         MODULE    ---      ---       memcpy
      00FF5767H   PUBLIC    CODE     ---       memcpy?_

      ---         MODULE    ---      ---       memset

      ---         MODULE    ---      ---       ?C?INITEDATA_END
      00FF67E7H   PUBLIC    HCONST   WORD      ?C?INITEDATA_END

Program Size: data=8.0 edata+hdata=2379 xdata=0 const=3701 code=23231
L251 RUN COMPLETE.  0 WARNING(S),  0 ERROR(S)
