L251 LINKER/LOCATER V4.66.93.0                                                          05/03/2023  20:46:59  PAGE 1


L251 LINKER/LOCATER V4.66.93.0, INVOKED BY:
D:\KEIL_V5\C251\BIN\L251.EXE .\Out_File\board.obj, .\Out_File\common.obj, .\Out_File\zf_adc.obj, .\Out_File\zf_delay.obj
>> , .\Out_File\zf_eeprom.obj, .\Out_File\zf_exti.obj, .\Out_File\zf_gpio.obj, .\Out_File\zf_iic.obj, .\Out_File\zf_nvic
>> .obj, .\Out_File\zf_pwm.obj, .\Out_File\zf_spi.obj, .\Out_File\zf_tim.obj, .\Out_File\zf_uart.obj, .\Out_File\zf_fifo
>> .obj, .\Out_File\SEEKFREE_ABSOLUTE_ENCODER.obj, .\Out_File\SEEKFREE_AT24C02.obj, .\Out_File\SEEKFREE_BLUETOOTH_CH9141
>> .obj, ..\..\Libraries\seekfree_peripheral\SEEKFREE_CONFIG.LIB, .\Out_File\SEEKFREE_DL1A.obj, .\Out_File\SEEKFREE_FONT
>> .obj, .\Out_File\SEEKFREE_ICM20602.obj, .\Out_File\SEEKFREE_IMU660RA.obj, .\Out_File\SEEKFREE_IMU963RA.obj, .\Out_Fil
>> e\SEEKFREE_IPS114_SPI.obj, .\Out_File\SEEKFREE_MPU6050.obj, .\Out_File\SEEKFREE_PRINTF.obj, .\Out_File\SEEKFREE_TSL14
>> 01.obj, .\Out_File\SEEKFREE_VIRSCO.obj, .\Out_File\SEEKFREE_WIRELESS.obj, .\Out_File\SEEKFREE_WIRELESS_CH573.obj, .\O
>> ut_File\isr.obj, .\Out_File\main.obj, .\Out_File\adc.obj, .\Out_File\control.obj, .\Out_File\key.obj, .\Out_File\moto
>> r.obj, .\Out_File\steer.obj, .\Out_File\timer.obj, .\Out_File\oled.obj, .\Out_File\brushless.obj, .\Out_File\pid.obj,
>>  .\Out_File\host.obj TO .\Out_File\SEEKFREE PRINT (.\Out_File\SEEKFREE.map) CASE DISABLEWARNING (16, 57) REMOVEUNUSED
>>  CLASSES (EDATA (0X0-0XFFF), HDATA (0X0-0XFFF))


CPU MODE:     251 SOURCE MODE
INTR FRAME:   2 BYTES SAVED ON INTERRUPT
MEMORY MODEL: XSMALL WITH FLOATING POINT ARITHMETIC


INPUT MODULES INCLUDED:
  .\Out_File\board.obj (board)
         COMMENT TYPE 0: C251 V5.60.0
  .\Out_File\common.obj (common)
         COMMENT TYPE 0: C251 V5.60.0
  .\Out_File\zf_adc.obj (zf_adc)
         COMMENT TYPE 0: C251 V5.60.0
  .\Out_File\zf_delay.obj (zf_delay)
         COMMENT TYPE 0: C251 V5.60.0
  .\Out_File\zf_eeprom.obj (zf_eeprom)
         COMMENT TYPE 0: C251 V5.60.0
  .\Out_File\zf_exti.obj (zf_exti)
         COMMENT TYPE 0: C251 V5.60.0
  .\Out_File\zf_gpio.obj (zf_gpio)
         COMMENT TYPE 0: C251 V5.60.0
  .\Out_File\zf_iic.obj (zf_iic)
         COMMENT TYPE 0: C251 V5.60.0
  .\Out_File\zf_nvic.obj (zf_nvic)
         COMMENT TYPE 0: C251 V5.60.0
  .\Out_File\zf_pwm.obj (zf_pwm)
         COMMENT TYPE 0: C251 V5.60.0
  .\Out_File\zf_spi.obj (zf_spi)
         COMMENT TYPE 0: C251 V5.60.0
  .\Out_File\zf_tim.obj (zf_tim)
         COMMENT TYPE 0: C251 V5.60.0
  .\Out_File\zf_uart.obj (zf_uart)
         COMMENT TYPE 0: C251 V5.60.0
  .\Out_File\zf_fifo.obj (zf_fifo)
         COMMENT TYPE 0: C251 V5.60.0
  .\Out_File\SEEKFREE_ABSOLUTE_ENCODER.obj (SEEKFREE_ABSOLUTE_ENCODER)
         COMMENT TYPE 0: C251 V5.60.0
  .\Out_File\SEEKFREE_AT24C02.obj (SEEKFREE_AT24C02)
         COMMENT TYPE 0: C251 V5.60.0
  .\Out_File\SEEKFREE_BLUETOOTH_CH9141.obj (SEEKFREE_BLUETOOTH_CH9141)
         COMMENT TYPE 0: C251 V5.60.0
  .\Out_File\SEEKFREE_DL1A.obj (SEEKFREE_DL1A)
         COMMENT TYPE 0: C251 V5.60.0
  .\Out_File\SEEKFREE_FONT.obj (SEEKFREE_FONT)
         COMMENT TYPE 0: C251 V5.60.0
  .\Out_File\SEEKFREE_ICM20602.obj (SEEKFREE_ICM20602)
         COMMENT TYPE 0: C251 V5.60.0
  .\Out_File\SEEKFREE_IMU660RA.obj (SEEKFREE_IMU660RA)
         COMMENT TYPE 0: C251 V5.60.0
  .\Out_File\SEEKFREE_IMU963RA.obj (SEEKFREE_IMU963RA)
         COMMENT TYPE 0: C251 V5.60.0
  .\Out_File\SEEKFREE_IPS114_SPI.obj (SEEKFREE_IPS114_SPI)
L251 LINKER/LOCATER V4.66.93.0                                                        05/03/2023  20:46:59  PAGE 2


         COMMENT TYPE 0: C251 V5.60.0
  .\Out_File\SEEKFREE_MPU6050.obj (SEEKFREE_MPU6050)
         COMMENT TYPE 0: C251 V5.60.0
  .\Out_File\SEEKFREE_PRINTF.obj (SEEKFREE_PRINTF)
         COMMENT TYPE 0: C251 V5.60.0
  .\Out_File\SEEKFREE_TSL1401.obj (SEEKFREE_TSL1401)
         COMMENT TYPE 0: C251 V5.60.0
  .\Out_File\SEEKFREE_VIRSCO.obj (SEEKFREE_VIRSCO)
         COMMENT TYPE 0: C251 V5.60.0
  .\Out_File\SEEKFREE_WIRELESS.obj (SEEKFREE_WIRELESS)
         COMMENT TYPE 0: C251 V5.60.0
  .\Out_File\SEEKFREE_WIRELESS_CH573.obj (SEEKFREE_WIRELESS_CH573)
         COMMENT TYPE 0: C251 V5.60.0
  .\Out_File\isr.obj (isr)
         COMMENT TYPE 0: C251 V5.60.0
  .\Out_File\main.obj (main)
         COMMENT TYPE 0: C251 V5.60.0
  .\Out_File\adc.obj (adc)
         COMMENT TYPE 0: C251 V5.60.0
  .\Out_File\control.obj (control)
         COMMENT TYPE 0: C251 V5.60.0
  .\Out_File\key.obj (key)
         COMMENT TYPE 0: C251 V5.60.0
  .\Out_File\motor.obj (motor)
         COMMENT TYPE 0: C251 V5.60.0
  .\Out_File\steer.obj (steer)
         COMMENT TYPE 0: C251 V5.60.0
  .\Out_File\timer.obj (timer)
         COMMENT TYPE 0: C251 V5.60.0
  .\Out_File\oled.obj (oled)
         COMMENT TYPE 0: C251 V5.60.0
  .\Out_File\brushless.obj (brushless)
         COMMENT TYPE 0: C251 V5.60.0
  .\Out_File\pid.obj (pid)
         COMMENT TYPE 0: C251 V5.60.0
  .\Out_File\host.obj (host)
         COMMENT TYPE 0: C251 V5.60.0
  ..\..\Libraries\seekfree_peripheral\SEEKFREE_CONFIG.LIB (SEEKFREE_CONFIG)
         COMMENT TYPE 0: C251 V5.60.0
  D:\KEIL_V5\C251\LIB\C2SFPXS.LIB (?C?FPADD)
         COMMENT TYPE 0: A251 V4.69.6.0
  D:\KEIL_V5\C251\LIB\C2SFPXS.LIB (?C?FPMUL)
         COMMENT TYPE 0: A251 V4.69.6.0
  D:\KEIL_V5\C251\LIB\C2SFPXS.LIB (?C?FPDIV)
         COMMENT TYPE 0: A251 V4.69.6.0
  D:\KEIL_V5\C251\LIB\C2SFPXS.LIB (?C?FPCMP)
         COMMENT TYPE 0: A251 V4.69.6.0
  D:\KEIL_V5\C251\LIB\C2SFPXS.LIB (?C?FPNEG)
         COMMENT TYPE 0: A251 V4.69.6.0
  D:\KEIL_V5\C251\LIB\C2SFPXS.LIB (?C?FCAST)
         COMMENT TYPE 0: A251 V4.69.6.0
  D:\KEIL_V5\C251\LIB\C2SFPXS.LIB (?C?CASTF)
         COMMENT TYPE 0: A251 V4.69.6.0
  D:\KEIL_V5\C251\LIB\C2SFPXS.LIB (PRINTF)
         COMMENT TYPE 0: A251 V4.69.6.0
  D:\KEIL_V5\C251\LIB\C2SFPXS.LIB (FABS)
         COMMENT TYPE 0: A251 V4.69.6.0
  D:\KEIL_V5\C251\LIB\C2SFPXS.LIB (SIN?_)
         COMMENT TYPE 0: A251 V4.69.6.0
  D:\KEIL_V5\C251\LIB\C2SFPXS.LIB (?C?FPGETOPN)
         COMMENT TYPE 0: A251 V4.69.6.0
  D:\KEIL_V5\C251\LIB\C2SFPXS.LIB (?C?PRNFMT)
         COMMENT TYPE 0: A251 V4.69.6.0
  D:\KEIL_V5\C251\LIB\C2SFPXS.LIB (?C?FPSERIES)
         COMMENT TYPE 0: A251 V4.69.6.0
L251 LINKER/LOCATER V4.66.93.0                                                        05/03/2023  20:46:59  PAGE 3


  D:\KEIL_V5\C251\LIB\C2SFPXS.LIB (?C?FPCONVERT)
         COMMENT TYPE 0: A251 V4.69.6.0
  D:\KEIL_V5\C251\LIB\C2SFPXS.LIB (?C?FTNPWR)
         COMMENT TYPE 0: A251 V4.69.6.0
  D:\KEIL_V5\C251\LIB\C2SXS.LIB (?C_START)
         COMMENT TYPE 0: A251 V4.69.6.0
  D:\KEIL_V5\C251\LIB\C2SXS.LIB (?C?INITEDATA)
         COMMENT TYPE 0: A251 V4.69.6.0
  D:\KEIL_V5\C251\LIB\C2SXS.LIB (?C?SIDIV)
         COMMENT TYPE 0: A251 V4.69.6.0
  D:\KEIL_V5\C251\LIB\C2SXS.LIB (?C?LMUL)
         COMMENT TYPE 0: A251 V4.69.6.0
  D:\KEIL_V5\C251\LIB\C2SXS.LIB (?C?LIMUL)
         COMMENT TYPE 0: A251 V4.69.6.0
  D:\KEIL_V5\C251\LIB\C2SXS.LIB (?C?ULDIV)
         COMMENT TYPE 0: A251 V4.69.6.0
  D:\KEIL_V5\C251\LIB\C2SXS.LIB (?C?SLDIV)
         COMMENT TYPE 0: A251 V4.69.6.0
  D:\KEIL_V5\C251\LIB\C2SXS.LIB (memcpy)
         COMMENT TYPE 0: C251 V5.58.7
  D:\KEIL_V5\C251\LIB\C2SXS.LIB (memset)
         COMMENT TYPE 0: C251 V5.58.7
  D:\KEIL_V5\C251\LIB\C2SXS.LIB (?C?INITEDATA_END)
         COMMENT TYPE 0: A251 V4.69.6.0


ACTIVE MEMORY CLASSES OF MODULE:  .\Out_File\SEEKFREE (board)

BASE        START       END         USED      MEMORY CLASS
==========================================================
000000H     000000H     000FFFH     000949H   EDATA
000000H     000000H     000FFFH               HDATA
FF0000H     FF0000H     FFFFFFH     005E03H   CODE
000000H     FF0000H     FFFFFFH     000E28H   HCONST
FF0000H     FF0000H     FFFFFFH     000004H   CONST
000000H     000000H     00007FH     000008H   DATA


MEMORY MAP OF MODULE:  .\Out_File\SEEKFREE (board)


START     STOP      LENGTH    ALIGN  RELOC    MEMORY CLASS   SEGMENT NAME
=========================================================================
000000H   000007H   000008H   ---    AT..     DATA           "REG BANK 0"
000008H   0003C8H   0003C1H   BYTE   UNIT     EDATA          ?ED?OLED
0003C9H   0004C9H   000101H   BYTE   UNIT     EDATA          ?ED?SEEKFREE_TSL1401
0004CAH   000596H   0000CDH   BYTE   UNIT     EDATA          ?ED?ZF_UART
000597H   000626H   000090H   BYTE   UNIT     EDATA          ?ED?PID
000627H   00068FH   000069H   BYTE   UNIT     EDATA          ?ED?CONTROL
000690H   0006E4H   000055H   BYTE   UNIT     EDATA          ?ED?SEEKFREE_BLUETOOTH_CH9141
0006E5H   000739H   000055H   BYTE   UNIT     EDATA          ?ED?SEEKFREE_WIRELESS
00073AH   00078EH   000055H   BYTE   UNIT     EDATA          ?ED?SEEKFREE_WIRELESS_CH573
00078FH   0007C8H   00003AH   BYTE   UNIT     EDATA          _EDATA_GROUP_
0007C9H   0007DAH   000012H   BYTE   UNIT     EDATA          ?ED?SEEKFREE_IMU963RA
0007DBH   0007EAH   000010H   BYTE   UNIT     EDATA          ?ED?ADC
0007EBH   0007F6H   00000CH   BYTE   UNIT     EDATA          ?ED?SEEKFREE_ICM20602
0007F7H   000802H   00000CH   BYTE   UNIT     EDATA          ?ED?SEEKFREE_IMU660RA
000803H   00080EH   00000CH   BYTE   UNIT     EDATA          ?ED?SEEKFREE_MPU6050
00080FH   000818H   00000AH   BYTE   UNIT     EDATA          ?ED?SEEKFREE_VIRSCO
000819H   00081EH   000006H   BYTE   UNIT     EDATA          ?ED?DL1A_SIMIIC_READ_REGS?SEEKFREE_DL1A
00081FH   000824H   000006H   BYTE   UNIT     EDATA          ?ED?DL1A_GET_SEQUENCE_STEP_TIMEOUTS?SEEKFREE_DL1A
000825H   000829H   000005H   BYTE   UNIT     EDATA          ?ED?DL1A_SIMIIC_WRITE_DATS?SEEKFREE_DL1A
00082AH   00082DH   000004H   BYTE   UNIT     EDATA          ?ED?BOARD
00082EH   000831H   000004H   BYTE   UNIT     EDATA          ?ED?ZF_DELAY
000832H   000835H   000004H   BYTE   UNIT     EDATA          ?ED?ICM20602_SIMSPI_R_REG_BYTES?SEEKFREE_ICM20602
L251 LINKER/LOCATER V4.66.93.0                                                        05/03/2023  20:46:59  PAGE 4


000836H   000839H   000004H   BYTE   UNIT     EDATA          ?ED?IMU660RA_SIMSPI_R_REG_BYTES?SEEKFREE_IMU660RA
00083AH   00083DH   000004H   BYTE   UNIT     EDATA          ?ED?MOTOR
00083EH   000841H   000004H   BYTE   UNIT     EDATA          ?ED?STEER
000842H   000844H   000003H   BYTE   UNIT     EDATA          ?ED?SEEKFREE_DL1A
000845H   000846H   000002H   BYTE   UNIT     EDATA          ?ED?COMMON
000847H   000848H   000002H   BYTE   UNIT     EDATA          ?ED?IMU660RA_READ_REGISTER?SEEKFREE_IMU660RA
000849H   00084AH   000002H   BYTE   UNIT     EDATA          ?ED?IPS114_WRITEDATA_16BIT?SEEKFREE_IPS114_SPI
00084BH   00084BH   000001H   BYTE   UNIT     EDATA          ?ED?DL1A_GET_SEQUENCE_STEP_ENABLES?SEEKFREE_DL1A
00084CH   00084CH   000001H   BYTE   UNIT     EDATA          ?ED?DL1A_GET_VCSEL_PULSE_PERIOD?SEEKFREE_DL1A
00084DH   00084DH   000001H   BYTE   UNIT     EDATA          ?ED?ICM20602_READ_REGISTER?SEEKFREE_ICM20602
00084EH   00084EH   000001H   BYTE   UNIT     EDATA          ?ED?IMU963RA_READ_ACC_GYRO_REGISTER?SEEKFREE_IMU963RA
00084FH   00084FH   000001H   BYTE   UNIT     EDATA          ?ED?ISR
000850H   000850H   000001H   BYTE   UNIT     EDATA          ?ED?KEY
000851H   000950H   000100H   BYTE   UNIT     EDATA          ?STACK
000951H   FEFFFFH   FEF6AFH   ---    ---      **GAP**
FF0000H   FF0002H   000003H   ---    OFFS..   CODE           ?CO?start251?4
FF0003H   FF0005H   000003H   ---    OFFS..   CODE           ?PR?IV?0
FF0006H   FF000AH   000005H   BYTE   INSEG    CODE           ?PR?ENCODER_DELAY_US?SEEKFREE_ABSOLUTE_ENCODER
FF000BH   FF000DH   000003H   ---    OFFS..   CODE           ?PR?IV?1
FF000EH   FF0010H   000003H   BYTE   INSEG    CODE           ?PR?ENABLEGLOBALIRQ?BOARD
FF0011H   FF0011H   000001H   BYTE   INSEG    CODE           ?PR?INT1_ISR?ISR
FF0012H   FF0012H   000001H   BYTE   INSEG    CODE           ?PR?TM0_ISR?ISR
FF0013H   FF0015H   000003H   ---    OFFS..   CODE           ?PR?IV?2
FF0016H   FF0016H   000001H   BYTE   INSEG    CODE           ?PR?TM1_ISR?ISR
FF0017H   FF001AH   000004H   BYTE   UNIT     CONST          ?CO?PRINTF
FF001BH   FF001DH   000003H   ---    OFFS..   CODE           ?PR?IV?3
FF001EH   FF0022H   000005H   ---    ---      **GAP**
FF0023H   FF0025H   000003H   ---    OFFS..   CODE           ?PR?IV?4
FF0026H   FF0041H   00001CH   BYTE   INSEG    CODE           ?PR?DL1A_SCCB_WAITACK?SEEKFREE_DL1A
FF0042H   FF0042H   000001H   ---    ---      **GAP**
FF0043H   FF0045H   000003H   ---    OFFS..   CODE           ?PR?IV?8
FF0046H   FF0052H   00000DH   BYTE   INSEG    CODE           ?PR?AT24C02_SIMIIC_DELAY?SEEKFREE_AT24C02
FF0053H   FF0055H   000003H   ---    OFFS..   CODE           ?PR?IV?10
FF0056H   FF005AH   000005H   ---    ---      **GAP**
FF005BH   FF005DH   000003H   ---    OFFS..   CODE           ?PR?IV?11
FF005EH   FF0062H   000005H   ---    ---      **GAP**
FF0063H   FF0065H   000003H   ---    OFFS..   CODE           ?PR?IV?12
FF0066H   FF0081H   00001CH   BYTE   INSEG    CODE           ?PR?IMU963RA_SIMSPI_R_REG_BYTE?SEEKFREE_IMU963RA
FF0082H   FF0082H   000001H   ---    ---      **GAP**
FF0083H   FF0085H   000003H   ---    OFFS..   CODE           ?PR?IV?16
FF0086H   FF008AH   000005H   ---    ---      **GAP**
FF008BH   FF008DH   000003H   ---    OFFS..   CODE           ?PR?IV?17
FF008EH   FF0092H   000005H   ---    ---      **GAP**
FF0093H   FF0095H   000003H   ---    OFFS..   CODE           ?PR?IV?18
FF0096H   FF009AH   000005H   ---    ---      **GAP**
FF009BH   FF009DH   000003H   ---    OFFS..   CODE           ?PR?IV?19
FF009EH   FF00A2H   000005H   ---    ---      **GAP**
FF00A3H   FF00A5H   000003H   ---    OFFS..   CODE           ?PR?IV?20
FF00A6H   FF20A5H   002000H   BYTE   UNIT     CODE           ?CO?SEEKFREE_CONFIG
FF20A6H   FF2EADH   000E08H   BYTE   UNIT     CODE           ?CO?SEEKFREE_FONT
FF2EAEH   FF39CAH   000B1DH   BYTE   UNIT     CODE           ?C?LIB_CODE
FF39CBH   FF3DC1H   0003F7H   BYTE   INSEG    CODE           ?PR?GPIO_MODE?ZF_GPIO
FF3DC2H   FF40BDH   0002FCH   BYTE   INSEG    CODE           ?PR?PWM_INIT?ZF_PWM
FF40BEH   FF435EH   0002A1H   BYTE   INSEG    CODE           ?PR?PWM_SET_GPIO?ZF_PWM
FF435FH   FF451DH   0001BFH   BYTE   INSEG    CODE           ?PR?UART_INIT?ZF_UART
FF451EH   FF4690H   000173H   BYTE   INSEG    CODE           ?PR?TM4_ISR?ISR
FF4691H   FF47B2H   000122H   BYTE   INSEG    CODE           ?PR?SET_CLK?BOARD
FF47B3H   FF4892H   0000E0H   BYTE   INSEG    CODE           ?PR?FIFO_WRITE_BUFFER?ZF_FIFO
FF4893H   FF496DH   0000DBH   BYTE   INSEG    CODE           ?PR?DL1A_GET_SEQUENCE_STEP_TIMEOUTS?SEEKFREE_DL1A
FF496EH   FF4A35H   0000C8H   BYTE   INSEG    CODE           ?PR?PWM_DUTY?ZF_PWM
FF4A36H   FF4AF0H   0000BBH   BYTE   INSEG    CODE           ?PR?DIRECT_JUDGE?CONTROL
FF4AF1H   FF4B9EH   0000AEH   BYTE   INSEG    CODE           ?PR?OLED_INIT?OLED
FF4B9FH   FF4C47H   0000A9H   BYTE   INSEG    CODE           ?PR?MAIN?MAIN
FF4C48H   FF4CECH   0000A5H   BYTE   INSEG    CODE           ?PR?MOTOR_CONTROL?MOTOR
FF4CEDH   FF4D86H   00009AH   BYTE   INSEG    CODE           ?PR?STEER_SPIN?STEER
L251 LINKER/LOCATER V4.66.93.0                                                        05/03/2023  20:46:59  PAGE 5


FF4D87H   FF4E1AH   000094H   BYTE   INSEG    CODE           ?PR?BOARD_INIT?BOARD
FF4E1BH   FF4EAEH   000094H   BYTE   INSEG    CODE           ?PR?PIT_TIMER_MS?ZF_TIM
FF4EAFH   FF4F40H   000092H   BYTE   INSEG    CODE           ?PR?LOST_LINE_JUDGE?CONTROL
FF4F41H   FF4FC5H   000085H   BYTE   INSEG    CODE           ?PR?SEND_FOUR_DATA?HOST
FF4FC6H   FF503EH   000079H   BYTE   INSEG    CODE           ?PR?READ_ADC_VALUE?ADC
FF503FH   FF50AEH   000070H   BYTE   INSEG    CODE           ?PR?ADC_ERROR_PROCESSING?CONTROL
FF50AFH   FF5117H   000069H   BYTE   INSEG    CODE           ?PR?UART4_ISR?ISR
FF5118H   FF517EH   000067H   BYTE   INSEG    CODE           ?PR?CORRECT_ANGLE?CONTROL
FF517FH   FF51DDH   00005FH   BYTE   INSEG    CODE           ?PR?PID_STRUCT_INIT?PID
FF51DEH   FF523BH   00005EH   BYTE   INSEG    CODE           ?PR?ADC_INIT?ZF_ADC
FF523CH   FF5298H   00005DH   BYTE   INSEG    CODE           ?PR?LOSTLINE_DEAL?CONTROL
FF5299H   FF52F3H   00005BH   BYTE   INSEG    CODE           ?PR?ADC_ERROR_WINDOW_FILTERING?CONTROL
FF52F4H   FF534DH   00005AH   BYTE   INSEG    CODE           ?PR?OLED_WR_BYTE?OLED
FF534EH   FF53A5H   000058H   BYTE   INSEG    CODE           ?PR?DL1A_GET_SEQUENCE_STEP_ENABLES?SEEKFREE_DL1A
FF53A6H   FF53F9H   000054H   BYTE   INSEG    CODE           ?PR?UART_PUTCHAR?ZF_UART
FF53FAH   FF544DH   000054H   BYTE   INSEG    CODE           ?PR?DL1A_SIMIIC_READ_REGS?SEEKFREE_DL1A
FF544EH   FF549FH   000052H   BYTE   INSEG    CODE           ?PR?IMU963RA_READ_MAG_REGISTER?SEEKFREE_IMU963RA
FF54A0H   FF54EFH   000050H   BYTE   INSEG    CODE           ?PR?MOTOR_INIT?MOTOR
FF54F0H   FF553CH   00004DH   BYTE   INSEG    CODE           ?PR?DL1A_GET_VCSEL_PULSE_PERIOD?SEEKFREE_DL1A
FF553DH   FF5589H   00004DH   BYTE   INSEG    CODE           ?PR?ADC_MEAN_FILTER?ADC
FF558AH   FF55D3H   00004AH   BYTE   INSEG    CODE           ?PR?CTIMER_COUNT_INIT?ZF_TIM
FF55D4H   FF561BH   000048H   BYTE   INSEG    CODE           ?PR?MY_ADC_INIT?ADC
FF561CH   FF5663H   000048H   BYTE   INSEG    CODE           ?PR?PID_PARAM_INIT?PID
FF5664H   FF56A8H   000045H   BYTE   INSEG    CODE           ?PR?WAIT?ZF_IIC
FF56A9H   FF56ECH   000044H   BYTE   INSEG    CODE           ?PR?PID_RESET?PID
FF56EDH   FF572EH   000042H   BYTE   INSEG    CODE           ?PR?FIFO_HEAD_OFFSET?ZF_FIFO
FF572FH   FF5741H   000013H   BYTE   UNIT     CODE           ?C_C51STARTUP
FF5742H   FF576AH   000029H   BYTE   UNIT     CODE           ?C_C51STARTUP?2
FF576BH   FF576DH   000003H   BYTE   UNIT     CODE           ?C_C51STARTUP?3
FF576EH   FF57ABH   00003EH   BYTE   INSEG    CODE           ?PR?DL1A_TIMEOUT_MCLKS_TO_MICROSECONDS?SEEKFREE_DL1A
FF57ACH   FF57E8H   00003DH   BYTE   INSEG    CODE           ?PR?UART1_ISR?ISR
FF57E9H   FF5824H   00003CH   BYTE   INSEG    CODE           ?PR?DL1A_TIMEOUT_MICROSECONDS_TO_MCLKS?SEEKFREE_DL1A
FF5825H   FF585FH   00003BH   BYTE   INSEG    CODE           ?PR?DL1A_READ_CH?SEEKFREE_DL1A
FF5860H   FF5898H   000039H   BYTE   INSEG    CODE           ?PR?DELAY_INIT?ZF_DELAY
FF5899H   FF58CDH   000035H   BYTE   INSEG    CODE           ?PR?DL1A_SIMIIC_WRITE_DATS?SEEKFREE_DL1A
FF58CEH   FF5901H   000034H   BYTE   INSEG    CODE           ?PR?DL1A_ENCODE_TIMEOUT?SEEKFREE_DL1A
FF5902H   FF5933H   000032H   BYTE   INSEG    CODE           ?PR?OLED_CLEAR?OLED
FF5934H   FF5963H   000030H   BYTE   INSEG    CODE           ?PR?ICM20602_SIMSPI_R_REG_BYTES?SEEKFREE_ICM20602
FF5964H   FF5993H   000030H   BYTE   INSEG    CODE           ?PR?IMU660RA_SIMSPI_R_REG_BYTES?SEEKFREE_IMU660RA
FF5994H   FF59C1H   00002EH   BYTE   INSEG    CODE           ?PR?ADC_ONCE?ZF_ADC
FF59C2H   FF59EFH   00002EH   BYTE   INSEG    CODE           ?PR?DL1A_SEND_CH?SEEKFREE_DL1A
FF59F0H   FF5A1DH   00002EH   BYTE   INSEG    CODE           ?PR?ADC_ERROR_WEIGHT_FILTERING?CONTROL
FF5A1EH   FF5A49H   00002CH   BYTE   INSEG    CODE           ?PR?IPS114_WRITEDATAI_16BIT_SIMSPI?SEEKFREE_IPS114_SPI
FF5A4AH   FF5A72H   000029H   BYTE   INSEG    CODE           ?PR?IPS114_WRITEINDEX_SIMSPI?SEEKFREE_IPS114_SPI
FF5A73H   FF5A99H   000027H   BYTE   INSEG    CODE           ?PR?OLED_SET_POS?OLED
FF5A9AH   FF5ABEH   000025H   BYTE   INSEG    CODE           ?PR?MEMCPY?_?MEMCPY
FF5ABFH   FF5AE2H   000024H   BYTE   INSEG    CODE           ?PR?BRUSHLESS_INIT?BRUSHLESS
FF5AE3H   FF5B05H   000023H   BYTE   INSEG    CODE           ?PR?ICM20602_SIMSPI_WR_BYTE?SEEKFREE_ICM20602
FF5B06H   FF5B28H   000023H   BYTE   INSEG    CODE           ?PR?IMU660RA_SIMSPI_WR_BYTE?SEEKFREE_IMU660RA
FF5B29H   FF5B4BH   000023H   BYTE   INSEG    CODE           ?PR?IMU963RA_SIMSPI_WR_BYTE?SEEKFREE_IMU963RA
FF5B4CH   FF5B6BH   000020H   BYTE   INSEG    CODE           ?PR?AT24C02_SIMIIC_SENDACK?SEEKFREE_AT24C02
FF5B6CH   FF5B8BH   000020H   BYTE   INSEG    CODE           ?PR?DL1A_SIMIIC_SENDACK?SEEKFREE_DL1A
FF5B8CH   FF5BABH   000020H   BYTE   INSEG    CODE           ?PR?MPU6050_SIMIIC_SENDACK?SEEKFREE_MPU6050
FF5BACH   FF5BCBH   000020H   BYTE   INSEG    CODE           ?PR?STEER_SPIN_LIMIT?STEER
FF5BCCH   FF5BEAH   00001FH   BYTE   INSEG    CODE           ?PR?IPS114_WRITEDATA_16BIT?SEEKFREE_IPS114_SPI
FF5BEBH   FF5C08H   00001EH   BYTE   INSEG    CODE           ?PR?UART2_ISR?ISR
FF5C09H   FF5C26H   00001EH   BYTE   INSEG    CODE           ?PR?UART3_ISR?ISR
FF5C27H   FF5C41H   00001BH   BYTE   INSEG    CODE           ?PR?IMU963RA_READ_ACC_GYRO_REGISTER?SEEKFREE_IMU963RA
FF5C42H   FF5C5AH   000019H   BYTE   INSEG    CODE           ?PR?DELAY_US?ZF_DELAY
FF5C5BH   FF5C73H   000019H   BYTE   INSEG    CODE           ?PR?BLUETOOTH_CH9141_UART_CALLBACK?SEEKFREE_BLUETOOTH_CH91
                                                             -41
FF5C74H   FF5C8CH   000019H   BYTE   INSEG    CODE           ?PR?WIRELESS_UART_CALLBACK?SEEKFREE_WIRELESS
FF5C8DH   FF5CA5H   000019H   BYTE   INSEG    CODE           ?PR?WIRELESS_CH573_CALLBACK?SEEKFREE_WIRELESS_CH573
FF5CA6H   FF5CBDH   000018H   BYTE   INSEG    CODE           ?PR?ICM20602_SIMSPI_R_REG_BYTE?SEEKFREE_ICM20602
FF5CBEH   FF5CD4H   000017H   BYTE   INSEG    CODE           ?PR?DELAY_MS?ZF_DELAY
L251 LINKER/LOCATER V4.66.93.0                                                        05/03/2023  20:46:59  PAGE 6


FF5CD5H   FF5CEAH   000016H   BYTE   INSEG    CODE           ?PR?IMU660RA_READ_REGISTER?SEEKFREE_IMU660RA
FF5CEBH   FF5CFFH   000015H   BYTE   INSEG    CODE           ?PR?EEPROM_TRIG?ZF_EEPROM
FF5D00H   FF5D14H   000015H   BYTE   INSEG    CODE           ?PR?IIC_DELAY_US?ZF_IIC
FF5D15H   FF5D27H   000013H   BYTE   INSEG    CODE           ?PR?IMU963RA_SIMSPI_W_REG_BYTE?SEEKFREE_IMU963RA
FF5D28H   FF5D3AH   000013H   BYTE   INSEG    CODE           ?PR?STEER_INIT?STEER
FF5D3BH   FF5D4CH   000012H   BYTE   INSEG    CODE           ?PR?ICM20602_READ_REGISTER?SEEKFREE_ICM20602
FF5D4DH   FF5D5DH   000011H   BYTE   INSEG    CODE           ?PR?AT24C02_SIMIIC_STOP?SEEKFREE_AT24C02
FF5D5EH   FF5D6EH   000011H   BYTE   INSEG    CODE           ?PR?DL1A_SIMIIC_STOP?SEEKFREE_DL1A
FF5D6FH   FF5D7FH   000011H   BYTE   INSEG    CODE           ?PR?MPU6050_SIMIIC_STOP?SEEKFREE_MPU6050
FF5D80H   FF5D8FH   000010H   BYTE   INSEG    CODE           ?PR?DL1A_DECODE_TIMEOUT?SEEKFREE_DL1A
FF5D90H   FF5D9EH   00000FH   BYTE   INSEG    CODE           ?PR?DL1A_SIMIIC_START?SEEKFREE_DL1A
FF5D9FH   FF5DADH   00000FH   BYTE   INSEG    CODE           ?PR?MPU6050_SIMIIC_START?SEEKFREE_MPU6050
FF5DAEH   FF5DBBH   00000EH   BYTE   INSEG    CODE           ?PR?PUTCHAR?BOARD
FF5DBCH   FF5DC9H   00000EH   BYTE   INSEG    CODE           ?PR?SPI_MOSI?ZF_SPI
FF5DCAH   FF5DD6H   00000DH   BYTE   INSEG    CODE           ?PR?DL1A_SIMIIC_DELAY?SEEKFREE_DL1A
FF5DD7H   FF5DE1H   00000BH   BYTE   INSEG    CODE           ?PR?MPU6050_SIMIIC_DELAY?SEEKFREE_MPU6050
FF5DE2H   FF5DEBH   00000AH   BYTE   INSEG    CODE           ?PR?IPS114_WRITEINDEX?SEEKFREE_IPS114_SPI
FF5DECH   FF5DF4H   000009H   BYTE   INSEG    CODE           ?PR?TIMER4_INIT?TIMER
FF5DF5H   FF5DFCH   000008H   BYTE   INSEG    CODE           ?PR?IMU963RA_WRITE_ACC_GYRO_REGISTER?SEEKFREE_IMU963RA
FF5DFDH   FF5E04H   000008H   BYTE   INSEG    CODE           ?PR?INT2_ISR?ISR
FF5E05H   FF5E0CH   000008H   BYTE   INSEG    CODE           ?PR?INT3_ISR?ISR
FF5E0DH   FF5E14H   000008H   BYTE   INSEG    CODE           ?PR?INT4_ISR?ISR
FF5E15H   FF5E1CH   000008H   BYTE   INSEG    CODE           ?PR?TM2_ISR?ISR
FF5E1DH   FF5E24H   000008H   BYTE   INSEG    CODE           ?PR?TM3_ISR?ISR
FF5E25H   FF5E2BH   000007H   BYTE   INSEG    CODE           ?PR?INT0_ISR?ISR
FF5E2CH   FF6643H   000818H   BYTE   UNIT     HCONST         ?HC?OLED
FF6644H   FF6B1AH   0004D7H   BYTE   UNIT     HCONST         ?C_INITEDATA
FF6B1BH   FF6B72H   000058H   BYTE   UNIT     HCONST         ?HC?ZF_PWM
FF6B73H   FF6BBDH   00004BH   BYTE   UNIT     HCONST         ?HC?SEEKFREE_IMU963RA
FF6BBEH   FF6BF1H   000034H   BYTE   UNIT     HCONST         ?HC?SEEKFREE_IMU660RA
FF6BF2H   FF6C24H   000033H   BYTE   UNIT     HCONST         ?HC?SEEKFREE_ICM20602
FF6C25H   FF6C3AH   000016H   BYTE   UNIT     HCONST         ?HC?SEEKFREE_MPU6050
FF6C3BH   FF6C4DH   000013H   BYTE   UNIT     HCONST         ?HC?SEEKFREE_DL1A
FF6C4EH   FF6C53H   000006H   BYTE   UNIT     HCONST         ?HC?SEEKFREE_IPS114_SPI

* * * * * * * * *   R E M O V E D     S E G M E N T S   * * * * * * * *
   *DEL*:           000003H   BYTE   INSEG    CODE           ?PR?DISABLEGLOBALIRQ?BOARD
   *DEL*:           000016H   BYTE   INSEG    CODE           ?PR?IAP_SET_TPS?ZF_EEPROM
   *DEL*:           00000EH   BYTE   INSEG    CODE           ?PR?IAP_ERASE_PAGE?ZF_EEPROM
   *DEL*:           000004H   BYTE   INSEG    CODE           ?PR?IAP_IDLE?ZF_EEPROM
   *DEL*:           000047H   BYTE   INSEG    CODE           ?PR?IAP_READ_BYTES?ZF_EEPROM
   *DEL*:           00006DH   BYTE   INSEG    CODE           ?PR?EXTERN_IAP_WRITE_BYTES?ZF_EEPROM
   *DEL*:           000006H   BYTE   INSEG    CODE           ?PR?IAP_INIT?ZF_EEPROM
   *DEL*:           000047H   BYTE   INSEG    CODE           ?PR?IAP_WRITE_BYTES?ZF_EEPROM
   *DEL*:           00000CH   BYTE   INSEG    CODE           ?PR?IAP_GET_CMD_STATE?ZF_EEPROM
   *DEL*:           000004H   BYTE   UNIT     EDATA          ?ED?IAP_READ_BYTES?ZF_EEPROM
   *DEL*:           000004H   BYTE   UNIT     EDATA          ?ED?IAP_WRITE_BYTES?ZF_EEPROM
   *DEL*:           000204H   BYTE   UNIT     EDATA          ?ED?EXTERN_IAP_WRITE_BYTES?ZF_EEPROM
   *DEL*:           00003EH   BYTE   INSEG    CODE           ?PR?EXIT_INIT?ZF_EXTI
   *DEL*:           00006EH   BYTE   INSEG    CODE           ?PR?GPIO_PULL_SET?ZF_GPIO
   *DEL*:           000017H   BYTE   INSEG    CODE           ?PR?SEND_DATA?ZF_IIC
   *DEL*:           00002FH   BYTE   INSEG    CODE           ?PR?IIC_CHANGE_PIN?ZF_IIC
   *DEL*:           00001CH   BYTE   INSEG    CODE           ?PR?RECV_DATA?ZF_IIC
   *DEL*:           000010H   BYTE   INSEG    CODE           ?PR?START?ZF_IIC
   *DEL*:           000018H   BYTE   INSEG    CODE           ?PR?SEND_ACK?ZF_IIC
   *DEL*:           000010H   BYTE   INSEG    CODE           ?PR?RECV_ACK?ZF_IIC
   *DEL*:           000010H   BYTE   INSEG    CODE           ?PR?STOP?ZF_IIC
   *DEL*:           000019H   BYTE   INSEG    CODE           ?PR?SEND_NAK?ZF_IIC
   *DEL*:           00005EH   BYTE   INSEG    CODE           ?PR?IIC_INIT?ZF_IIC
   *DEL*:           000075H   BYTE   INSEG    CODE           ?PR?IIC_READ_REG?ZF_IIC
   *DEL*:           00009CH   BYTE   INSEG    CODE           ?PR?IIC_READ_REG_BYTES?ZF_IIC
   *DEL*:           000060H   BYTE   INSEG    CODE           ?PR?IIC_WRITE_REG?ZF_IIC
   *DEL*:           000004H   BYTE   UNIT     EDATA          ?ED?IIC_INIT?ZF_IIC
   *DEL*:           000004H   BYTE   UNIT     EDATA          ?ED?IIC_READ_REG?ZF_IIC
   *DEL*:           000003H   BYTE   UNIT     EDATA          ?ED?IIC_READ_REG_BYTES?ZF_IIC
L251 LINKER/LOCATER V4.66.93.0                                                        05/03/2023  20:46:59  PAGE 7


   *DEL*:           00006CH   BYTE   INSEG    CODE           ?PR?NVIC_SETPRIORITY?ZF_NVIC
   *DEL*:           000131H   BYTE   INSEG    CODE           ?PR?PWM_FREQ?ZF_PWM
   *DEL*:           000004H   BYTE   UNIT     EDATA          ?ED?PWM_FREQ?ZF_PWM
   *DEL*:           00001DH   BYTE   INSEG    CODE           ?PR?SPI_CHANGE_MODE?ZF_SPI
   *DEL*:           0000AEH   BYTE   INSEG    CODE           ?PR?SPI_CHANGE_PIN?ZF_SPI
   *DEL*:           0000DFH   BYTE   INSEG    CODE           ?PR?SPI_INIT?ZF_SPI
   *DEL*:           000004H   BYTE   UNIT     EDATA          ?ED?SPI_INIT?ZF_SPI
   *DEL*:           00004DH   BYTE   INSEG    CODE           ?PR?CTIMER_COUNT_READ?ZF_TIM
   *DEL*:           000051H   BYTE   INSEG    CODE           ?PR?CTIMER_COUNT_CLEAN?ZF_TIM
   *DEL*:           00002DH   BYTE   INSEG    CODE           ?PR?UART_PUTBUFF?ZF_UART
   *DEL*:           00001EH   BYTE   INSEG    CODE           ?PR?UART_PUTSTR?ZF_UART
   *DEL*:           000004H   BYTE   UNIT     EDATA          ?ED?UART_PUTBUFF?ZF_UART
   *DEL*:           000002H   BYTE   UNIT     EDATA          ?ED?UART_PUTSTR?ZF_UART
   *DEL*:           000113H   BYTE   INSEG    CODE           ?PR?FIFO_READ_BUFFER?ZF_FIFO
   *DEL*:           000025H   BYTE   INSEG    CODE           ?PR?FIFO_CLEAR?ZF_FIFO
   *DEL*:           000046H   BYTE   INSEG    CODE           ?PR?FIFO_END_OFFSET?ZF_FIFO
   *DEL*:           000015H   BYTE   INSEG    CODE           ?PR?FIFO_USED?ZF_FIFO
   *DEL*:           000043H   BYTE   INSEG    CODE           ?PR?FIFO_INIT?ZF_FIFO
   *DEL*:           000004H   BYTE   UNIT     EDATA          ?ED?FIFO_INIT?ZF_FIFO
   *DEL*:           00000FH   BYTE   UNIT     EDATA          ?ED?FIFO_READ_BUFFER?ZF_FIFO
   *DEL*:           000011H   BYTE   INSEG    CODE           ?PR?ENCODER_SELF4_CHECK?SEEKFREE_ABSOLUTE_ENCODER
   *DEL*:           000011H   BYTE   INSEG    CODE           ?PR?ENCODER_SELF5_CHECK?SEEKFREE_ABSOLUTE_ENCODER
   *DEL*:           00002FH   BYTE   INSEG    CODE           ?PR?ENCODER_SPI_R_REG_BYTE?SEEKFREE_ABSOLUTE_ENCODER
   *DEL*:           000038H   BYTE   INSEG    CODE           ?PR?ENCODER_SPI_W_REG_BYTE?SEEKFREE_ABSOLUTE_ENCODER
   *DEL*:           00001CH   BYTE   INSEG    CODE           ?PR?SIMSPI_R_REG_BYTE?SEEKFREE_ABSOLUTE_ENCODER
   *DEL*:           00001AH   BYTE   INSEG    CODE           ?PR?SIMSPI_W_REG_BYTE?SEEKFREE_ABSOLUTE_ENCODER
   *DEL*:           000029H   BYTE   INSEG    CODE           ?PR?ENCODER_INIT_SPI?SEEKFREE_ABSOLUTE_ENCODER
   *DEL*:           000004H   BYTE   INSEG    CODE           ?PR?SPI_WR_BYTE?SEEKFREE_ABSOLUTE_ENCODER
   *DEL*:           000024H   BYTE   INSEG    CODE           ?PR?SET_ZERO_POSITION_SIMSPI?SEEKFREE_ABSOLUTE_ENCODER
   *DEL*:           000023H   BYTE   INSEG    CODE           ?PR?ENCODER_ANGLE_SIMSPI?SEEKFREE_ABSOLUTE_ENCODER
   *DEL*:           00001CH   BYTE   INSEG    CODE           ?PR?SPI_R_REG_BYTE?SEEKFREE_ABSOLUTE_ENCODER
   *DEL*:           00001AH   BYTE   INSEG    CODE           ?PR?SPI_W_REG_BYTE?SEEKFREE_ABSOLUTE_ENCODER
   *DEL*:           00002FH   BYTE   INSEG    CODE           ?PR?ENCODER_SIMSPI_R_REG_BYTE?SEEKFREE_ABSOLUTE_ENCODER
   *DEL*:           000038H   BYTE   INSEG    CODE           ?PR?ENCODER_SIMSPI_W_REG_BYTE?SEEKFREE_ABSOLUTE_ENCODER
   *DEL*:           00000FH   BYTE   INSEG    CODE           ?PR?ENCODER_INIT_SIMSPI?SEEKFREE_ABSOLUTE_ENCODER
   *DEL*:           000024H   BYTE   INSEG    CODE           ?PR?SET_ZERO_POSITION_SPI?SEEKFREE_ABSOLUTE_ENCODER
   *DEL*:           00001FH   BYTE   INSEG    CODE           ?PR?SIMSPI_WR_BYTE?SEEKFREE_ABSOLUTE_ENCODER
   *DEL*:           000023H   BYTE   INSEG    CODE           ?PR?ENCODER_ANGLE_SPI?SEEKFREE_ABSOLUTE_ENCODER
   *DEL*:           000001H   BYTE   UNIT     EDATA          ?ED?ENCODER_SELF4_CHECK?SEEKFREE_ABSOLUTE_ENCODER
   *DEL*:           000001H   BYTE   UNIT     EDATA          ?ED?ENCODER_SELF5_CHECK?SEEKFREE_ABSOLUTE_ENCODER
   *DEL*:           000029H   BYTE   INSEG    CODE           ?PR?AT24C02_SIMIIC_READ_REG?SEEKFREE_AT24C02
   *DEL*:           00005EH   BYTE   INSEG    CODE           ?PR?AT24C02_READ_BYTES?SEEKFREE_AT24C02
   *DEL*:           000022H   BYTE   INSEG    CODE           ?PR?AT24C02_SIMIIC_WRITE_REG?SEEKFREE_AT24C02
   *DEL*:           000015H   BYTE   INSEG    CODE           ?PR?AT24C02_READ_BYTE?SEEKFREE_AT24C02
   *DEL*:           00005BH   BYTE   INSEG    CODE           ?PR?AT24C02_WRITE_BYTES?SEEKFREE_AT24C02
   *DEL*:           000019H   BYTE   INSEG    CODE           ?PR?AT24C02_WRITE_BYTE?SEEKFREE_AT24C02
   *DEL*:           00003BH   BYTE   INSEG    CODE           ?PR?AT24C02_READ_CH?SEEKFREE_AT24C02
   *DEL*:           00002EH   BYTE   INSEG    CODE           ?PR?AT24C02_SEND_CH?SEEKFREE_AT24C02
   *DEL*:           00001CH   BYTE   INSEG    CODE           ?PR?AT24C02_SCCB_WAITACK?SEEKFREE_AT24C02
   *DEL*:           00000FH   BYTE   INSEG    CODE           ?PR?AT24C02_SIMIIC_START?SEEKFREE_AT24C02
   *DEL*:           000002H   BYTE   UNIT     EDATA          ?ED?AT24C02_WRITE_BYTES?SEEKFREE_AT24C02
   *DEL*:           000002H   BYTE   UNIT     EDATA          ?ED?AT24C02_READ_BYTES?SEEKFREE_AT24C02
   *DEL*:           000022H   BYTE   INSEG    CODE           ?PR?BLUETOOTH_CH9141_READ_BUFF?SEEKFREE_BLUETOOTH_CH9141
   *DEL*:           0000ABH   BYTE   INSEG    CODE           ?PR?BLUETOOTH_CH9141_SEND_BUFF?SEEKFREE_BLUETOOTH_CH9141
   *DEL*:           00003CH   BYTE   INSEG    CODE           ?PR?BLUETOOTH_CH9141_INIT?SEEKFREE_BLUETOOTH_CH9141
   *DEL*:           000006H   BYTE   UNIT     EDATA          ?ED?BLUETOOTH_CH9141_SEND_BUFF?SEEKFREE_BLUETOOTH_CH9141
   *DEL*:           000004H   BYTE   UNIT     EDATA          ?ED?BLUETOOTH_CH9141_READ_BUFF?SEEKFREE_BLUETOOTH_CH9141
   *DEL*:           000027H   BYTE   INSEG    CODE           ?PR?DL1A_SET_SIGNAL_RATE_LIMIT?SEEKFREE_DL1A
   *DEL*:           00017CH   BYTE   INSEG    CODE           ?PR?DL1A_GET_SPAD_INFO?SEEKFREE_DL1A
   *DEL*:           00005DH   BYTE   INSEG    CODE           ?PR?DL1A_GET_DISTANCE?SEEKFREE_DL1A
   *DEL*:           000077H   BYTE   INSEG    CODE           ?PR?DL1A_PERFORM_SINGLE_REF_CALIBRATION?SEEKFREE_DL1A
   *DEL*:           000073H   BYTE   INSEG    CODE           ?PR?DL1A_GET_MEASUREMENT_TIMING_BUDGET?SEEKFREE_DL1A
   *DEL*:           000029H   BYTE   INSEG    CODE           ?PR?DL1A_SIMIIC_READ_REG?SEEKFREE_DL1A
   *DEL*:           000054H   BYTE   INSEG    CODE           ?PR?DL1A_SIMIIC_READ_REGS_1?SEEKFREE_DL1A
   *DEL*:           0000E4H   BYTE   INSEG    CODE           ?PR?DL1A_SET_MEASUREMENT_TIMING_BUDGET?SEEKFREE_DL1A
L251 LINKER/LOCATER V4.66.93.0                                                        05/03/2023  20:46:59  PAGE 8


   *DEL*:           000022H   BYTE   INSEG    CODE           ?PR?DL1A_SIMIIC_WRITE_REG?SEEKFREE_DL1A
   *DEL*:           00061BH   BYTE   INSEG    CODE           ?PR?DL1A_INIT?SEEKFREE_DL1A
   *DEL*:           000006H   BYTE   UNIT     EDATA          ?ED?DL1A_SIMIIC_READ_REGS_1?SEEKFREE_DL1A
   *DEL*:           000008H   BYTE   UNIT     EDATA          ?ED?DL1A_GET_SPAD_INFO?SEEKFREE_DL1A
   *DEL*:           000003H   BYTE   UNIT     EDATA          ?ED?DL1A_PERFORM_SINGLE_REF_CALIBRATION?SEEKFREE_DL1A
   *DEL*:           000023H   BYTE   UNIT     EDATA          ?ED?DL1A_SET_MEASUREMENT_TIMING_BUDGET?SEEKFREE_DL1A
   *DEL*:           00001BH   BYTE   UNIT     EDATA          ?ED?DL1A_GET_MEASUREMENT_TIMING_BUDGET?SEEKFREE_DL1A
   *DEL*:           000003H   BYTE   UNIT     EDATA          ?ED?DL1A_SET_SIGNAL_RATE_LIMIT?SEEKFREE_DL1A
   *DEL*:           000003H   BYTE   UNIT     EDATA          ?ED?DL1A_GET_DISTANCE?SEEKFREE_DL1A
   *DEL*:           000012H   BYTE   UNIT     EDATA          ?ED?DL1A_INIT?SEEKFREE_DL1A
   *DEL*:           000012H   BYTE   INSEG    CODE           ?PR?ICM20602_GYRO_TRANSITION?SEEKFREE_ICM20602
   *DEL*:           000008H   BYTE   INSEG    CODE           ?PR?ICM20602_WRITE_REGISTER?SEEKFREE_ICM20602
   *DEL*:           00002DH   BYTE   INSEG    CODE           ?PR?ICM20602_SELF_CHECK?SEEKFREE_ICM20602
   *DEL*:           00000FH   BYTE   INSEG    CODE           ?PR?ICM20602_SIMSPI_W_REG_BYTE?SEEKFREE_ICM20602
   *DEL*:           000098H   BYTE   INSEG    CODE           ?PR?ICM20602_INIT?SEEKFREE_ICM20602
   *DEL*:           000040H   BYTE   INSEG    CODE           ?PR?ICM20602_GET_ACC?SEEKFREE_ICM20602
   *DEL*:           000010H   BYTE   INSEG    CODE           ?PR?ICM20602_ACC_TRANSITION?SEEKFREE_ICM20602
   *DEL*:           000010H   BYTE   INSEG    CODE           ?PR?ICM20602_READ_REGISTERS?SEEKFREE_ICM20602
   *DEL*:           000040H   BYTE   INSEG    CODE           ?PR?ICM20602_GET_GYRO?SEEKFREE_ICM20602
   *DEL*:           000006H   BYTE   UNIT     EDATA          ?ED?ICM20602_GET_ACC?SEEKFREE_ICM20602
   *DEL*:           000006H   BYTE   UNIT     EDATA          ?ED?ICM20602_GET_GYRO?SEEKFREE_ICM20602
   *DEL*:           000040H   BYTE   INSEG    CODE           ?PR?IMU660RA_GET_GYRO?SEEKFREE_IMU660RA
   *DEL*:           00000EH   BYTE   INSEG    CODE           ?PR?IMU660RA_WRITE_REGISTERS?SEEKFREE_IMU660RA
   *DEL*:           000012H   BYTE   INSEG    CODE           ?PR?IMU660RA_GYRO_TRANSITION?SEEKFREE_IMU660RA
   *DEL*:           000008H   BYTE   INSEG    CODE           ?PR?IMU660RA_WRITE_REGISTER?SEEKFREE_IMU660RA
   *DEL*:           00002CH   BYTE   INSEG    CODE           ?PR?IMU660RA_SELF_CHECK?SEEKFREE_IMU660RA
   *DEL*:           000025H   BYTE   INSEG    CODE           ?PR?IMU660RA_SIMSPI_W_REG_BYTES?SEEKFREE_IMU660RA
   *DEL*:           00000FH   BYTE   INSEG    CODE           ?PR?IMU660RA_SIMSPI_W_REG_BYTE?SEEKFREE_IMU660RA
   *DEL*:           00009AH   BYTE   INSEG    CODE           ?PR?IMU660RA_INIT?SEEKFREE_IMU660RA
   *DEL*:           000040H   BYTE   INSEG    CODE           ?PR?IMU660RA_GET_ACC?SEEKFREE_IMU660RA
   *DEL*:           000010H   BYTE   INSEG    CODE           ?PR?IMU660RA_ACC_TRANSITION?SEEKFREE_IMU660RA
   *DEL*:           000010H   BYTE   INSEG    CODE           ?PR?IMU660RA_READ_REGISTERS?SEEKFREE_IMU660RA
   *DEL*:           000004H   BYTE   UNIT     EDATA          ?ED?IMU660RA_SIMSPI_W_REG_BYTES?SEEKFREE_IMU660RA
   *DEL*:           000007H   BYTE   UNIT     EDATA          ?ED?IMU660RA_GET_ACC?SEEKFREE_IMU660RA
   *DEL*:           000007H   BYTE   UNIT     EDATA          ?ED?IMU660RA_GET_GYRO?SEEKFREE_IMU660RA
   *DEL*:           000003H   BYTE   INSEG    CODE           ?PR?IMU963RA_ACC_TRANSITION?SEEKFREE_IMU963RA
   *DEL*:           000040H   BYTE   INSEG    CODE           ?PR?IMU963RA_GET_GYRO?SEEKFREE_IMU963RA
   *DEL*:           000012H   BYTE   INSEG    CODE           ?PR?IMU963RA_MAG_TRANSITION?SEEKFREE_IMU963RA
   *DEL*:           000003H   BYTE   INSEG    CODE           ?PR?IMU963RA_GYRO_TRANSITION?SEEKFREE_IMU963RA
   *DEL*:           00002CH   BYTE   INSEG    CODE           ?PR?IMU963RA_CONNECT_MAG?SEEKFREE_IMU963RA
   *DEL*:           000010H   BYTE   INSEG    CODE           ?PR?IMU963RA_READ_ACC_GYRO_REGISTERS?SEEKFREE_IMU963RA
   *DEL*:           000061H   BYTE   INSEG    CODE           ?PR?IMU963RA_WRITE_MAG_REGISTER?SEEKFREE_IMU963RA
   *DEL*:           000030H   BYTE   INSEG    CODE           ?PR?IMU963RA_SIMSPI_R_REG_BYTES?SEEKFREE_IMU963RA
   *DEL*:           000030H   BYTE   INSEG    CODE           ?PR?IMU963RA_MAG_SELF_CHECK?SEEKFREE_IMU963RA
   *DEL*:           00010AH   BYTE   INSEG    CODE           ?PR?IMU963RA_INIT?SEEKFREE_IMU963RA
   *DEL*:           00002DH   BYTE   INSEG    CODE           ?PR?IMU963RA_ACC_GYRO_SELF_CHECK?SEEKFREE_IMU963RA
   *DEL*:           000040H   BYTE   INSEG    CODE           ?PR?IMU963RA_GET_ACC?SEEKFREE_IMU963RA
   *DEL*:           000056H   BYTE   INSEG    CODE           ?PR?IMU963RA_GET_MAG?SEEKFREE_IMU963RA
   *DEL*:           000004H   BYTE   UNIT     EDATA          ?ED?IMU963RA_SIMSPI_R_REG_BYTES?SEEKFREE_IMU963RA
   *DEL*:           000002H   BYTE   UNIT     EDATA          ?ED?IMU963RA_WRITE_MAG_REGISTER?SEEKFREE_IMU963RA
   *DEL*:           000006H   BYTE   UNIT     EDATA          ?ED?IMU963RA_GET_ACC?SEEKFREE_IMU963RA
   *DEL*:           000006H   BYTE   UNIT     EDATA          ?ED?IMU963RA_GET_GYRO?SEEKFREE_IMU963RA
   *DEL*:           000006H   BYTE   UNIT     EDATA          ?ED?IMU963RA_GET_MAG?SEEKFREE_IMU963RA
   *DEL*:           00007BH   BYTE   INSEG    CODE           ?PR?IPS114_SHOWUINT8_SIMSPI?SEEKFREE_IPS114_SPI
   *DEL*:           000077H   BYTE   INSEG    CODE           ?PR?IPS114_SHOWUINT8?SEEKFREE_IPS114_SPI
   *DEL*:           0000B9H   BYTE   INSEG    CODE           ?PR?IPS114_SHOWINT8_SIMSPI?SEEKFREE_IPS114_SPI
   *DEL*:           0000B5H   BYTE   INSEG    CODE           ?PR?IPS114_SHOWINT8?SEEKFREE_IPS114_SPI
   *DEL*:           0000F8H   BYTE   INSEG    CODE           ?PR?IPS114_SHOWFLOAT_SIMSPI?SEEKFREE_IPS114_SPI
   *DEL*:           000013H   BYTE   INSEG    CODE           ?PR?IPS114_DRAWPOINT_SIMSPI?SEEKFREE_IPS114_SPI
   *DEL*:           0000F8H   BYTE   INSEG    CODE           ?PR?IPS114_SHOWFLOAT?SEEKFREE_IPS114_SPI
   *DEL*:           000013H   BYTE   INSEG    CODE           ?PR?IPS114_DRAWPOINT?SEEKFREE_IPS114_SPI
   *DEL*:           00008EH   BYTE   INSEG    CODE           ?PR?IPS114_SHOWCHAR_SIMSPI?SEEKFREE_IPS114_SPI
   *DEL*:           00008EH   BYTE   INSEG    CODE           ?PR?IPS114_SHOWCHAR?SEEKFREE_IPS114_SPI
   *DEL*:           00008BH   BYTE   INSEG    CODE           ?PR?IPS114_SHOWUINT16_SIMSPI?SEEKFREE_IPS114_SPI
   *DEL*:           00008BH   BYTE   INSEG    CODE           ?PR?IPS114_SHOWUINT16?SEEKFREE_IPS114_SPI
L251 LINKER/LOCATER V4.66.93.0                                                        05/03/2023  20:46:59  PAGE 9


   *DEL*:           000082H   BYTE   INSEG    CODE           ?PR?IPS114_SHOWINT32_SIMSPI?SEEKFREE_IPS114_SPI
   *DEL*:           0000DDH   BYTE   INSEG    CODE           ?PR?IPS114_SHOWINT16_SIMSPI?SEEKFREE_IPS114_SPI
   *DEL*:           000082H   BYTE   INSEG    CODE           ?PR?IPS114_SHOWINT32?SEEKFREE_IPS114_SPI
   *DEL*:           0000D9H   BYTE   INSEG    CODE           ?PR?IPS114_SHOWINT16?SEEKFREE_IPS114_SPI
   *DEL*:           00003CH   BYTE   INSEG    CODE           ?PR?IPS114_CLEAR_SIMSPI?SEEKFREE_IPS114_SPI
   *DEL*:           00003CH   BYTE   INSEG    CODE           ?PR?IPS114_CLEAR?SEEKFREE_IPS114_SPI
   *DEL*:           00004EH   BYTE   INSEG    CODE           ?PR?IPS114_SHOWSTR_SIMSPI?SEEKFREE_IPS114_SPI
   *DEL*:           00004EH   BYTE   INSEG    CODE           ?PR?IPS114_SHOWSTR?SEEKFREE_IPS114_SPI
   *DEL*:           000029H   BYTE   INSEG    CODE           ?PR?IPS114_WRITEDATA_SIMSPI?SEEKFREE_IPS114_SPI
   *DEL*:           00000AH   BYTE   INSEG    CODE           ?PR?IPS114_WRITEDATA?SEEKFREE_IPS114_SPI
   *DEL*:           000044H   BYTE   INSEG    CODE           ?PR?IPS114_SET_REGION_SIMSPI?SEEKFREE_IPS114_SPI
   *DEL*:           00014FH   BYTE   INSEG    CODE           ?PR?IPS114_INIT_SIMSPI?SEEKFREE_IPS114_SPI
   *DEL*:           000048H   BYTE   INSEG    CODE           ?PR?IPS114_SET_REGION?SEEKFREE_IPS114_SPI
   *DEL*:           00016DH   BYTE   INSEG    CODE           ?PR?IPS114_INIT?SEEKFREE_IPS114_SPI
   *DEL*:           000004H   BYTE   UNIT     EDATA          ?ED?IPS114_SET_REGION_SIMSPI?SEEKFREE_IPS114_SPI
   *DEL*:           000002H   BYTE   UNIT     EDATA          ?ED?IPS114_CLEAR_SIMSPI?SEEKFREE_IPS114_SPI
   *DEL*:           000004H   BYTE   UNIT     EDATA          ?ED?IPS114_SHOWCHAR_SIMSPI?SEEKFREE_IPS114_SPI
   *DEL*:           000006H   BYTE   UNIT     EDATA          ?ED?IPS114_SHOWSTR_SIMSPI?SEEKFREE_IPS114_SPI
   *DEL*:           000005H   BYTE   UNIT     EDATA          ?ED?IPS114_SHOWINT8_SIMSPI?SEEKFREE_IPS114_SPI
   *DEL*:           000004H   BYTE   UNIT     EDATA          ?ED?IPS114_SHOWUINT8_SIMSPI?SEEKFREE_IPS114_SPI
   *DEL*:           000008H   BYTE   UNIT     EDATA          ?ED?IPS114_SHOWINT16_SIMSPI?SEEKFREE_IPS114_SPI
   *DEL*:           000006H   BYTE   UNIT     EDATA          ?ED?IPS114_SHOWUINT16_SIMSPI?SEEKFREE_IPS114_SPI
   *DEL*:           000028H   BYTE   UNIT     EDATA          ?ED?IPS114_SHOWINT32_SIMSPI?SEEKFREE_IPS114_SPI
   *DEL*:           00002BH   BYTE   UNIT     EDATA          ?ED?IPS114_SHOWFLOAT_SIMSPI?SEEKFREE_IPS114_SPI
   *DEL*:           000004H   BYTE   UNIT     EDATA          ?ED?IPS114_SET_REGION?SEEKFREE_IPS114_SPI
   *DEL*:           000002H   BYTE   UNIT     EDATA          ?ED?IPS114_CLEAR?SEEKFREE_IPS114_SPI
   *DEL*:           000004H   BYTE   UNIT     EDATA          ?ED?IPS114_SHOWCHAR?SEEKFREE_IPS114_SPI
   *DEL*:           000006H   BYTE   UNIT     EDATA          ?ED?IPS114_SHOWSTR?SEEKFREE_IPS114_SPI
   *DEL*:           000005H   BYTE   UNIT     EDATA          ?ED?IPS114_SHOWINT8?SEEKFREE_IPS114_SPI
   *DEL*:           000004H   BYTE   UNIT     EDATA          ?ED?IPS114_SHOWUINT8?SEEKFREE_IPS114_SPI
   *DEL*:           000008H   BYTE   UNIT     EDATA          ?ED?IPS114_SHOWINT16?SEEKFREE_IPS114_SPI
   *DEL*:           000006H   BYTE   UNIT     EDATA          ?ED?IPS114_SHOWUINT16?SEEKFREE_IPS114_SPI
   *DEL*:           000028H   BYTE   UNIT     EDATA          ?ED?IPS114_SHOWINT32?SEEKFREE_IPS114_SPI
   *DEL*:           00002BH   BYTE   UNIT     EDATA          ?ED?IPS114_SHOWFLOAT?SEEKFREE_IPS114_SPI
   *DEL*:           000055H   BYTE   INSEG    CODE           ?PR?MPU6050_SIMIIC_READ_REGS?SEEKFREE_MPU6050
   *DEL*:           000029H   BYTE   INSEG    CODE           ?PR?MPU6050_SIMIIC_READ_REG?SEEKFREE_MPU6050
   *DEL*:           000022H   BYTE   INSEG    CODE           ?PR?MPU6050_SIMIIC_WRITE_REG?SEEKFREE_MPU6050
   *DEL*:           00005CH   BYTE   INSEG    CODE           ?PR?MPU6050_INIT?SEEKFREE_MPU6050
   *DEL*:           000032H   BYTE   INSEG    CODE           ?PR?MPU6050_SELF1_CHECK?SEEKFREE_MPU6050
   *DEL*:           00003BH   BYTE   INSEG    CODE           ?PR?MPU6050_READ_CH?SEEKFREE_MPU6050
   *DEL*:           00002EH   BYTE   INSEG    CODE           ?PR?MPU6050_SEND_CH?SEEKFREE_MPU6050
   *DEL*:           000040H   BYTE   INSEG    CODE           ?PR?MPU6050_GET_GYRO?SEEKFREE_MPU6050
   *DEL*:           00001CH   BYTE   INSEG    CODE           ?PR?MPU6050_SCCB_WAITACK?SEEKFREE_MPU6050
   *DEL*:           000040H   BYTE   INSEG    CODE           ?PR?MPU6050_GET_ACCDATA?SEEKFREE_MPU6050
   *DEL*:           000003H   BYTE   UNIT     EDATA          ?ED?MPU6050_SIMIIC_READ_REGS?SEEKFREE_MPU6050
   *DEL*:           000006H   BYTE   UNIT     EDATA          ?ED?MPU6050_GET_ACCDATA?SEEKFREE_MPU6050
   *DEL*:           000006H   BYTE   UNIT     EDATA          ?ED?MPU6050_GET_GYRO?SEEKFREE_MPU6050
   *DEL*:           000092H   BYTE   INSEG    CODE           ?PR?NUMBER_CONVERSION_ASCII?SEEKFREE_PRINTF
   *DEL*:           0004FAH   BYTE   INSEG    CODE           ?PR?ZF_SPRINTF?SEEKFREE_PRINTF
   *DEL*:           00003EH   BYTE   INSEG    CODE           ?PR?PRINTF_REVERSE_ORDER?SEEKFREE_PRINTF
   *DEL*:           000001H   BYTE   UNIT     EDATA          ?ED?NUMBER_CONVERSION_ASCII?SEEKFREE_PRINTF
   *DEL*:           00005FH   BYTE   UNIT     EDATA          ?ED?ZF_SPRINTF?SEEKFREE_PRINTF
   *DEL*:           000070H   BYTE   INSEG    CODE           ?PR?CCD_SEND_DATA?SEEKFREE_TSL1401
   *DEL*:           000016H   BYTE   INSEG    CODE           ?PR?CCD_INIT?SEEKFREE_TSL1401
   *DEL*:           000035H   BYTE   INSEG    CODE           ?PR?CCD_COLLECT?SEEKFREE_TSL1401
   *DEL*:           000003H   BYTE   UNIT     EDATA          ?ED?CCD_SEND_DATA?SEEKFREE_TSL1401
   *DEL*:           00003AH   BYTE   INSEG    CODE           ?PR?CRC_CHECK?SEEKFREE_VIRSCO
   *DEL*:           000069H   BYTE   INSEG    CODE           ?PR?DATA_CONVERSION?SEEKFREE_VIRSCO
   *DEL*:           000004H   BYTE   UNIT     EDATA          ?ED?DATA_CONVERSION?SEEKFREE_VIRSCO
   *DEL*:           000022H   BYTE   INSEG    CODE           ?PR?WIRELESS_UART_READ_BUFF?SEEKFREE_WIRELESS
   *DEL*:           00005DH   BYTE   INSEG    CODE           ?PR?WIRELESS_UART_SEND_BUFF?SEEKFREE_WIRELESS
   *DEL*:           00003CH   BYTE   INSEG    CODE           ?PR?WIRELESS_UART_INIT?SEEKFREE_WIRELESS
   *DEL*:           000002H   BYTE   UNIT     EDATA          ?ED?WIRELESS_UART_SEND_BUFF?SEEKFREE_WIRELESS
   *DEL*:           000004H   BYTE   UNIT     EDATA          ?ED?WIRELESS_UART_READ_BUFF?SEEKFREE_WIRELESS
   *DEL*:           000022H   BYTE   INSEG    CODE           ?PR?WIRELESS_CH573_READ_BUFF?SEEKFREE_WIRELESS_CH573
L251 LINKER/LOCATER V4.66.93.0                                                        05/03/2023  20:46:59  PAGE 10


   *DEL*:           00005DH   BYTE   INSEG    CODE           ?PR?WIRELESS_CH573_SEND_BUFF?SEEKFREE_WIRELESS_CH573
   *DEL*:           00003CH   BYTE   INSEG    CODE           ?PR?WIRELESS_CH573_INIT?SEEKFREE_WIRELESS_CH573
   *DEL*:           000002H   BYTE   UNIT     EDATA          ?ED?WIRELESS_CH573_SEND_BUFF?SEEKFREE_WIRELESS_CH573
   *DEL*:           000004H   BYTE   UNIT     EDATA          ?ED?WIRELESS_CH573_READ_BUFF?SEEKFREE_WIRELESS_CH573
   *DEL*:           0000B1H   BYTE   INSEG    CODE           ?PR?AKEMAN_CONTROL?CONTROL
   *DEL*:           00003DH   BYTE   INSEG    CODE           ?PR?MOTOR_PID_CONTROL?CONTROL
   *DEL*:           000007H   BYTE   INSEG    CODE           ?PR?PID_ON?CONTROL
   *DEL*:           000030H   BYTE   INSEG    CODE           ?PR?ADC_ERROR_ACCELERATION?CONTROL
   *DEL*:           000006H   BYTE   INSEG    CODE           ?PR?PID_OFF?CONTROL
   *DEL*:           000004H   BYTE   UNIT     EDATA          ?ED?AKEMAN_CONTROL?CONTROL
   *DEL*:           000008H   BYTE   UNIT     EDATA          ?ED?MOTOR_PID_CONTROL?CONTROL
   *DEL*:           00007DH   BYTE   INSEG    CODE           ?PR?KEY_SCAN?KEY
   *DEL*:           00000CH   BYTE   INSEG    CODE           ?PR?ENCODER_CLEAR?MOTOR
   *DEL*:           000024H   BYTE   INSEG    CODE           ?PR?MOTOR_SHUT?MOTOR
   *DEL*:           000049H   BYTE   INSEG    CODE           ?PR?ENCODER_READ?MOTOR
   *DEL*:           000011H   BYTE   INSEG    CODE           ?PR?OLED_DISPLAY_ON?OLED
   *DEL*:           000064H   BYTE   INSEG    CODE           ?PR?OLED_SHOWSTRING?OLED
   *DEL*:           0000AFH   BYTE   INSEG    CODE           ?PR?OLED_SHOWCHAR?OLED
   *DEL*:           00007CH   BYTE   INSEG    CODE           ?PR?OLED_SHOWCHINESE?OLED
   *DEL*:           0000AAH   BYTE   INSEG    CODE           ?PR?OLED_SHOWNUM?OLED
   *DEL*:           000011H   BYTE   INSEG    CODE           ?PR?OLED_DISPLAY_OFF?OLED
   *DEL*:           000017H   BYTE   INSEG    CODE           ?PR?OLED_POW?OLED
   *DEL*:           00009DH   BYTE   INSEG    CODE           ?PR?OLED_DRAWBMP?OLED
   *DEL*:           000005H   BYTE   UNIT     EDATA          ?ED?OLED_SHOWNUM?OLED
   *DEL*:           000003H   BYTE   UNIT     EDATA          ?ED?OLED_SHOWSTRING?OLED
   *DEL*:           000001H   BYTE   UNIT     EDATA          ?ED?OLED_SHOWCHINESE?OLED
   *DEL*:           000007H   BYTE   UNIT     EDATA          ?ED?OLED_DRAWBMP?OLED
   *DEL*:           000044H   BYTE   INSEG    CODE           ?PR?SET_BRUSHLESS_OUTPUT?BRUSHLESS
   *DEL*:           000110H   BYTE   INSEG    CODE           ?PR?POSITION_PID_CALC?PID
   *DEL*:           000237H   BYTE   INSEG    CODE           ?PR?PID_CALC?PID
   *DEL*:           000034H   BYTE   INSEG    CODE           ?PR?ABS_LIMIT?PID
   *DEL*:           00000DH   BYTE   INSEG    CODE           ?PR?PID_CLEAR_INTEGRAL?PID
   *DEL*:           000004H   BYTE   UNIT     EDATA          ?ED?PID_CALC?PID
   *DEL*:           000004H   BYTE   UNIT     EDATA          ?ED?POSITION_PID_CALC?PID
   *DEL*:           000028H   BYTE   UNIT     EDATA          ?ED?PRINTF
   *DEL*:           00001AH   BYTE   INSEG    CODE           ?PR?MEMSET?_?MEMSET



OVERLAY MAP OF MODULE:   .\Out_File\SEEKFREE (board)


FUNCTION/MODULE                               EDATA_GROUP
--> CALLED FUNCTION/MODULE                    START  STOP
=========================================================
UART1_Isr/isr                                 ----- -----

*** NEW ROOT ********************************

UART2_Isr/isr                                 ----- -----

*** NEW ROOT ********************************

UART3_Isr/isr                                 ----- -----

*** NEW ROOT ********************************

UART4_Isr/isr                                 ----- -----
  +--> wireless_uart_callback/SEEKFREE_WIRELESS
  +--> bluetooth_ch9141_uart_callback/SEEKFREE_BLUETOOTH_CH9141
  +--> wireless_ch573_callback/SEEKFREE_WIRELESS_CH573

wireless_uart_callback/SEEKFREE_WIRELESS      ----- -----
  +--> fifo_write_buffer/zf_fifo

L251 LINKER/LOCATER V4.66.93.0                                                        05/03/2023  20:46:59  PAGE 11


fifo_write_buffer/zf_fifo                     078FH 079AH
  +--> memcpy?_/memcpy
  +--> fifo_head_offset/zf_fifo

memcpy?_/memcpy                               ----- -----

fifo_head_offset/zf_fifo                      ----- -----

bluetooth_ch9141_uart_callback/SEEKFREE_+     ----- -----
... BLUETOOTH_CH9141
  +--> fifo_write_buffer/zf_fifo

wireless_ch573_callback/SEEKFREE_WIRELES+     ----- -----
... S_CH573
  +--> fifo_write_buffer/zf_fifo

*** NEW ROOT ********************************

INT0_Isr/isr                                  ----- -----

*** NEW ROOT ********************************

INT1_Isr/isr                                  ----- -----

*** NEW ROOT ********************************

INT2_Isr/isr                                  ----- -----

*** NEW ROOT ********************************

INT3_Isr/isr                                  ----- -----

*** NEW ROOT ********************************

INT4_Isr/isr                                  ----- -----

*** NEW ROOT ********************************

TM0_Isr/isr                                   ----- -----

*** NEW ROOT ********************************

TM1_Isr/isr                                   ----- -----

*** NEW ROOT ********************************

TM2_Isr/isr                                   ----- -----

*** NEW ROOT ********************************

TM3_Isr/isr                                   ----- -----

*** NEW ROOT ********************************

TM4_Isr/isr                                   ----- -----
  +--> Motor_Control/motor
  +--> Read_Adc_Value/adc
  +--> ADC_error_processing/control
  +--> ADC_error_window_filtering/control
  +--> ADC_error_weight_filtering/control
  +--> Direct_judge/control
  +--> Correct_Angle/control
  +--> lost_line_judge/control
  +--> lostline_deal/control
  +--> Steer_Spin_limit/steer
L251 LINKER/LOCATER V4.66.93.0                                                        05/03/2023  20:46:59  PAGE 12



Motor_Control/motor                           079BH 079EH
  +--> pwm_duty/zf_pwm

pwm_duty/zf_pwm                               ----- -----

Read_Adc_Value/adc                            ----- -----
  +--> adc_mean_filter/adc

adc_mean_filter/adc                           079BH 07A0H
  +--> adc_once/zf_adc
  +--> ?C?ULIDIV/?C?ULDIV

adc_once/zf_adc                               ----- -----

?C?ULIDIV/?C?ULDIV                            ----- -----

ADC_error_processing/control                  079BH 079EH

ADC_error_window_filtering/control            ----- -----

ADC_error_weight_filtering/control            ----- -----

Direct_judge/control                          ----- -----

Correct_Angle/control                         079BH 079EH

lost_line_judge/control                       ----- -----

lostline_deal/control                         ----- -----

Steer_Spin_limit/steer                        ----- -----
  +--> Steer_Spin/steer

Steer_Spin/steer                              ----- -----
  +--> pwm_duty/zf_pwm

*** NEW ROOT ********************************

?C_C51STARTUP                                 ----- -----

*** NEW ROOT ********************************

?C_C51STARTUP?3                               ----- -----
  +--> main/main

main/main                                     ----- -----
  +--> board_init/board
  +--> PID_struct_init/pid
  +--> My_Adc_Init/adc
  +--> Motor_Init/motor
  +--> Steer_Init/steer
  +--> Brushless_Init/brushless
  +--> OLED_Init/oled
  +--> Timer4_Init/timer
  +--> send_four_data/host
  +--> delay_ms/zf_delay

board_init/board                              ----- -----
  +--> set_clk/board
  +--> delay_init/zf_delay
  +--> uart_init/zf_uart
  +--> EnableGlobalIRQ/board

set_clk/board                                 ----- -----
L251 LINKER/LOCATER V4.66.93.0                                                        05/03/2023  20:46:59  PAGE 13



delay_init/zf_delay                           ----- -----
  +--> ?C?SLDIV/?C?SLDIV

?C?SLDIV/?C?SLDIV                             ----- -----
  +--> ?C?ULIDIV/?C?ULDIV

uart_init/zf_uart                             07A1H 07A6H
  +--> ?C?ULIDIV/?C?ULDIV

EnableGlobalIRQ/board                         ----- -----

PID_struct_init/pid                           07A1H 07B4H
  +--> pid_param_init/pid
  +--> pid_reset/pid

pid_param_init/pid                            07B5H 07C8H

pid_reset/pid                                 07B5H 07BCH

My_Adc_Init/adc                               ----- -----
  +--> adc_init/zf_adc

adc_init/zf_adc                               ----- -----

Motor_Init/motor                              ----- -----
  +--> pwm_init/zf_pwm
  +--> ctimer_count_init/zf_tim

pwm_init/zf_pwm                               07A1H 07ACH
  +--> pwm_set_gpio/zf_pwm
  +--> ?C?ULIDIV/?C?ULDIV

pwm_set_gpio/zf_pwm                           ----- -----
  +--> gpio_mode/zf_gpio

gpio_mode/zf_gpio                             ----- -----

ctimer_count_init/zf_tim                      ----- -----

Steer_Init/steer                              ----- -----
  +--> pwm_init/zf_pwm

Brushless_Init/brushless                      ----- -----
  +--> pwm_init/zf_pwm

OLED_Init/oled                                ----- -----
  +--> delay_ms/zf_delay
  +--> OLED_WR_Byte/oled
  +--> OLED_Clear/oled
  +--> OLED_Set_Pos/oled

delay_ms/zf_delay                             ----- -----

OLED_WR_Byte/oled                             ----- -----

OLED_Clear/oled                               ----- -----
  +--> OLED_WR_Byte/oled

OLED_Set_Pos/oled                             ----- -----
  +--> OLED_WR_Byte/oled

Timer4_Init/timer                             ----- -----
  +--> pit_timer_ms/zf_tim

L251 LINKER/LOCATER V4.66.93.0                                                        05/03/2023  20:46:59  PAGE 14


pit_timer_ms/zf_tim                           ----- -----
  +--> ?C?SLDIV/?C?SLDIV

send_four_data/host                           07A1H 07B4H
  +--> uart_putchar/zf_uart

uart_putchar/zf_uart                          ----- -----

*** NEW ROOT ********************************

?C_C51STARTUP?2                               ----- -----



PUBLIC SYMBOLS OF MODULE:  .\Out_File\SEEKFREE (board)


      VALUE       CLASS    TYPE      PUBLIC SYMBOL NAME
      =================================================
      00000793H   EDATA    BYTE      ?ADC_error_processing?BYTE
      00FF311EH   CODE     NEAR LAB  ?C?CASTF
      000000FFH   NUMBER   ---       ?C?CODESEG
      00FF30EBH   CODE     NEAR LAB  ?C?FCASTC
      00FF30E6H   CODE     NEAR LAB  ?C?FCASTI
      00FF30E1H   CODE     NEAR LAB  ?C?FCASTL
      00FF375BH   CODE     ---       ?C?FP2SERIES
      00FF2EB4H   CODE     ---       ?C?FPADD
      00FF308FH   CODE     ---       ?C?FPCMP
      00FF308DH   CODE     ---       ?C?FPCMP3
      00FF3796H   CODE     ---       ?C?FPCONVERT
      00FF300CH   CODE     ---       ?C?FPDIV
      00FF32CEH   CODE     ---       ?C?FPGETOPN2
      00FF2F6CH   CODE     ---       ?C?FPMUL
      00FF330BH   CODE     ---       ?C?FPNANRESULT
      00FF30D3H   CODE     ---       ?C?FPNEG
      00FF3313H   CODE     ---       ?C?FPOVERFLOW
      00FF32E7H   CODE     ---       ?C?FPRESULT
      00FF32FDH   CODE     ---       ?C?FPRESULT2
      00FF384EH   CODE     ---       ?C?FPROUND
      00FF3764H   CODE     ---       ?C?FPSERIES
      00FF2EB1H   CODE     ---       ?C?FPSUB
      00FF3310H   CODE     ---       ?C?FPUNDERFLOW
      00FF38C1H   CODE     ---       ?C?FTNPWR
      00FF5742H   CODE     ---       ?C?INITEDATA
      00FF6B19H   HCONST   WORD      ?C?INITEDATA_END
      00FF393BH   CODE     ---       ?C?LIMUL
      00FF392AH   CODE     ---       ?C?LMUL
      00FF334CH   CODE     ---       ?C?PRNFMT
      00FF38F8H   CODE     ---       ?C?SIDIV
      00FF3997H   CODE     NEAR LAB  ?C?SLDIV
      00FF0000H   CODE     ---       ?C?STARTUP
      00FF3946H   CODE     NEAR LAB  ?C?ULDIV
      00FF3944H   CODE     NEAR LAB  ?C?ULIDIV
      00000001H   NUMBER   ---       ?C?XDATASEG
      00FF0000H   CODE     ---       ?C_STARTUP
      00000793H   EDATA    BYTE      ?Correct_Angle?BYTE
*DEL*:1FFFFFF8H   EDATA    BYTE      ?data_conversion?BYTE
*DEL*:1FFFFFF8H   EDATA    BYTE      ?fifo_init?BYTE
*DEL*:1FFFFFFCH   EDATA    BYTE      ?fifo_read_buffer?BYTE
      0000078BH   EDATA    BYTE      ?fifo_write_buffer?BYTE
*DEL*:1FFFFFFAH   EDATA    BYTE      ?iic_init?BYTE
*DEL*:1FFFFFFCH   EDATA    BYTE      ?ips114_showfloat?BYTE
*DEL*:1FFFFFFCH   EDATA    BYTE      ?ips114_showfloat_simspi?BYTE
*DEL*:1FFFFFF8H   EDATA    BYTE      ?Motor_PID_Control?BYTE
*DEL*:1FFFFFF7H   EDATA    BYTE      ?number_conversion_ascii?BYTE
L251 LINKER/LOCATER V4.66.93.0                                                        05/03/2023  20:46:59  PAGE 15


*DEL*:1FFFFFF8H   EDATA    BYTE      ?pid_calc?BYTE
      00000799H   EDATA    BYTE      ?PID_struct_init?BYTE
*DEL*:1FFFFFF8H   EDATA    BYTE      ?position_pid_calc?BYTE
*DEL*:00000028H   EDATA    ---       ?printf?BYTE
*DEL*:1FFFFFFAH   EDATA    BYTE      ?pwm_freq?BYTE
      0000079FH   EDATA    BYTE      ?pwm_init?BYTE
*DEL*:1FFFFFF7H   EDATA    BYTE      ?spi_init?BYTE
      0000079BH   EDATA    BYTE      ?uart_init?BYTE
*DEL*:00000028H   EDATA    BYTE      ?zf_sprintf?BYTE
*DEL*:00000000H   CODE     ---       abs_limit
      000007DBH   EDATA    INT       adc1
      000007DDH   EDATA    INT       adc2
      000007DFH   EDATA    INT       adc3
      000007E1H   EDATA    INT       adc4
      000007E3H   EDATA    INT       adc5
      000007E5H   EDATA    INT       adc6
      000007E7H   EDATA    INT       adc7
      000007E9H   EDATA    INT       adc8
*SFR* 000000BCH   DATA     BYTE      ADC_CONTR
      00000650H   EDATA    FLOAT     adc_err
      00000654H   EDATA    ---       adc_err_array
      00000647H   EDATA    FLOAT     ADC_error_a
*DEL*:00000000H   CODE     ---       ADC_error_acceleration
      00FF503FH   CODE     ---       ADC_error_processing
      00FF59F0H   CODE     ---       ADC_error_weight_filtering
      00FF5299H   CODE     ---       ADC_error_window_filtering
      00FF51DEH   CODE     ---       adc_init
      00FF553DH   CODE     ---       adc_mean_filter
      00FF5994H   CODE     ---       adc_once
*SFR* 000000BDH   DATA     BYTE      ADC_RES
*SFR* 000000BEH   DATA     BYTE      ADC_RESL
*SFR* 000000DEH   DATA     BYTE      ADCCFG
*DEL*:00000000H   CODE     ---       Akeman_Control
      00000627H   EDATA    ---       akeman_left
      0000066AH   EDATA    ---       akeman_right
      0000083EH   EDATA    FLOAT     angle_limit
*DEL*:00000000H   CODE     ---       at24c02_read_byte
*DEL*:00000000H   CODE     ---       at24c02_read_bytes
*DEL*:00000000H   CODE     ---       at24c02_write_byte
*DEL*:00000000H   CODE     ---       at24c02_write_bytes
*SFR* 000000EFH   DATA     BYTE      AUXINTIF
*SFR* 0000008EH   DATA     BYTE      AUXR
*SFR* 00000097H   DATA     BYTE      AUXR2
*DEL*:00000000H   CODE     ---       bluetooth_ch9141_init
*DEL*:00000000H   CODE     ---       bluetooth_ch9141_read_buff
*DEL*:00000000H   CODE     ---       bluetooth_ch9141_send_buff
      00FF5C5BH   CODE     ---       bluetooth_ch9141_uart_callback
      00FF4D87H   CODE     ---       board_init
      00FF5ABFH   CODE     ---       Brushless_Init
      00000592H   EDATA    ---       busy
*SFR* 000000F1H   DATA     BYTE      CANICR
*DEL*:00000000H   CODE     ---       ccd_collect
      000003CAH   EDATA    ---       ccd_data
*DEL*:00000000H   CODE     ---       ccd_init
*DEL*:00000000H   CODE     ---       ccd_send_data
*SFR* 000000EAH   DATA     BYTE      CKCON
*SFR* 000000E6H   DATA     BYTE      CMPCR1
*SFR* 000000E7H   DATA     BYTE      CMPCR2
      00FF5118H   CODE     ---       Correct_Angle
      00FF31DEH   CODE     ---       COS?_
*DEL*:00000000H   CODE     ---       CRC_CHECK
*DEL*:00000000H   CODE     ---       ctimer_count_clean
      00FF558AH   CODE     ---       ctimer_count_init
*DEL*:00000000H   CODE     ---       ctimer_count_read
*DEL*:00000000H   CODE     ---       data_conversion
L251 LINKER/LOCATER V4.66.93.0                                                        05/03/2023  20:46:59  PAGE 16


      00FF5860H   CODE     ---       delay_init
      00FF5CBEH   CODE     ---       delay_ms
      00FF5C42H   CODE     ---       delay_us
      0000063FH   EDATA    INT       Dir_judge_flag
      00FF4A36H   CODE     ---       Direct_judge
*DEL*:00000000H   CODE     ---       DisableGlobalIRQ
      00000842H   EDATA    WORD      dl1a_distance_mm
      00000844H   EDATA    BYTE      dl1a_finsh_flag
*DEL*:00000000H   CODE     ---       dl1a_get_distance
*DEL*:00000000H   CODE     ---       dl1a_init
*SFR* 000000A8H.7 DATA     BIT       EA
*SFR* 000000BAH.7 DATA     BIT       EAXFR
      00FF5CEBH   CODE     ---       eeprom_trig
      00FF000EH   CODE     ---       EnableGlobalIRQ
*DEL*:00000000H   CODE     ---       encoder_angle_simspi
*DEL*:00000000H   CODE     ---       encoder_angle_spi
*DEL*:00000000H   CODE     ---       Encoder_Clear
      00FF0006H   CODE     ---       encoder_delay_us
*DEL*:00000000H   CODE     ---       encoder_init_simspi
*DEL*:00000000H   CODE     ---       encoder_init_spi
*DEL*:00000000H   CODE     ---       Encoder_Read
*DEL*:00000000H   CODE     ---       encoder_self4_check
*DEL*:00000000H   CODE     ---       encoder_self5_check
*DEL*:00000000H   CODE     ---       encoder_simspi_r_reg_byte
*DEL*:00000000H   CODE     ---       encoder_simspi_w_reg_byte
*DEL*:00000000H   CODE     ---       encoder_spi_r_reg_byte
*DEL*:00000000H   CODE     ---       encoder_spi_w_reg_byte
*SFR* 000000A8H.4 DATA     BIT       ES
*SFR* 000000A8H.1 DATA     BIT       ET0
*SFR* 000000A8H.3 DATA     BIT       ET1
*SFR* 000000A8H.0 DATA     BIT       EX0
*SFR* 000000A8H.2 DATA     BIT       EX1
*DEL*:00000000H   CODE     ---       exit_init
*DEL*:00000000H   CODE     ---       extern_iap_write_bytes
*SFR* 000000D0H.5 DATA     BIT       F0
      00FF5E2CH   HCONST   ---       F6x8
      00FF6054H   HCONST   ---       F8X16
      00FF3187H   CODE     NEAR LAB  fabs?_
*DEL*:00000000H   CODE     ---       fifo_clear
*DEL*:00000000H   CODE     ---       fifo_end_offset
      00FF56EDH   CODE     ---       fifo_head_offset
*DEL*:00000000H   CODE     ---       fifo_init
*DEL*:00000000H   CODE     ---       fifo_read_buffer
*DEL*:00000000H   CODE     ---       fifo_used
      00FF47B3H   CODE     ---       fifo_write_buffer
      00FF39CBH   CODE     ---       gpio_mode
*DEL*:00000000H   CODE     ---       gpio_pull_set
      00000008H   EDATA    ---       Hzk
*SFR* 000000F6H   DATA     BYTE      IAP_ADDRE
*SFR* 000000C3H   DATA     BYTE      IAP_ADDRH
*SFR* 000000C4H   DATA     BYTE      IAP_ADDRL
*SFR* 000000C5H   DATA     BYTE      IAP_CMD
*SFR* 000000C7H   DATA     BYTE      IAP_CONTR
*SFR* 000000C2H   DATA     BYTE      IAP_DATA
*DEL*:00000000H   CODE     ---       iap_erase_page
*DEL*:00000000H   CODE     ---       iap_get_cmd_state
*DEL*:00000000H   CODE     ---       iap_idle
*DEL*:00000000H   CODE     ---       iap_init
*DEL*:00000000H   CODE     ---       iap_read_bytes
*DEL*:00000000H   CODE     ---       iap_set_tps
*SFR* 000000F5H   DATA     BYTE      IAP_TPS
*SFR* 000000C6H   DATA     BYTE      IAP_TRIG
*DEL*:00000000H   CODE     ---       iap_write_bytes
*DEL*:00000000H   CODE     ---       icm20602_acc_transition
      000007EBH   EDATA    INT       icm20602_acc_x
L251 LINKER/LOCATER V4.66.93.0                                                        05/03/2023  20:46:59  PAGE 17


      000007EDH   EDATA    INT       icm20602_acc_y
      000007EFH   EDATA    INT       icm20602_acc_z
*DEL*:00000000H   CODE     ---       icm20602_get_acc
*DEL*:00000000H   CODE     ---       icm20602_get_gyro
*DEL*:00000000H   CODE     ---       icm20602_gyro_transition
      000007F1H   EDATA    INT       icm20602_gyro_x
      000007F3H   EDATA    INT       icm20602_gyro_y
      000007F5H   EDATA    INT       icm20602_gyro_z
*DEL*:00000000H   CODE     ---       icm20602_init
*SFR* 000000A8H   DATA     BYTE      IE
*SFR* 000000AFH   DATA     BYTE      IE2
*DEL*:00000000H   CODE     ---       iic_change_pin
      00FF5D00H   CODE     ---       iic_delay_us
*DEL*:00000000H   CODE     ---       iic_init
*DEL*:00000000H   CODE     ---       iic_read_reg
*DEL*:00000000H   CODE     ---       iic_read_reg_bytes
*DEL*:00000000H   CODE     ---       iic_write_reg
*DEL*:00000000H   CODE     ---       imu660ra_acc_transition
      000007F7H   EDATA    INT       imu660ra_acc_x
      000007F9H   EDATA    INT       imu660ra_acc_y
      000007FBH   EDATA    INT       imu660ra_acc_z
      00FF00A6H   CODE     ---       imu660ra_config_file
*DEL*:00000000H   CODE     ---       imu660ra_get_acc
*DEL*:00000000H   CODE     ---       imu660ra_get_gyro
*DEL*:00000000H   CODE     ---       imu660ra_gyro_transition
      000007FDH   EDATA    INT       imu660ra_gyro_x
      000007FFH   EDATA    INT       imu660ra_gyro_y
      00000801H   EDATA    INT       imu660ra_gyro_z
*DEL*:00000000H   CODE     ---       imu660ra_init
*DEL*:00000000H   CODE     ---       imu963ra_acc_transition
      000007C9H   EDATA    INT       imu963ra_acc_x
      000007CBH   EDATA    INT       imu963ra_acc_y
      000007CDH   EDATA    INT       imu963ra_acc_z
*DEL*:00000000H   CODE     ---       imu963ra_get_acc
*DEL*:00000000H   CODE     ---       imu963ra_get_gyro
*DEL*:00000000H   CODE     ---       imu963ra_get_mag
*DEL*:00000000H   CODE     ---       imu963ra_gyro_transition
      000007D5H   EDATA    INT       imu963ra_gyro_x
      000007D7H   EDATA    INT       imu963ra_gyro_y
      000007D9H   EDATA    INT       imu963ra_gyro_z
*DEL*:00000000H   CODE     ---       imu963ra_init
*DEL*:00000000H   CODE     ---       imu963ra_mag_transition
      000007CFH   EDATA    INT       imu963ra_mag_x
      000007D1H   EDATA    INT       imu963ra_mag_y
      000007D3H   EDATA    INT       imu963ra_mag_z
      00FF5E25H   CODE     ---       INT0_Isr
      00FF0011H   CODE     ---       INT1_Isr
      00FF5DFDH   CODE     ---       INT2_Isr
      00FF5E05H   CODE     ---       INT3_Isr
      00FF5E0DH   CODE     ---       INT4_Isr
*SFR* 0000008FH   DATA     BYTE      INTCLKO
*SFR* 000000B8H   DATA     BYTE      IP
*SFR* 000000B5H   DATA     BYTE      IP2
*SFR* 000000B6H   DATA     BYTE      IP2H
*SFR* 000000DFH   DATA     BYTE      IP3
*SFR* 000000EEH   DATA     BYTE      IP3H
*SFR* 000000B7H   DATA     BYTE      IPH
*DEL*:00000000H   CODE     ---       ips114_clear
*DEL*:00000000H   CODE     ---       ips114_clear_simspi
*DEL*:00000000H   CODE     ---       ips114_drawpoint
*DEL*:00000000H   CODE     ---       ips114_drawpoint_simspi
*DEL*:00000000H   CODE     ---       ips114_init
*DEL*:00000000H   CODE     ---       ips114_init_simspi
*DEL*:00000000H   CODE     ---       ips114_set_region
*DEL*:00000000H   CODE     ---       ips114_set_region_simspi
L251 LINKER/LOCATER V4.66.93.0                                                        05/03/2023  20:46:59  PAGE 18


*DEL*:00000000H   CODE     ---       ips114_showchar
*DEL*:00000000H   CODE     ---       ips114_showchar_simspi
*DEL*:00000000H   CODE     ---       ips114_showfloat
*DEL*:00000000H   CODE     ---       ips114_showfloat_simspi
*DEL*:00000000H   CODE     ---       ips114_showint16
*DEL*:00000000H   CODE     ---       ips114_showint16_simspi
*DEL*:00000000H   CODE     ---       ips114_showint32
*DEL*:00000000H   CODE     ---       ips114_showint32_simspi
*DEL*:00000000H   CODE     ---       ips114_showint8
*DEL*:00000000H   CODE     ---       ips114_showint8_simspi
*DEL*:00000000H   CODE     ---       ips114_showstr
*DEL*:00000000H   CODE     ---       ips114_showstr_simspi
*DEL*:00000000H   CODE     ---       ips114_showuint16
*DEL*:00000000H   CODE     ---       ips114_showuint16_simspi
*DEL*:00000000H   CODE     ---       ips114_showuint8
*DEL*:00000000H   CODE     ---       ips114_showuint8_simspi
*DEL*:00000000H   CODE     ---       ips114_writeData
      00FF5BCCH   CODE     ---       ips114_writedata_16bit
*DEL*:00000000H   CODE     ---       ips114_writeData_simspi
      00FF5A1EH   CODE     ---       ips114_writeDatai_16bit_simspi
      00FF5DE2H   CODE     ---       ips114_writeIndex
      00FF5A4AH   CODE     ---       ips114_writeIndex_simspi
*SFR* 0000009DH   DATA     BYTE      IRCBAND
*SFR* 0000009FH   DATA     BYTE      IRTRIM
*SFR* 00000088H.0 DATA     BIT       IT0
*SFR* 00000088H.2 DATA     BIT       IT1
*DEL*:00000000H   CODE     ---       Key_Scan
*SFR* 000000F9H   DATA     BYTE      LINICR
      00FF4EAFH   CODE     ---       lost_line_judge
      00FF523CH   CODE     ---       lostline_deal
      00000641H   EDATA    INT       lostline_dir
      00000668H   EDATA    INT       lostline_flag
      00FF4B9FH   CODE     ---       main
      00FF5A9AH   CODE     ---       memcpy?_
*DEL*:00000000H   CODE     ---       memset?_
      00FF4C48H   CODE     ---       Motor_Control
      00FF54A0H   CODE     ---       Motor_Init
*DEL*:00000000H   CODE     ---       Motor_PID_Control
*DEL*:00000000H   CODE     ---       Motor_Shut
      00000803H   EDATA    INT       mpu6050_acc_x
      00000805H   EDATA    INT       mpu6050_acc_y
      00000807H   EDATA    INT       mpu6050_acc_z
*DEL*:00000000H   CODE     ---       mpu6050_get_accdata
*DEL*:00000000H   CODE     ---       mpu6050_get_gyro
      00000809H   EDATA    INT       mpu6050_gyro_x
      0000080BH   EDATA    INT       mpu6050_gyro_y
      0000080DH   EDATA    INT       mpu6050_gyro_z
*DEL*:00000000H   CODE     ---       mpu6050_init
*DEL*:00000000H   CODE     ---       mpu6050_simiic_read_reg
*DEL*:00000000H   CODE     ---       mpu6050_simiic_read_regs
      00FF55D4H   CODE     ---       My_Adc_Init
*DEL*:00000000H   CODE     ---       number_conversion_ascii
*DEL*:00000000H   CODE     ---       NVIC_SetPriority
      00FF2C86H   CODE     ---       oled_6x8
      00FF20A6H   CODE     ---       oled_8x16
      00FF5902H   CODE     ---       OLED_Clear
*SFR* 00000080H.2 DATA     BIT       OLED_CS
*SFR* 000000C8H.2 DATA     BIT       OLED_DC
*DEL*:00000000H   CODE     ---       OLED_Display_Off
*DEL*:00000000H   CODE     ---       OLED_Display_On
*DEL*:00000000H   CODE     ---       OLED_DrawBMP
      00FF4AF1H   CODE     ---       OLED_Init
*DEL*:00000000H   CODE     ---       oled_pow
*SFR* 000000C8H.1 DATA     BIT       OLED_RST
*SFR* 000000B0H.7 DATA     BIT       OLED_SCL
L251 LINKER/LOCATER V4.66.93.0                                                        05/03/2023  20:46:59  PAGE 19


*SFR* 000000B0H.6 DATA     BIT       OLED_SDIN
      00FF5A73H   CODE     ---       OLED_Set_Pos
*DEL*:00000000H   CODE     ---       OLED_ShowChar
*DEL*:00000000H   CODE     ---       OLED_ShowCHinese
*DEL*:00000000H   CODE     ---       OLED_ShowNum
*DEL*:00000000H   CODE     ---       OLED_ShowString
      00FF52F4H   CODE     ---       OLED_WR_Byte
      0000063BH   EDATA    FLOAT     order_angle
      00000643H   EDATA    FLOAT     order_speed
*SFR* 00000080H   DATA     BYTE      P0
*SFR* 00000080H.7 DATA     BIT       P07
*SFR* 00000094H   DATA     BYTE      P0M0
*SFR* 00000093H   DATA     BYTE      P0M1
*SFR* 00000090H   DATA     BYTE      P1
*SFR* 00000092H   DATA     BYTE      P1M0
*SFR* 00000091H   DATA     BYTE      P1M1
*SFR* 000000A0H   DATA     BYTE      P2
*SFR* 000000A0H.0 DATA     BIT       P20
*SFR* 000000A0H.1 DATA     BIT       P21
*SFR* 000000A0H.2 DATA     BIT       P22
*SFR* 000000A0H.3 DATA     BIT       P23
*SFR* 000000A0H.4 DATA     BIT       P24
*SFR* 000000A0H.5 DATA     BIT       P25
*SFR* 000000A0H.6 DATA     BIT       P26
*SFR* 000000A0H.7 DATA     BIT       P27
*SFR* 00000096H   DATA     BYTE      P2M0
*SFR* 00000095H   DATA     BYTE      P2M1
*SFR* 000000B0H   DATA     BYTE      P3
*SFR* 000000B0H.2 DATA     BIT       P32
*SFR* 000000B0H.3 DATA     BIT       P33
*SFR* 000000B0H.5 DATA     BIT       P35
*SFR* 000000B2H   DATA     BYTE      P3M0
*SFR* 000000B1H   DATA     BYTE      P3M1
*SFR* 000000C0H   DATA     BYTE      P4
*SFR* 000000C0H.0 DATA     BIT       P40
*SFR* 000000C0H.1 DATA     BIT       P41
*SFR* 000000C0H.2 DATA     BIT       P42
*SFR* 000000C0H.3 DATA     BIT       P43
*SFR* 000000C0H.4 DATA     BIT       P44
*SFR* 000000C0H.5 DATA     BIT       P45
*SFR* 000000B4H   DATA     BYTE      P4M0
*SFR* 000000B3H   DATA     BYTE      P4M1
*SFR* 000000C8H   DATA     BYTE      P5
*SFR* 000000C8H.0 DATA     BIT       P50
*SFR* 000000C8H.3 DATA     BIT       P53
*SFR* 000000CAH   DATA     BYTE      P5M0
*SFR* 000000C9H   DATA     BYTE      P5M1
*SFR* 000000E8H   DATA     BYTE      P6
*SFR* 000000CCH   DATA     BYTE      P6M0
*SFR* 000000CBH   DATA     BYTE      P6M1
*SFR* 000000F8H   DATA     BYTE      P7
*SFR* 000000F8H.0 DATA     BIT       P70
*SFR* 000000F8H.1 DATA     BIT       P71
*SFR* 000000F8H.2 DATA     BIT       P72
*SFR* 000000F8H.3 DATA     BIT       P73
*SFR* 000000E2H   DATA     BYTE      P7M0
*SFR* 000000E1H   DATA     BYTE      P7M1
*SFR* 000000A2H   DATA     BYTE      P_SW1
*SFR* 000000BAH   DATA     BYTE      P_SW2
*SFR* 000000BBH   DATA     BYTE      P_SW3
*SFR* 00000087H   DATA     BYTE      PCON
*DEL*:00000000H   CODE     ---       pid_calc
*DEL*:00000000H   CODE     ---       pid_clear_integral
      0000064FH   EDATA    BYTE      pid_flag
      000005DFH   EDATA    ---       pid_left_
L251 LINKER/LOCATER V4.66.93.0                                                        05/03/2023  20:46:59  PAGE 20


*DEL*:00000000H   CODE     ---       PID_off
*DEL*:00000000H   CODE     ---       PID_on
      00000597H   EDATA    ---       pid_right_
      00FF517FH   CODE     ---       PID_struct_init
      00FF4E1BH   CODE     ---       pit_timer_ms
*DEL*:00000000H   CODE     ---       position_pid_calc
      00FF315BH   CODE     NEAR LAB  printf
*DEL*:00000000H   CODE     ---       printf_reverse_order
*SFR* 000000D0H   DATA     BYTE      PSW
      0000083CH   EDATA    INT       pulse_left
      0000083AH   EDATA    INT       pulse_right
      00FF5DAEH   CODE     ---       putchar
      00FF6B3BH   HCONST   ---       PWM_ARR_ADDR
      00FF6B43H   HCONST   ---       PWM_CCER_ADDR
      00FF6B53H   HCONST   ---       PWM_CCMR_ADDR
      00FF6B1BH   HCONST   ---       PWM_CCR_ADDR
      00FF496EH   CODE     ---       pwm_duty
*DEL*:00000000H   CODE     ---       pwm_freq
      00FF3DC2H   CODE     ---       pwm_init
      00FF40BEH   CODE     ---       pwm_set_gpio
      00FF4FC6H   CODE     ---       Read_Adc_Value
*DEL*:00000000H   CODE     ---       recv_ack
*DEL*:00000000H   CODE     ---       recv_data
      0000064DH   EDATA    INT       Roundabout_flag
*SFR* 000000FFH   DATA     BYTE      RSTCFG
*SFR* 0000009BH   DATA     BYTE      S2BUF
*SFR* 0000009AH   DATA     BYTE      S2CON
*SFR* 000000ADH   DATA     BYTE      S3BUF
*SFR* 000000ACH   DATA     BYTE      S3CON
*SFR* 000000FEH   DATA     BYTE      S4BUF
*SFR* 000000FDH   DATA     BYTE      S4CON
*SFR* 00000099H   DATA     BYTE      SBUF
*SFR* 00000098H   DATA     BYTE      SCON
*DEL*:00000000H   CODE     ---       send_ack
*DEL*:00000000H   CODE     ---       send_data
      00FF4F41H   CODE     ---       send_four_data
*DEL*:00000000H   CODE     ---       send_nak
*DEL*:00000000H   CODE     ---       Set_Brushless_Output
      00FF4691H   CODE     ---       set_clk
*DEL*:00000000H   CODE     ---       set_zero_position_simspi
*DEL*:00000000H   CODE     ---       set_zero_position_spi
      000003C8H   EDATA    BYTE      show_mode
*DEL*:00000000H   CODE     ---       simspi_r_reg_byte
*DEL*:00000000H   CODE     ---       simspi_w_reg_byte
*DEL*:00000000H   CODE     ---       simspi_wr_byte
      00FF31FBH   CODE     ---       SIN?_
*SFR* 000000CEH   DATA     BYTE      SPCTL
*SFR* 000000CFH   DATA     BYTE      SPDAT
*DEL*:00000000H   CODE     ---       spi_change_mode
*DEL*:00000000H   CODE     ---       spi_change_pin
*DEL*:00000000H   CODE     ---       spi_init
      00FF5DBCH   CODE     ---       spi_mosi
*DEL*:00000000H   CODE     ---       spi_r_reg_byte
*DEL*:00000000H   CODE     ---       spi_w_reg_byte
*DEL*:00000000H   CODE     ---       spi_wr_byte
*SFR* 000000CDH   DATA     BYTE      SPSTAT
*DEL*:00000000H   CODE     ---       start
      00FF5D28H   CODE     ---       Steer_Init
      00FF4CEDH   CODE     ---       Steer_Spin
      00FF5BACH   CODE     ---       Steer_Spin_limit
*DEL*:00000000H   CODE     ---       stop
      0000082AH   EDATA    LONG      sys_clk
*SFR* 000000D6H   DATA     BYTE      T2H
*SFR* 000000D7H   DATA     BYTE      T2L
*SFR* 000000D4H   DATA     BYTE      T3H
L251 LINKER/LOCATER V4.66.93.0                                                        05/03/2023  20:46:59  PAGE 21


*SFR* 000000D5H   DATA     BYTE      T3L
*SFR* 000000D2H   DATA     BYTE      T4H
*SFR* 000000D3H   DATA     BYTE      T4L
*SFR* 000000DDH   DATA     BYTE      T4T3M
      00FF3228H   CODE     ---       tan?_
*SFR* 00000088H   DATA     BYTE      TCON
      00FF2696H   CODE     ---       tft_ascii
*SFR* 0000008CH   DATA     BYTE      TH0
*SFR* 0000008DH   DATA     BYTE      TH1
      00FF5DECH   CODE     ---       Timer4_Init
*SFR* 0000008AH   DATA     BYTE      TL0
*SFR* 0000008BH   DATA     BYTE      TL1
      00FF0012H   CODE     ---       TM0_Isr
      00FF0016H   CODE     ---       TM1_Isr
      00FF5E15H   CODE     ---       TM2_Isr
      00FF5E1DH   CODE     ---       TM3_Isr
      00FF451EH   CODE     ---       TM4_Isr
*SFR* 00000089H   DATA     BYTE      TMOD
*SFR* 00000088H.4 DATA     BIT       TR0
*SFR* 00000088H.6 DATA     BIT       TR1
      000003C9H   EDATA    BYTE      tsl1401_finish_flag
      00FF57ACH   CODE     ---       UART1_Isr
      000004CAH   EDATA    ---       uart1_rx_buff
      0000052EH   EDATA    ---       uart1_tx_buff
      00FF5BEBH   CODE     ---       UART2_Isr
      00FF5C09H   CODE     ---       UART3_Isr
      00FF50AFH   CODE     ---       UART4_Isr
      00FF435FH   CODE     ---       uart_init
*DEL*:00000000H   CODE     ---       uart_putbuff
      00FF53A6H   CODE     ---       uart_putchar
*DEL*:00000000H   CODE     ---       uart_putstr
*SFR* 000000F4H   DATA     BYTE      USBCON
      0000080FH   EDATA    ---       virtual_scope_data
*SFR* 000000A6H   DATA     BYTE      VRTRIM
      00FF5664H   CODE     ---       wait
*SFR* 000000C1H   DATA     BYTE      WDT_CONTR
      0000064BH   EDATA    INT       window_flag
      00FF5C8DH   CODE     ---       wireless_ch573_callback
*DEL*:00000000H   CODE     ---       wireless_ch573_init
*DEL*:00000000H   CODE     ---       wireless_ch573_read_buff
*DEL*:00000000H   CODE     ---       wireless_ch573_send_buff
      00000845H   EDATA    INT       wireless_type
      00FF5C74H   CODE     ---       wireless_uart_callback
*DEL*:00000000H   CODE     ---       wireless_uart_init
*DEL*:00000000H   CODE     ---       wireless_uart_read_buff
*DEL*:00000000H   CODE     ---       wireless_uart_send_buff
*SFR* 000000E9H   DATA     BYTE      WTST
      0000082EH   EDATA    WORD      zf_delay_ms
      00000830H   EDATA    WORD      zf_delay_us
*DEL*:00000000H   CODE     ---       zf_sprintf



SYMBOL TABLE OF MODULE:  .\Out_File\SEEKFREE (board)

      VALUE       REP       CLASS    TYPE      SYMBOL NAME
      ====================================================
      ---         MODULE    ---      ---       board
      00FF000EH   PUBLIC    CODE     ---       EnableGlobalIRQ
      00FF4D87H   PUBLIC    CODE     ---       board_init
      00FF4691H   PUBLIC    CODE     ---       set_clk
      00FF5DAEH   PUBLIC    CODE     ---       putchar
      0000082AH   PUBLIC    EDATA    LONG      sys_clk
      00000094H   SFRSYM    DATA     BYTE      P0M0
      000000D0H   SFRSYM    DATA     BYTE      PSW
L251 LINKER/LOCATER V4.66.93.0                                                        05/03/2023  20:46:59  PAGE 22


      000000BAH.7 SFRSYM    DATA     BIT       EAXFR
      0000009DH   SFRSYM    DATA     BYTE      IRCBAND
      00000097H   SFRSYM    DATA     BYTE      AUXR2
      000000EAH   SFRSYM    DATA     BYTE      CKCON
      000000EFH   SFRSYM    DATA     BYTE      AUXINTIF
      000000FDH   SFRSYM    DATA     BYTE      S4CON
      000000ACH   SFRSYM    DATA     BYTE      S3CON
      0000009AH   SFRSYM    DATA     BYTE      S2CON
      000000A6H   SFRSYM    DATA     BYTE      VRTRIM
      000000B7H   SFRSYM    DATA     BYTE      IPH
      000000CDH   SFRSYM    DATA     BYTE      SPSTAT
      000000DDH   SFRSYM    DATA     BYTE      T4T3M
      0000009FH   SFRSYM    DATA     BYTE      IRTRIM
      000000C1H   SFRSYM    DATA     BYTE      WDT_CONTR
      000000E9H   SFRSYM    DATA     BYTE      WTST
      000000DFH   SFRSYM    DATA     BYTE      IP3
      000000F4H   SFRSYM    DATA     BYTE      USBCON
      000000B5H   SFRSYM    DATA     BYTE      IP2
      000000FFH   SFRSYM    DATA     BYTE      RSTCFG
      000000F9H   SFRSYM    DATA     BYTE      LINICR
      0000008EH   SFRSYM    DATA     BYTE      AUXR
      000000AFH   SFRSYM    DATA     BYTE      IE2
      00000088H   SFRSYM    DATA     BYTE      TCON
      00000089H   SFRSYM    DATA     BYTE      TMOD
      00000098H   SFRSYM    DATA     BYTE      SCON
      000000F1H   SFRSYM    DATA     BYTE      CANICR
      00000087H   SFRSYM    DATA     BYTE      PCON
      000000BCH   SFRSYM    DATA     BYTE      ADC_CONTR
      000000E7H   SFRSYM    DATA     BYTE      CMPCR2
      000000E6H   SFRSYM    DATA     BYTE      CMPCR1
      000000DEH   SFRSYM    DATA     BYTE      ADCCFG
      000000B8H   SFRSYM    DATA     BYTE      IP
      0000008FH   SFRSYM    DATA     BYTE      INTCLKO
      000000EEH   SFRSYM    DATA     BYTE      IP3H
      000000B6H   SFRSYM    DATA     BYTE      IP2H
      000000A8H   SFRSYM    DATA     BYTE      IE
      000000BBH   SFRSYM    DATA     BYTE      P_SW3
      000000BAH   SFRSYM    DATA     BYTE      P_SW2
      000000A2H   SFRSYM    DATA     BYTE      P_SW1
      000000CEH   SFRSYM    DATA     BYTE      SPCTL
      000000F8H   SFRSYM    DATA     BYTE      P7
      000000A8H.7 SFRSYM    DATA     BIT       EA
      000000E1H   SFRSYM    DATA     BYTE      P7M1
      000000E8H   SFRSYM    DATA     BYTE      P6
      000000C8H   SFRSYM    DATA     BYTE      P5
      000000CBH   SFRSYM    DATA     BYTE      P6M1
      000000E2H   SFRSYM    DATA     BYTE      P7M0
      000000C0H   SFRSYM    DATA     BYTE      P4
      000000C9H   SFRSYM    DATA     BYTE      P5M1
      000000CCH   SFRSYM    DATA     BYTE      P6M0
      000000B0H   SFRSYM    DATA     BYTE      P3
      000000B3H   SFRSYM    DATA     BYTE      P4M1
      000000CAH   SFRSYM    DATA     BYTE      P5M0
      000000A0H   SFRSYM    DATA     BYTE      P2
      000000B1H   SFRSYM    DATA     BYTE      P3M1
      000000B4H   SFRSYM    DATA     BYTE      P4M0
      00000090H   SFRSYM    DATA     BYTE      P1
      00000095H   SFRSYM    DATA     BYTE      P2M1
      000000B2H   SFRSYM    DATA     BYTE      P3M0
      00000080H   SFRSYM    DATA     BYTE      P0
      00000091H   SFRSYM    DATA     BYTE      P1M1
      00000096H   SFRSYM    DATA     BYTE      P2M0
      00000092H   SFRSYM    DATA     BYTE      P1M0
      00000093H   SFRSYM    DATA     BYTE      P0M1

L251 LINKER/LOCATER V4.66.93.0                                                        05/03/2023  20:46:59  PAGE 23


      00FF4691H   BLOCK     CODE     ---       LVL=0
      00FF4691H   LINE      CODE     ---       #43
      00FF4691H   LINE      CODE     ---       #46
      00FF4694H   LINE      CODE     ---       #48
      00FF46A4H   LINE      CODE     ---       #51
      00FF46B1H   LINE      CODE     ---       #52
      00FF46B5H   LINE      CODE     ---       #53
      00FF46B5H   LINE      CODE     ---       #54
      00FF46B5H   LINE      CODE     ---       #55
      00FF46B5H   LINE      CODE     ---       #56
      00FF46B7H   LINE      CODE     ---       #57
      00FF46C3H   LINE      CODE     ---       #60
      00FF46D0H   LINE      CODE     ---       #61
      00FF46D4H   LINE      CODE     ---       #62
      00FF46D4H   LINE      CODE     ---       #63
      00FF46D4H   LINE      CODE     ---       #64
      00FF46D4H   LINE      CODE     ---       #65
      00FF46D6H   LINE      CODE     ---       #66
      00FF46E2H   LINE      CODE     ---       #69
      00FF46EFH   LINE      CODE     ---       #70
      00FF46F3H   LINE      CODE     ---       #71
      00FF46F3H   LINE      CODE     ---       #72
      00FF46F3H   LINE      CODE     ---       #73
      00FF46F3H   LINE      CODE     ---       #74
      00FF46F5H   LINE      CODE     ---       #75
      00FF4701H   LINE      CODE     ---       #79
      00FF470EH   LINE      CODE     ---       #80
      00FF4712H   LINE      CODE     ---       #81
      00FF4712H   LINE      CODE     ---       #82
      00FF4712H   LINE      CODE     ---       #83
      00FF4712H   LINE      CODE     ---       #84
      00FF4714H   LINE      CODE     ---       #85
      00FF4720H   LINE      CODE     ---       #88
      00FF472DH   LINE      CODE     ---       #89
      00FF473AH   LINE      CODE     ---       #90
      00FF4743H   LINE      CODE     ---       #91
      00FF4746H   LINE      CODE     ---       #92
      00FF4746H   LINE      CODE     ---       #93
      00FF4748H   LINE      CODE     ---       #94
      00FF4754H   LINE      CODE     ---       #97
      00FF4761H   LINE      CODE     ---       #98
      00FF476EH   LINE      CODE     ---       #99
      00FF4777H   LINE      CODE     ---       #100
      00FF477AH   LINE      CODE     ---       #101
      00FF477EH   LINE      CODE     ---       #102
      00FF4780H   LINE      CODE     ---       #105
      00FF4784H   LINE      CODE     ---       #107
      00FF4791H   LINE      CODE     ---       #108
      00FF479EH   LINE      CODE     ---       #109
      00FF47A7H   LINE      CODE     ---       #110
      00FF47AAH   LINE      CODE     ---       #111
      00FF47AEH   LINE      CODE     ---       #112
      00FF47AEH   LINE      CODE     ---       #114
      00FF47B2H   LINE      CODE     ---       #115
      ---         BLOCKEND  ---      ---       LVL=0

      00FF4D87H   BLOCK     CODE     ---       LVL=0
      00FF4D87H   LINE      CODE     ---       #121
      00FF4D87H   LINE      CODE     ---       #123
      00FF4D8AH   LINE      CODE     ---       #124
      00FF4D8DH   LINE      CODE     ---       #125
      00FF4D90H   LINE      CODE     ---       #126
      00FF4D93H   LINE      CODE     ---       #127
      00FF4D96H   LINE      CODE     ---       #137
      00FF4D9DH   LINE      CODE     ---       #143
L251 LINKER/LOCATER V4.66.93.0                                                        05/03/2023  20:46:59  PAGE 24


      00FF4DA0H   LINE      CODE     ---       #145
      00FF4DA3H   LINE      CODE     ---       #146
      00FF4DA6H   LINE      CODE     ---       #147
      00FF4DB2H   LINE      CODE     ---       #149
      00FF4DB5H   LINE      CODE     ---       #150
      00FF4DB8H   LINE      CODE     ---       #151
      00FF4DBBH   LINE      CODE     ---       #152
      00FF4DBEH   LINE      CODE     ---       #153
      00FF4DC1H   LINE      CODE     ---       #154
      00FF4DC4H   LINE      CODE     ---       #155
      00FF4DC7H   LINE      CODE     ---       #156
      00FF4DCAH   LINE      CODE     ---       #157
      00FF4DCDH   LINE      CODE     ---       #158
      00FF4DD0H   LINE      CODE     ---       #159
      00FF4DD3H   LINE      CODE     ---       #160
      00FF4DD6H   LINE      CODE     ---       #161
      00FF4DD9H   LINE      CODE     ---       #162
      00FF4DDCH   LINE      CODE     ---       #163
      00FF4DDFH   LINE      CODE     ---       #164
      00FF4DE2H   LINE      CODE     ---       #166
      00FF4DE5H   LINE      CODE     ---       #167
      00FF4DE8H   LINE      CODE     ---       #168
      00FF4DEBH   LINE      CODE     ---       #169
      00FF4DEEH   LINE      CODE     ---       #170
      00FF4DF1H   LINE      CODE     ---       #171
      00FF4DF4H   LINE      CODE     ---       #172
      00FF4DF7H   LINE      CODE     ---       #173
      00FF4DFAH   LINE      CODE     ---       #174
      00FF4DFDH   LINE      CODE     ---       #176
      00FF4E18H   LINE      CODE     ---       #177
      ---         BLOCKEND  ---      ---       LVL=0

      00FF5DAEH   BLOCK     CODE     ---       LVL=0
      R15         REGSYM    ---      CHAR      c
      00FF5DAEH   LINE      CODE     ---       #183
      00FF5DB2H   LINE      CODE     ---       #185
      00FF5DB7H   LINE      CODE     ---       #187
      00FF5DB9H   LINE      CODE     ---       #188
      ---         BLOCKEND  ---      ---       LVL=0

      00FF000EH   BLOCK     CODE     ---       LVL=0
      00FF000EH   LINE      CODE     ---       #197
      00FF000EH   LINE      CODE     ---       #199
      00FF0010H   LINE      CODE     ---       #200
      ---         BLOCKEND  ---      ---       LVL=0

      ---         MODULE    ---      ---       common
      00000845H   PUBLIC    EDATA    INT       wireless_type
      000000D0H   SFRSYM    DATA     BYTE      PSW
      0000009DH   SFRSYM    DATA     BYTE      IRCBAND
      00000097H   SFRSYM    DATA     BYTE      AUXR2
      000000EFH   SFRSYM    DATA     BYTE      AUXINTIF
      000000FDH   SFRSYM    DATA     BYTE      S4CON
      000000ACH   SFRSYM    DATA     BYTE      S3CON
      0000009AH   SFRSYM    DATA     BYTE      S2CON
      000000B7H   SFRSYM    DATA     BYTE      IPH
      000000CDH   SFRSYM    DATA     BYTE      SPSTAT
      000000DDH   SFRSYM    DATA     BYTE      T4T3M
      000000C1H   SFRSYM    DATA     BYTE      WDT_CONTR
      000000DFH   SFRSYM    DATA     BYTE      IP3
      000000F4H   SFRSYM    DATA     BYTE      USBCON
      000000B5H   SFRSYM    DATA     BYTE      IP2
      000000FFH   SFRSYM    DATA     BYTE      RSTCFG
      000000F9H   SFRSYM    DATA     BYTE      LINICR
      0000008EH   SFRSYM    DATA     BYTE      AUXR
L251 LINKER/LOCATER V4.66.93.0                                                        05/03/2023  20:46:59  PAGE 25


      000000AFH   SFRSYM    DATA     BYTE      IE2
      00000088H   SFRSYM    DATA     BYTE      TCON
      00000098H   SFRSYM    DATA     BYTE      SCON
      000000F1H   SFRSYM    DATA     BYTE      CANICR
      00000087H   SFRSYM    DATA     BYTE      PCON
      000000BCH   SFRSYM    DATA     BYTE      ADC_CONTR
      000000E7H   SFRSYM    DATA     BYTE      CMPCR2
      000000E6H   SFRSYM    DATA     BYTE      CMPCR1
      000000B8H   SFRSYM    DATA     BYTE      IP
      0000008FH   SFRSYM    DATA     BYTE      INTCLKO
      000000EEH   SFRSYM    DATA     BYTE      IP3H
      000000B6H   SFRSYM    DATA     BYTE      IP2H
      000000A8H   SFRSYM    DATA     BYTE      IE
      000000BBH   SFRSYM    DATA     BYTE      P_SW3
      000000BAH   SFRSYM    DATA     BYTE      P_SW2
      000000A2H   SFRSYM    DATA     BYTE      P_SW1
      000000CEH   SFRSYM    DATA     BYTE      SPCTL
      000000F8H   SFRSYM    DATA     BYTE      P7
      000000E8H   SFRSYM    DATA     BYTE      P6
      000000C8H   SFRSYM    DATA     BYTE      P5
      000000C0H   SFRSYM    DATA     BYTE      P4
      000000B0H   SFRSYM    DATA     BYTE      P3
      000000A0H   SFRSYM    DATA     BYTE      P2
      00000090H   SFRSYM    DATA     BYTE      P1
      00000080H   SFRSYM    DATA     BYTE      P0

      ---         MODULE    ---      ---       zf_adc
      00FF5994H   PUBLIC    CODE     ---       adc_once
      00FF51DEH   PUBLIC    CODE     ---       adc_init
      00000094H   SFRSYM    DATA     BYTE      P0M0
      000000D0H   SFRSYM    DATA     BYTE      PSW
      0000009DH   SFRSYM    DATA     BYTE      IRCBAND
      00000097H   SFRSYM    DATA     BYTE      AUXR2
      000000EFH   SFRSYM    DATA     BYTE      AUXINTIF
      000000FDH   SFRSYM    DATA     BYTE      S4CON
      000000ACH   SFRSYM    DATA     BYTE      S3CON
      0000009AH   SFRSYM    DATA     BYTE      S2CON
      000000B7H   SFRSYM    DATA     BYTE      IPH
      000000CDH   SFRSYM    DATA     BYTE      SPSTAT
      000000BEH   SFRSYM    DATA     BYTE      ADC_RESL
      000000DDH   SFRSYM    DATA     BYTE      T4T3M
      000000C1H   SFRSYM    DATA     BYTE      WDT_CONTR
      000000DFH   SFRSYM    DATA     BYTE      IP3
      000000F4H   SFRSYM    DATA     BYTE      USBCON
      000000B5H   SFRSYM    DATA     BYTE      IP2
      000000FFH   SFRSYM    DATA     BYTE      RSTCFG
      000000F9H   SFRSYM    DATA     BYTE      LINICR
      0000008EH   SFRSYM    DATA     BYTE      AUXR
      000000AFH   SFRSYM    DATA     BYTE      IE2
      00000088H   SFRSYM    DATA     BYTE      TCON
      00000098H   SFRSYM    DATA     BYTE      SCON
      000000F1H   SFRSYM    DATA     BYTE      CANICR
      00000087H   SFRSYM    DATA     BYTE      PCON
      000000BCH   SFRSYM    DATA     BYTE      ADC_CONTR
      000000E7H   SFRSYM    DATA     BYTE      CMPCR2
      000000E6H   SFRSYM    DATA     BYTE      CMPCR1
      000000DEH   SFRSYM    DATA     BYTE      ADCCFG
      000000B8H   SFRSYM    DATA     BYTE      IP
      0000008FH   SFRSYM    DATA     BYTE      INTCLKO
      000000EEH   SFRSYM    DATA     BYTE      IP3H
      000000B6H   SFRSYM    DATA     BYTE      IP2H
      000000BDH   SFRSYM    DATA     BYTE      ADC_RES
      000000A8H   SFRSYM    DATA     BYTE      IE
      000000BBH   SFRSYM    DATA     BYTE      P_SW3
      000000BAH   SFRSYM    DATA     BYTE      P_SW2
L251 LINKER/LOCATER V4.66.93.0                                                        05/03/2023  20:46:59  PAGE 26


      000000A2H   SFRSYM    DATA     BYTE      P_SW1
      000000CEH   SFRSYM    DATA     BYTE      SPCTL
      000000F8H   SFRSYM    DATA     BYTE      P7
      000000E8H   SFRSYM    DATA     BYTE      P6
      000000C8H   SFRSYM    DATA     BYTE      P5
      000000C0H   SFRSYM    DATA     BYTE      P4
      000000B0H   SFRSYM    DATA     BYTE      P3
      000000A0H   SFRSYM    DATA     BYTE      P2
      00000090H   SFRSYM    DATA     BYTE      P1
      00000080H   SFRSYM    DATA     BYTE      P0
      00000091H   SFRSYM    DATA     BYTE      P1M1
      00000092H   SFRSYM    DATA     BYTE      P1M0
      00000093H   SFRSYM    DATA     BYTE      P0M1

      00FF51DEH   BLOCK     CODE     ---       LVL=0
      WR4         REGSYM    ---      INT       adcn
      WR2         REGSYM    ---      INT       speed
      00FF51DEH   LINE      CODE     ---       #32
      00FF51E2H   LINE      CODE     ---       #34
      00FF51E5H   LINE      CODE     ---       #36
      00FF51E8H   LINE      CODE     ---       #37
      00FF51EEH   LINE      CODE     ---       #39
      00FF51FAH   LINE      CODE     ---       #42
      00FF520FH   LINE      CODE     ---       #43
      00FF5213H   LINE      CODE     ---       #44
      00FF5215H   LINE      CODE     ---       #45
      00FF5219H   LINE      CODE     ---       #48
      00FF522EH   LINE      CODE     ---       #49
      00FF5232H   LINE      CODE     ---       #50
      00FF5232H   LINE      CODE     ---       #52
      00FF5238H   LINE      CODE     ---       #54
      00FF523BH   LINE      CODE     ---       #55
      ---         BLOCKEND  ---      ---       LVL=0

      00FF5994H   BLOCK     CODE     ---       LVL=0
      WR6         REGSYM    ---      INT       adcn
      WR4         REGSYM    ---      INT       resolution
      WR6         REGSYM    ---      WORD      adc_value
      00FF5994H   LINE      CODE     ---       #66
      00FF5994H   LINE      CODE     ---       #67
      00FF5994H   LINE      CODE     ---       #70
      00FF5997H   LINE      CODE     ---       #71
      00FF599BH   LINE      CODE     ---       #73
      00FF599EH   LINE      CODE     ---       #74
      00FF59A3H   LINE      CODE     ---       #75
      00FF59A6H   LINE      CODE     ---       #77
      00FF59A8H   LINE      CODE     ---       #78
      00FF59ACH   LINE      CODE     ---       #79
      00FF59B2H   LINE      CODE     ---       #81
      00FF59B5H   LINE      CODE     ---       #82
      00FF59B8H   LINE      CODE     ---       #84
      00FF59C1H   LINE      CODE     ---       #87
      00FF59C1H   LINE      CODE     ---       #88
      ---         BLOCKEND  ---      ---       LVL=0

      ---         MODULE    ---      ---       zf_delay
      00FF5860H   PUBLIC    CODE     ---       delay_init
      00FF5CBEH   PUBLIC    CODE     ---       delay_ms
      00FF5C42H   PUBLIC    CODE     ---       delay_us
      0000082EH   PUBLIC    EDATA    WORD      zf_delay_ms
      00000830H   PUBLIC    EDATA    WORD      zf_delay_us
      000000D0H   SFRSYM    DATA     BYTE      PSW
      0000009DH   SFRSYM    DATA     BYTE      IRCBAND
      00000097H   SFRSYM    DATA     BYTE      AUXR2
      000000EFH   SFRSYM    DATA     BYTE      AUXINTIF
L251 LINKER/LOCATER V4.66.93.0                                                        05/03/2023  20:46:59  PAGE 27


      000000FDH   SFRSYM    DATA     BYTE      S4CON
      000000ACH   SFRSYM    DATA     BYTE      S3CON
      0000009AH   SFRSYM    DATA     BYTE      S2CON
      000000B7H   SFRSYM    DATA     BYTE      IPH
      000000CDH   SFRSYM    DATA     BYTE      SPSTAT
      000000DDH   SFRSYM    DATA     BYTE      T4T3M
      000000C1H   SFRSYM    DATA     BYTE      WDT_CONTR
      000000DFH   SFRSYM    DATA     BYTE      IP3
      000000F4H   SFRSYM    DATA     BYTE      USBCON
      000000B5H   SFRSYM    DATA     BYTE      IP2
      000000FFH   SFRSYM    DATA     BYTE      RSTCFG
      000000F9H   SFRSYM    DATA     BYTE      LINICR
      0000008EH   SFRSYM    DATA     BYTE      AUXR
      000000AFH   SFRSYM    DATA     BYTE      IE2
      00000088H   SFRSYM    DATA     BYTE      TCON
      00000098H   SFRSYM    DATA     BYTE      SCON
      000000F1H   SFRSYM    DATA     BYTE      CANICR
      00000087H   SFRSYM    DATA     BYTE      PCON
      000000BCH   SFRSYM    DATA     BYTE      ADC_CONTR
      000000E7H   SFRSYM    DATA     BYTE      CMPCR2
      000000E6H   SFRSYM    DATA     BYTE      CMPCR1
      000000B8H   SFRSYM    DATA     BYTE      IP
      0000008FH   SFRSYM    DATA     BYTE      INTCLKO
      000000EEH   SFRSYM    DATA     BYTE      IP3H
      000000B6H   SFRSYM    DATA     BYTE      IP2H
      000000A8H   SFRSYM    DATA     BYTE      IE
      000000BBH   SFRSYM    DATA     BYTE      P_SW3
      000000BAH   SFRSYM    DATA     BYTE      P_SW2
      000000A2H   SFRSYM    DATA     BYTE      P_SW1
      000000CEH   SFRSYM    DATA     BYTE      SPCTL
      000000F8H   SFRSYM    DATA     BYTE      P7
      000000E8H   SFRSYM    DATA     BYTE      P6
      000000C8H   SFRSYM    DATA     BYTE      P5
      000000C0H   SFRSYM    DATA     BYTE      P4
      000000B0H   SFRSYM    DATA     BYTE      P3
      000000A0H   SFRSYM    DATA     BYTE      P2
      00000090H   SFRSYM    DATA     BYTE      P1
      00000080H   SFRSYM    DATA     BYTE      P0

      00FF5860H   BLOCK     CODE     ---       LVL=0
      00FF5860H   LINE      CODE     ---       #34
      00FF5860H   LINE      CODE     ---       #36
      00FF5871H   LINE      CODE     ---       #37
      00FF5882H   LINE      CODE     ---       #38
      00FF5898H   LINE      CODE     ---       #40
      ---         BLOCKEND  ---      ---       LVL=0

      00FF5CBEH   BLOCK     CODE     ---       LVL=0
      WR4         REGSYM    ---      WORD      ms
      00FF5CC0H   BLOCK     CODE     NEAR LAB  LVL=1
      WR6         REGSYM    ---      WORD      i
      ---         BLOCKEND  ---      ---       LVL=1
      00FF5CBEH   LINE      CODE     ---       #48
      00FF5CC0H   LINE      CODE     ---       #49
      00FF5CC0H   LINE      CODE     ---       #51
      00FF5CC0H   LINE      CODE     ---       #52
      00FF5CC4H   LINE      CODE     ---       #54
      00FF5CCCH   LINE      CODE     ---       #55
      00FF5CD4H   LINE      CODE     ---       #56
      ---         BLOCKEND  ---      ---       LVL=0

      00FF5C42H   BLOCK     CODE     ---       LVL=0
      DR0         REGSYM    ---      DWORD     us
      00FF5C44H   BLOCK     CODE     NEAR LAB  LVL=1
      WR6         REGSYM    ---      WORD      i
L251 LINKER/LOCATER V4.66.93.0                                                        05/03/2023  20:46:59  PAGE 28


      ---         BLOCKEND  ---      ---       LVL=1
      00FF5C42H   LINE      CODE     ---       #64
      00FF5C44H   LINE      CODE     ---       #65
      00FF5C44H   LINE      CODE     ---       #67
      00FF5C44H   LINE      CODE     ---       #68
      00FF5C48H   LINE      CODE     ---       #70
      00FF5C50H   LINE      CODE     ---       #71
      00FF5C5AH   LINE      CODE     ---       #72
      ---         BLOCKEND  ---      ---       LVL=0

      ---         MODULE    ---      ---       zf_eeprom
      00FF5CEBH   PUBLIC    CODE     ---       eeprom_trig
      000000D0H   SFRSYM    DATA     BYTE      PSW
      0000009DH   SFRSYM    DATA     BYTE      IRCBAND
      000000D0H.5 SFRSYM    DATA     BIT       F0
      00000097H   SFRSYM    DATA     BYTE      AUXR2
      000000C6H   SFRSYM    DATA     BYTE      IAP_TRIG
      000000EFH   SFRSYM    DATA     BYTE      AUXINTIF
      000000FDH   SFRSYM    DATA     BYTE      S4CON
      000000ACH   SFRSYM    DATA     BYTE      S3CON
      0000009AH   SFRSYM    DATA     BYTE      S2CON
      000000B7H   SFRSYM    DATA     BYTE      IPH
      000000CDH   SFRSYM    DATA     BYTE      SPSTAT
      000000DDH   SFRSYM    DATA     BYTE      T4T3M
      000000C1H   SFRSYM    DATA     BYTE      WDT_CONTR
      000000C2H   SFRSYM    DATA     BYTE      IAP_DATA
      000000DFH   SFRSYM    DATA     BYTE      IP3
      000000F4H   SFRSYM    DATA     BYTE      USBCON
      000000B5H   SFRSYM    DATA     BYTE      IP2
      000000FFH   SFRSYM    DATA     BYTE      RSTCFG
      000000C7H   SFRSYM    DATA     BYTE      IAP_CONTR
      000000F9H   SFRSYM    DATA     BYTE      LINICR
      0000008EH   SFRSYM    DATA     BYTE      AUXR
      000000AFH   SFRSYM    DATA     BYTE      IE2
      00000088H   SFRSYM    DATA     BYTE      TCON
      00000098H   SFRSYM    DATA     BYTE      SCON
      000000F5H   SFRSYM    DATA     BYTE      IAP_TPS
      000000F1H   SFRSYM    DATA     BYTE      CANICR
      00000087H   SFRSYM    DATA     BYTE      PCON
      000000BCH   SFRSYM    DATA     BYTE      ADC_CONTR
      000000E7H   SFRSYM    DATA     BYTE      CMPCR2
      000000E6H   SFRSYM    DATA     BYTE      CMPCR1
      000000C4H   SFRSYM    DATA     BYTE      IAP_ADDRL
      000000C3H   SFRSYM    DATA     BYTE      IAP_ADDRH
      000000F6H   SFRSYM    DATA     BYTE      IAP_ADDRE
      000000B8H   SFRSYM    DATA     BYTE      IP
      0000008FH   SFRSYM    DATA     BYTE      INTCLKO
      000000EEH   SFRSYM    DATA     BYTE      IP3H
      000000B6H   SFRSYM    DATA     BYTE      IP2H
      000000C5H   SFRSYM    DATA     BYTE      IAP_CMD
      000000A8H   SFRSYM    DATA     BYTE      IE
      000000BBH   SFRSYM    DATA     BYTE      P_SW3
      000000BAH   SFRSYM    DATA     BYTE      P_SW2
      000000A2H   SFRSYM    DATA     BYTE      P_SW1
      000000CEH   SFRSYM    DATA     BYTE      SPCTL
      000000F8H   SFRSYM    DATA     BYTE      P7
      000000A8H.7 SFRSYM    DATA     BIT       EA
      000000E8H   SFRSYM    DATA     BYTE      P6
      000000C8H   SFRSYM    DATA     BYTE      P5
      000000C0H   SFRSYM    DATA     BYTE      P4
      000000B0H   SFRSYM    DATA     BYTE      P3
      000000A0H   SFRSYM    DATA     BYTE      P2
      00000090H   SFRSYM    DATA     BYTE      P1
      00000080H   SFRSYM    DATA     BYTE      P0

L251 LINKER/LOCATER V4.66.93.0                                                        05/03/2023  20:46:59  PAGE 29


      00FF5CEBH   BLOCK     CODE     ---       LVL=0
      00FF5CEBH   LINE      CODE     ---       #30
      00FF5CEBH   LINE      CODE     ---       #32
      00FF5CEFH   LINE      CODE     ---       #33
      00FF5CF1H   LINE      CODE     ---       #34
      00FF5CF4H   LINE      CODE     ---       #35
      00FF5CF7H   LINE      CODE     ---       #38
      00FF5CF8H   LINE      CODE     ---       #39
      00FF5CF9H   LINE      CODE     ---       #40
      00FF5CFAH   LINE      CODE     ---       #41
      00FF5CFBH   LINE      CODE     ---       #42
      00FF5CFFH   LINE      CODE     ---       #43
      ---         BLOCKEND  ---      ---       LVL=0
      R11         REGSYM    ---      BYTE      write_time
      REG=3       REGSYM    ---      ---       buf
      REG=3       REGSYM    ---      ---       buf
      WR6         REGSYM    ---      WORD      addr
      REG=3       REGSYM    ---      ---       buf
      WR6         REGSYM    ---      WORD      i

      ---         MODULE    ---      ---       zf_exti
      000000D0H   SFRSYM    DATA     BYTE      PSW
      0000009DH   SFRSYM    DATA     BYTE      IRCBAND
      00000097H   SFRSYM    DATA     BYTE      AUXR2
      000000EFH   SFRSYM    DATA     BYTE      AUXINTIF
      000000FDH   SFRSYM    DATA     BYTE      S4CON
      000000ACH   SFRSYM    DATA     BYTE      S3CON
      0000009AH   SFRSYM    DATA     BYTE      S2CON
      000000B7H   SFRSYM    DATA     BYTE      IPH
      000000CDH   SFRSYM    DATA     BYTE      SPSTAT
      000000DDH   SFRSYM    DATA     BYTE      T4T3M
      000000C1H   SFRSYM    DATA     BYTE      WDT_CONTR
      00000088H.2 SFRSYM    DATA     BIT       IT1
      000000A8H.2 SFRSYM    DATA     BIT       EX1
      00000088H.0 SFRSYM    DATA     BIT       IT0
      000000A8H.0 SFRSYM    DATA     BIT       EX0
      000000DFH   SFRSYM    DATA     BYTE      IP3
      000000F4H   SFRSYM    DATA     BYTE      USBCON
      000000B5H   SFRSYM    DATA     BYTE      IP2
      000000FFH   SFRSYM    DATA     BYTE      RSTCFG
      000000F9H   SFRSYM    DATA     BYTE      LINICR
      0000008EH   SFRSYM    DATA     BYTE      AUXR
      000000AFH   SFRSYM    DATA     BYTE      IE2
      00000088H   SFRSYM    DATA     BYTE      TCON
      00000098H   SFRSYM    DATA     BYTE      SCON
      000000F1H   SFRSYM    DATA     BYTE      CANICR
      00000087H   SFRSYM    DATA     BYTE      PCON
      000000BCH   SFRSYM    DATA     BYTE      ADC_CONTR
      000000E7H   SFRSYM    DATA     BYTE      CMPCR2
      000000E6H   SFRSYM    DATA     BYTE      CMPCR1
      000000B8H   SFRSYM    DATA     BYTE      IP
      0000008FH   SFRSYM    DATA     BYTE      INTCLKO
      000000EEH   SFRSYM    DATA     BYTE      IP3H
      000000B6H   SFRSYM    DATA     BYTE      IP2H
      000000A8H   SFRSYM    DATA     BYTE      IE
      000000BBH   SFRSYM    DATA     BYTE      P_SW3
      000000BAH   SFRSYM    DATA     BYTE      P_SW2
      000000A2H   SFRSYM    DATA     BYTE      P_SW1
      000000CEH   SFRSYM    DATA     BYTE      SPCTL
      000000F8H   SFRSYM    DATA     BYTE      P7
      000000E8H   SFRSYM    DATA     BYTE      P6
      000000C8H   SFRSYM    DATA     BYTE      P5
      000000C0H   SFRSYM    DATA     BYTE      P4
      000000B0H   SFRSYM    DATA     BYTE      P3
      000000A0H   SFRSYM    DATA     BYTE      P2
L251 LINKER/LOCATER V4.66.93.0                                                        05/03/2023  20:46:59  PAGE 30


      00000090H   SFRSYM    DATA     BYTE      P1
      00000080H   SFRSYM    DATA     BYTE      P0
      WR4         REGSYM    ---      INT       int_n
      WR2         REGSYM    ---      INT       mode

      ---         MODULE    ---      ---       zf_gpio
      00FF39CBH   PUBLIC    CODE     ---       gpio_mode
      00000094H   SFRSYM    DATA     BYTE      P0M0
      000000D0H   SFRSYM    DATA     BYTE      PSW
      0000009DH   SFRSYM    DATA     BYTE      IRCBAND
      00000097H   SFRSYM    DATA     BYTE      AUXR2
      000000EFH   SFRSYM    DATA     BYTE      AUXINTIF
      000000FDH   SFRSYM    DATA     BYTE      S4CON
      000000ACH   SFRSYM    DATA     BYTE      S3CON
      0000009AH   SFRSYM    DATA     BYTE      S2CON
      000000B7H   SFRSYM    DATA     BYTE      IPH
      000000CDH   SFRSYM    DATA     BYTE      SPSTAT
      000000DDH   SFRSYM    DATA     BYTE      T4T3M
      000000C1H   SFRSYM    DATA     BYTE      WDT_CONTR
      000000DFH   SFRSYM    DATA     BYTE      IP3
      000000F4H   SFRSYM    DATA     BYTE      USBCON
      000000B5H   SFRSYM    DATA     BYTE      IP2
      000000FFH   SFRSYM    DATA     BYTE      RSTCFG
      000000F9H   SFRSYM    DATA     BYTE      LINICR
      0000008EH   SFRSYM    DATA     BYTE      AUXR
      000000AFH   SFRSYM    DATA     BYTE      IE2
      00000088H   SFRSYM    DATA     BYTE      TCON
      00000098H   SFRSYM    DATA     BYTE      SCON
      000000F1H   SFRSYM    DATA     BYTE      CANICR
      00000087H   SFRSYM    DATA     BYTE      PCON
      000000BCH   SFRSYM    DATA     BYTE      ADC_CONTR
      000000E7H   SFRSYM    DATA     BYTE      CMPCR2
      000000E6H   SFRSYM    DATA     BYTE      CMPCR1
      000000B8H   SFRSYM    DATA     BYTE      IP
      0000008FH   SFRSYM    DATA     BYTE      INTCLKO
      000000EEH   SFRSYM    DATA     BYTE      IP3H
      000000B6H   SFRSYM    DATA     BYTE      IP2H
      000000A8H   SFRSYM    DATA     BYTE      IE
      000000BBH   SFRSYM    DATA     BYTE      P_SW3
      000000BAH   SFRSYM    DATA     BYTE      P_SW2
      000000A2H   SFRSYM    DATA     BYTE      P_SW1
      000000CEH   SFRSYM    DATA     BYTE      SPCTL
      000000F8H   SFRSYM    DATA     BYTE      P7
      000000E1H   SFRSYM    DATA     BYTE      P7M1
      000000E8H   SFRSYM    DATA     BYTE      P6
      000000C8H   SFRSYM    DATA     BYTE      P5
      000000CBH   SFRSYM    DATA     BYTE      P6M1
      000000E2H   SFRSYM    DATA     BYTE      P7M0
      000000C0H   SFRSYM    DATA     BYTE      P4
      000000C9H   SFRSYM    DATA     BYTE      P5M1
      000000CCH   SFRSYM    DATA     BYTE      P6M0
      000000B0H   SFRSYM    DATA     BYTE      P3
      000000B3H   SFRSYM    DATA     BYTE      P4M1
      000000CAH   SFRSYM    DATA     BYTE      P5M0
      000000A0H   SFRSYM    DATA     BYTE      P2
      000000B1H   SFRSYM    DATA     BYTE      P3M1
      000000B4H   SFRSYM    DATA     BYTE      P4M0
      00000090H   SFRSYM    DATA     BYTE      P1
      00000095H   SFRSYM    DATA     BYTE      P2M1
      000000B2H   SFRSYM    DATA     BYTE      P3M0
      00000080H   SFRSYM    DATA     BYTE      P0
      00000091H   SFRSYM    DATA     BYTE      P1M1
      00000096H   SFRSYM    DATA     BYTE      P2M0
      00000092H   SFRSYM    DATA     BYTE      P1M0
      00000093H   SFRSYM    DATA     BYTE      P0M1
L251 LINKER/LOCATER V4.66.93.0                                                        05/03/2023  20:46:59  PAGE 31


      WR4         REGSYM    ---      INT       pin
      WR2         REGSYM    ---      INT       pull

      00FF39CBH   BLOCK     CODE     ---       LVL=0
      WR4         REGSYM    ---      INT       pin
      WR2         REGSYM    ---      INT       mode
      00FF39CBH   LINE      CODE     ---       #54
      00FF39CFH   LINE      CODE     ---       #56
      00FF39D6H   LINE      CODE     ---       #58
      00FF39DEH   LINE      CODE     ---       #60
      00FF39F6H   LINE      CODE     ---       #61
      00FF39F8H   LINE      CODE     ---       #62
      00FF39F8H   LINE      CODE     ---       #63
      00FF39FEH   LINE      CODE     ---       #65
      00FF3A16H   LINE      CODE     ---       #66
      00FF3A18H   LINE      CODE     ---       #67
      00FF3A18H   LINE      CODE     ---       #68
      00FF3A1EH   LINE      CODE     ---       #70
      00FF3A36H   LINE      CODE     ---       #71
      00FF3A38H   LINE      CODE     ---       #72
      00FF3A38H   LINE      CODE     ---       #74
      00FF3A3EH   LINE      CODE     ---       #76
      00FF3A56H   LINE      CODE     ---       #77
      00FF3A58H   LINE      CODE     ---       #78
      00FF3A58H   LINE      CODE     ---       #79
      00FF3A5EH   LINE      CODE     ---       #81
      00FF3A76H   LINE      CODE     ---       #82
      00FF3A78H   LINE      CODE     ---       #83
      00FF3A78H   LINE      CODE     ---       #84
      00FF3A7EH   LINE      CODE     ---       #86
      00FF3A96H   LINE      CODE     ---       #87
      00FF3A98H   LINE      CODE     ---       #88
      00FF3A98H   LINE      CODE     ---       #89
      00FF3A9EH   LINE      CODE     ---       #91
      00FF3AB6H   LINE      CODE     ---       #92
      00FF3AB8H   LINE      CODE     ---       #93
      00FF3AB8H   LINE      CODE     ---       #94
      00FF3AC1H   LINE      CODE     ---       #96
      00FF3AD9H   LINE      CODE     ---       #97
      00FF3ADBH   LINE      CODE     ---       #98
      00FF3ADCH   LINE      CODE     ---       #100
      00FF3AE5H   LINE      CODE     ---       #102
      00FF3AEDH   LINE      CODE     ---       #104
      00FF3B02H   LINE      CODE     ---       #105
      00FF3B06H   LINE      CODE     ---       #106
      00FF3B06H   LINE      CODE     ---       #107
      00FF3B0CH   LINE      CODE     ---       #109
      00FF3B21H   LINE      CODE     ---       #110
      00FF3B25H   LINE      CODE     ---       #111
      00FF3B25H   LINE      CODE     ---       #112
      00FF3B2BH   LINE      CODE     ---       #114
      00FF3B40H   LINE      CODE     ---       #115
      00FF3B44H   LINE      CODE     ---       #116
      00FF3B44H   LINE      CODE     ---       #118
      00FF3B4AH   LINE      CODE     ---       #120
      00FF3B5FH   LINE      CODE     ---       #121
      00FF3B63H   LINE      CODE     ---       #122
      00FF3B63H   LINE      CODE     ---       #123
      00FF3B69H   LINE      CODE     ---       #125
      00FF3B7EH   LINE      CODE     ---       #126
      00FF3B82H   LINE      CODE     ---       #127
      00FF3B82H   LINE      CODE     ---       #128
      00FF3B88H   LINE      CODE     ---       #130
      00FF3B9DH   LINE      CODE     ---       #131
      00FF3BA1H   LINE      CODE     ---       #132
L251 LINKER/LOCATER V4.66.93.0                                                        05/03/2023  20:46:59  PAGE 32


      00FF3BA1H   LINE      CODE     ---       #133
      00FF3BA7H   LINE      CODE     ---       #135
      00FF3BBCH   LINE      CODE     ---       #136
      00FF3BC0H   LINE      CODE     ---       #137
      00FF3BC0H   LINE      CODE     ---       #138
      00FF3BC9H   LINE      CODE     ---       #140
      00FF3BE0H   LINE      CODE     ---       #141
      00FF3BE0H   LINE      CODE     ---       #142
      00FF3BE3H   LINE      CODE     ---       #145
      00FF3BECH   LINE      CODE     ---       #147
      00FF3BF4H   LINE      CODE     ---       #149
      00FF3C07H   LINE      CODE     ---       #150
      00FF3C0BH   LINE      CODE     ---       #151
      00FF3C0BH   LINE      CODE     ---       #152
      00FF3C11H   LINE      CODE     ---       #154
      00FF3C24H   LINE      CODE     ---       #155
      00FF3C28H   LINE      CODE     ---       #156
      00FF3C28H   LINE      CODE     ---       #157
      00FF3C2EH   LINE      CODE     ---       #159
      00FF3C41H   LINE      CODE     ---       #160
      00FF3C45H   LINE      CODE     ---       #161
      00FF3C45H   LINE      CODE     ---       #163
      00FF3C4BH   LINE      CODE     ---       #165
      00FF3C5EH   LINE      CODE     ---       #166
      00FF3C62H   LINE      CODE     ---       #167
      00FF3C62H   LINE      CODE     ---       #168
      00FF3C68H   LINE      CODE     ---       #170
      00FF3C7BH   LINE      CODE     ---       #171
      00FF3C7FH   LINE      CODE     ---       #172
      00FF3C7FH   LINE      CODE     ---       #173
      00FF3C85H   LINE      CODE     ---       #175
      00FF3C98H   LINE      CODE     ---       #176
      00FF3C9CH   LINE      CODE     ---       #177
      00FF3C9CH   LINE      CODE     ---       #178
      00FF3CA2H   LINE      CODE     ---       #180
      00FF3CB5H   LINE      CODE     ---       #181
      00FF3CB9H   LINE      CODE     ---       #182
      00FF3CB9H   LINE      CODE     ---       #183
      00FF3CC2H   LINE      CODE     ---       #185
      00FF3CD5H   LINE      CODE     ---       #186
      00FF3CD9H   LINE      CODE     ---       #187
      00FF3CDAH   LINE      CODE     ---       #189
      00FF3CE3H   LINE      CODE     ---       #191
      00FF3CEBH   LINE      CODE     ---       #193
      00FF3CFEH   LINE      CODE     ---       #194
      00FF3D00H   LINE      CODE     ---       #195
      00FF3D00H   LINE      CODE     ---       #196
      00FF3D06H   LINE      CODE     ---       #198
      00FF3D19H   LINE      CODE     ---       #199
      00FF3D1BH   LINE      CODE     ---       #200
      00FF3D1BH   LINE      CODE     ---       #201
      00FF3D21H   LINE      CODE     ---       #203
      00FF3D34H   LINE      CODE     ---       #204
      00FF3D36H   LINE      CODE     ---       #205
      00FF3D36H   LINE      CODE     ---       #207
      00FF3D3CH   LINE      CODE     ---       #209
      00FF3D4FH   LINE      CODE     ---       #210
      00FF3D51H   LINE      CODE     ---       #211
      00FF3D51H   LINE      CODE     ---       #212
      00FF3D57H   LINE      CODE     ---       #214
      00FF3D6AH   LINE      CODE     ---       #215
      00FF3D6CH   LINE      CODE     ---       #216
      00FF3D6CH   LINE      CODE     ---       #217
      00FF3D72H   LINE      CODE     ---       #219
      00FF3D85H   LINE      CODE     ---       #220
L251 LINKER/LOCATER V4.66.93.0                                                        05/03/2023  20:46:59  PAGE 33


      00FF3D87H   LINE      CODE     ---       #221
      00FF3D87H   LINE      CODE     ---       #222
      00FF3D8DH   LINE      CODE     ---       #224
      00FF3DA0H   LINE      CODE     ---       #225
      00FF3DA2H   LINE      CODE     ---       #226
      00FF3DA2H   LINE      CODE     ---       #227
      00FF3DA8H   LINE      CODE     ---       #229
      00FF3DBDH   LINE      CODE     ---       #230
      00FF3DC1H   LINE      CODE     ---       #231
      00FF3DC1H   LINE      CODE     ---       #233
      ---         BLOCKEND  ---      ---       LVL=0

      ---         MODULE    ---      ---       zf_iic
      00FF5664H   PUBLIC    CODE     ---       wait
      00FF5D00H   PUBLIC    CODE     ---       iic_delay_us
      000000D0H   SFRSYM    DATA     BYTE      PSW
      0000009DH   SFRSYM    DATA     BYTE      IRCBAND
      00000097H   SFRSYM    DATA     BYTE      AUXR2
      000000EFH   SFRSYM    DATA     BYTE      AUXINTIF
      000000FDH   SFRSYM    DATA     BYTE      S4CON
      000000ACH   SFRSYM    DATA     BYTE      S3CON
      0000009AH   SFRSYM    DATA     BYTE      S2CON
      000000B7H   SFRSYM    DATA     BYTE      IPH
      000000CDH   SFRSYM    DATA     BYTE      SPSTAT
      000000DDH   SFRSYM    DATA     BYTE      T4T3M
      000000C1H   SFRSYM    DATA     BYTE      WDT_CONTR
      000000DFH   SFRSYM    DATA     BYTE      IP3
      000000F4H   SFRSYM    DATA     BYTE      USBCON
      000000B5H   SFRSYM    DATA     BYTE      IP2
      000000FFH   SFRSYM    DATA     BYTE      RSTCFG
      000000F9H   SFRSYM    DATA     BYTE      LINICR
      0000008EH   SFRSYM    DATA     BYTE      AUXR
      000000AFH   SFRSYM    DATA     BYTE      IE2
      00000088H   SFRSYM    DATA     BYTE      TCON
      00000098H   SFRSYM    DATA     BYTE      SCON
      000000F1H   SFRSYM    DATA     BYTE      CANICR
      00000087H   SFRSYM    DATA     BYTE      PCON
      000000BCH   SFRSYM    DATA     BYTE      ADC_CONTR
      000000E7H   SFRSYM    DATA     BYTE      CMPCR2
      000000E6H   SFRSYM    DATA     BYTE      CMPCR1
      000000B8H   SFRSYM    DATA     BYTE      IP
      0000008FH   SFRSYM    DATA     BYTE      INTCLKO
      000000EEH   SFRSYM    DATA     BYTE      IP3H
      000000B6H   SFRSYM    DATA     BYTE      IP2H
      000000A8H   SFRSYM    DATA     BYTE      IE
      000000BBH   SFRSYM    DATA     BYTE      P_SW3
      000000BAH   SFRSYM    DATA     BYTE      P_SW2
      000000A2H   SFRSYM    DATA     BYTE      P_SW1
      000000CEH   SFRSYM    DATA     BYTE      SPCTL
      000000F8H   SFRSYM    DATA     BYTE      P7
      000000E8H   SFRSYM    DATA     BYTE      P6
      000000C8H   SFRSYM    DATA     BYTE      P5
      000000C0H   SFRSYM    DATA     BYTE      P4
      000000B0H   SFRSYM    DATA     BYTE      P3
      000000A0H   SFRSYM    DATA     BYTE      P2
      00000090H   SFRSYM    DATA     BYTE      P1
      00000080H   SFRSYM    DATA     BYTE      P0

      00FF5D00H   BLOCK     CODE     ---       LVL=0
      WR6         REGSYM    ---      WORD      x
      R10         REGSYM    ---      BYTE      i
      00FF5D00H   LINE      CODE     ---       #30
      00FF5D00H   LINE      CODE     ---       #31
      00FF5D00H   LINE      CODE     ---       #33
      00FF5D02H   LINE      CODE     ---       #35
L251 LINKER/LOCATER V4.66.93.0                                                        05/03/2023  20:46:59  PAGE 34


      00FF5D05H   LINE      CODE     ---       #36
      00FF5D0CH   LINE      CODE     ---       #37
      00FF5D14H   LINE      CODE     ---       #38
      ---         BLOCKEND  ---      ---       LVL=0

      00FF5664H   BLOCK     CODE     ---       LVL=0
      00FF5668H   BLOCK     CODE     NEAR LAB  LVL=1
      WR12        REGSYM    ---      WORD      count
      R15         REGSYM    ---      BYTE      ret
      ---         BLOCKEND  ---      ---       LVL=1
      00FF5664H   LINE      CODE     ---       #47
      00FF5668H   LINE      CODE     ---       #48
      00FF5668H   LINE      CODE     ---       #49
      00FF566AH   LINE      CODE     ---       #50
      00FF566CH   LINE      CODE     ---       #51
      00FF566EH   LINE      CODE     ---       #53
      00FF5675H   LINE      CODE     ---       #54
      00FF567FH   LINE      CODE     ---       #56
      00FF5682H   LINE      CODE     ---       #57
      00FF5684H   LINE      CODE     ---       #58
      00FF5692H   LINE      CODE     ---       #60
      00FF56A2H   LINE      CODE     ---       #61
      00FF56A4H   LINE      CODE     ---       #62
      ---         BLOCKEND  ---      ---       LVL=0
      R11         REGSYM    ---      BYTE      ret
      R11         REGSYM    ---      CHAR      dat
      R11         REGSYM    ---      BYTE      ret
      R11         REGSYM    ---      BYTE      ret
      R11         REGSYM    ---      BYTE      ret
      R11         REGSYM    ---      BYTE      ret
      WR6         REGSYM    ---      INT       iic_n
      R13         REGSYM    ---      BYTE      dev_add
      R14         REGSYM    ---      BYTE      reg
      R15         REGSYM    ---      BYTE      dat
      R15         REGSYM    ---      BYTE      dev_add
      R14         REGSYM    ---      BYTE      reg
      REG=3       REGSYM    ---      ---       dat
      WR6         REGSYM    ---      INT       iic_n

      ---         MODULE    ---      ---       zf_nvic
      000000D0H   SFRSYM    DATA     BYTE      PSW
      0000009DH   SFRSYM    DATA     BYTE      IRCBAND
      00000097H   SFRSYM    DATA     BYTE      AUXR2
      000000EFH   SFRSYM    DATA     BYTE      AUXINTIF
      000000FDH   SFRSYM    DATA     BYTE      S4CON
      000000ACH   SFRSYM    DATA     BYTE      S3CON
      0000009AH   SFRSYM    DATA     BYTE      S2CON
      000000B7H   SFRSYM    DATA     BYTE      IPH
      000000CDH   SFRSYM    DATA     BYTE      SPSTAT
      000000DDH   SFRSYM    DATA     BYTE      T4T3M
      000000C1H   SFRSYM    DATA     BYTE      WDT_CONTR
      000000DFH   SFRSYM    DATA     BYTE      IP3
      000000F4H   SFRSYM    DATA     BYTE      USBCON
      000000B5H   SFRSYM    DATA     BYTE      IP2
      000000FFH   SFRSYM    DATA     BYTE      RSTCFG
      000000F9H   SFRSYM    DATA     BYTE      LINICR
      0000008EH   SFRSYM    DATA     BYTE      AUXR
      000000AFH   SFRSYM    DATA     BYTE      IE2
      00000088H   SFRSYM    DATA     BYTE      TCON
      00000098H   SFRSYM    DATA     BYTE      SCON
      000000F1H   SFRSYM    DATA     BYTE      CANICR
      00000087H   SFRSYM    DATA     BYTE      PCON
      000000BCH   SFRSYM    DATA     BYTE      ADC_CONTR
      000000E7H   SFRSYM    DATA     BYTE      CMPCR2
      000000E6H   SFRSYM    DATA     BYTE      CMPCR1
L251 LINKER/LOCATER V4.66.93.0                                                        05/03/2023  20:46:59  PAGE 35


      000000B8H   SFRSYM    DATA     BYTE      IP
      0000008FH   SFRSYM    DATA     BYTE      INTCLKO
      000000EEH   SFRSYM    DATA     BYTE      IP3H
      000000B6H   SFRSYM    DATA     BYTE      IP2H
      000000A8H   SFRSYM    DATA     BYTE      IE
      000000BBH   SFRSYM    DATA     BYTE      P_SW3
      000000BAH   SFRSYM    DATA     BYTE      P_SW2
      000000A2H   SFRSYM    DATA     BYTE      P_SW1
      000000CEH   SFRSYM    DATA     BYTE      SPCTL
      000000F8H   SFRSYM    DATA     BYTE      P7
      000000E8H   SFRSYM    DATA     BYTE      P6
      000000C8H   SFRSYM    DATA     BYTE      P5
      000000C0H   SFRSYM    DATA     BYTE      P4
      000000B0H   SFRSYM    DATA     BYTE      P3
      000000A0H   SFRSYM    DATA     BYTE      P2
      00000090H   SFRSYM    DATA     BYTE      P1
      00000080H   SFRSYM    DATA     BYTE      P0
      WR4         REGSYM    ---      INT       irqn
      R3          REGSYM    ---      BYTE      priority

      ---         MODULE    ---      ---       zf_pwm
      00FF496EH   PUBLIC    CODE     ---       pwm_duty
      00FF40BEH   PUBLIC    CODE     ---       pwm_set_gpio
      00FF3DC2H   PUBLIC    CODE     ---       pwm_init
      00FF6B1BH   PUBLIC    HCONST   ---       PWM_CCR_ADDR
      00FF6B3BH   PUBLIC    HCONST   ---       PWM_ARR_ADDR
      00FF6B43H   PUBLIC    HCONST   ---       PWM_CCER_ADDR
      00FF6B53H   PUBLIC    HCONST   ---       PWM_CCMR_ADDR
      0000079FH   PUBLIC    EDATA    BYTE      ?pwm_init?BYTE
      000000D0H   SFRSYM    DATA     BYTE      PSW
      0000009DH   SFRSYM    DATA     BYTE      IRCBAND
      00000097H   SFRSYM    DATA     BYTE      AUXR2
      000000EFH   SFRSYM    DATA     BYTE      AUXINTIF
      000000FDH   SFRSYM    DATA     BYTE      S4CON
      000000ACH   SFRSYM    DATA     BYTE      S3CON
      0000009AH   SFRSYM    DATA     BYTE      S2CON
      000000B7H   SFRSYM    DATA     BYTE      IPH
      000000CDH   SFRSYM    DATA     BYTE      SPSTAT
      000000DDH   SFRSYM    DATA     BYTE      T4T3M
      000000C1H   SFRSYM    DATA     BYTE      WDT_CONTR
      000000DFH   SFRSYM    DATA     BYTE      IP3
      000000F4H   SFRSYM    DATA     BYTE      USBCON
      000000B5H   SFRSYM    DATA     BYTE      IP2
      000000FFH   SFRSYM    DATA     BYTE      RSTCFG
      000000F9H   SFRSYM    DATA     BYTE      LINICR
      0000008EH   SFRSYM    DATA     BYTE      AUXR
      000000AFH   SFRSYM    DATA     BYTE      IE2
      00000088H   SFRSYM    DATA     BYTE      TCON
      00000098H   SFRSYM    DATA     BYTE      SCON
      000000F1H   SFRSYM    DATA     BYTE      CANICR
      00000087H   SFRSYM    DATA     BYTE      PCON
      000000BCH   SFRSYM    DATA     BYTE      ADC_CONTR
      000000E7H   SFRSYM    DATA     BYTE      CMPCR2
      000000E6H   SFRSYM    DATA     BYTE      CMPCR1
      000000B8H   SFRSYM    DATA     BYTE      IP
      0000008FH   SFRSYM    DATA     BYTE      INTCLKO
      000000EEH   SFRSYM    DATA     BYTE      IP3H
      000000B6H   SFRSYM    DATA     BYTE      IP2H
      000000A8H   SFRSYM    DATA     BYTE      IE
      000000BBH   SFRSYM    DATA     BYTE      P_SW3
      000000BAH   SFRSYM    DATA     BYTE      P_SW2
      000000A2H   SFRSYM    DATA     BYTE      P_SW1
      000000CEH   SFRSYM    DATA     BYTE      SPCTL
      000000F8H   SFRSYM    DATA     BYTE      P7
      000000E8H   SFRSYM    DATA     BYTE      P6
L251 LINKER/LOCATER V4.66.93.0                                                        05/03/2023  20:46:59  PAGE 36


      000000C8H   SFRSYM    DATA     BYTE      P5
      000000C0H   SFRSYM    DATA     BYTE      P4
      000000B0H   SFRSYM    DATA     BYTE      P3
      000000A0H   SFRSYM    DATA     BYTE      P2
      00000090H   SFRSYM    DATA     BYTE      P1
      00000080H   SFRSYM    DATA     BYTE      P0

      00FF40BEH   BLOCK     CODE     ---       LVL=0
      WR6         REGSYM    ---      INT       pwmch
      00FF40BEH   LINE      CODE     ---       #49
      00FF40BEH   LINE      CODE     ---       #51
      00FF4231H   LINE      CODE     ---       #53
      00FF4231H   LINE      CODE     ---       #55
      00FF4235H   LINE      CODE     ---       #56
      00FF4238H   LINE      CODE     ---       #58
      00FF4238H   LINE      CODE     ---       #60
      00FF423CH   LINE      CODE     ---       #61
      00FF423FH   LINE      CODE     ---       #63
      00FF423FH   LINE      CODE     ---       #65
      00FF4243H   LINE      CODE     ---       #66
      00FF4246H   LINE      CODE     ---       #68
      00FF4246H   LINE      CODE     ---       #70
      00FF424AH   LINE      CODE     ---       #71
      00FF424DH   LINE      CODE     ---       #73
      00FF424DH   LINE      CODE     ---       #75
      00FF4251H   LINE      CODE     ---       #76
      00FF4254H   LINE      CODE     ---       #78
      00FF4254H   LINE      CODE     ---       #80
      00FF4258H   LINE      CODE     ---       #81
      00FF425BH   LINE      CODE     ---       #84
      00FF425BH   LINE      CODE     ---       #86
      00FF425FH   LINE      CODE     ---       #87
      00FF4262H   LINE      CODE     ---       #89
      00FF4262H   LINE      CODE     ---       #91
      00FF4266H   LINE      CODE     ---       #92
      00FF4269H   LINE      CODE     ---       #94
      00FF4269H   LINE      CODE     ---       #96
      00FF426DH   LINE      CODE     ---       #97
      00FF4270H   LINE      CODE     ---       #99
      00FF4270H   LINE      CODE     ---       #101
      00FF4274H   LINE      CODE     ---       #102
      00FF4277H   LINE      CODE     ---       #104
      00FF4277H   LINE      CODE     ---       #106
      00FF427BH   LINE      CODE     ---       #107
      00FF427EH   LINE      CODE     ---       #109
      00FF427EH   LINE      CODE     ---       #111
      00FF4282H   LINE      CODE     ---       #112
      00FF4285H   LINE      CODE     ---       #115
      00FF4285H   LINE      CODE     ---       #117
      00FF4289H   LINE      CODE     ---       #118
      00FF428BH   LINE      CODE     ---       #120
      00FF428BH   LINE      CODE     ---       #122
      00FF428FH   LINE      CODE     ---       #123
      00FF4291H   LINE      CODE     ---       #125
      00FF4291H   LINE      CODE     ---       #127
      00FF4295H   LINE      CODE     ---       #128
      00FF4297H   LINE      CODE     ---       #130
      00FF4297H   LINE      CODE     ---       #132
      00FF429BH   LINE      CODE     ---       #133
      00FF429DH   LINE      CODE     ---       #135
      00FF429DH   LINE      CODE     ---       #137
      00FF42A1H   LINE      CODE     ---       #138
      00FF42A3H   LINE      CODE     ---       #140
      00FF42A3H   LINE      CODE     ---       #142
      00FF42A7H   LINE      CODE     ---       #143
L251 LINKER/LOCATER V4.66.93.0                                                        05/03/2023  20:46:59  PAGE 37


      00FF42A9H   LINE      CODE     ---       #147
      00FF42A9H   LINE      CODE     ---       #149
      00FF42ADH   LINE      CODE     ---       #150
      00FF42AFH   LINE      CODE     ---       #152
      00FF42AFH   LINE      CODE     ---       #154
      00FF42B3H   LINE      CODE     ---       #155
      00FF42B5H   LINE      CODE     ---       #157
      00FF42B5H   LINE      CODE     ---       #159
      00FF42B9H   LINE      CODE     ---       #160
      00FF42BBH   LINE      CODE     ---       #162
      00FF42BBH   LINE      CODE     ---       #164
      00FF42BFH   LINE      CODE     ---       #165
      00FF42C1H   LINE      CODE     ---       #167
      00FF42C1H   LINE      CODE     ---       #169
      00FF42C5H   LINE      CODE     ---       #170
      00FF42C7H   LINE      CODE     ---       #172
      00FF42C7H   LINE      CODE     ---       #174
      00FF42CBH   LINE      CODE     ---       #175
      00FF42CDH   LINE      CODE     ---       #177
      00FF42CDH   LINE      CODE     ---       #179
      00FF42D1H   LINE      CODE     ---       #180
      00FF42D3H   LINE      CODE     ---       #182
      00FF42D3H   LINE      CODE     ---       #184
      00FF42D7H   LINE      CODE     ---       #185
      00FF42D9H   LINE      CODE     ---       #189
      00FF42D9H   LINE      CODE     ---       #191
      00FF42DDH   LINE      CODE     ---       #192
      00FF42DFH   LINE      CODE     ---       #194
      00FF42DFH   LINE      CODE     ---       #196
      00FF42E3H   LINE      CODE     ---       #197
      00FF42E5H   LINE      CODE     ---       #199
      00FF42E5H   LINE      CODE     ---       #201
      00FF42E7H   LINE      CODE     ---       #202
      00FF42E9H   LINE      CODE     ---       #204
      00FF42E9H   LINE      CODE     ---       #206
      00FF42EDH   LINE      CODE     ---       #207
      00FF42EFH   LINE      CODE     ---       #210
      00FF42EFH   LINE      CODE     ---       #212
      00FF42F3H   LINE      CODE     ---       #213
      00FF42F5H   LINE      CODE     ---       #215
      00FF42F5H   LINE      CODE     ---       #217
      00FF42F9H   LINE      CODE     ---       #218
      00FF42FBH   LINE      CODE     ---       #220
      00FF42FBH   LINE      CODE     ---       #222
      00FF4301H   LINE      CODE     ---       #223
      00FF4303H   LINE      CODE     ---       #225
      00FF4303H   LINE      CODE     ---       #227
      00FF430BH   LINE      CODE     ---       #228
      00FF430DH   LINE      CODE     ---       #232
      00FF430DH   LINE      CODE     ---       #234
      00FF4315H   LINE      CODE     ---       #235
      00FF4317H   LINE      CODE     ---       #237
      00FF4317H   LINE      CODE     ---       #239
      00FF431FH   LINE      CODE     ---       #240
      00FF4321H   LINE      CODE     ---       #242
      00FF4321H   LINE      CODE     ---       #244
      00FF4329H   LINE      CODE     ---       #245
      00FF432BH   LINE      CODE     ---       #247
      00FF432BH   LINE      CODE     ---       #249
      00FF4333H   LINE      CODE     ---       #250
      00FF4335H   LINE      CODE     ---       #254
      00FF4335H   LINE      CODE     ---       #256
      00FF433DH   LINE      CODE     ---       #257
      00FF433FH   LINE      CODE     ---       #259
      00FF433FH   LINE      CODE     ---       #261
L251 LINKER/LOCATER V4.66.93.0                                                        05/03/2023  20:46:59  PAGE 38


      00FF4347H   LINE      CODE     ---       #262
      00FF4349H   LINE      CODE     ---       #264
      00FF4349H   LINE      CODE     ---       #266
      00FF4351H   LINE      CODE     ---       #267
      00FF4353H   LINE      CODE     ---       #269
      00FF4353H   LINE      CODE     ---       #271
      00FF435EH   LINE      CODE     ---       #272
      00FF435EH   LINE      CODE     ---       #275
      00FF435EH   LINE      CODE     ---       #277
      ---         BLOCKEND  ---      ---       LVL=0

      00FF3DC2H   BLOCK     CODE     ---       LVL=0
      WR14        REGSYM    ---      INT       pwmch
      000007A1H   SYMBOL    EDATA    DWORD     freq
      000007A5H   SYMBOL    EDATA    DWORD     duty
      00FF3DCAH   BLOCK     CODE     NEAR LAB  LVL=1
      000007A9H   SYMBOL    EDATA    DWORD     match_temp
      DR28        REGSYM    ---      DWORD     period_temp
      WR26        REGSYM    ---      WORD      freq_div
      ---         BLOCKEND  ---      ---       LVL=1
      00FF3DC2H   LINE      CODE     ---       #290
      00FF3DCAH   LINE      CODE     ---       #291
      00FF3DCAH   LINE      CODE     ---       #295
      00FF3DCAH   LINE      CODE     ---       #298
      00FF3DCDH   LINE      CODE     ---       #301
      00FF3DD0H   LINE      CODE     ---       #305
      00FF3DE1H   LINE      CODE     ---       #306
      00FF3DE1H   LINE      CODE     ---       #307
      00FF3DEAH   LINE      CODE     ---       #309
      00FF3DF4H   LINE      CODE     ---       #311
      00FF3E11H   LINE      CODE     ---       #312
      00FF3E13H   LINE      CODE     ---       #315
      00FF3E1BH   LINE      CODE     ---       #316
      00FF3E1BH   LINE      CODE     ---       #319
      00FF3E24H   LINE      CODE     ---       #322
      00FF3E4FH   LINE      CODE     ---       #323
      00FF3E70H   LINE      CODE     ---       #326
      00FF3EBCH   LINE      CODE     ---       #329
      00FF3ECBH   LINE      CODE     ---       #330
      00FF3ED6H   LINE      CODE     ---       #332
      00FF3EDFH   LINE      CODE     ---       #333
      00FF3EE5H   LINE      CODE     ---       #334
      00FF3EE8H   LINE      CODE     ---       #337
      00FF3F20H   LINE      CODE     ---       #338
      00FF3F43H   LINE      CODE     ---       #341
      00FF3F95H   LINE      CODE     ---       #345
      00FF3FA4H   LINE      CODE     ---       #346
      00FF3FAFH   LINE      CODE     ---       #348
      00FF3FB8H   LINE      CODE     ---       #349
      00FF3FC5H   LINE      CODE     ---       #350
      00FF3FC5H   LINE      CODE     ---       #353
      00FF3FF1H   LINE      CODE     ---       #354
      00FF401FH   LINE      CODE     ---       #357
      00FF404BH   LINE      CODE     ---       #358
      00FF4079H   LINE      CODE     ---       #361
      00FF4090H   LINE      CODE     ---       #362
      00FF40BBH   LINE      CODE     ---       #367
      ---         BLOCKEND  ---      ---       LVL=0

      00FF496EH   BLOCK     CODE     ---       LVL=0
      WR30        REGSYM    ---      INT       pwmch
      DR24        REGSYM    ---      DWORD     duty
      00FF4972H   BLOCK     CODE     NEAR LAB  LVL=1
      DR20        REGSYM    ---      DWORD     match_temp
      DR16        REGSYM    ---      DWORD     arr
L251 LINKER/LOCATER V4.66.93.0                                                        05/03/2023  20:46:59  PAGE 39


      ---         BLOCKEND  ---      ---       LVL=1
      00FF496EH   LINE      CODE     ---       #377
      00FF4972H   LINE      CODE     ---       #378
      00FF4972H   LINE      CODE     ---       #380
      00FF49B6H   LINE      CODE     ---       #384
      00FF49BCH   LINE      CODE     ---       #386
      00FF49DDH   LINE      CODE     ---       #387
      00FF49DFH   LINE      CODE     ---       #390
      00FF49E3H   LINE      CODE     ---       #391
      00FF49E3H   LINE      CODE     ---       #396
      00FF4A0BH   LINE      CODE     ---       #397
      00FF4A35H   LINE      CODE     ---       #401
      ---         BLOCKEND  ---      ---       LVL=0
      WR30        REGSYM    ---      INT       pwmch
      DR24        REGSYM    ---      DWORD     freq
      DR20        REGSYM    ---      DWORD     match_temp
      DR24        REGSYM    ---      DWORD     period_temp
      WR28        REGSYM    ---      WORD      freq_div

      ---         MODULE    ---      ---       zf_spi
      00FF5DBCH   PUBLIC    CODE     ---       spi_mosi
      000000CFH   SFRSYM    DATA     BYTE      SPDAT
      000000D0H   SFRSYM    DATA     BYTE      PSW
      0000009DH   SFRSYM    DATA     BYTE      IRCBAND
      00000097H   SFRSYM    DATA     BYTE      AUXR2
      000000EFH   SFRSYM    DATA     BYTE      AUXINTIF
      000000FDH   SFRSYM    DATA     BYTE      S4CON
      000000ACH   SFRSYM    DATA     BYTE      S3CON
      0000009AH   SFRSYM    DATA     BYTE      S2CON
      000000B7H   SFRSYM    DATA     BYTE      IPH
      000000CDH   SFRSYM    DATA     BYTE      SPSTAT
      000000DDH   SFRSYM    DATA     BYTE      T4T3M
      000000C1H   SFRSYM    DATA     BYTE      WDT_CONTR
      000000DFH   SFRSYM    DATA     BYTE      IP3
      000000F4H   SFRSYM    DATA     BYTE      USBCON
      000000B5H   SFRSYM    DATA     BYTE      IP2
      000000FFH   SFRSYM    DATA     BYTE      RSTCFG
      000000F9H   SFRSYM    DATA     BYTE      LINICR
      0000008EH   SFRSYM    DATA     BYTE      AUXR
      000000AFH   SFRSYM    DATA     BYTE      IE2
      00000088H   SFRSYM    DATA     BYTE      TCON
      00000098H   SFRSYM    DATA     BYTE      SCON
      000000F1H   SFRSYM    DATA     BYTE      CANICR
      00000087H   SFRSYM    DATA     BYTE      PCON
      000000BCH   SFRSYM    DATA     BYTE      ADC_CONTR
      000000E7H   SFRSYM    DATA     BYTE      CMPCR2
      000000E6H   SFRSYM    DATA     BYTE      CMPCR1
      000000B8H   SFRSYM    DATA     BYTE      IP
      0000008FH   SFRSYM    DATA     BYTE      INTCLKO
      000000EEH   SFRSYM    DATA     BYTE      IP3H
      000000B6H   SFRSYM    DATA     BYTE      IP2H
      000000A8H   SFRSYM    DATA     BYTE      IE
      000000BBH   SFRSYM    DATA     BYTE      P_SW3
      000000BAH   SFRSYM    DATA     BYTE      P_SW2
      000000A2H   SFRSYM    DATA     BYTE      P_SW1
      000000CEH   SFRSYM    DATA     BYTE      SPCTL
      000000F8H   SFRSYM    DATA     BYTE      P7
      000000E8H   SFRSYM    DATA     BYTE      P6
      000000C8H   SFRSYM    DATA     BYTE      P5
      000000C0H   SFRSYM    DATA     BYTE      P4
      000000B0H   SFRSYM    DATA     BYTE      P3
      000000A0H   SFRSYM    DATA     BYTE      P2
      00000090H   SFRSYM    DATA     BYTE      P1
      00000080H   SFRSYM    DATA     BYTE      P0
      WR14        REGSYM    ---      INT       spi_n
L251 LINKER/LOCATER V4.66.93.0                                                        05/03/2023  20:46:59  PAGE 40


      R13         REGSYM    ---      BYTE      mode

      00FF5DBCH   BLOCK     CODE     ---       LVL=0
      R11         REGSYM    ---      BYTE      dat
      00FF5DBCH   LINE      CODE     ---       #129
      00FF5DBCH   LINE      CODE     ---       #131
      00FF5DBFH   LINE      CODE     ---       #132
      00FF5DC4H   LINE      CODE     ---       #133
      00FF5DC7H   LINE      CODE     ---       #134
      00FF5DC9H   LINE      CODE     ---       #135
      ---         BLOCKEND  ---      ---       LVL=0
      WR14        REGSYM    ---      INT       spi_n
      R7          REGSYM    ---      BYTE      mode

      ---         MODULE    ---      ---       zf_tim
      00FF4E1BH   PUBLIC    CODE     ---       pit_timer_ms
      00FF558AH   PUBLIC    CODE     ---       ctimer_count_init
      000000D0H   SFRSYM    DATA     BYTE      PSW
      0000009DH   SFRSYM    DATA     BYTE      IRCBAND
      00000097H   SFRSYM    DATA     BYTE      AUXR2
      000000EFH   SFRSYM    DATA     BYTE      AUXINTIF
      000000FDH   SFRSYM    DATA     BYTE      S4CON
      000000ACH   SFRSYM    DATA     BYTE      S3CON
      0000009AH   SFRSYM    DATA     BYTE      S2CON
      000000B7H   SFRSYM    DATA     BYTE      IPH
      000000CDH   SFRSYM    DATA     BYTE      SPSTAT
      000000DDH   SFRSYM    DATA     BYTE      T4T3M
      000000C1H   SFRSYM    DATA     BYTE      WDT_CONTR
      00000088H.6 SFRSYM    DATA     BIT       TR1
      00000088H.4 SFRSYM    DATA     BIT       TR0
      000000D3H   SFRSYM    DATA     BYTE      T4L
      000000D5H   SFRSYM    DATA     BYTE      T3L
      000000D7H   SFRSYM    DATA     BYTE      T2L
      0000008BH   SFRSYM    DATA     BYTE      TL1
      0000008AH   SFRSYM    DATA     BYTE      TL0
      000000D2H   SFRSYM    DATA     BYTE      T4H
      000000D4H   SFRSYM    DATA     BYTE      T3H
      000000D6H   SFRSYM    DATA     BYTE      T2H
      0000008DH   SFRSYM    DATA     BYTE      TH1
      0000008CH   SFRSYM    DATA     BYTE      TH0
      000000DFH   SFRSYM    DATA     BYTE      IP3
      000000F4H   SFRSYM    DATA     BYTE      USBCON
      000000B5H   SFRSYM    DATA     BYTE      IP2
      000000FFH   SFRSYM    DATA     BYTE      RSTCFG
      000000A8H.3 SFRSYM    DATA     BIT       ET1
      000000A8H.1 SFRSYM    DATA     BIT       ET0
      000000F9H   SFRSYM    DATA     BYTE      LINICR
      0000008EH   SFRSYM    DATA     BYTE      AUXR
      000000AFH   SFRSYM    DATA     BYTE      IE2
      00000088H   SFRSYM    DATA     BYTE      TCON
      00000089H   SFRSYM    DATA     BYTE      TMOD
      00000098H   SFRSYM    DATA     BYTE      SCON
      000000F1H   SFRSYM    DATA     BYTE      CANICR
      00000087H   SFRSYM    DATA     BYTE      PCON
      000000BCH   SFRSYM    DATA     BYTE      ADC_CONTR
      000000E7H   SFRSYM    DATA     BYTE      CMPCR2
      000000E6H   SFRSYM    DATA     BYTE      CMPCR1
      000000B8H   SFRSYM    DATA     BYTE      IP
      0000008FH   SFRSYM    DATA     BYTE      INTCLKO
      000000EEH   SFRSYM    DATA     BYTE      IP3H
      000000B6H   SFRSYM    DATA     BYTE      IP2H
      000000A8H   SFRSYM    DATA     BYTE      IE
      000000BBH   SFRSYM    DATA     BYTE      P_SW3
      000000BAH   SFRSYM    DATA     BYTE      P_SW2
      000000A2H   SFRSYM    DATA     BYTE      P_SW1
L251 LINKER/LOCATER V4.66.93.0                                                        05/03/2023  20:46:59  PAGE 41


      000000CEH   SFRSYM    DATA     BYTE      SPCTL
      000000F8H   SFRSYM    DATA     BYTE      P7
      000000E8H   SFRSYM    DATA     BYTE      P6
      000000C8H   SFRSYM    DATA     BYTE      P5
      000000C0H   SFRSYM    DATA     BYTE      P4
      000000B0H   SFRSYM    DATA     BYTE      P3
      000000A0H   SFRSYM    DATA     BYTE      P2
      00000090H   SFRSYM    DATA     BYTE      P1
      00000080H   SFRSYM    DATA     BYTE      P0

      00FF558AH   BLOCK     CODE     ---       LVL=0
      WR6         REGSYM    ---      INT       tim_n
      00FF558AH   LINE      CODE     ---       #39
      00FF558AH   LINE      CODE     ---       #42
      00FF559EH   LINE      CODE     ---       #44
      00FF559EH   LINE      CODE     ---       #46
      00FF55A1H   LINE      CODE     ---       #47
      00FF55A4H   LINE      CODE     ---       #48
      00FF55A7H   LINE      CODE     ---       #49
      00FF55A9H   LINE      CODE     ---       #50
      00FF55AAH   LINE      CODE     ---       #53
      00FF55AAH   LINE      CODE     ---       #55
      00FF55ADH   LINE      CODE     ---       #56
      00FF55B0H   LINE      CODE     ---       #57
      00FF55B3H   LINE      CODE     ---       #58
      00FF55B5H   LINE      CODE     ---       #59
      00FF55B6H   LINE      CODE     ---       #62
      00FF55B6H   LINE      CODE     ---       #64
      00FF55B9H   LINE      CODE     ---       #65
      00FF55BCH   LINE      CODE     ---       #66
      00FF55BFH   LINE      CODE     ---       #67
      00FF55C0H   LINE      CODE     ---       #70
      00FF55C0H   LINE      CODE     ---       #72
      00FF55C3H   LINE      CODE     ---       #73
      00FF55C6H   LINE      CODE     ---       #74
      00FF55C9H   LINE      CODE     ---       #75
      00FF55CAH   LINE      CODE     ---       #78
      00FF55CAH   LINE      CODE     ---       #80
      00FF55CDH   LINE      CODE     ---       #81
      00FF55D0H   LINE      CODE     ---       #82
      00FF55D3H   LINE      CODE     ---       #83
      00FF55D3H   LINE      CODE     ---       #86
      00FF55D3H   LINE      CODE     ---       #87
      ---         BLOCKEND  ---      ---       LVL=0
      WR4         REGSYM    ---      INT       tim_n
      WR6         REGSYM    ---      WORD      dat
      WR6         REGSYM    ---      INT       tim_n

      00FF4E1BH   BLOCK     CODE     ---       LVL=0
      WR30        REGSYM    ---      INT       tim_n
      WR28        REGSYM    ---      WORD      time_ms
      00FF4E1DH   BLOCK     CODE     NEAR LAB  LVL=1
      WR28        REGSYM    ---      WORD      temp
      ---         BLOCKEND  ---      ---       LVL=1
      00FF4E1BH   LINE      CODE     ---       #198
      00FF4E1DH   LINE      CODE     ---       #199
      00FF4E1DH   LINE      CODE     ---       #201
      00FF4E3AH   LINE      CODE     ---       #203
      00FF4E3EH   LINE      CODE     ---       #205
      00FF4E42H   LINE      CODE     ---       #206
      00FF4E48H   LINE      CODE     ---       #207
      00FF4E4CH   LINE      CODE     ---       #208
      00FF4E4EH   LINE      CODE     ---       #209
      00FF4E50H   LINE      CODE     ---       #210
      00FF4E51H   LINE      CODE     ---       #211
L251 LINKER/LOCATER V4.66.93.0                                                        05/03/2023  20:46:59  PAGE 42


      00FF4E57H   LINE      CODE     ---       #213
      00FF4E5BH   LINE      CODE     ---       #214
      00FF4E61H   LINE      CODE     ---       #215
      00FF4E65H   LINE      CODE     ---       #216
      00FF4E67H   LINE      CODE     ---       #217
      00FF4E69H   LINE      CODE     ---       #218
      00FF4E6AH   LINE      CODE     ---       #219
      00FF4E70H   LINE      CODE     ---       #221
      00FF4E76H   LINE      CODE     ---       #222
      00FF4E7AH   LINE      CODE     ---       #223
      00FF4E7DH   LINE      CODE     ---       #224
      00FF4E80H   LINE      CODE     ---       #225
      00FF4E81H   LINE      CODE     ---       #226
      00FF4E87H   LINE      CODE     ---       #228
      00FF4E8DH   LINE      CODE     ---       #229
      00FF4E91H   LINE      CODE     ---       #230
      00FF4E94H   LINE      CODE     ---       #231
      00FF4E97H   LINE      CODE     ---       #232
      00FF4E98H   LINE      CODE     ---       #233
      00FF4E9EH   LINE      CODE     ---       #235
      00FF4EA4H   LINE      CODE     ---       #236
      00FF4EA8H   LINE      CODE     ---       #237
      00FF4EABH   LINE      CODE     ---       #238
      00FF4EAEH   LINE      CODE     ---       #239
      ---         BLOCKEND  ---      ---       LVL=0

      ---         MODULE    ---      ---       zf_uart
      00FF53A6H   PUBLIC    CODE     ---       uart_putchar
      00FF435FH   PUBLIC    CODE     ---       uart_init
      000004CAH   PUBLIC    EDATA    ---       uart1_rx_buff
      0000052EH   PUBLIC    EDATA    ---       uart1_tx_buff
      00000592H   PUBLIC    EDATA    ---       busy
      0000079BH   PUBLIC    EDATA    BYTE      ?uart_init?BYTE
      000000D0H   SFRSYM    DATA     BYTE      PSW
      0000009DH   SFRSYM    DATA     BYTE      IRCBAND
      00000097H   SFRSYM    DATA     BYTE      AUXR2
      000000EFH   SFRSYM    DATA     BYTE      AUXINTIF
      000000FDH   SFRSYM    DATA     BYTE      S4CON
      000000ACH   SFRSYM    DATA     BYTE      S3CON
      0000009AH   SFRSYM    DATA     BYTE      S2CON
      000000FEH   SFRSYM    DATA     BYTE      S4BUF
      000000ADH   SFRSYM    DATA     BYTE      S3BUF
      0000009BH   SFRSYM    DATA     BYTE      S2BUF
      000000B7H   SFRSYM    DATA     BYTE      IPH
      000000CDH   SFRSYM    DATA     BYTE      SPSTAT
      000000DDH   SFRSYM    DATA     BYTE      T4T3M
      000000C1H   SFRSYM    DATA     BYTE      WDT_CONTR
      00000088H.6 SFRSYM    DATA     BIT       TR1
      000000D3H   SFRSYM    DATA     BYTE      T4L
      000000D5H   SFRSYM    DATA     BYTE      T3L
      000000D7H   SFRSYM    DATA     BYTE      T2L
      0000008BH   SFRSYM    DATA     BYTE      TL1
      000000D2H   SFRSYM    DATA     BYTE      T4H
      000000D4H   SFRSYM    DATA     BYTE      T3H
      000000D6H   SFRSYM    DATA     BYTE      T2H
      0000008DH   SFRSYM    DATA     BYTE      TH1
      000000DFH   SFRSYM    DATA     BYTE      IP3
      000000F4H   SFRSYM    DATA     BYTE      USBCON
      000000B5H   SFRSYM    DATA     BYTE      IP2
      000000FFH   SFRSYM    DATA     BYTE      RSTCFG
      000000F9H   SFRSYM    DATA     BYTE      LINICR
      0000008EH   SFRSYM    DATA     BYTE      AUXR
      000000AFH   SFRSYM    DATA     BYTE      IE2
      00000088H   SFRSYM    DATA     BYTE      TCON
      00000089H   SFRSYM    DATA     BYTE      TMOD
L251 LINKER/LOCATER V4.66.93.0                                                        05/03/2023  20:46:59  PAGE 43


      00000098H   SFRSYM    DATA     BYTE      SCON
      000000F1H   SFRSYM    DATA     BYTE      CANICR
      00000087H   SFRSYM    DATA     BYTE      PCON
      00000099H   SFRSYM    DATA     BYTE      SBUF
      000000BCH   SFRSYM    DATA     BYTE      ADC_CONTR
      000000E7H   SFRSYM    DATA     BYTE      CMPCR2
      000000E6H   SFRSYM    DATA     BYTE      CMPCR1
      000000B8H   SFRSYM    DATA     BYTE      IP
      000000A8H.4 SFRSYM    DATA     BIT       ES
      0000008FH   SFRSYM    DATA     BYTE      INTCLKO
      000000EEH   SFRSYM    DATA     BYTE      IP3H
      000000B6H   SFRSYM    DATA     BYTE      IP2H
      000000A8H   SFRSYM    DATA     BYTE      IE
      000000BBH   SFRSYM    DATA     BYTE      P_SW3
      000000BAH   SFRSYM    DATA     BYTE      P_SW2
      000000A2H   SFRSYM    DATA     BYTE      P_SW1
      000000CEH   SFRSYM    DATA     BYTE      SPCTL
      000000F8H   SFRSYM    DATA     BYTE      P7
      000000E8H   SFRSYM    DATA     BYTE      P6
      000000C8H   SFRSYM    DATA     BYTE      P5
      000000C0H   SFRSYM    DATA     BYTE      P4
      000000C9H   SFRSYM    DATA     BYTE      P5M1
      000000B0H   SFRSYM    DATA     BYTE      P3
      000000CAH   SFRSYM    DATA     BYTE      P5M0
      000000A0H   SFRSYM    DATA     BYTE      P2
      00000090H   SFRSYM    DATA     BYTE      P1
      00000080H   SFRSYM    DATA     BYTE      P0

      00FF435FH   BLOCK     CODE     ---       LVL=0
      WR24        REGSYM    ---      INT       uart_n
      WR28        REGSYM    ---      INT       uart_rx_pin
      WR30        REGSYM    ---      INT       uart_tx_pin
      000007A1H   SYMBOL    EDATA    DWORD     baud
      WR26        REGSYM    ---      INT       tim_n
      00FF4367H   BLOCK     CODE     NEAR LAB  LVL=1
      WR6         REGSYM    ---      WORD      brt
      ---         BLOCKEND  ---      ---       LVL=1
      00FF435FH   LINE      CODE     ---       #48
      00FF4367H   LINE      CODE     ---       #49
      00FF4367H   LINE      CODE     ---       #52
      00FF438AH   LINE      CODE     ---       #55
      00FF43A8H   LINE      CODE     ---       #57
      00FF43A8H   LINE      CODE     ---       #59
      00FF43AEH   LINE      CODE     ---       #61
      00FF43B1H   LINE      CODE     ---       #62
      00FF43B5H   LINE      CODE     ---       #63
      00FF43B9H   LINE      CODE     ---       #64
      00FF43BDH   LINE      CODE     ---       #65
      00FF43C0H   LINE      CODE     ---       #66
      00FF43C2H   LINE      CODE     ---       #67
      00FF43C7H   LINE      CODE     ---       #68
      00FF43C9H   LINE      CODE     ---       #69
      00FF43CFH   LINE      CODE     ---       #71
      00FF43D2H   LINE      CODE     ---       #72
      00FF43D6H   LINE      CODE     ---       #73
      00FF43DAH   LINE      CODE     ---       #74
      00FF43DDH   LINE      CODE     ---       #75
      00FF43DDH   LINE      CODE     ---       #76
      00FF43E0H   LINE      CODE     ---       #77
      00FF43EAH   LINE      CODE     ---       #79
      00FF43EEH   LINE      CODE     ---       #80
      00FF43F0H   LINE      CODE     ---       #81
      00FF43FCH   LINE      CODE     ---       #83
      00FF43FFH   LINE      CODE     ---       #84
      00FF4401H   LINE      CODE     ---       #85
L251 LINKER/LOCATER V4.66.93.0                                                        05/03/2023  20:46:59  PAGE 44


      00FF440DH   LINE      CODE     ---       #87
      00FF4410H   LINE      CODE     ---       #88
      00FF4412H   LINE      CODE     ---       #89
      00FF441EH   LINE      CODE     ---       #91
      00FF4421H   LINE      CODE     ---       #92
      00FF4421H   LINE      CODE     ---       #93
      00FF4426H   LINE      CODE     ---       #94
      00FF4428H   LINE      CODE     ---       #95
      00FF4429H   LINE      CODE     ---       #98
      00FF4429H   LINE      CODE     ---       #100
      00FF442FH   LINE      CODE     ---       #102
      00FF4432H   LINE      CODE     ---       #103
      00FF4436H   LINE      CODE     ---       #104
      00FF443AH   LINE      CODE     ---       #105
      00FF443DH   LINE      CODE     ---       #106
      00FF443DH   LINE      CODE     ---       #108
      00FF4440H   LINE      CODE     ---       #109
      00FF444CH   LINE      CODE     ---       #111
      00FF4450H   LINE      CODE     ---       #112
      00FF4452H   LINE      CODE     ---       #113
      00FF445EH   LINE      CODE     ---       #115
      00FF4461H   LINE      CODE     ---       #116
      00FF4461H   LINE      CODE     ---       #118
      00FF4464H   LINE      CODE     ---       #119
      00FF4469H   LINE      CODE     ---       #120
      00FF446AH   LINE      CODE     ---       #123
      00FF446AH   LINE      CODE     ---       #125
      00FF4470H   LINE      CODE     ---       #127
      00FF4473H   LINE      CODE     ---       #128
      00FF4477H   LINE      CODE     ---       #129
      00FF447BH   LINE      CODE     ---       #130
      00FF447EH   LINE      CODE     ---       #131
      00FF4480H   LINE      CODE     ---       #132
      00FF4486H   LINE      CODE     ---       #134
      00FF4489H   LINE      CODE     ---       #135
      00FF448DH   LINE      CODE     ---       #136
      00FF4491H   LINE      CODE     ---       #137
      00FF4494H   LINE      CODE     ---       #138
      00FF4494H   LINE      CODE     ---       #140
      00FF4497H   LINE      CODE     ---       #141
      00FF44A3H   LINE      CODE     ---       #143
      00FF44A7H   LINE      CODE     ---       #144
      00FF44A9H   LINE      CODE     ---       #145
      00FF44B5H   LINE      CODE     ---       #147
      00FF44B8H   LINE      CODE     ---       #148
      00FF44B8H   LINE      CODE     ---       #150
      00FF44BBH   LINE      CODE     ---       #151
      00FF44C0H   LINE      CODE     ---       #152
      00FF44C1H   LINE      CODE     ---       #155
      00FF44C1H   LINE      CODE     ---       #157
      00FF44C7H   LINE      CODE     ---       #159
      00FF44CAH   LINE      CODE     ---       #160
      00FF44CEH   LINE      CODE     ---       #161
      00FF44D2H   LINE      CODE     ---       #162
      00FF44D5H   LINE      CODE     ---       #163
      00FF44D7H   LINE      CODE     ---       #164
      00FF44DDH   LINE      CODE     ---       #166
      00FF44E0H   LINE      CODE     ---       #167
      00FF44E4H   LINE      CODE     ---       #168
      00FF44E8H   LINE      CODE     ---       #169
      00FF44EBH   LINE      CODE     ---       #170
      00FF44EBH   LINE      CODE     ---       #172
      00FF44EEH   LINE      CODE     ---       #173
      00FF44FAH   LINE      CODE     ---       #175
      00FF44FEH   LINE      CODE     ---       #176
L251 LINKER/LOCATER V4.66.93.0                                                        05/03/2023  20:46:59  PAGE 45


      00FF4500H   LINE      CODE     ---       #177
      00FF450CH   LINE      CODE     ---       #179
      00FF450FH   LINE      CODE     ---       #180
      00FF4512H   LINE      CODE     ---       #181
      00FF4515H   LINE      CODE     ---       #182
      00FF4515H   LINE      CODE     ---       #183
      00FF4518H   LINE      CODE     ---       #184
      00FF451DH   LINE      CODE     ---       #185
      00FF451DH   LINE      CODE     ---       #188
      00FF451DH   LINE      CODE     ---       #190
      ---         BLOCKEND  ---      ---       LVL=0

      00FF53A6H   BLOCK     CODE     ---       LVL=0
      WR6         REGSYM    ---      INT       uart_n
      R10         REGSYM    ---      BYTE      dat
      00FF53A6H   LINE      CODE     ---       #199
      00FF53A8H   LINE      CODE     ---       #201
      00FF53BAH   LINE      CODE     ---       #203
      00FF53BAH   LINE      CODE     ---       #204
      00FF53C0H   LINE      CODE     ---       #205
      00FF53C6H   LINE      CODE     ---       #206
      00FF53C9H   LINE      CODE     ---       #207
      00FF53CAH   LINE      CODE     ---       #208
      00FF53CAH   LINE      CODE     ---       #209
      00FF53D0H   LINE      CODE     ---       #210
      00FF53D6H   LINE      CODE     ---       #211
      00FF53D9H   LINE      CODE     ---       #212
      00FF53DAH   LINE      CODE     ---       #213
      00FF53DAH   LINE      CODE     ---       #214
      00FF53E0H   LINE      CODE     ---       #215
      00FF53E6H   LINE      CODE     ---       #216
      00FF53E9H   LINE      CODE     ---       #217
      00FF53EAH   LINE      CODE     ---       #218
      00FF53EAH   LINE      CODE     ---       #219
      00FF53F0H   LINE      CODE     ---       #220
      00FF53F6H   LINE      CODE     ---       #221
      00FF53F9H   LINE      CODE     ---       #222
      00FF53F9H   LINE      CODE     ---       #223
      00FF53F9H   LINE      CODE     ---       #224
      ---         BLOCKEND  ---      ---       LVL=0
      REG=3       REGSYM    ---      ---       p
      REG=3       REGSYM    ---      ---       str

      ---         MODULE    ---      ---       zf_fifo
      00FF56EDH   PUBLIC    CODE     ---       fifo_head_offset
      00FF47B3H   PUBLIC    CODE     ---       fifo_write_buffer
      0000078BH   PUBLIC    EDATA    BYTE      ?fifo_write_buffer?BYTE
      000000D0H   SFRSYM    DATA     BYTE      PSW
      0000009DH   SFRSYM    DATA     BYTE      IRCBAND
      00000097H   SFRSYM    DATA     BYTE      AUXR2
      000000EFH   SFRSYM    DATA     BYTE      AUXINTIF
      000000FDH   SFRSYM    DATA     BYTE      S4CON
      000000ACH   SFRSYM    DATA     BYTE      S3CON
      0000009AH   SFRSYM    DATA     BYTE      S2CON
      000000B7H   SFRSYM    DATA     BYTE      IPH
      000000CDH   SFRSYM    DATA     BYTE      SPSTAT
      000000DDH   SFRSYM    DATA     BYTE      T4T3M
      000000C1H   SFRSYM    DATA     BYTE      WDT_CONTR
      000000DFH   SFRSYM    DATA     BYTE      IP3
      000000F4H   SFRSYM    DATA     BYTE      USBCON
      000000B5H   SFRSYM    DATA     BYTE      IP2
      000000FFH   SFRSYM    DATA     BYTE      RSTCFG
      000000F9H   SFRSYM    DATA     BYTE      LINICR
      0000008EH   SFRSYM    DATA     BYTE      AUXR
      000000AFH   SFRSYM    DATA     BYTE      IE2
L251 LINKER/LOCATER V4.66.93.0                                                        05/03/2023  20:46:59  PAGE 46


      00000088H   SFRSYM    DATA     BYTE      TCON
      00000098H   SFRSYM    DATA     BYTE      SCON
      000000F1H   SFRSYM    DATA     BYTE      CANICR
      00000087H   SFRSYM    DATA     BYTE      PCON
      000000BCH   SFRSYM    DATA     BYTE      ADC_CONTR
      000000E7H   SFRSYM    DATA     BYTE      CMPCR2
      000000E6H   SFRSYM    DATA     BYTE      CMPCR1
      000000B8H   SFRSYM    DATA     BYTE      IP
      0000008FH   SFRSYM    DATA     BYTE      INTCLKO
      000000EEH   SFRSYM    DATA     BYTE      IP3H
      000000B6H   SFRSYM    DATA     BYTE      IP2H
      000000A8H   SFRSYM    DATA     BYTE      IE
      000000BBH   SFRSYM    DATA     BYTE      P_SW3
      000000BAH   SFRSYM    DATA     BYTE      P_SW2
      000000A2H   SFRSYM    DATA     BYTE      P_SW1
      000000CEH   SFRSYM    DATA     BYTE      SPCTL
      000000F8H   SFRSYM    DATA     BYTE      P7
      000000E8H   SFRSYM    DATA     BYTE      P6
      000000C8H   SFRSYM    DATA     BYTE      P5
      000000C0H   SFRSYM    DATA     BYTE      P4
      000000B0H   SFRSYM    DATA     BYTE      P3
      000000A0H   SFRSYM    DATA     BYTE      P2
      00000090H   SFRSYM    DATA     BYTE      P1
      00000080H   SFRSYM    DATA     BYTE      P0
      REG=2       REGSYM    ---      ---       fifo
      REG=7       REGSYM    ---      ---       buffer_addr

      00FF56EDH   BLOCK     CODE     ---       LVL=0
      REG=7       REGSYM    ---      ---       fifo
      DR24        REGSYM    ---      DWORD     offset
      00FF56EDH   LINE      CODE     ---       #61
      00FF56F1H   LINE      CODE     ---       #63
      00FF56FCH   LINE      CODE     ---       #65
      00FF56FEH   LINE      CODE     ---       #67
      00FF571AH   LINE      CODE     ---       #68
      00FF572EH   LINE      CODE     ---       #69
      ---         BLOCKEND  ---      ---       LVL=0
      REG=7       REGSYM    ---      ---       fifo
      DR24        REGSYM    ---      DWORD     offset
      REG=2       REGSYM    ---      ---       fifo
      REG=7       REGSYM    ---      ---       fifo

      00FF47B3H   BLOCK     CODE     ---       LVL=0
      REG=3       REGSYM    ---      ---       fifo
      0000078FH   SYMBOL    EDATA    ---       dat
      00000793H   SYMBOL    EDATA    DWORD     length
      00FF47BBH   BLOCK     CODE     NEAR LAB  LVL=1
      00000797H   SYMBOL    EDATA    DWORD     temp_length
      ---         BLOCKEND  ---      ---       LVL=1
      00FF47B3H   LINE      CODE     ---       #120
      00FF47BBH   LINE      CODE     ---       #121
      00FF47BBH   LINE      CODE     ---       #124
      00FF47CEH   LINE      CODE     ---       #126
      00FF47E4H   LINE      CODE     ---       #128
      00FF47E8H   LINE      CODE     ---       #130
      00FF4800H   LINE      CODE     ---       #131
      00FF4809H   LINE      CODE     ---       #132
      00FF4819H   LINE      CODE     ---       #133
      00FF4839H   LINE      CODE     ---       #134
      00FF4845H   LINE      CODE     ---       #135
      00FF4847H   LINE      CODE     ---       #138
      00FF4863H   LINE      CODE     ---       #139
      00FF486CH   LINE      CODE     ---       #140
      00FF486CH   LINE      CODE     ---       #142
      00FF4886H   LINE      CODE     ---       #143
L251 LINKER/LOCATER V4.66.93.0                                                        05/03/2023  20:46:59  PAGE 47


      00FF4888H   LINE      CODE     ---       #146
      00FF488EH   LINE      CODE     ---       #147
      00FF488EH   LINE      CODE     ---       #149
      00FF4890H   LINE      CODE     ---       #150
      ---         BLOCKEND  ---      ---       LVL=0
      REG=3       REGSYM    ---      ---       fifo

      ---         MODULE    ---      ---       SEEKFREE_ABSOLUTE_ENCODER
      00FF0006H   PUBLIC    CODE     ---       encoder_delay_us
      000000D0H   SFRSYM    DATA     BYTE      PSW
      0000009DH   SFRSYM    DATA     BYTE      IRCBAND
      00000097H   SFRSYM    DATA     BYTE      AUXR2
      000000EFH   SFRSYM    DATA     BYTE      AUXINTIF
      000000FDH   SFRSYM    DATA     BYTE      S4CON
      000000ACH   SFRSYM    DATA     BYTE      S3CON
      0000009AH   SFRSYM    DATA     BYTE      S2CON
      000000B7H   SFRSYM    DATA     BYTE      IPH
      000000CDH   SFRSYM    DATA     BYTE      SPSTAT
      000000DDH   SFRSYM    DATA     BYTE      T4T3M
      000000C1H   SFRSYM    DATA     BYTE      WDT_CONTR
      000000DFH   SFRSYM    DATA     BYTE      IP3
      000000F4H   SFRSYM    DATA     BYTE      USBCON
      000000B5H   SFRSYM    DATA     BYTE      IP2
      000000FFH   SFRSYM    DATA     BYTE      RSTCFG
      000000F9H   SFRSYM    DATA     BYTE      LINICR
      0000008EH   SFRSYM    DATA     BYTE      AUXR
      000000AFH   SFRSYM    DATA     BYTE      IE2
      000000A0H.7 SFRSYM    DATA     BIT       P27
      000000A0H.6 SFRSYM    DATA     BIT       P26
      000000A0H.5 SFRSYM    DATA     BIT       P25
      000000A0H.4 SFRSYM    DATA     BIT       P24
      00000088H   SFRSYM    DATA     BYTE      TCON
      00000098H   SFRSYM    DATA     BYTE      SCON
      000000A0H.2 SFRSYM    DATA     BIT       P22
      000000F1H   SFRSYM    DATA     BYTE      CANICR
      00000087H   SFRSYM    DATA     BYTE      PCON
      000000BCH   SFRSYM    DATA     BYTE      ADC_CONTR
      000000E7H   SFRSYM    DATA     BYTE      CMPCR2
      000000E6H   SFRSYM    DATA     BYTE      CMPCR1
      000000B8H   SFRSYM    DATA     BYTE      IP
      0000008FH   SFRSYM    DATA     BYTE      INTCLKO
      000000EEH   SFRSYM    DATA     BYTE      IP3H
      000000B6H   SFRSYM    DATA     BYTE      IP2H
      000000A8H   SFRSYM    DATA     BYTE      IE
      000000BBH   SFRSYM    DATA     BYTE      P_SW3
      000000BAH   SFRSYM    DATA     BYTE      P_SW2
      000000A2H   SFRSYM    DATA     BYTE      P_SW1
      000000CEH   SFRSYM    DATA     BYTE      SPCTL
      000000F8H   SFRSYM    DATA     BYTE      P7
      000000E8H   SFRSYM    DATA     BYTE      P6
      000000C8H   SFRSYM    DATA     BYTE      P5
      000000C0H   SFRSYM    DATA     BYTE      P4
      000000B0H   SFRSYM    DATA     BYTE      P3
      000000A0H   SFRSYM    DATA     BYTE      P2
      00000090H   SFRSYM    DATA     BYTE      P1
      00000080H   SFRSYM    DATA     BYTE      P0

      00FF0006H   BLOCK     CODE     ---       LVL=0
      WR6         REGSYM    ---      WORD      x
      00FF0006H   LINE      CODE     ---       #43
      00FF0006H   LINE      CODE     ---       #45
      ---         BLOCKEND  ---      ---       LVL=0
      R6          REGSYM    ---      BYTE      byte
      R7          REGSYM    ---      BYTE      i
      R7          REGSYM    ---      BYTE      cmd
L251 LINKER/LOCATER V4.66.93.0                                                        05/03/2023  20:46:59  PAGE 48


      R15         REGSYM    ---      BYTE      val
      R7          REGSYM    ---      BYTE      cmd
      REG=3       REGSYM    ---      ---       val
      R7          REGSYM    ---      BYTE      cmd
      R15         REGSYM    ---      BYTE      val
      R14         REGSYM    ---      BYTE      dat
      R7          REGSYM    ---      BYTE      cmd
      REG=3       REGSYM    ---      ---       val
      WR14        REGSYM    ---      WORD      zero_position
      WR14        REGSYM    ---      WORD      angle
      R10         REGSYM    ---      BYTE      byte
      R7          REGSYM    ---      BYTE      cmd
      R15         REGSYM    ---      BYTE      val
      R7          REGSYM    ---      BYTE      cmd
      REG=3       REGSYM    ---      ---       val
      R7          REGSYM    ---      BYTE      cmd
      R15         REGSYM    ---      BYTE      val
      R14         REGSYM    ---      BYTE      dat
      R7          REGSYM    ---      BYTE      cmd
      REG=3       REGSYM    ---      ---       val
      WR14        REGSYM    ---      WORD      zero_position
      WR14        REGSYM    ---      WORD      angle

      ---         MODULE    ---      ---       SEEKFREE_AT24C02
      000000D0H   SFRSYM    DATA     BYTE      PSW
      0000009DH   SFRSYM    DATA     BYTE      IRCBAND
      00000097H   SFRSYM    DATA     BYTE      AUXR2
      000000EFH   SFRSYM    DATA     BYTE      AUXINTIF
      000000FDH   SFRSYM    DATA     BYTE      S4CON
      000000ACH   SFRSYM    DATA     BYTE      S3CON
      0000009AH   SFRSYM    DATA     BYTE      S2CON
      000000B7H   SFRSYM    DATA     BYTE      IPH
      000000CDH   SFRSYM    DATA     BYTE      SPSTAT
      000000DDH   SFRSYM    DATA     BYTE      T4T3M
      000000C1H   SFRSYM    DATA     BYTE      WDT_CONTR
      000000DFH   SFRSYM    DATA     BYTE      IP3
      000000F4H   SFRSYM    DATA     BYTE      USBCON
      000000B5H   SFRSYM    DATA     BYTE      IP2
      000000FFH   SFRSYM    DATA     BYTE      RSTCFG
      000000F9H   SFRSYM    DATA     BYTE      LINICR
      0000008EH   SFRSYM    DATA     BYTE      AUXR
      000000AFH   SFRSYM    DATA     BYTE      IE2
      00000088H   SFRSYM    DATA     BYTE      TCON
      000000A0H.3 SFRSYM    DATA     BIT       P23
      00000098H   SFRSYM    DATA     BYTE      SCON
      000000A0H.2 SFRSYM    DATA     BIT       P22
      000000F1H   SFRSYM    DATA     BYTE      CANICR
      00000087H   SFRSYM    DATA     BYTE      PCON
      000000BCH   SFRSYM    DATA     BYTE      ADC_CONTR
      000000E7H   SFRSYM    DATA     BYTE      CMPCR2
      000000E6H   SFRSYM    DATA     BYTE      CMPCR1
      000000B8H   SFRSYM    DATA     BYTE      IP
      0000008FH   SFRSYM    DATA     BYTE      INTCLKO
      000000EEH   SFRSYM    DATA     BYTE      IP3H
      000000B6H   SFRSYM    DATA     BYTE      IP2H
      000000A8H   SFRSYM    DATA     BYTE      IE
      000000BBH   SFRSYM    DATA     BYTE      P_SW3
      000000BAH   SFRSYM    DATA     BYTE      P_SW2
      000000A2H   SFRSYM    DATA     BYTE      P_SW1
      000000CEH   SFRSYM    DATA     BYTE      SPCTL
      000000F8H   SFRSYM    DATA     BYTE      P7
      000000E8H   SFRSYM    DATA     BYTE      P6
      000000C8H   SFRSYM    DATA     BYTE      P5
      000000C0H   SFRSYM    DATA     BYTE      P4
      000000B0H   SFRSYM    DATA     BYTE      P3
L251 LINKER/LOCATER V4.66.93.0                                                        05/03/2023  20:46:59  PAGE 49


      000000A0H   SFRSYM    DATA     BYTE      P2
      00000090H   SFRSYM    DATA     BYTE      P1
      00000080H   SFRSYM    DATA     BYTE      P0
      00FF5D4DH   SYMBOL    CODE     ---       at24c02_simiic_stop
      00FF5B4CH   SYMBOL    CODE     ---       at24c02_simiic_sendack
      00FF0046H   SYMBOL    CODE     ---       at24c02_simiic_delay

      00FF0046H   BLOCK     CODE     ---       LVL=0
      WR6         REGSYM    ---      WORD      j
      00FF0046H   LINE      CODE     ---       #45
      00FF0046H   LINE      CODE     ---       #46
      00FF0046H   LINE      CODE     ---       #47
      00FF004AH   LINE      CODE     ---       #48
      00FF0052H   LINE      CODE     ---       #49
      ---         BLOCKEND  ---      ---       LVL=0

      00FF5D4DH   BLOCK     CODE     ---       LVL=0
      00FF5D4DH   LINE      CODE     ---       #63
      00FF5D4DH   LINE      CODE     ---       #65
      00FF5D4FH   LINE      CODE     ---       #66
      00FF5D51H   LINE      CODE     ---       #67
      00FF5D54H   LINE      CODE     ---       #68
      00FF5D56H   LINE      CODE     ---       #69
      00FF5D59H   LINE      CODE     ---       #70
      00FF5D5BH   LINE      CODE     ---       #71
      ---         BLOCKEND  ---      ---       LVL=0

      00FF5B4CH   BLOCK     CODE     ---       LVL=0
      R15         REGSYM    ---      BYTE      ack_dat
      00FF5B4CH   LINE      CODE     ---       #76
      00FF5B50H   LINE      CODE     ---       #78
      00FF5B52H   LINE      CODE     ---       #79
      00FF5B55H   LINE      CODE     ---       #80
      00FF5B5DH   LINE      CODE     ---       #81
      00FF5B5FH   LINE      CODE     ---       #83
      00FF5B61H   LINE      CODE     ---       #84
      00FF5B64H   LINE      CODE     ---       #85
      00FF5B66H   LINE      CODE     ---       #86
      00FF5B69H   LINE      CODE     ---       #87
      ---         BLOCKEND  ---      ---       LVL=0
      R15         REGSYM    ---      BYTE      c
      R14         REGSYM    ---      BYTE      i
      R15         REGSYM    ---      BYTE      ack_x
      R13         REGSYM    ---      BYTE      i
      R14         REGSYM    ---      BYTE      c
      R13         REGSYM    ---      BYTE      dev_add
      R14         REGSYM    ---      BYTE      reg
      R15         REGSYM    ---      BYTE      dat
      R15         REGSYM    ---      BYTE      dev_add
      R14         REGSYM    ---      BYTE      reg
      R15         REGSYM    ---      BYTE      dat
      R14         REGSYM    ---      BYTE      byte_reg
      R15         REGSYM    ---      BYTE      dat
      R15         REGSYM    ---      BYTE      byte_reg
      REG=3       REGSYM    ---      ---       dat_add
      REG=3       REGSYM    ---      ---       dat_add

      ---         MODULE    ---      ---       SEEKFREE_BLUETOOTH_CH9141
      00FF5C5BH   PUBLIC    CODE     ---       bluetooth_ch9141_uart_callback
      000000D0H   SFRSYM    DATA     BYTE      PSW
      0000009DH   SFRSYM    DATA     BYTE      IRCBAND
      00000097H   SFRSYM    DATA     BYTE      AUXR2
      000000EFH   SFRSYM    DATA     BYTE      AUXINTIF
      000000FDH   SFRSYM    DATA     BYTE      S4CON
      000000ACH   SFRSYM    DATA     BYTE      S3CON
L251 LINKER/LOCATER V4.66.93.0                                                        05/03/2023  20:46:59  PAGE 50


      0000009AH   SFRSYM    DATA     BYTE      S2CON
      000000FEH   SFRSYM    DATA     BYTE      S4BUF
      000000B7H   SFRSYM    DATA     BYTE      IPH
      000000CDH   SFRSYM    DATA     BYTE      SPSTAT
      000000DDH   SFRSYM    DATA     BYTE      T4T3M
      000000C1H   SFRSYM    DATA     BYTE      WDT_CONTR
      000000DFH   SFRSYM    DATA     BYTE      IP3
      000000F4H   SFRSYM    DATA     BYTE      USBCON
      000000B5H   SFRSYM    DATA     BYTE      IP2
      000000FFH   SFRSYM    DATA     BYTE      RSTCFG
      000000F9H   SFRSYM    DATA     BYTE      LINICR
      0000008EH   SFRSYM    DATA     BYTE      AUXR
      000000AFH   SFRSYM    DATA     BYTE      IE2
      00000080H.7 SFRSYM    DATA     BIT       P07
      00000088H   SFRSYM    DATA     BYTE      TCON
      00000098H   SFRSYM    DATA     BYTE      SCON
      000000F1H   SFRSYM    DATA     BYTE      CANICR
      00000087H   SFRSYM    DATA     BYTE      PCON
      000000BCH   SFRSYM    DATA     BYTE      ADC_CONTR
      000000E7H   SFRSYM    DATA     BYTE      CMPCR2
      000000E6H   SFRSYM    DATA     BYTE      CMPCR1
      000000B8H   SFRSYM    DATA     BYTE      IP
      0000008FH   SFRSYM    DATA     BYTE      INTCLKO
      000000EEH   SFRSYM    DATA     BYTE      IP3H
      000000B6H   SFRSYM    DATA     BYTE      IP2H
      000000A8H   SFRSYM    DATA     BYTE      IE
      000000BBH   SFRSYM    DATA     BYTE      P_SW3
      000000BAH   SFRSYM    DATA     BYTE      P_SW2
      000000A2H   SFRSYM    DATA     BYTE      P_SW1
      000000CEH   SFRSYM    DATA     BYTE      SPCTL
      000000F8H   SFRSYM    DATA     BYTE      P7
      000000E8H   SFRSYM    DATA     BYTE      P6
      000000C8H   SFRSYM    DATA     BYTE      P5
      000000C0H   SFRSYM    DATA     BYTE      P4
      000000B0H   SFRSYM    DATA     BYTE      P3
      000000A0H   SFRSYM    DATA     BYTE      P2
      00000090H   SFRSYM    DATA     BYTE      P1
      00000080H   SFRSYM    DATA     BYTE      P0
      00000690H   SYMBOL    EDATA    ---       bluetooth_ch9141_buffer
      000006D0H   SYMBOL    EDATA    BYTE      bluetooth_ch9141_data
      000006D1H   SYMBOL    EDATA    ---       bluetooth_ch9141_fifo

      00FF5C5BH   BLOCK     CODE     ---       LVL=0
      00FF5C5BH   LINE      CODE     ---       #67
      00FF5C5BH   LINE      CODE     ---       #70
      00FF5C61H   LINE      CODE     ---       #71
      ---         BLOCKEND  ---      ---       LVL=0
      DR12        REGSYM    ---      DWORD     len
      REG=7       REGSYM    ---      ---       buff
      DR8         REGSYM    ---      DWORD     len

      ---         MODULE    ---      ---       SEEKFREE_DL1A
      00000842H   PUBLIC    EDATA    WORD      dl1a_distance_mm
      00000844H   PUBLIC    EDATA    BYTE      dl1a_finsh_flag
      000000D0H   SFRSYM    DATA     BYTE      PSW
      0000009DH   SFRSYM    DATA     BYTE      IRCBAND
      00000097H   SFRSYM    DATA     BYTE      AUXR2
      000000EFH   SFRSYM    DATA     BYTE      AUXINTIF
      000000FDH   SFRSYM    DATA     BYTE      S4CON
      000000ACH   SFRSYM    DATA     BYTE      S3CON
      0000009AH   SFRSYM    DATA     BYTE      S2CON
      000000B7H   SFRSYM    DATA     BYTE      IPH
      000000CDH   SFRSYM    DATA     BYTE      SPSTAT
      000000DDH   SFRSYM    DATA     BYTE      T4T3M
      000000C1H   SFRSYM    DATA     BYTE      WDT_CONTR
L251 LINKER/LOCATER V4.66.93.0                                                        05/03/2023  20:46:59  PAGE 51


      000000DFH   SFRSYM    DATA     BYTE      IP3
      000000F4H   SFRSYM    DATA     BYTE      USBCON
      000000B5H   SFRSYM    DATA     BYTE      IP2
      000000FFH   SFRSYM    DATA     BYTE      RSTCFG
      000000F9H   SFRSYM    DATA     BYTE      LINICR
      0000008EH   SFRSYM    DATA     BYTE      AUXR
      000000AFH   SFRSYM    DATA     BYTE      IE2
      000000A0H.7 SFRSYM    DATA     BIT       P27
      000000C0H.5 SFRSYM    DATA     BIT       P45
      000000A0H.6 SFRSYM    DATA     BIT       P26
      00000088H   SFRSYM    DATA     BYTE      TCON
      00000098H   SFRSYM    DATA     BYTE      SCON
      000000F1H   SFRSYM    DATA     BYTE      CANICR
      00000087H   SFRSYM    DATA     BYTE      PCON
      000000BCH   SFRSYM    DATA     BYTE      ADC_CONTR
      000000E7H   SFRSYM    DATA     BYTE      CMPCR2
      000000E6H   SFRSYM    DATA     BYTE      CMPCR1
      000000B8H   SFRSYM    DATA     BYTE      IP
      0000008FH   SFRSYM    DATA     BYTE      INTCLKO
      000000EEH   SFRSYM    DATA     BYTE      IP3H
      000000B6H   SFRSYM    DATA     BYTE      IP2H
      000000A8H   SFRSYM    DATA     BYTE      IE
      000000BBH   SFRSYM    DATA     BYTE      P_SW3
      000000BAH   SFRSYM    DATA     BYTE      P_SW2
      000000A2H   SFRSYM    DATA     BYTE      P_SW1
      000000CEH   SFRSYM    DATA     BYTE      SPCTL
      000000F8H   SFRSYM    DATA     BYTE      P7
      000000E8H   SFRSYM    DATA     BYTE      P6
      000000C8H   SFRSYM    DATA     BYTE      P5
      000000C0H   SFRSYM    DATA     BYTE      P4
      000000B0H   SFRSYM    DATA     BYTE      P3
      000000A0H   SFRSYM    DATA     BYTE      P2
      00000090H   SFRSYM    DATA     BYTE      P1
      00000080H   SFRSYM    DATA     BYTE      P0
      00FF5B6CH   SYMBOL    CODE     ---       dl1a_simiic_sendack
      00FF57E9H   SYMBOL    CODE     ---       dl1a_timeout_microseconds_to_mclks
      00FF576EH   SYMBOL    CODE     ---       dl1a_timeout_mclks_to_microseconds
      00FF5825H   SYMBOL    CODE     ---       dl1a_read_ch
      00FF5D80H   SYMBOL    CODE     ---       dl1a_decode_timeout
      00FF59C2H   SYMBOL    CODE     ---       dl1a_send_ch
      00FF58CEH   SYMBOL    CODE     ---       dl1a_encode_timeout
      00FF534EH   SYMBOL    CODE     ---       dl1a_get_sequence_step_enables
      00FF0026H   SYMBOL    CODE     ---       dl1a_sccb_waitack
      00FF5DCAH   SYMBOL    CODE     ---       dl1a_simiic_delay
      00FF4893H   SYMBOL    CODE     ---       dl1a_get_sequence_step_timeouts
      00FF5D90H   SYMBOL    CODE     ---       dl1a_simiic_start
      00FF53FAH   SYMBOL    CODE     ---       dl1a_simiic_read_regs
      00FF5899H   SYMBOL    CODE     ---       dl1a_simiic_write_dats
      00FF5D5EH   SYMBOL    CODE     ---       dl1a_simiic_stop
      00FF54F0H   SYMBOL    CODE     ---       dl1a_get_vcsel_pulse_period

      00FF5DCAH   BLOCK     CODE     ---       LVL=0
      WR6         REGSYM    ---      WORD      j
      00FF5DCAH   LINE      CODE     ---       #75
      00FF5DCAH   LINE      CODE     ---       #76
      00FF5DCAH   LINE      CODE     ---       #77
      00FF5DCEH   LINE      CODE     ---       #78
      00FF5DD6H   LINE      CODE     ---       #79
      ---         BLOCKEND  ---      ---       LVL=0

      00FF5D90H   BLOCK     CODE     ---       LVL=0
      00FF5D90H   LINE      CODE     ---       #82
      00FF5D90H   LINE      CODE     ---       #84
      00FF5D92H   LINE      CODE     ---       #85
      00FF5D94H   LINE      CODE     ---       #86
L251 LINKER/LOCATER V4.66.93.0                                                        05/03/2023  20:46:59  PAGE 52


      00FF5D97H   LINE      CODE     ---       #87
      00FF5D99H   LINE      CODE     ---       #88
      00FF5D9CH   LINE      CODE     ---       #89
      00FF5D9EH   LINE      CODE     ---       #90
      ---         BLOCKEND  ---      ---       LVL=0

      00FF5D5EH   BLOCK     CODE     ---       LVL=0
      00FF5D5EH   LINE      CODE     ---       #93
      00FF5D5EH   LINE      CODE     ---       #95
      00FF5D60H   LINE      CODE     ---       #96
      00FF5D62H   LINE      CODE     ---       #97
      00FF5D65H   LINE      CODE     ---       #98
      00FF5D67H   LINE      CODE     ---       #99
      00FF5D6AH   LINE      CODE     ---       #100
      00FF5D6CH   LINE      CODE     ---       #101
      ---         BLOCKEND  ---      ---       LVL=0

      00FF5B6CH   BLOCK     CODE     ---       LVL=0
      R15         REGSYM    ---      BYTE      ack_dat
      00FF5B6CH   LINE      CODE     ---       #106
      00FF5B70H   LINE      CODE     ---       #108
      00FF5B72H   LINE      CODE     ---       #109
      00FF5B75H   LINE      CODE     ---       #110
      00FF5B7DH   LINE      CODE     ---       #111
      00FF5B7FH   LINE      CODE     ---       #113
      00FF5B81H   LINE      CODE     ---       #114
      00FF5B84H   LINE      CODE     ---       #115
      00FF5B86H   LINE      CODE     ---       #116
      00FF5B89H   LINE      CODE     ---       #117
      ---         BLOCKEND  ---      ---       LVL=0

      00FF0026H   BLOCK     CODE     ---       LVL=0
      00FF0026H   LINE      CODE     ---       #120
      00FF0026H   LINE      CODE     ---       #122
      00FF0028H   LINE      CODE     ---       #124
      00FF002BH   LINE      CODE     ---       #126
      00FF002DH   LINE      CODE     ---       #127
      00FF0030H   LINE      CODE     ---       #129
      00FF0033H   LINE      CODE     ---       #132
      00FF0035H   LINE      CODE     ---       #133
      00FF0038H   LINE      CODE     ---       #134
      00FF0038H   LINE      CODE     ---       #136
      00FF003AH   LINE      CODE     ---       #137
      00FF003DH   LINE      CODE     ---       #138
      00FF0041H   LINE      CODE     ---       #139
      ---         BLOCKEND  ---      ---       LVL=0

      00FF59C2H   BLOCK     CODE     ---       LVL=0
      R15         REGSYM    ---      BYTE      c
      00FF59C6H   BLOCK     CODE     NEAR LAB  LVL=1
      R14         REGSYM    ---      BYTE      i
      ---         BLOCKEND  ---      ---       LVL=1
      00FF59C2H   LINE      CODE     ---       #145
      00FF59C6H   LINE      CODE     ---       #146
      00FF59C6H   LINE      CODE     ---       #147
      00FF59C9H   LINE      CODE     ---       #148
      00FF59CBH   LINE      CODE     ---       #150
      00FF59D4H   LINE      CODE     ---       #151
      00FF59D6H   LINE      CODE     ---       #152
      00FF59D8H   LINE      CODE     ---       #153
      00FF59DBH   LINE      CODE     ---       #154
      00FF59DDH   LINE      CODE     ---       #155
      00FF59E0H   LINE      CODE     ---       #156
      00FF59E2H   LINE      CODE     ---       #157
      00FF59EAH   LINE      CODE     ---       #158
L251 LINKER/LOCATER V4.66.93.0                                                        05/03/2023  20:46:59  PAGE 53


      00FF59EDH   LINE      CODE     ---       #159
      ---         BLOCKEND  ---      ---       LVL=0

      00FF5825H   BLOCK     CODE     ---       LVL=0
      R15         REGSYM    ---      BYTE      ack_x
      00FF582BH   BLOCK     CODE     NEAR LAB  LVL=1
      R13         REGSYM    ---      BYTE      i
      R14         REGSYM    ---      BYTE      c
      ---         BLOCKEND  ---      ---       LVL=1
      00FF5825H   LINE      CODE     ---       #165
      00FF582BH   LINE      CODE     ---       #166
      00FF582BH   LINE      CODE     ---       #169
      00FF582DH   LINE      CODE     ---       #170
      00FF582FH   LINE      CODE     ---       #171
      00FF5832H   LINE      CODE     ---       #172
      00FF5834H   LINE      CODE     ---       #174
      00FF5837H   LINE      CODE     ---       #176
      00FF583AH   LINE      CODE     ---       #177
      00FF583CH   LINE      CODE     ---       #178
      00FF583FH   LINE      CODE     ---       #179
      00FF5841H   LINE      CODE     ---       #180
      00FF5844H   LINE      CODE     ---       #181
      00FF5846H   LINE      CODE     ---       #182
      00FF5849H   LINE      CODE     ---       #184
      00FF584BH   LINE      CODE     ---       #185
      00FF584FH   LINE      CODE     ---       #188
      00FF5851H   LINE      CODE     ---       #189
      00FF5854H   LINE      CODE     ---       #190
      00FF5859H   LINE      CODE     ---       #192
      00FF585BH   LINE      CODE     ---       #193
      ---         BLOCKEND  ---      ---       LVL=0

      00FF5899H   BLOCK     CODE     ---       LVL=0
      00000825H   SYMBOL    EDATA    BYTE      dev_add
      00000826H   SYMBOL    EDATA    ---       dat
      DR12        REGSYM    ---      DWORD     len
      00FF5899H   LINE      CODE     ---       #205
      00FF58A5H   LINE      CODE     ---       #207
      00FF58A8H   LINE      CODE     ---       #208
      00FF58AEH   LINE      CODE     ---       #209
      00FF58B0H   LINE      CODE     ---       #211
      00FF58C0H   LINE      CODE     ---       #212
      00FF58C8H   LINE      CODE     ---       #215
      00FF58CBH   LINE      CODE     ---       #216
      ---         BLOCKEND  ---      ---       LVL=0
      R13         REGSYM    ---      BYTE      dev_add
      R14         REGSYM    ---      BYTE      reg
      R15         REGSYM    ---      BYTE      dat
      R15         REGSYM    ---      BYTE      dev_add
      R14         REGSYM    ---      BYTE      reg
      R15         REGSYM    ---      BYTE      dat

      00FF53FAH   BLOCK     CODE     ---       LVL=0
      00000819H   SYMBOL    EDATA    BYTE      dev_add
      0000081AH   SYMBOL    EDATA    BYTE      reg
      REG=3       REGSYM    ---      ---       dat_add
      0000081BH   SYMBOL    EDATA    DWORD     num
      00FF53FAH   LINE      CODE     ---       #273
      00FF5406H   LINE      CODE     ---       #275
      00FF5409H   LINE      CODE     ---       #276
      00FF5412H   LINE      CODE     ---       #277
      00FF5419H   LINE      CODE     ---       #280
      00FF541CH   LINE      CODE     ---       #281
      00FF5427H   LINE      CODE     ---       #282
      00FF5429H   LINE      CODE     ---       #284
L251 LINKER/LOCATER V4.66.93.0                                                        05/03/2023  20:46:59  PAGE 54


      00FF5431H   LINE      CODE     ---       #285
      00FF5433H   LINE      CODE     ---       #286
      00FF5441H   LINE      CODE     ---       #287
      00FF5448H   LINE      CODE     ---       #288
      00FF544BH   LINE      CODE     ---       #289
      ---         BLOCKEND  ---      ---       LVL=0
      REG=3       REGSYM    ---      ---       dat_add
      REG=3       REGSYM    ---      ---       type_is_aperture

      00FF576EH   BLOCK     CODE     ---       LVL=0
      WR30        REGSYM    ---      WORD      timeout_period_mclks
      R5          REGSYM    ---      BYTE      vcsel_period_pclks
      00FF5770H   BLOCK     CODE     NEAR LAB  LVL=1
      DR24        REGSYM    ---      DWORD     macro_period_ns
      ---         BLOCKEND  ---      ---       LVL=1
      00FF576EH   LINE      CODE     ---       #417
      00FF5770H   LINE      CODE     ---       #418
      00FF5770H   LINE      CODE     ---       #419
      00FF5791H   LINE      CODE     ---       #421
      ---         BLOCKEND  ---      ---       LVL=0

      00FF57E9H   BLOCK     CODE     ---       LVL=0
      DR28        REGSYM    ---      DWORD     timeout_period_us
      R3          REGSYM    ---      BYTE      vcsel_period_pclks
      00FF57EBH   BLOCK     CODE     NEAR LAB  LVL=1
      DR8         REGSYM    ---      DWORD     macro_period_ns
      ---         BLOCKEND  ---      ---       LVL=1
      00FF57E9H   LINE      CODE     ---       #432
      00FF57EBH   LINE      CODE     ---       #433
      00FF57EBH   LINE      CODE     ---       #434
      00FF580CH   LINE      CODE     ---       #436
      ---         BLOCKEND  ---      ---       LVL=0

      00FF5D80H   BLOCK     CODE     ---       LVL=0
      WR4         REGSYM    ---      WORD      reg_val
      00FF5D80H   LINE      CODE     ---       #446
      00FF5D82H   LINE      CODE     ---       #449
      00FF5D8FH   LINE      CODE     ---       #451
      ---         BLOCKEND  ---      ---       LVL=0

      00FF58CEH   BLOCK     CODE     ---       LVL=0
      WR2         REGSYM    ---      WORD      timeout_mclks
      00FF58D0H   BLOCK     CODE     NEAR LAB  LVL=1
      DR8         REGSYM    ---      DWORD     ls_byte
      WR4         REGSYM    ---      WORD      ms_byte
      WR6         REGSYM    ---      WORD      return_data
      ---         BLOCKEND  ---      ---       LVL=1
      00FF58CEH   LINE      CODE     ---       #460
      00FF58D0H   LINE      CODE     ---       #461
      00FF58D0H   LINE      CODE     ---       #462
      00FF58D0H   LINE      CODE     ---       #463
      00FF58D4H   LINE      CODE     ---       #464
      00FF58D4H   LINE      CODE     ---       #466
      00FF58DAH   LINE      CODE     ---       #469
      00FF58E0H   LINE      CODE     ---       #470
      00FF58E2H   LINE      CODE     ---       #472
      00FF58EBH   LINE      CODE     ---       #473
      00FF58EDH   LINE      CODE     ---       #474
      00FF58F7H   LINE      CODE     ---       #475
      00FF5901H   LINE      CODE     ---       #476
      00FF5901H   LINE      CODE     ---       #477
      00FF5901H   LINE      CODE     ---       #478
      ---         BLOCKEND  ---      ---       LVL=0

      00FF534EH   BLOCK     CODE     ---       LVL=0
L251 LINKER/LOCATER V4.66.93.0                                                        05/03/2023  20:46:59  PAGE 55


      REG=3       REGSYM    ---      ---       enables
      00FF5352H   BLOCK     CODE     NEAR LAB  LVL=1
      0000084BH   SYMBOL    EDATA    BYTE      sequence_config
      ---         BLOCKEND  ---      ---       LVL=1
      00FF534EH   LINE      CODE     ---       #487
      00FF5352H   LINE      CODE     ---       #488
      00FF5352H   LINE      CODE     ---       #489
      00FF5357H   LINE      CODE     ---       #490
      00FF5368H   LINE      CODE     ---       #492
      00FF5372H   LINE      CODE     ---       #493
      00FF537EH   LINE      CODE     ---       #494
      00FF538CH   LINE      CODE     ---       #495
      00FF5398H   LINE      CODE     ---       #496
      00FF53A3H   LINE      CODE     ---       #497
      ---         BLOCKEND  ---      ---       LVL=0

      00FF54F0H   BLOCK     CODE     ---       LVL=0
      WR6         REGSYM    ---      INT       type
      0000084CH   SYMBOL    EDATA    BYTE      data_buffer
      00FF54F0H   LINE      CODE     ---       #506
      00FF54F0H   LINE      CODE     ---       #507
      00FF54F0H   LINE      CODE     ---       #508
      00FF54F5H   LINE      CODE     ---       #509
      00FF54F9H   LINE      CODE     ---       #511
      00FF5506H   LINE      CODE     ---       #512
      00FF5506H   LINE      CODE     ---       #513
      00FF5508H   LINE      CODE     ---       #514
      00FF550EH   LINE      CODE     ---       #516
      00FF5522H   LINE      CODE     ---       #517
      00FF5530H   LINE      CODE     ---       #518
      00FF5532H   LINE      CODE     ---       #521
      00FF5538H   LINE      CODE     ---       #522
      00FF5538H   LINE      CODE     ---       #523
      00FF553CH   LINE      CODE     ---       #524
      ---         BLOCKEND  ---      ---       LVL=0

      00FF4893H   BLOCK     CODE     ---       LVL=0
      0000081FH   SYMBOL    EDATA    ---       enables
      REG=3       REGSYM    ---      ---       timeouts
      00FF489BH   BLOCK     CODE     NEAR LAB  LVL=1
      00000823H   SYMBOL    EDATA    ---       reg_buffer
      WR6         REGSYM    ---      WORD      reg16_buffer
      ---         BLOCKEND  ---      ---       LVL=1
      00FF4893H   LINE      CODE     ---       #534
      00FF489BH   LINE      CODE     ---       #535
      00FF489BH   LINE      CODE     ---       #537
      00FF489BH   LINE      CODE     ---       #539
      00FF48A5H   LINE      CODE     ---       #541
      00FF48B9H   LINE      CODE     ---       #542
      00FF48C5H   LINE      CODE     ---       #543
      00FF48D3H   LINE      CODE     ---       #545
      00FF48E7H   LINE      CODE     ---       #546
      00FF48F3H   LINE      CODE     ---       #547
      00FF48FAH   LINE      CODE     ---       #548
      00FF4908H   LINE      CODE     ---       #550
      00FF4915H   LINE      CODE     ---       #552
      00FF4929H   LINE      CODE     ---       #553
      00FF4935H   LINE      CODE     ---       #554
      00FF493CH   LINE      CODE     ---       #556
      00FF4946H   LINE      CODE     ---       #558
      00FF4958H   LINE      CODE     ---       #559
      00FF4958H   LINE      CODE     ---       #561
      00FF496BH   LINE      CODE     ---       #562
      ---         BLOCKEND  ---      ---       LVL=0
      R10         REGSYM    ---      BYTE      vhv_init_byte
L251 LINKER/LOCATER V4.66.93.0                                                        05/03/2023  20:46:59  PAGE 56


      R15         REGSYM    ---      BYTE      return_state
      DR12        REGSYM    ---      DWORD     budget_us
      WR6         REGSYM    ---      WORD      dat
      DR4         REGSYM    ---      DWORD     final_range_timeout_us
      WR6         REGSYM    ---      WORD      final_range_timeout_mclks
      DR12        REGSYM    ---      DWORD     budget_us
      DR4         REGSYM    ---      FLOAT     limit_mcps
      WR6         REGSYM    ---      WORD      limit_mcps_16bit
      R15         REGSYM    ---      BYTE      return_state
      R14         REGSYM    ---      BYTE      reg_data_buffer
      R13         REGSYM    ---      BYTE      i

      ---         MODULE    ---      ---       SEEKFREE_FONT
      00FF20A6H   PUBLIC    CODE     ---       oled_8x16
      00FF2696H   PUBLIC    CODE     ---       tft_ascii
      00FF2C86H   PUBLIC    CODE     ---       oled_6x8
      000000D0H   SFRSYM    DATA     BYTE      PSW
      0000009DH   SFRSYM    DATA     BYTE      IRCBAND
      00000097H   SFRSYM    DATA     BYTE      AUXR2
      000000EFH   SFRSYM    DATA     BYTE      AUXINTIF
      000000FDH   SFRSYM    DATA     BYTE      S4CON
      000000ACH   SFRSYM    DATA     BYTE      S3CON
      0000009AH   SFRSYM    DATA     BYTE      S2CON
      000000B7H   SFRSYM    DATA     BYTE      IPH
      000000CDH   SFRSYM    DATA     BYTE      SPSTAT
      000000DDH   SFRSYM    DATA     BYTE      T4T3M
      000000C1H   SFRSYM    DATA     BYTE      WDT_CONTR
      000000DFH   SFRSYM    DATA     BYTE      IP3
      000000F4H   SFRSYM    DATA     BYTE      USBCON
      000000B5H   SFRSYM    DATA     BYTE      IP2
      000000FFH   SFRSYM    DATA     BYTE      RSTCFG
      000000F9H   SFRSYM    DATA     BYTE      LINICR
      0000008EH   SFRSYM    DATA     BYTE      AUXR
      000000AFH   SFRSYM    DATA     BYTE      IE2
      00000088H   SFRSYM    DATA     BYTE      TCON
      00000098H   SFRSYM    DATA     BYTE      SCON
      000000F1H   SFRSYM    DATA     BYTE      CANICR
      00000087H   SFRSYM    DATA     BYTE      PCON
      000000BCH   SFRSYM    DATA     BYTE      ADC_CONTR
      000000E7H   SFRSYM    DATA     BYTE      CMPCR2
      000000E6H   SFRSYM    DATA     BYTE      CMPCR1
      000000B8H   SFRSYM    DATA     BYTE      IP
      0000008FH   SFRSYM    DATA     BYTE      INTCLKO
      000000EEH   SFRSYM    DATA     BYTE      IP3H
      000000B6H   SFRSYM    DATA     BYTE      IP2H
      000000A8H   SFRSYM    DATA     BYTE      IE
      000000BBH   SFRSYM    DATA     BYTE      P_SW3
      000000BAH   SFRSYM    DATA     BYTE      P_SW2
      000000A2H   SFRSYM    DATA     BYTE      P_SW1
      000000CEH   SFRSYM    DATA     BYTE      SPCTL
      000000F8H   SFRSYM    DATA     BYTE      P7
      000000E8H   SFRSYM    DATA     BYTE      P6
      000000C8H   SFRSYM    DATA     BYTE      P5
      000000C0H   SFRSYM    DATA     BYTE      P4
      000000B0H   SFRSYM    DATA     BYTE      P3
      000000A0H   SFRSYM    DATA     BYTE      P2
      00000090H   SFRSYM    DATA     BYTE      P1
      00000080H   SFRSYM    DATA     BYTE      P0

      ---         MODULE    ---      ---       SEEKFREE_ICM20602
      000007EBH   PUBLIC    EDATA    INT       icm20602_acc_x
      000007EDH   PUBLIC    EDATA    INT       icm20602_acc_y
      000007EFH   PUBLIC    EDATA    INT       icm20602_acc_z
      000007F1H   PUBLIC    EDATA    INT       icm20602_gyro_x
      000007F3H   PUBLIC    EDATA    INT       icm20602_gyro_y
L251 LINKER/LOCATER V4.66.93.0                                                        05/03/2023  20:46:59  PAGE 57


      000007F5H   PUBLIC    EDATA    INT       icm20602_gyro_z
      000000D0H   SFRSYM    DATA     BYTE      PSW
      0000009DH   SFRSYM    DATA     BYTE      IRCBAND
      00000097H   SFRSYM    DATA     BYTE      AUXR2
      000000EFH   SFRSYM    DATA     BYTE      AUXINTIF
      000000FDH   SFRSYM    DATA     BYTE      S4CON
      000000ACH   SFRSYM    DATA     BYTE      S3CON
      0000009AH   SFRSYM    DATA     BYTE      S2CON
      000000B7H   SFRSYM    DATA     BYTE      IPH
      000000CDH   SFRSYM    DATA     BYTE      SPSTAT
      000000DDH   SFRSYM    DATA     BYTE      T4T3M
      000000C1H   SFRSYM    DATA     BYTE      WDT_CONTR
      000000DFH   SFRSYM    DATA     BYTE      IP3
      000000F4H   SFRSYM    DATA     BYTE      USBCON
      000000B5H   SFRSYM    DATA     BYTE      IP2
      000000FFH   SFRSYM    DATA     BYTE      RSTCFG
      000000F9H   SFRSYM    DATA     BYTE      LINICR
      0000008EH   SFRSYM    DATA     BYTE      AUXR
      000000AFH   SFRSYM    DATA     BYTE      IE2
      000000C0H.3 SFRSYM    DATA     BIT       P43
      000000C0H.2 SFRSYM    DATA     BIT       P42
      00000088H   SFRSYM    DATA     BYTE      TCON
      000000C0H.1 SFRSYM    DATA     BIT       P41
      00000098H   SFRSYM    DATA     BYTE      SCON
      000000C0H.0 SFRSYM    DATA     BIT       P40
      000000F1H   SFRSYM    DATA     BYTE      CANICR
      00000087H   SFRSYM    DATA     BYTE      PCON
      000000BCH   SFRSYM    DATA     BYTE      ADC_CONTR
      000000E7H   SFRSYM    DATA     BYTE      CMPCR2
      000000E6H   SFRSYM    DATA     BYTE      CMPCR1
      000000B8H   SFRSYM    DATA     BYTE      IP
      0000008FH   SFRSYM    DATA     BYTE      INTCLKO
      000000EEH   SFRSYM    DATA     BYTE      IP3H
      000000B6H   SFRSYM    DATA     BYTE      IP2H
      000000A8H   SFRSYM    DATA     BYTE      IE
      000000BBH   SFRSYM    DATA     BYTE      P_SW3
      000000BAH   SFRSYM    DATA     BYTE      P_SW2
      000000A2H   SFRSYM    DATA     BYTE      P_SW1
      000000CEH   SFRSYM    DATA     BYTE      SPCTL
      000000F8H   SFRSYM    DATA     BYTE      P7
      000000E8H   SFRSYM    DATA     BYTE      P6
      000000C8H   SFRSYM    DATA     BYTE      P5
      000000C0H   SFRSYM    DATA     BYTE      P4
      000000B0H   SFRSYM    DATA     BYTE      P3
      000000A0H   SFRSYM    DATA     BYTE      P2
      00000090H   SFRSYM    DATA     BYTE      P1
      00000080H   SFRSYM    DATA     BYTE      P0
      00FF5D3BH   SYMBOL    CODE     ---       icm20602_read_register
      00FF5AE3H   SYMBOL    CODE     ---       icm20602_simspi_wr_byte
      00FF5934H   SYMBOL    CODE     ---       icm20602_simspi_r_reg_bytes
      00FF5CA6H   SYMBOL    CODE     ---       icm20602_simspi_r_reg_byte

      00FF5AE3H   BLOCK     CODE     ---       LVL=0
      R6          REGSYM    ---      BYTE      byte
      00FF5AE5H   BLOCK     CODE     NEAR LAB  LVL=1
      R7          REGSYM    ---      BYTE      i
      ---         BLOCKEND  ---      ---       LVL=1
      00FF5AE3H   LINE      CODE     ---       #270
      00FF5AE5H   LINE      CODE     ---       #271
      00FF5AE5H   LINE      CODE     ---       #274
      00FF5AE7H   LINE      CODE     ---       #276
      00FF5AECH   LINE      CODE     ---       #277
      00FF5AEEH   LINE      CODE     ---       #278
      00FF5AF0H   LINE      CODE     ---       #279
      00FF5AF2H   LINE      CODE     ---       #281
L251 LINKER/LOCATER V4.66.93.0                                                        05/03/2023  20:46:59  PAGE 58


      00FF5AF4H   LINE      CODE     ---       #282
      00FF5AF6H   LINE      CODE     ---       #283
      00FF5AFCH   LINE      CODE     ---       #284
      00FF5B03H   LINE      CODE     ---       #285
      00FF5B05H   LINE      CODE     ---       #286
      ---         BLOCKEND  ---      ---       LVL=0
      R7          REGSYM    ---      BYTE      cmd
      R15         REGSYM    ---      BYTE      val

      00FF5CA6H   BLOCK     CODE     ---       LVL=0
      R7          REGSYM    ---      BYTE      cmd
      REG=3       REGSYM    ---      ---       val
      00FF5CA6H   LINE      CODE     ---       #332
      00FF5CACH   LINE      CODE     ---       #335
      00FF5CAFH   LINE      CODE     ---       #336
      00FF5CB4H   LINE      CODE     ---       #337
      00FF5CBBH   LINE      CODE     ---       #339
      ---         BLOCKEND  ---      ---       LVL=0

      00FF5934H   BLOCK     CODE     ---       LVL=0
      R7          REGSYM    ---      BYTE      cmd
      REG=3       REGSYM    ---      ---       val
      00000832H   SYMBOL    EDATA    DWORD     num
      00FF593EH   BLOCK     CODE     NEAR LAB  LVL=1
      ---         BLOCKEND  ---      ---       LVL=1
      00FF5934H   LINE      CODE     ---       #349
      00FF593EH   LINE      CODE     ---       #350
      00FF593EH   LINE      CODE     ---       #351
      00FF593EH   LINE      CODE     ---       #352
      00FF5941H   LINE      CODE     ---       #353
      00FF5946H   LINE      CODE     ---       #355
      00FF5948H   LINE      CODE     ---       #357
      00FF5951H   LINE      CODE     ---       #358
      00FF5961H   LINE      CODE     ---       #359
      ---         BLOCKEND  ---      ---       LVL=0
      R11         REGSYM    ---      BYTE      reg
      R7          REGSYM    ---      BYTE      dat

      00FF5D3BH   BLOCK     CODE     ---       LVL=0
      R7          REGSYM    ---      BYTE      reg
      0000084DH   SYMBOL    EDATA    BYTE      dat
      00FF5D3BH   LINE      CODE     ---       #399
      00FF5D3BH   LINE      CODE     ---       #400
      00FF5D3BH   LINE      CODE     ---       #402
      00FF5D3DH   LINE      CODE     ---       #403
      00FF5D46H   LINE      CODE     ---       #404
      00FF5D48H   LINE      CODE     ---       #405
      00FF5D4CH   LINE      CODE     ---       #406
      ---         BLOCKEND  ---      ---       LVL=0
      R3          REGSYM    ---      BYTE      reg
      REG=1       REGSYM    ---      ---       dat
      DR28        REGSYM    ---      DWORD     len
      R14         REGSYM    ---      BYTE      dat
      R15         REGSYM    ---      BYTE      return_state
      WR12        REGSYM    ---      WORD      timeout_count
      WR8         REGSYM    ---      INT       acc_value
      DR4         REGSYM    ---      FLOAT     acc_data
      WR8         REGSYM    ---      INT       gyro_value
      DR4         REGSYM    ---      FLOAT     gyro_data
      R14         REGSYM    ---      BYTE      val
      R15         REGSYM    ---      BYTE      return_state
      WR12        REGSYM    ---      WORD      timeout_count

      ---         MODULE    ---      ---       SEEKFREE_IMU660RA
      000007F7H   PUBLIC    EDATA    INT       imu660ra_acc_x
L251 LINKER/LOCATER V4.66.93.0                                                        05/03/2023  20:46:59  PAGE 59


      000007F9H   PUBLIC    EDATA    INT       imu660ra_acc_y
      000007FBH   PUBLIC    EDATA    INT       imu660ra_acc_z
      000007FDH   PUBLIC    EDATA    INT       imu660ra_gyro_x
      000007FFH   PUBLIC    EDATA    INT       imu660ra_gyro_y
      00000801H   PUBLIC    EDATA    INT       imu660ra_gyro_z
      000000D0H   SFRSYM    DATA     BYTE      PSW
      0000009DH   SFRSYM    DATA     BYTE      IRCBAND
      00000097H   SFRSYM    DATA     BYTE      AUXR2
      000000EFH   SFRSYM    DATA     BYTE      AUXINTIF
      000000FDH   SFRSYM    DATA     BYTE      S4CON
      000000ACH   SFRSYM    DATA     BYTE      S3CON
      0000009AH   SFRSYM    DATA     BYTE      S2CON
      000000B7H   SFRSYM    DATA     BYTE      IPH
      000000CDH   SFRSYM    DATA     BYTE      SPSTAT
      000000DDH   SFRSYM    DATA     BYTE      T4T3M
      000000C1H   SFRSYM    DATA     BYTE      WDT_CONTR
      000000DFH   SFRSYM    DATA     BYTE      IP3
      000000F4H   SFRSYM    DATA     BYTE      USBCON
      000000B5H   SFRSYM    DATA     BYTE      IP2
      000000FFH   SFRSYM    DATA     BYTE      RSTCFG
      000000F9H   SFRSYM    DATA     BYTE      LINICR
      0000008EH   SFRSYM    DATA     BYTE      AUXR
      000000AFH   SFRSYM    DATA     BYTE      IE2
      000000C0H.3 SFRSYM    DATA     BIT       P43
      000000C0H.2 SFRSYM    DATA     BIT       P42
      00000088H   SFRSYM    DATA     BYTE      TCON
      000000C0H.1 SFRSYM    DATA     BIT       P41
      00000098H   SFRSYM    DATA     BYTE      SCON
      000000C0H.0 SFRSYM    DATA     BIT       P40
      000000F1H   SFRSYM    DATA     BYTE      CANICR
      00000087H   SFRSYM    DATA     BYTE      PCON
      000000BCH   SFRSYM    DATA     BYTE      ADC_CONTR
      000000E7H   SFRSYM    DATA     BYTE      CMPCR2
      000000E6H   SFRSYM    DATA     BYTE      CMPCR1
      000000B8H   SFRSYM    DATA     BYTE      IP
      0000008FH   SFRSYM    DATA     BYTE      INTCLKO
      000000EEH   SFRSYM    DATA     BYTE      IP3H
      000000B6H   SFRSYM    DATA     BYTE      IP2H
      000000A8H   SFRSYM    DATA     BYTE      IE
      000000BBH   SFRSYM    DATA     BYTE      P_SW3
      000000BAH   SFRSYM    DATA     BYTE      P_SW2
      000000A2H   SFRSYM    DATA     BYTE      P_SW1
      000000CEH   SFRSYM    DATA     BYTE      SPCTL
      000000F8H   SFRSYM    DATA     BYTE      P7
      000000E8H   SFRSYM    DATA     BYTE      P6
      000000C8H   SFRSYM    DATA     BYTE      P5
      000000C0H   SFRSYM    DATA     BYTE      P4
      000000B0H   SFRSYM    DATA     BYTE      P3
      000000A0H   SFRSYM    DATA     BYTE      P2
      00000090H   SFRSYM    DATA     BYTE      P1
      00000080H   SFRSYM    DATA     BYTE      P0
      00FF5CD5H   SYMBOL    CODE     ---       imu660ra_read_register
      00FF5B06H   SYMBOL    CODE     ---       imu660ra_simspi_wr_byte
      00FF5964H   SYMBOL    CODE     ---       imu660ra_simspi_r_reg_bytes

      00FF5B06H   BLOCK     CODE     ---       LVL=0
      R6          REGSYM    ---      BYTE      byte
      00FF5B08H   BLOCK     CODE     NEAR LAB  LVL=1
      R7          REGSYM    ---      BYTE      i
      ---         BLOCKEND  ---      ---       LVL=1
      00FF5B06H   LINE      CODE     ---       #326
      00FF5B08H   LINE      CODE     ---       #327
      00FF5B08H   LINE      CODE     ---       #330
      00FF5B0AH   LINE      CODE     ---       #332
      00FF5B0FH   LINE      CODE     ---       #333
L251 LINKER/LOCATER V4.66.93.0                                                        05/03/2023  20:46:59  PAGE 60


      00FF5B11H   LINE      CODE     ---       #334
      00FF5B13H   LINE      CODE     ---       #335
      00FF5B15H   LINE      CODE     ---       #336
      00FF5B17H   LINE      CODE     ---       #337
      00FF5B19H   LINE      CODE     ---       #339
      00FF5B1FH   LINE      CODE     ---       #340
      00FF5B26H   LINE      CODE     ---       #341
      00FF5B28H   LINE      CODE     ---       #342
      ---         BLOCKEND  ---      ---       LVL=0
      R7          REGSYM    ---      BYTE      cmd
      R15         REGSYM    ---      BYTE      val
      R11         REGSYM    ---      BYTE      cmd
      DR12        REGSYM    ---      DWORD     len

      00FF5964H   BLOCK     CODE     ---       LVL=0
      R7          REGSYM    ---      BYTE      cmd
      REG=3       REGSYM    ---      ---       val
      00000836H   SYMBOL    EDATA    DWORD     num
      00FF5964H   LINE      CODE     ---       #399
      00FF596EH   LINE      CODE     ---       #401
      00FF5971H   LINE      CODE     ---       #402
      00FF5976H   LINE      CODE     ---       #404
      00FF5978H   LINE      CODE     ---       #406
      00FF5981H   LINE      CODE     ---       #407
      00FF5991H   LINE      CODE     ---       #408
      ---         BLOCKEND  ---      ---       LVL=0
      R11         REGSYM    ---      BYTE      reg
      R7          REGSYM    ---      BYTE      dat
      R3          REGSYM    ---      BYTE      reg
      REG=1       REGSYM    ---      ---       dat
      DR28        REGSYM    ---      DWORD     len

      00FF5CD5H   BLOCK     CODE     ---       LVL=0
      R7          REGSYM    ---      BYTE      reg
      00000847H   SYMBOL    EDATA    ---       dat
      00FF5CD5H   LINE      CODE     ---       #449
      00FF5CD5H   LINE      CODE     ---       #450
      00FF5CD5H   LINE      CODE     ---       #452
      00FF5CD7H   LINE      CODE     ---       #453
      00FF5CE4H   LINE      CODE     ---       #454
      00FF5CE6H   LINE      CODE     ---       #455
      00FF5CEAH   LINE      CODE     ---       #456
      ---         BLOCKEND  ---      ---       LVL=0
      R3          REGSYM    ---      BYTE      reg
      REG=1       REGSYM    ---      ---       dat
      DR28        REGSYM    ---      DWORD     len
      R14         REGSYM    ---      BYTE      dat
      R15         REGSYM    ---      BYTE      return_state
      WR12        REGSYM    ---      WORD      timeout_count
      WR8         REGSYM    ---      INT       acc_value
      DR4         REGSYM    ---      FLOAT     acc_dat
      WR8         REGSYM    ---      INT       gyro_value
      DR4         REGSYM    ---      FLOAT     gyro_dat
      R15         REGSYM    ---      BYTE      return_state

      ---         MODULE    ---      ---       SEEKFREE_IMU963RA
      000007C9H   PUBLIC    EDATA    INT       imu963ra_acc_x
      000007CBH   PUBLIC    EDATA    INT       imu963ra_acc_y
      000007CDH   PUBLIC    EDATA    INT       imu963ra_acc_z
      000007CFH   PUBLIC    EDATA    INT       imu963ra_mag_x
      000007D1H   PUBLIC    EDATA    INT       imu963ra_mag_y
      000007D3H   PUBLIC    EDATA    INT       imu963ra_mag_z
      000007D5H   PUBLIC    EDATA    INT       imu963ra_gyro_x
      000007D7H   PUBLIC    EDATA    INT       imu963ra_gyro_y
      000007D9H   PUBLIC    EDATA    INT       imu963ra_gyro_z
L251 LINKER/LOCATER V4.66.93.0                                                        05/03/2023  20:46:59  PAGE 61


      000000D0H   SFRSYM    DATA     BYTE      PSW
      0000009DH   SFRSYM    DATA     BYTE      IRCBAND
      00000097H   SFRSYM    DATA     BYTE      AUXR2
      000000EFH   SFRSYM    DATA     BYTE      AUXINTIF
      000000FDH   SFRSYM    DATA     BYTE      S4CON
      000000ACH   SFRSYM    DATA     BYTE      S3CON
      0000009AH   SFRSYM    DATA     BYTE      S2CON
      000000B7H   SFRSYM    DATA     BYTE      IPH
      000000CDH   SFRSYM    DATA     BYTE      SPSTAT
      000000DDH   SFRSYM    DATA     BYTE      T4T3M
      000000C1H   SFRSYM    DATA     BYTE      WDT_CONTR
      000000DFH   SFRSYM    DATA     BYTE      IP3
      000000F4H   SFRSYM    DATA     BYTE      USBCON
      000000B5H   SFRSYM    DATA     BYTE      IP2
      000000FFH   SFRSYM    DATA     BYTE      RSTCFG
      000000F9H   SFRSYM    DATA     BYTE      LINICR
      0000008EH   SFRSYM    DATA     BYTE      AUXR
      000000AFH   SFRSYM    DATA     BYTE      IE2
      000000C0H.4 SFRSYM    DATA     BIT       P44
      000000C0H.3 SFRSYM    DATA     BIT       P43
      000000C0H.2 SFRSYM    DATA     BIT       P42
      00000088H   SFRSYM    DATA     BYTE      TCON
      000000C0H.1 SFRSYM    DATA     BIT       P41
      00000098H   SFRSYM    DATA     BYTE      SCON
      000000F1H   SFRSYM    DATA     BYTE      CANICR
      00000087H   SFRSYM    DATA     BYTE      PCON
      000000BCH   SFRSYM    DATA     BYTE      ADC_CONTR
      000000E7H   SFRSYM    DATA     BYTE      CMPCR2
      000000E6H   SFRSYM    DATA     BYTE      CMPCR1
      000000B8H   SFRSYM    DATA     BYTE      IP
      0000008FH   SFRSYM    DATA     BYTE      INTCLKO
      000000EEH   SFRSYM    DATA     BYTE      IP3H
      000000B6H   SFRSYM    DATA     BYTE      IP2H
      000000A8H   SFRSYM    DATA     BYTE      IE
      000000BBH   SFRSYM    DATA     BYTE      P_SW3
      000000BAH   SFRSYM    DATA     BYTE      P_SW2
      000000A2H   SFRSYM    DATA     BYTE      P_SW1
      000000CEH   SFRSYM    DATA     BYTE      SPCTL
      000000F8H   SFRSYM    DATA     BYTE      P7
      000000E8H   SFRSYM    DATA     BYTE      P6
      000000C8H   SFRSYM    DATA     BYTE      P5
      000000C0H   SFRSYM    DATA     BYTE      P4
      000000B0H   SFRSYM    DATA     BYTE      P3
      000000A0H   SFRSYM    DATA     BYTE      P2
      00000090H   SFRSYM    DATA     BYTE      P1
      00000080H   SFRSYM    DATA     BYTE      P0
      00FF5B29H   SYMBOL    CODE     ---       imu963ra_simspi_wr_byte
      00FF544EH   SYMBOL    CODE     ---       imu963ra_read_mag_register
      00FF5C27H   SYMBOL    CODE     ---       imu963ra_read_acc_gyro_register
      00FF0066H   SYMBOL    CODE     ---       imu963ra_simspi_r_reg_byte
      00FF5DF5H   SYMBOL    CODE     ---       imu963ra_write_acc_gyro_register
      00FF5D15H   SYMBOL    CODE     ---       imu963ra_simspi_w_reg_byte

      00FF5B29H   BLOCK     CODE     ---       LVL=0
      R6          REGSYM    ---      BYTE      byte
      00FF5B2BH   BLOCK     CODE     NEAR LAB  LVL=1
      R7          REGSYM    ---      BYTE      i
      ---         BLOCKEND  ---      ---       LVL=1
      00FF5B29H   LINE      CODE     ---       #361
      00FF5B2BH   LINE      CODE     ---       #362
      00FF5B2BH   LINE      CODE     ---       #365
      00FF5B2DH   LINE      CODE     ---       #367
      00FF5B32H   LINE      CODE     ---       #368
      00FF5B34H   LINE      CODE     ---       #369
      00FF5B36H   LINE      CODE     ---       #370
L251 LINKER/LOCATER V4.66.93.0                                                        05/03/2023  20:46:59  PAGE 62


      00FF5B38H   LINE      CODE     ---       #372
      00FF5B3AH   LINE      CODE     ---       #373
      00FF5B3CH   LINE      CODE     ---       #374
      00FF5B42H   LINE      CODE     ---       #375
      00FF5B49H   LINE      CODE     ---       #376
      00FF5B4BH   LINE      CODE     ---       #377
      ---         BLOCKEND  ---      ---       LVL=0

      00FF5D15H   BLOCK     CODE     ---       LVL=0
      R7          REGSYM    ---      BYTE      cmd
      R15         REGSYM    ---      BYTE      val
      00FF5D15H   LINE      CODE     ---       #385
      00FF5D19H   LINE      CODE     ---       #387
      00FF5D1BH   LINE      CODE     ---       #388
      00FF5D1BH   LINE      CODE     ---       #389
      00FF5D1EH   LINE      CODE     ---       #390
      00FF5D23H   LINE      CODE     ---       #391
      00FF5D25H   LINE      CODE     ---       #392
      ---         BLOCKEND  ---      ---       LVL=0

      00FF0066H   BLOCK     CODE     ---       LVL=0
      R7          REGSYM    ---      BYTE      cmd
      REG=3       REGSYM    ---      ---       val
      00FF0066H   LINE      CODE     ---       #423
      00FF006CH   LINE      CODE     ---       #425
      00FF006EH   LINE      CODE     ---       #426
      00FF0071H   LINE      CODE     ---       #427
      00FF0076H   LINE      CODE     ---       #428
      00FF007DH   LINE      CODE     ---       #429
      00FF007FH   LINE      CODE     ---       #430
      ---         BLOCKEND  ---      ---       LVL=0
      R7          REGSYM    ---      BYTE      cmd
      REG=3       REGSYM    ---      ---       val

      00FF5DF5H   BLOCK     CODE     ---       LVL=0
      R11         REGSYM    ---      BYTE      reg
      R7          REGSYM    ---      BYTE      dat
      00FF5DF5H   LINE      CODE     ---       #462
      00FF5DF5H   LINE      CODE     ---       #464
      00FF5DF7H   LINE      CODE     ---       #465
      00FF5DFAH   LINE      CODE     ---       #467
      00FF5DFCH   LINE      CODE     ---       #468
      ---         BLOCKEND  ---      ---       LVL=0

      00FF5C27H   BLOCK     CODE     ---       LVL=0
      R10         REGSYM    ---      BYTE      reg
      00FF5C29H   BLOCK     CODE     NEAR LAB  LVL=1
      0000084EH   SYMBOL    EDATA    BYTE      dat
      ---         BLOCKEND  ---      ---       LVL=1
      00FF5C27H   LINE      CODE     ---       #477
      00FF5C29H   LINE      CODE     ---       #478
      00FF5C29H   LINE      CODE     ---       #479
      00FF5C2EH   LINE      CODE     ---       #480
      00FF5C30H   LINE      CODE     ---       #481
      00FF5C3BH   LINE      CODE     ---       #482
      00FF5C3DH   LINE      CODE     ---       #483
      00FF5C41H   LINE      CODE     ---       #484
      ---         BLOCKEND  ---      ---       LVL=0
      R3          REGSYM    ---      BYTE      reg
      REG=1       REGSYM    ---      ---       dat
      DR28        REGSYM    ---      DWORD     len
      R15         REGSYM    ---      BYTE      addr
      R13         REGSYM    ---      BYTE      reg
      R14         REGSYM    ---      BYTE      dat
      R12         REGSYM    ---      BYTE      return_state
L251 LINKER/LOCATER V4.66.93.0                                                        05/03/2023  20:46:59  PAGE 63



      00FF544EH   BLOCK     CODE     ---       LVL=0
      R10         REGSYM    ---      BYTE      addr
      R15         REGSYM    ---      BYTE      reg
      00FF5456H   BLOCK     CODE     NEAR LAB  LVL=1
      WR12        REGSYM    ---      WORD      timeout_count
      ---         BLOCKEND  ---      ---       LVL=1
      00FF544EH   LINE      CODE     ---       #546
      00FF5456H   LINE      CODE     ---       #547
      00FF5456H   LINE      CODE     ---       #548
      00FF5458H   LINE      CODE     ---       #550
      00FF545AH   LINE      CODE     ---       #551
      00FF5464H   LINE      CODE     ---       #552
      00FF546BH   LINE      CODE     ---       #553
      00FF5473H   LINE      CODE     ---       #554
      00FF547BH   LINE      CODE     ---       #557
      00FF547DH   LINE      CODE     ---       #559
      00FF5487H   LINE      CODE     ---       #561
      00FF5487H   LINE      CODE     ---       #562
      00FF5487H   LINE      CODE     ---       #563
      00FF548EH   LINE      CODE     ---       #564
      00FF5496H   LINE      CODE     ---       #566
      00FF549BH   LINE      CODE     ---       #567
      ---         BLOCKEND  ---      ---       LVL=0
      R10         REGSYM    ---      BYTE      addr
      R15         REGSYM    ---      BYTE      reg
      R15         REGSYM    ---      BYTE      return_state
      R14         REGSYM    ---      BYTE      dat
      WR12        REGSYM    ---      WORD      timeout_count
      R15         REGSYM    ---      BYTE      return_state
      R14         REGSYM    ---      BYTE      dat
      WR12        REGSYM    ---      WORD      timeout_count
      R11         REGSYM    ---      BYTE      temp_status
      WR8         REGSYM    ---      INT       mag_value
      DR4         REGSYM    ---      FLOAT     mag_dat
      R15         REGSYM    ---      BYTE      return_state

      ---         MODULE    ---      ---       SEEKFREE_IPS114_SPI
      00FF5BCCH   PUBLIC    CODE     ---       ips114_writedata_16bit
      00FF5A1EH   PUBLIC    CODE     ---       ips114_writeDatai_16bit_simspi
      00FF5A4AH   PUBLIC    CODE     ---       ips114_writeIndex_simspi
      00FF5DE2H   PUBLIC    CODE     ---       ips114_writeIndex
      000000D0H   SFRSYM    DATA     BYTE      PSW
      0000009DH   SFRSYM    DATA     BYTE      IRCBAND
      00000097H   SFRSYM    DATA     BYTE      AUXR2
      000000EFH   SFRSYM    DATA     BYTE      AUXINTIF
      000000FDH   SFRSYM    DATA     BYTE      S4CON
      000000ACH   SFRSYM    DATA     BYTE      S3CON
      0000009AH   SFRSYM    DATA     BYTE      S2CON
      000000B7H   SFRSYM    DATA     BYTE      IPH
      000000CDH   SFRSYM    DATA     BYTE      SPSTAT
      000000DDH   SFRSYM    DATA     BYTE      T4T3M
      000000C1H   SFRSYM    DATA     BYTE      WDT_CONTR
      000000DFH   SFRSYM    DATA     BYTE      IP3
      000000F4H   SFRSYM    DATA     BYTE      USBCON
      000000B5H   SFRSYM    DATA     BYTE      IP2
      000000FFH   SFRSYM    DATA     BYTE      RSTCFG
      000000F9H   SFRSYM    DATA     BYTE      LINICR
      0000008EH   SFRSYM    DATA     BYTE      AUXR
      000000AFH   SFRSYM    DATA     BYTE      IE2
      000000A0H.7 SFRSYM    DATA     BIT       P27
      000000A0H.5 SFRSYM    DATA     BIT       P25
      00000088H   SFRSYM    DATA     BYTE      TCON
      000000A0H.3 SFRSYM    DATA     BIT       P23
      00000098H   SFRSYM    DATA     BYTE      SCON
L251 LINKER/LOCATER V4.66.93.0                                                        05/03/2023  20:46:59  PAGE 64


      000000A0H.2 SFRSYM    DATA     BIT       P22
      000000A0H.1 SFRSYM    DATA     BIT       P21
      000000A0H.0 SFRSYM    DATA     BIT       P20
      000000F1H   SFRSYM    DATA     BYTE      CANICR
      00000087H   SFRSYM    DATA     BYTE      PCON
      000000BCH   SFRSYM    DATA     BYTE      ADC_CONTR
      000000E7H   SFRSYM    DATA     BYTE      CMPCR2
      000000E6H   SFRSYM    DATA     BYTE      CMPCR1
      000000B8H   SFRSYM    DATA     BYTE      IP
      0000008FH   SFRSYM    DATA     BYTE      INTCLKO
      000000EEH   SFRSYM    DATA     BYTE      IP3H
      000000B6H   SFRSYM    DATA     BYTE      IP2H
      000000A8H   SFRSYM    DATA     BYTE      IE
      000000BBH   SFRSYM    DATA     BYTE      P_SW3
      000000BAH   SFRSYM    DATA     BYTE      P_SW2
      000000A2H   SFRSYM    DATA     BYTE      P_SW1
      000000CEH   SFRSYM    DATA     BYTE      SPCTL
      000000F8H   SFRSYM    DATA     BYTE      P7
      000000E8H   SFRSYM    DATA     BYTE      P6
      000000C8H   SFRSYM    DATA     BYTE      P5
      000000C0H   SFRSYM    DATA     BYTE      P4
      000000B0H   SFRSYM    DATA     BYTE      P3
      000000A0H   SFRSYM    DATA     BYTE      P2
      00000090H   SFRSYM    DATA     BYTE      P1
      00000080H   SFRSYM    DATA     BYTE      P0

      00FF5A4AH   BLOCK     CODE     ---       LVL=0
      R7          REGSYM    ---      BYTE      dat
      00FF5A4CH   BLOCK     CODE     NEAR LAB  LVL=1
      R6          REGSYM    ---      BYTE      i
      ---         BLOCKEND  ---      ---       LVL=1
      00FF5A4AH   LINE      CODE     ---       #61
      00FF5A4CH   LINE      CODE     ---       #62
      00FF5A4CH   LINE      CODE     ---       #63
      00FF5A4FH   LINE      CODE     ---       #64
      00FF5A51H   LINE      CODE     ---       #65
      00FF5A53H   LINE      CODE     ---       #67
      00FF5A55H   LINE      CODE     ---       #69
      00FF5A57H   LINE      CODE     ---       #71
      00FF5A60H   LINE      CODE     ---       #72
      00FF5A62H   LINE      CODE     ---       #73
      00FF5A64H   LINE      CODE     ---       #75
      00FF5A66H   LINE      CODE     ---       #76
      00FF5A68H   LINE      CODE     ---       #77
      00FF5A70H   LINE      CODE     ---       #78
      00FF5A72H   LINE      CODE     ---       #79
      ---         BLOCKEND  ---      ---       LVL=0
      R7          REGSYM    ---      BYTE      dat
      R6          REGSYM    ---      BYTE      i

      00FF5A1EH   BLOCK     CODE     ---       LVL=0
      WR4         REGSYM    ---      WORD      dat
      00FF5A20H   BLOCK     CODE     NEAR LAB  LVL=1
      R10         REGSYM    ---      BYTE      i
      ---         BLOCKEND  ---      ---       LVL=1
      00FF5A1EH   LINE      CODE     ---       #115
      00FF5A20H   LINE      CODE     ---       #116
      00FF5A20H   LINE      CODE     ---       #117
      00FF5A23H   LINE      CODE     ---       #118
      00FF5A25H   LINE      CODE     ---       #119
      00FF5A27H   LINE      CODE     ---       #120
      00FF5A29H   LINE      CODE     ---       #121
      00FF5A2BH   LINE      CODE     ---       #123
      00FF5A37H   LINE      CODE     ---       #124
      00FF5A39H   LINE      CODE     ---       #125
L251 LINKER/LOCATER V4.66.93.0                                                        05/03/2023  20:46:59  PAGE 65


      00FF5A3BH   LINE      CODE     ---       #127
      00FF5A3DH   LINE      CODE     ---       #128
      00FF5A3FH   LINE      CODE     ---       #129
      00FF5A47H   LINE      CODE     ---       #130
      00FF5A49H   LINE      CODE     ---       #131
      ---         BLOCKEND  ---      ---       LVL=0
      WR12        REGSYM    ---      WORD      x2
      WR14        REGSYM    ---      WORD      y2
      WR14        REGSYM    ---      WORD      color
      R13         REGSYM    ---      BYTE      i
      WR2         REGSYM    ---      WORD      x
      WR0         REGSYM    ---      WORD      y
      WR14        REGSYM    ---      WORD      color
      WR12        REGSYM    ---      WORD      x
      WR14        REGSYM    ---      WORD      y
      REG=3       REGSYM    ---      ---       dat
      WR12        REGSYM    ---      WORD      x
      WR14        REGSYM    ---      WORD      y
      WR12        REGSYM    ---      WORD      x
      WR14        REGSYM    ---      WORD      y
      R10         REGSYM    ---      BYTE      dat
      WR12        REGSYM    ---      WORD      x
      WR14        REGSYM    ---      WORD      y
      WR12        REGSYM    ---      WORD      x
      WR14        REGSYM    ---      WORD      y
      WR2         REGSYM    ---      WORD      dat
      WR12        REGSYM    ---      WORD      y
      R15         REGSYM    ---      BYTE      num
      R14         REGSYM    ---      BYTE      length
      DR12        REGSYM    ---      FLOAT     dat
      R7          REGSYM    ---      CHAR      point

      00FF5DE2H   BLOCK     CODE     ---       LVL=0
      R7          REGSYM    ---      BYTE      dat
      00FF5DE2H   LINE      CODE     ---       #594
      00FF5DE2H   LINE      CODE     ---       #596
      00FF5DE4H   LINE      CODE     ---       #597
      00FF5DE6H   LINE      CODE     ---       #599
      00FF5DE9H   LINE      CODE     ---       #600
      00FF5DEBH   LINE      CODE     ---       #601
      ---         BLOCKEND  ---      ---       LVL=0
      R7          REGSYM    ---      BYTE      dat

      00FF5BCCH   BLOCK     CODE     ---       LVL=0
      WR4         REGSYM    ---      WORD      dat
      00FF5BCEH   BLOCK     CODE     NEAR LAB  LVL=1
      00000849H   SYMBOL    EDATA    ---       dat1
      ---         BLOCKEND  ---      ---       LVL=1
      00FF5BCCH   LINE      CODE     ---       #626
      00FF5BCEH   LINE      CODE     ---       #627
      00FF5BCEH   LINE      CODE     ---       #629
      00FF5BD2H   LINE      CODE     ---       #630
      00FF5BD6H   LINE      CODE     ---       #631
      00FF5BD8H   LINE      CODE     ---       #632
      00FF5BDAH   LINE      CODE     ---       #633
      00FF5BE1H   LINE      CODE     ---       #634
      00FF5BE8H   LINE      CODE     ---       #635
      00FF5BEAH   LINE      CODE     ---       #636
      ---         BLOCKEND  ---      ---       LVL=0
      WR12        REGSYM    ---      WORD      x2
      WR14        REGSYM    ---      WORD      y2
      WR14        REGSYM    ---      WORD      color
      R13         REGSYM    ---      BYTE      i
      WR2         REGSYM    ---      WORD      x
      WR0         REGSYM    ---      WORD      y
L251 LINKER/LOCATER V4.66.93.0                                                        05/03/2023  20:46:59  PAGE 66


      WR14        REGSYM    ---      WORD      color
      WR12        REGSYM    ---      WORD      x
      WR14        REGSYM    ---      WORD      y
      REG=3       REGSYM    ---      ---       dat
      WR12        REGSYM    ---      WORD      x
      WR14        REGSYM    ---      WORD      y
      WR12        REGSYM    ---      WORD      x
      WR14        REGSYM    ---      WORD      y
      R10         REGSYM    ---      BYTE      dat
      WR12        REGSYM    ---      WORD      x
      WR14        REGSYM    ---      WORD      y
      WR12        REGSYM    ---      WORD      x
      WR14        REGSYM    ---      WORD      y
      WR2         REGSYM    ---      WORD      dat
      WR12        REGSYM    ---      WORD      y
      R15         REGSYM    ---      BYTE      num
      R14         REGSYM    ---      BYTE      length
      DR12        REGSYM    ---      FLOAT     dat
      R7          REGSYM    ---      CHAR      point

      ---         MODULE    ---      ---       SEEKFREE_MPU6050
      00000803H   PUBLIC    EDATA    INT       mpu6050_acc_x
      00000805H   PUBLIC    EDATA    INT       mpu6050_acc_y
      00000807H   PUBLIC    EDATA    INT       mpu6050_acc_z
      00000809H   PUBLIC    EDATA    INT       mpu6050_gyro_x
      0000080BH   PUBLIC    EDATA    INT       mpu6050_gyro_y
      0000080DH   PUBLIC    EDATA    INT       mpu6050_gyro_z
      000000D0H   SFRSYM    DATA     BYTE      PSW
      0000009DH   SFRSYM    DATA     BYTE      IRCBAND
      00000097H   SFRSYM    DATA     BYTE      AUXR2
      000000EFH   SFRSYM    DATA     BYTE      AUXINTIF
      000000FDH   SFRSYM    DATA     BYTE      S4CON
      000000ACH   SFRSYM    DATA     BYTE      S3CON
      0000009AH   SFRSYM    DATA     BYTE      S2CON
      000000B7H   SFRSYM    DATA     BYTE      IPH
      000000CDH   SFRSYM    DATA     BYTE      SPSTAT
      000000DDH   SFRSYM    DATA     BYTE      T4T3M
      000000C1H   SFRSYM    DATA     BYTE      WDT_CONTR
      000000DFH   SFRSYM    DATA     BYTE      IP3
      000000F4H   SFRSYM    DATA     BYTE      USBCON
      000000B5H   SFRSYM    DATA     BYTE      IP2
      000000FFH   SFRSYM    DATA     BYTE      RSTCFG
      000000F9H   SFRSYM    DATA     BYTE      LINICR
      0000008EH   SFRSYM    DATA     BYTE      AUXR
      000000AFH   SFRSYM    DATA     BYTE      IE2
      00000088H   SFRSYM    DATA     BYTE      TCON
      000000C0H.1 SFRSYM    DATA     BIT       P41
      00000098H   SFRSYM    DATA     BYTE      SCON
      000000C0H.0 SFRSYM    DATA     BIT       P40
      000000F1H   SFRSYM    DATA     BYTE      CANICR
      00000087H   SFRSYM    DATA     BYTE      PCON
      000000BCH   SFRSYM    DATA     BYTE      ADC_CONTR
      000000E7H   SFRSYM    DATA     BYTE      CMPCR2
      000000E6H   SFRSYM    DATA     BYTE      CMPCR1
      000000B8H   SFRSYM    DATA     BYTE      IP
      0000008FH   SFRSYM    DATA     BYTE      INTCLKO
      000000EEH   SFRSYM    DATA     BYTE      IP3H
      000000B6H   SFRSYM    DATA     BYTE      IP2H
      000000A8H   SFRSYM    DATA     BYTE      IE
      000000BBH   SFRSYM    DATA     BYTE      P_SW3
      000000BAH   SFRSYM    DATA     BYTE      P_SW2
      000000A2H   SFRSYM    DATA     BYTE      P_SW1
      000000CEH   SFRSYM    DATA     BYTE      SPCTL
      000000F8H   SFRSYM    DATA     BYTE      P7
      000000E8H   SFRSYM    DATA     BYTE      P6
L251 LINKER/LOCATER V4.66.93.0                                                        05/03/2023  20:46:59  PAGE 67


      000000C8H   SFRSYM    DATA     BYTE      P5
      000000C0H   SFRSYM    DATA     BYTE      P4
      000000B0H   SFRSYM    DATA     BYTE      P3
      000000A0H   SFRSYM    DATA     BYTE      P2
      00000090H   SFRSYM    DATA     BYTE      P1
      00000080H   SFRSYM    DATA     BYTE      P0
      00FF5D9FH   SYMBOL    CODE     ---       mpu6050_simiic_start
      00FF5D6FH   SYMBOL    CODE     ---       mpu6050_simiic_stop
      00FF5B8CH   SYMBOL    CODE     ---       mpu6050_simiic_sendack
      00FF5DD7H   SYMBOL    CODE     ---       mpu6050_simiic_delay

      00FF5DD7H   BLOCK     CODE     ---       LVL=0
      WR6         REGSYM    ---      WORD      j
      00FF5DD7H   LINE      CODE     ---       #52
      00FF5DD7H   LINE      CODE     ---       #53
      00FF5DD7H   LINE      CODE     ---       #54
      00FF5DD9H   LINE      CODE     ---       #55
      00FF5DE1H   LINE      CODE     ---       #56
      ---         BLOCKEND  ---      ---       LVL=0

      00FF5D9FH   BLOCK     CODE     ---       LVL=0
      00FF5D9FH   LINE      CODE     ---       #59
      00FF5D9FH   LINE      CODE     ---       #61
      00FF5DA1H   LINE      CODE     ---       #62
      00FF5DA3H   LINE      CODE     ---       #63
      00FF5DA6H   LINE      CODE     ---       #64
      00FF5DA8H   LINE      CODE     ---       #65
      00FF5DABH   LINE      CODE     ---       #66
      00FF5DADH   LINE      CODE     ---       #67
      ---         BLOCKEND  ---      ---       LVL=0

      00FF5D6FH   BLOCK     CODE     ---       LVL=0
      00FF5D6FH   LINE      CODE     ---       #70
      00FF5D6FH   LINE      CODE     ---       #72
      00FF5D71H   LINE      CODE     ---       #73
      00FF5D73H   LINE      CODE     ---       #74
      00FF5D76H   LINE      CODE     ---       #75
      00FF5D78H   LINE      CODE     ---       #76
      00FF5D7BH   LINE      CODE     ---       #77
      00FF5D7DH   LINE      CODE     ---       #78
      ---         BLOCKEND  ---      ---       LVL=0

      00FF5B8CH   BLOCK     CODE     ---       LVL=0
      R15         REGSYM    ---      BYTE      ack_dat
      00FF5B8CH   LINE      CODE     ---       #83
      00FF5B90H   LINE      CODE     ---       #85
      00FF5B92H   LINE      CODE     ---       #86
      00FF5B95H   LINE      CODE     ---       #87
      00FF5B9DH   LINE      CODE     ---       #88
      00FF5B9FH   LINE      CODE     ---       #90
      00FF5BA1H   LINE      CODE     ---       #91
      00FF5BA4H   LINE      CODE     ---       #92
      00FF5BA6H   LINE      CODE     ---       #93
      00FF5BA9H   LINE      CODE     ---       #94
      ---         BLOCKEND  ---      ---       LVL=0
      R15         REGSYM    ---      BYTE      c
      R14         REGSYM    ---      BYTE      i
      R15         REGSYM    ---      BYTE      ack_x
      R13         REGSYM    ---      BYTE      i
      R14         REGSYM    ---      BYTE      c
      R13         REGSYM    ---      BYTE      dev_add
      R14         REGSYM    ---      BYTE      reg
      R15         REGSYM    ---      BYTE      dat
      R15         REGSYM    ---      BYTE      dev_add
      R14         REGSYM    ---      BYTE      reg
L251 LINKER/LOCATER V4.66.93.0                                                        05/03/2023  20:46:59  PAGE 68


      R15         REGSYM    ---      BYTE      dat
      REG=3       REGSYM    ---      ---       dat_add

      ---         MODULE    ---      ---       SEEKFREE_PRINTF
      000000D0H   SFRSYM    DATA     BYTE      PSW
      0000009DH   SFRSYM    DATA     BYTE      IRCBAND
      00000097H   SFRSYM    DATA     BYTE      AUXR2
      000000EFH   SFRSYM    DATA     BYTE      AUXINTIF
      000000FDH   SFRSYM    DATA     BYTE      S4CON
      000000ACH   SFRSYM    DATA     BYTE      S3CON
      0000009AH   SFRSYM    DATA     BYTE      S2CON
      000000B7H   SFRSYM    DATA     BYTE      IPH
      000000CDH   SFRSYM    DATA     BYTE      SPSTAT
      000000DDH   SFRSYM    DATA     BYTE      T4T3M
      000000C1H   SFRSYM    DATA     BYTE      WDT_CONTR
      000000DFH   SFRSYM    DATA     BYTE      IP3
      000000F4H   SFRSYM    DATA     BYTE      USBCON
      000000B5H   SFRSYM    DATA     BYTE      IP2
      000000FFH   SFRSYM    DATA     BYTE      RSTCFG
      000000F9H   SFRSYM    DATA     BYTE      LINICR
      0000008EH   SFRSYM    DATA     BYTE      AUXR
      000000AFH   SFRSYM    DATA     BYTE      IE2
      00000088H   SFRSYM    DATA     BYTE      TCON
      00000098H   SFRSYM    DATA     BYTE      SCON
      000000F1H   SFRSYM    DATA     BYTE      CANICR
      00000087H   SFRSYM    DATA     BYTE      PCON
      000000BCH   SFRSYM    DATA     BYTE      ADC_CONTR
      000000E7H   SFRSYM    DATA     BYTE      CMPCR2
      000000E6H   SFRSYM    DATA     BYTE      CMPCR1
      000000B8H   SFRSYM    DATA     BYTE      IP
      0000008FH   SFRSYM    DATA     BYTE      INTCLKO
      000000EEH   SFRSYM    DATA     BYTE      IP3H
      000000B6H   SFRSYM    DATA     BYTE      IP2H
      000000A8H   SFRSYM    DATA     BYTE      IE
      000000BBH   SFRSYM    DATA     BYTE      P_SW3
      000000BAH   SFRSYM    DATA     BYTE      P_SW2
      000000A2H   SFRSYM    DATA     BYTE      P_SW1
      000000CEH   SFRSYM    DATA     BYTE      SPCTL
      000000F8H   SFRSYM    DATA     BYTE      P7
      000000E8H   SFRSYM    DATA     BYTE      P6
      000000C8H   SFRSYM    DATA     BYTE      P5
      000000C0H   SFRSYM    DATA     BYTE      P4
      000000B0H   SFRSYM    DATA     BYTE      P3
      000000A0H   SFRSYM    DATA     BYTE      P2
      00000090H   SFRSYM    DATA     BYTE      P1
      00000080H   SFRSYM    DATA     BYTE      P0
      DR24        REGSYM    ---      DWORD     dat
      REG=7       REGSYM    ---      ---       p
      R10         REGSYM    ---      BYTE      neg_type
      DR20        REGSYM    ---      LONG      neg_dat
      DR24        REGSYM    ---      DWORD     pos_dat
      R14         REGSYM    ---      BYTE      temp_data
      R15         REGSYM    ---      BYTE      valid_num
      REG=7       REGSYM    ---      ---       d_buff
      DR24        REGSYM    ---      DWORD     len
      DR4         REGSYM    ---      DWORD     i
      R3          REGSYM    ---      CHAR      temp_data
      REG=3       REGSYM    ---      ---       buff

      ---         MODULE    ---      ---       SEEKFREE_TSL1401
      000003C9H   PUBLIC    EDATA    BYTE      tsl1401_finish_flag
      000003CAH   PUBLIC    EDATA    ---       ccd_data
      000000D0H   SFRSYM    DATA     BYTE      PSW
      0000009DH   SFRSYM    DATA     BYTE      IRCBAND
      00000097H   SFRSYM    DATA     BYTE      AUXR2
L251 LINKER/LOCATER V4.66.93.0                                                        05/03/2023  20:46:59  PAGE 69


      000000EFH   SFRSYM    DATA     BYTE      AUXINTIF
      000000FDH   SFRSYM    DATA     BYTE      S4CON
      000000ACH   SFRSYM    DATA     BYTE      S3CON
      0000009AH   SFRSYM    DATA     BYTE      S2CON
      000000B7H   SFRSYM    DATA     BYTE      IPH
      000000CDH   SFRSYM    DATA     BYTE      SPSTAT
      000000DDH   SFRSYM    DATA     BYTE      T4T3M
      000000C1H   SFRSYM    DATA     BYTE      WDT_CONTR
      000000DFH   SFRSYM    DATA     BYTE      IP3
      000000F4H   SFRSYM    DATA     BYTE      USBCON
      000000B5H   SFRSYM    DATA     BYTE      IP2
      000000FFH   SFRSYM    DATA     BYTE      RSTCFG
      000000F9H   SFRSYM    DATA     BYTE      LINICR
      0000008EH   SFRSYM    DATA     BYTE      AUXR
      000000AFH   SFRSYM    DATA     BYTE      IE2
      000000B0H.3 SFRSYM    DATA     BIT       P33
      00000088H   SFRSYM    DATA     BYTE      TCON
      000000B0H.2 SFRSYM    DATA     BIT       P32
      00000098H   SFRSYM    DATA     BYTE      SCON
      000000F1H   SFRSYM    DATA     BYTE      CANICR
      00000087H   SFRSYM    DATA     BYTE      PCON
      000000BCH   SFRSYM    DATA     BYTE      ADC_CONTR
      000000E7H   SFRSYM    DATA     BYTE      CMPCR2
      000000E6H   SFRSYM    DATA     BYTE      CMPCR1
      000000B8H   SFRSYM    DATA     BYTE      IP
      0000008FH   SFRSYM    DATA     BYTE      INTCLKO
      000000EEH   SFRSYM    DATA     BYTE      IP3H
      000000B6H   SFRSYM    DATA     BYTE      IP2H
      000000A8H   SFRSYM    DATA     BYTE      IE
      000000BBH   SFRSYM    DATA     BYTE      P_SW3
      000000BAH   SFRSYM    DATA     BYTE      P_SW2
      000000A2H   SFRSYM    DATA     BYTE      P_SW1
      000000CEH   SFRSYM    DATA     BYTE      SPCTL
      000000F8H   SFRSYM    DATA     BYTE      P7
      000000E8H   SFRSYM    DATA     BYTE      P6
      000000C8H   SFRSYM    DATA     BYTE      P5
      000000C0H   SFRSYM    DATA     BYTE      P4
      000000B0H   SFRSYM    DATA     BYTE      P3
      000000A0H   SFRSYM    DATA     BYTE      P2
      00000090H   SFRSYM    DATA     BYTE      P1
      00000080H   SFRSYM    DATA     BYTE      P0
      REG=3       REGSYM    ---      ---       dat
      R15         REGSYM    ---      BYTE      i

      ---         MODULE    ---      ---       SEEKFREE_VIRSCO
      0000080FH   PUBLIC    EDATA    ---       virtual_scope_data
      000000D0H   SFRSYM    DATA     BYTE      PSW
      0000009DH   SFRSYM    DATA     BYTE      IRCBAND
      00000097H   SFRSYM    DATA     BYTE      AUXR2
      000000EFH   SFRSYM    DATA     BYTE      AUXINTIF
      000000FDH   SFRSYM    DATA     BYTE      S4CON
      000000ACH   SFRSYM    DATA     BYTE      S3CON
      0000009AH   SFRSYM    DATA     BYTE      S2CON
      000000B7H   SFRSYM    DATA     BYTE      IPH
      000000CDH   SFRSYM    DATA     BYTE      SPSTAT
      000000DDH   SFRSYM    DATA     BYTE      T4T3M
      000000C1H   SFRSYM    DATA     BYTE      WDT_CONTR
      000000DFH   SFRSYM    DATA     BYTE      IP3
      000000F4H   SFRSYM    DATA     BYTE      USBCON
      000000B5H   SFRSYM    DATA     BYTE      IP2
      000000FFH   SFRSYM    DATA     BYTE      RSTCFG
      000000F9H   SFRSYM    DATA     BYTE      LINICR
      0000008EH   SFRSYM    DATA     BYTE      AUXR
      000000AFH   SFRSYM    DATA     BYTE      IE2
      00000088H   SFRSYM    DATA     BYTE      TCON
L251 LINKER/LOCATER V4.66.93.0                                                        05/03/2023  20:46:59  PAGE 70


      00000098H   SFRSYM    DATA     BYTE      SCON
      000000F1H   SFRSYM    DATA     BYTE      CANICR
      00000087H   SFRSYM    DATA     BYTE      PCON
      000000BCH   SFRSYM    DATA     BYTE      ADC_CONTR
      000000E7H   SFRSYM    DATA     BYTE      CMPCR2
      000000E6H   SFRSYM    DATA     BYTE      CMPCR1
      000000B8H   SFRSYM    DATA     BYTE      IP
      0000008FH   SFRSYM    DATA     BYTE      INTCLKO
      000000EEH   SFRSYM    DATA     BYTE      IP3H
      000000B6H   SFRSYM    DATA     BYTE      IP2H
      000000A8H   SFRSYM    DATA     BYTE      IE
      000000BBH   SFRSYM    DATA     BYTE      P_SW3
      000000BAH   SFRSYM    DATA     BYTE      P_SW2
      000000A2H   SFRSYM    DATA     BYTE      P_SW1
      000000CEH   SFRSYM    DATA     BYTE      SPCTL
      000000F8H   SFRSYM    DATA     BYTE      P7
      000000E8H   SFRSYM    DATA     BYTE      P6
      000000C8H   SFRSYM    DATA     BYTE      P5
      000000C0H   SFRSYM    DATA     BYTE      P4
      000000B0H   SFRSYM    DATA     BYTE      P3
      000000A0H   SFRSYM    DATA     BYTE      P2
      00000090H   SFRSYM    DATA     BYTE      P1
      00000080H   SFRSYM    DATA     BYTE      P0
      REG=7       REGSYM    ---      ---       Buf
      R10         REGSYM    ---      BYTE      CRC_CNT
      WR6         REGSYM    ---      WORD      CRC_Temp
      R5          REGSYM    ---      BYTE      i
      R4          REGSYM    ---      BYTE      j
      WR0         REGSYM    ---      INT       data1
      WR30        REGSYM    ---      INT       data2
      WR8         REGSYM    ---      INT       data3
      WR10        REGSYM    ---      INT       data4
      WR6         REGSYM    ---      WORD      CRC16

      ---         MODULE    ---      ---       SEEKFREE_WIRELESS
      00FF5C74H   PUBLIC    CODE     ---       wireless_uart_callback
      000000D0H   SFRSYM    DATA     BYTE      PSW
      0000009DH   SFRSYM    DATA     BYTE      IRCBAND
      00000097H   SFRSYM    DATA     BYTE      AUXR2
      000000EFH   SFRSYM    DATA     BYTE      AUXINTIF
      000000FDH   SFRSYM    DATA     BYTE      S4CON
      000000ACH   SFRSYM    DATA     BYTE      S3CON
      0000009AH   SFRSYM    DATA     BYTE      S2CON
      000000FEH   SFRSYM    DATA     BYTE      S4BUF
      000000B7H   SFRSYM    DATA     BYTE      IPH
      000000CDH   SFRSYM    DATA     BYTE      SPSTAT
      000000DDH   SFRSYM    DATA     BYTE      T4T3M
      000000C1H   SFRSYM    DATA     BYTE      WDT_CONTR
      000000DFH   SFRSYM    DATA     BYTE      IP3
      000000F4H   SFRSYM    DATA     BYTE      USBCON
      000000B5H   SFRSYM    DATA     BYTE      IP2
      000000FFH   SFRSYM    DATA     BYTE      RSTCFG
      000000F9H   SFRSYM    DATA     BYTE      LINICR
      0000008EH   SFRSYM    DATA     BYTE      AUXR
      000000AFH   SFRSYM    DATA     BYTE      IE2
      00000080H.7 SFRSYM    DATA     BIT       P07
      00000088H   SFRSYM    DATA     BYTE      TCON
      00000098H   SFRSYM    DATA     BYTE      SCON
      000000F1H   SFRSYM    DATA     BYTE      CANICR
      00000087H   SFRSYM    DATA     BYTE      PCON
      000000BCH   SFRSYM    DATA     BYTE      ADC_CONTR
      000000E7H   SFRSYM    DATA     BYTE      CMPCR2
      000000E6H   SFRSYM    DATA     BYTE      CMPCR1
      000000B8H   SFRSYM    DATA     BYTE      IP
      0000008FH   SFRSYM    DATA     BYTE      INTCLKO
L251 LINKER/LOCATER V4.66.93.0                                                        05/03/2023  20:46:59  PAGE 71


      000000EEH   SFRSYM    DATA     BYTE      IP3H
      000000B6H   SFRSYM    DATA     BYTE      IP2H
      000000A8H   SFRSYM    DATA     BYTE      IE
      000000BBH   SFRSYM    DATA     BYTE      P_SW3
      000000BAH   SFRSYM    DATA     BYTE      P_SW2
      000000A2H   SFRSYM    DATA     BYTE      P_SW1
      000000CEH   SFRSYM    DATA     BYTE      SPCTL
      000000F8H   SFRSYM    DATA     BYTE      P7
      000000E8H   SFRSYM    DATA     BYTE      P6
      000000C8H   SFRSYM    DATA     BYTE      P5
      000000C0H   SFRSYM    DATA     BYTE      P4
      000000B0H   SFRSYM    DATA     BYTE      P3
      000000A0H   SFRSYM    DATA     BYTE      P2
      00000090H   SFRSYM    DATA     BYTE      P1
      00000080H   SFRSYM    DATA     BYTE      P0
      000006E5H   SYMBOL    EDATA    BYTE      wireless_uart_data
      000006E6H   SYMBOL    EDATA    ---       wireless_uart_fifo
      000006FAH   SYMBOL    EDATA    ---       wireless_uart_buffer

      00FF5C74H   BLOCK     CODE     ---       LVL=0
      00FF5C74H   LINE      CODE     ---       #48
      00FF5C74H   LINE      CODE     ---       #51
      00FF5C7AH   LINE      CODE     ---       #52
      ---         BLOCKEND  ---      ---       LVL=0
      REG=3       REGSYM    ---      ---       buff
      REG=7       REGSYM    ---      ---       buff
      DR8         REGSYM    ---      DWORD     len

      ---         MODULE    ---      ---       SEEKFREE_WIRELESS_CH573
      00FF5C8DH   PUBLIC    CODE     ---       wireless_ch573_callback
      000000D0H   SFRSYM    DATA     BYTE      PSW
      0000009DH   SFRSYM    DATA     BYTE      IRCBAND
      00000097H   SFRSYM    DATA     BYTE      AUXR2
      000000EFH   SFRSYM    DATA     BYTE      AUXINTIF
      000000FDH   SFRSYM    DATA     BYTE      S4CON
      000000ACH   SFRSYM    DATA     BYTE      S3CON
      0000009AH   SFRSYM    DATA     BYTE      S2CON
      000000FEH   SFRSYM    DATA     BYTE      S4BUF
      000000B7H   SFRSYM    DATA     BYTE      IPH
      000000CDH   SFRSYM    DATA     BYTE      SPSTAT
      000000DDH   SFRSYM    DATA     BYTE      T4T3M
      000000C1H   SFRSYM    DATA     BYTE      WDT_CONTR
      000000DFH   SFRSYM    DATA     BYTE      IP3
      000000F4H   SFRSYM    DATA     BYTE      USBCON
      000000B5H   SFRSYM    DATA     BYTE      IP2
      000000FFH   SFRSYM    DATA     BYTE      RSTCFG
      000000F9H   SFRSYM    DATA     BYTE      LINICR
      0000008EH   SFRSYM    DATA     BYTE      AUXR
      000000AFH   SFRSYM    DATA     BYTE      IE2
      00000080H.7 SFRSYM    DATA     BIT       P07
      00000088H   SFRSYM    DATA     BYTE      TCON
      00000098H   SFRSYM    DATA     BYTE      SCON
      000000F1H   SFRSYM    DATA     BYTE      CANICR
      00000087H   SFRSYM    DATA     BYTE      PCON
      000000BCH   SFRSYM    DATA     BYTE      ADC_CONTR
      000000E7H   SFRSYM    DATA     BYTE      CMPCR2
      000000E6H   SFRSYM    DATA     BYTE      CMPCR1
      000000B8H   SFRSYM    DATA     BYTE      IP
      0000008FH   SFRSYM    DATA     BYTE      INTCLKO
      000000EEH   SFRSYM    DATA     BYTE      IP3H
      000000B6H   SFRSYM    DATA     BYTE      IP2H
      000000A8H   SFRSYM    DATA     BYTE      IE
      000000BBH   SFRSYM    DATA     BYTE      P_SW3
      000000BAH   SFRSYM    DATA     BYTE      P_SW2
      000000A2H   SFRSYM    DATA     BYTE      P_SW1
L251 LINKER/LOCATER V4.66.93.0                                                        05/03/2023  20:46:59  PAGE 72


      000000CEH   SFRSYM    DATA     BYTE      SPCTL
      000000F8H   SFRSYM    DATA     BYTE      P7
      000000E8H   SFRSYM    DATA     BYTE      P6
      000000C8H   SFRSYM    DATA     BYTE      P5
      000000C0H   SFRSYM    DATA     BYTE      P4
      000000B0H   SFRSYM    DATA     BYTE      P3
      000000A0H   SFRSYM    DATA     BYTE      P2
      00000090H   SFRSYM    DATA     BYTE      P1
      00000080H   SFRSYM    DATA     BYTE      P0
      0000073AH   SYMBOL    EDATA    ---       wireless_ch573_buffer
      0000077AH   SYMBOL    EDATA    BYTE      wireless_ch573_data
      0000077BH   SYMBOL    EDATA    ---       wireless_ch573_fifo

      00FF5C8DH   BLOCK     CODE     ---       LVL=0
      00FF5C8DH   LINE      CODE     ---       #39
      00FF5C8DH   LINE      CODE     ---       #42
      00FF5C93H   LINE      CODE     ---       #43
      ---         BLOCKEND  ---      ---       LVL=0
      REG=3       REGSYM    ---      ---       buff
      REG=7       REGSYM    ---      ---       buff
      DR8         REGSYM    ---      DWORD     len

      ---         MODULE    ---      ---       isr
      00FF57ACH   PUBLIC    CODE     ---       UART1_Isr
      00FF5BEBH   PUBLIC    CODE     ---       UART2_Isr
      00FF5C09H   PUBLIC    CODE     ---       UART3_Isr
      00FF50AFH   PUBLIC    CODE     ---       UART4_Isr
      00FF5E25H   PUBLIC    CODE     ---       INT0_Isr
      00FF0011H   PUBLIC    CODE     ---       INT1_Isr
      00FF5DFDH   PUBLIC    CODE     ---       INT2_Isr
      00FF5E05H   PUBLIC    CODE     ---       INT3_Isr
      00FF5E0DH   PUBLIC    CODE     ---       INT4_Isr
      00FF0012H   PUBLIC    CODE     ---       TM0_Isr
      00FF0016H   PUBLIC    CODE     ---       TM1_Isr
      00FF5E15H   PUBLIC    CODE     ---       TM2_Isr
      00FF5E1DH   PUBLIC    CODE     ---       TM3_Isr
      00FF451EH   PUBLIC    CODE     ---       TM4_Isr
      000000D0H   SFRSYM    DATA     BYTE      PSW
      0000009DH   SFRSYM    DATA     BYTE      IRCBAND
      00000097H   SFRSYM    DATA     BYTE      AUXR2
      000000EFH   SFRSYM    DATA     BYTE      AUXINTIF
      000000FDH   SFRSYM    DATA     BYTE      S4CON
      000000ACH   SFRSYM    DATA     BYTE      S3CON
      0000009AH   SFRSYM    DATA     BYTE      S2CON
      000000B7H   SFRSYM    DATA     BYTE      IPH
      000000CDH   SFRSYM    DATA     BYTE      SPSTAT
      000000DDH   SFRSYM    DATA     BYTE      T4T3M
      000000C1H   SFRSYM    DATA     BYTE      WDT_CONTR
      000000DFH   SFRSYM    DATA     BYTE      IP3
      000000F4H   SFRSYM    DATA     BYTE      USBCON
      000000B5H   SFRSYM    DATA     BYTE      IP2
      000000FFH   SFRSYM    DATA     BYTE      RSTCFG
      000000C7H   SFRSYM    DATA     BYTE      IAP_CONTR
      000000F9H   SFRSYM    DATA     BYTE      LINICR
      0000008EH   SFRSYM    DATA     BYTE      AUXR
      000000AFH   SFRSYM    DATA     BYTE      IE2
      00000080H.7 SFRSYM    DATA     BIT       P07
      00000088H   SFRSYM    DATA     BYTE      TCON
      00000098H   SFRSYM    DATA     BYTE      SCON
      000000F1H   SFRSYM    DATA     BYTE      CANICR
      00000087H   SFRSYM    DATA     BYTE      PCON
      00000099H   SFRSYM    DATA     BYTE      SBUF
      000000BCH   SFRSYM    DATA     BYTE      ADC_CONTR
      000000E7H   SFRSYM    DATA     BYTE      CMPCR2
      000000E6H   SFRSYM    DATA     BYTE      CMPCR1
L251 LINKER/LOCATER V4.66.93.0                                                        05/03/2023  20:46:59  PAGE 73


      000000B8H   SFRSYM    DATA     BYTE      IP
      0000008FH   SFRSYM    DATA     BYTE      INTCLKO
      000000EEH   SFRSYM    DATA     BYTE      IP3H
      000000B6H   SFRSYM    DATA     BYTE      IP2H
      000000A8H   SFRSYM    DATA     BYTE      IE
      000000BBH   SFRSYM    DATA     BYTE      P_SW3
      000000BAH   SFRSYM    DATA     BYTE      P_SW2
      000000A2H   SFRSYM    DATA     BYTE      P_SW1
      000000CEH   SFRSYM    DATA     BYTE      SPCTL
      000000F8H   SFRSYM    DATA     BYTE      P7
      000000E8H   SFRSYM    DATA     BYTE      P6
      000000C8H   SFRSYM    DATA     BYTE      P5
      000000C0H   SFRSYM    DATA     BYTE      P4
      000000B0H   SFRSYM    DATA     BYTE      P3
      000000A0H   SFRSYM    DATA     BYTE      P2
      00000090H   SFRSYM    DATA     BYTE      P1
      00000080H   SFRSYM    DATA     BYTE      P0

      00FF57ACH   BLOCK     CODE     ---       LVL=0
      00FF57B0H   BLOCK     CODE     NEAR LAB  LVL=1
      R11         REGSYM    ---      BYTE      res
      0000084FH   SYMBOL    EDATA    BYTE      dwon_count
      ---         BLOCKEND  ---      ---       LVL=1
      00FF57ACH   LINE      CODE     ---       #22
      00FF57B0H   LINE      CODE     ---       #23
      00FF57B0H   LINE      CODE     ---       #26
      00FF57B5H   LINE      CODE     ---       #28
      00FF57B8H   LINE      CODE     ---       #29
      00FF57BDH   LINE      CODE     ---       #30
      00FF57BDH   LINE      CODE     ---       #31
      00FF57C2H   LINE      CODE     ---       #33
      00FF57C5H   LINE      CODE     ---       #34
      00FF57C7H   LINE      CODE     ---       #36
      00FF57CAH   LINE      CODE     ---       #38
      00FF57DAH   LINE      CODE     ---       #39
      00FF57DDH   LINE      CODE     ---       #40
      00FF57DFH   LINE      CODE     ---       #43
      00FF57E4H   LINE      CODE     ---       #44
      00FF57E4H   LINE      CODE     ---       #45
      ---         BLOCKEND  ---      ---       LVL=0

      00FF5BEBH   BLOCK     CODE     ---       LVL=0
      00FF5BEBH   LINE      CODE     ---       #49
      00FF5BEFH   LINE      CODE     ---       #51
      00FF5BF4H   LINE      CODE     ---       #53
      00FF5BF7H   LINE      CODE     ---       #54
      00FF5BFCH   LINE      CODE     ---       #55
      00FF5BFCH   LINE      CODE     ---       #56
      00FF5C01H   LINE      CODE     ---       #58
      00FF5C04H   LINE      CODE     ---       #61
      ---         BLOCKEND  ---      ---       LVL=0

      00FF5C09H   BLOCK     CODE     ---       LVL=0
      00FF5C09H   LINE      CODE     ---       #66
      00FF5C0DH   LINE      CODE     ---       #68
      00FF5C12H   LINE      CODE     ---       #70
      00FF5C15H   LINE      CODE     ---       #71
      00FF5C1AH   LINE      CODE     ---       #72
      00FF5C1AH   LINE      CODE     ---       #73
      00FF5C1FH   LINE      CODE     ---       #75
      00FF5C22H   LINE      CODE     ---       #78
      ---         BLOCKEND  ---      ---       LVL=0

      00FF50AFH   BLOCK     CODE     ---       LVL=0
      00FF50AFH   LINE      CODE     ---       #83
L251 LINKER/LOCATER V4.66.93.0                                                        05/03/2023  20:46:59  PAGE 74


      00FF50C7H   LINE      CODE     ---       #85
      00FF50CCH   LINE      CODE     ---       #87
      00FF50CFH   LINE      CODE     ---       #88
      00FF50D4H   LINE      CODE     ---       #89
      00FF50D4H   LINE      CODE     ---       #90
      00FF50D9H   LINE      CODE     ---       #92
      00FF50DCH   LINE      CODE     ---       #95
      00FF50E6H   LINE      CODE     ---       #97
      00FF50E9H   LINE      CODE     ---       #98
      00FF50EBH   LINE      CODE     ---       #99
      00FF50F1H   LINE      CODE     ---       #101
      00FF50F4H   LINE      CODE     ---       #102
      00FF50F6H   LINE      CODE     ---       #103
      00FF50FCH   LINE      CODE     ---       #105
      00FF50FFH   LINE      CODE     ---       #106
      00FF50FFH   LINE      CODE     ---       #108
      ---         BLOCKEND  ---      ---       LVL=0

      00FF5E25H   BLOCK     CODE     ---       LVL=0
      00FF5E25H   LINE      CODE     ---       #111
      00FF5E27H   LINE      CODE     ---       #113
      00FF5E29H   LINE      CODE     ---       #114
      ---         BLOCKEND  ---      ---       LVL=0

      00FF0011H   BLOCK     CODE     ---       LVL=0
      00FF0011H   LINE      CODE     ---       #115
      00FF0011H   LINE      CODE     ---       #118
      ---         BLOCKEND  ---      ---       LVL=0

      00FF5DFDH   BLOCK     CODE     ---       LVL=0
      00FF5DFDH   LINE      CODE     ---       #119
      00FF5DFFH   LINE      CODE     ---       #121
      00FF5E02H   LINE      CODE     ---       #122
      ---         BLOCKEND  ---      ---       LVL=0

      00FF5E05H   BLOCK     CODE     ---       LVL=0
      00FF5E05H   LINE      CODE     ---       #123
      00FF5E07H   LINE      CODE     ---       #125
      00FF5E0AH   LINE      CODE     ---       #126
      ---         BLOCKEND  ---      ---       LVL=0

      00FF5E0DH   BLOCK     CODE     ---       LVL=0
      00FF5E0DH   LINE      CODE     ---       #128
      00FF5E0FH   LINE      CODE     ---       #130
      00FF5E12H   LINE      CODE     ---       #131
      ---         BLOCKEND  ---      ---       LVL=0

      00FF0012H   BLOCK     CODE     ---       LVL=0
      00FF0012H   LINE      CODE     ---       #133
      00FF0012H   LINE      CODE     ---       #136
      ---         BLOCKEND  ---      ---       LVL=0

      00FF0016H   BLOCK     CODE     ---       LVL=0
      00FF0016H   LINE      CODE     ---       #137
      00FF0016H   LINE      CODE     ---       #140
      ---         BLOCKEND  ---      ---       LVL=0

      00FF5E15H   BLOCK     CODE     ---       LVL=0
      00FF5E15H   LINE      CODE     ---       #141
      00FF5E17H   LINE      CODE     ---       #143
      00FF5E1AH   LINE      CODE     ---       #145
      ---         BLOCKEND  ---      ---       LVL=0

      00FF5E1DH   BLOCK     CODE     ---       LVL=0
      00FF5E1DH   LINE      CODE     ---       #146
L251 LINKER/LOCATER V4.66.93.0                                                        05/03/2023  20:46:59  PAGE 75


      00FF5E1FH   LINE      CODE     ---       #148
      00FF5E22H   LINE      CODE     ---       #150
      ---         BLOCKEND  ---      ---       LVL=0

      00FF451EH   BLOCK     CODE     ---       LVL=0
      00FF451EH   LINE      CODE     ---       #152
      00FF4534H   LINE      CODE     ---       #154
      00FF4537H   LINE      CODE     ---       #156
      00FF455FH   LINE      CODE     ---       #157
      00FF4565H   LINE      CODE     ---       #159
      00FF4571H   LINE      CODE     ---       #161
      00FF4574H   LINE      CODE     ---       #162
      00FF4583H   LINE      CODE     ---       #163
      00FF4586H   LINE      CODE     ---       #164
      00FF4589H   LINE      CODE     ---       #166
      00FF4590H   LINE      CODE     ---       #168
      00FF45AEH   LINE      CODE     ---       #170
      00FF45AEH   LINE      CODE     ---       #171
      00FF45CDH   LINE      CODE     ---       #172
      00FF45D9H   LINE      CODE     ---       #173
      00FF45DFH   LINE      CODE     ---       #174
      00FF45E2H   LINE      CODE     ---       #176
      00FF45E2H   LINE      CODE     ---       #177
      00FF45E2H   LINE      CODE     ---       #178
      00FF45E2H   LINE      CODE     ---       #179
      00FF45E4H   LINE      CODE     ---       #181
      00FF45E4H   LINE      CODE     ---       #182
      00FF45FBH   LINE      CODE     ---       #183
      00FF4607H   LINE      CODE     ---       #184
      00FF4609H   LINE      CODE     ---       #186
      00FF4609H   LINE      CODE     ---       #187
      00FF4624H   LINE      CODE     ---       #188
      00FF4630H   LINE      CODE     ---       #189
      00FF4636H   LINE      CODE     ---       #190
      00FF4638H   LINE      CODE     ---       #192
      00FF4638H   LINE      CODE     ---       #193
      00FF4653H   LINE      CODE     ---       #194
      00FF465FH   LINE      CODE     ---       #195
      00FF4669H   LINE      CODE     ---       #196
      00FF4669H   LINE      CODE     ---       #197
      00FF4669H   LINE      CODE     ---       #199
      00FF466CH   LINE      CODE     ---       #200
      00FF466FH   LINE      CODE     ---       #202
      00FF467AH   LINE      CODE     ---       #206
      ---         BLOCKEND  ---      ---       LVL=0

      ---         MODULE    ---      ---       main
      00FF4B9FH   PUBLIC    CODE     ---       main
      000000D0H   SFRSYM    DATA     BYTE      PSW
      0000009DH   SFRSYM    DATA     BYTE      IRCBAND
      00000097H   SFRSYM    DATA     BYTE      AUXR2
      000000EFH   SFRSYM    DATA     BYTE      AUXINTIF
      000000FDH   SFRSYM    DATA     BYTE      S4CON
      000000ACH   SFRSYM    DATA     BYTE      S3CON
      0000009AH   SFRSYM    DATA     BYTE      S2CON
      000000B7H   SFRSYM    DATA     BYTE      IPH
      000000CDH   SFRSYM    DATA     BYTE      SPSTAT
      000000DDH   SFRSYM    DATA     BYTE      T4T3M
      000000C1H   SFRSYM    DATA     BYTE      WDT_CONTR
      000000DFH   SFRSYM    DATA     BYTE      IP3
      000000F4H   SFRSYM    DATA     BYTE      USBCON
      000000B5H   SFRSYM    DATA     BYTE      IP2
      000000FFH   SFRSYM    DATA     BYTE      RSTCFG
      000000F9H   SFRSYM    DATA     BYTE      LINICR
      0000008EH   SFRSYM    DATA     BYTE      AUXR
L251 LINKER/LOCATER V4.66.93.0                                                        05/03/2023  20:46:59  PAGE 76


      000000AFH   SFRSYM    DATA     BYTE      IE2
      00000080H.7 SFRSYM    DATA     BIT       P07
      00000088H   SFRSYM    DATA     BYTE      TCON
      000000C8H.0 SFRSYM    DATA     BIT       P50
      00000098H   SFRSYM    DATA     BYTE      SCON
      000000F1H   SFRSYM    DATA     BYTE      CANICR
      00000087H   SFRSYM    DATA     BYTE      PCON
      000000BCH   SFRSYM    DATA     BYTE      ADC_CONTR
      000000E7H   SFRSYM    DATA     BYTE      CMPCR2
      000000E6H   SFRSYM    DATA     BYTE      CMPCR1
      000000B8H   SFRSYM    DATA     BYTE      IP
      0000008FH   SFRSYM    DATA     BYTE      INTCLKO
      000000EEH   SFRSYM    DATA     BYTE      IP3H
      000000B6H   SFRSYM    DATA     BYTE      IP2H
      000000A8H   SFRSYM    DATA     BYTE      IE
      000000BBH   SFRSYM    DATA     BYTE      P_SW3
      000000BAH   SFRSYM    DATA     BYTE      P_SW2
      000000A2H   SFRSYM    DATA     BYTE      P_SW1
      000000CEH   SFRSYM    DATA     BYTE      SPCTL
      000000F8H   SFRSYM    DATA     BYTE      P7
      000000E8H   SFRSYM    DATA     BYTE      P6
      000000C8H   SFRSYM    DATA     BYTE      P5
      000000C0H   SFRSYM    DATA     BYTE      P4
      000000B0H   SFRSYM    DATA     BYTE      P3
      000000A0H   SFRSYM    DATA     BYTE      P2
      00000090H   SFRSYM    DATA     BYTE      P1
      00000080H   SFRSYM    DATA     BYTE      P0

      00FF4B9FH   BLOCK     CODE     ---       LVL=0
      00FF4B9FH   LINE      CODE     ---       #30
      00FF4B9FH   LINE      CODE     ---       #32
      00FF4BA2H   LINE      CODE     ---       #36
      00FF4BD7H   LINE      CODE     ---       #37
      00FF4C12H   LINE      CODE     ---       #38
      00FF4C15H   LINE      CODE     ---       #39
      00FF4C18H   LINE      CODE     ---       #40
      00FF4C1BH   LINE      CODE     ---       #41
      00FF4C1EH   LINE      CODE     ---       #42
      00FF4C21H   LINE      CODE     ---       #43
      00FF4C28H   LINE      CODE     ---       #44
      00FF4C2AH   LINE      CODE     ---       #45
      00FF4C2CH   LINE      CODE     ---       #49
      00FF4C2CH   LINE      CODE     ---       #59
      00FF4C3FH   LINE      CODE     ---       #60
      00FF4C46H   LINE      CODE     ---       #61
      ---         BLOCKEND  ---      ---       LVL=0

      ---         MODULE    ---      ---       adc
      00FF553DH   PUBLIC    CODE     ---       adc_mean_filter
      00FF55D4H   PUBLIC    CODE     ---       My_Adc_Init
      00FF4FC6H   PUBLIC    CODE     ---       Read_Adc_Value
      000007DBH   PUBLIC    EDATA    INT       adc1
      000007DDH   PUBLIC    EDATA    INT       adc2
      000007DFH   PUBLIC    EDATA    INT       adc3
      000007E1H   PUBLIC    EDATA    INT       adc4
      000007E3H   PUBLIC    EDATA    INT       adc5
      000007E5H   PUBLIC    EDATA    INT       adc6
      000007E7H   PUBLIC    EDATA    INT       adc7
      000007E9H   PUBLIC    EDATA    INT       adc8
      000000D0H   SFRSYM    DATA     BYTE      PSW
      0000009DH   SFRSYM    DATA     BYTE      IRCBAND
      00000097H   SFRSYM    DATA     BYTE      AUXR2
      000000EFH   SFRSYM    DATA     BYTE      AUXINTIF
      000000FDH   SFRSYM    DATA     BYTE      S4CON
      000000ACH   SFRSYM    DATA     BYTE      S3CON
L251 LINKER/LOCATER V4.66.93.0                                                        05/03/2023  20:46:59  PAGE 77


      0000009AH   SFRSYM    DATA     BYTE      S2CON
      000000B7H   SFRSYM    DATA     BYTE      IPH
      000000CDH   SFRSYM    DATA     BYTE      SPSTAT
      000000DDH   SFRSYM    DATA     BYTE      T4T3M
      000000C1H   SFRSYM    DATA     BYTE      WDT_CONTR
      000000DFH   SFRSYM    DATA     BYTE      IP3
      000000F4H   SFRSYM    DATA     BYTE      USBCON
      000000B5H   SFRSYM    DATA     BYTE      IP2
      000000FFH   SFRSYM    DATA     BYTE      RSTCFG
      000000F9H   SFRSYM    DATA     BYTE      LINICR
      0000008EH   SFRSYM    DATA     BYTE      AUXR
      000000AFH   SFRSYM    DATA     BYTE      IE2
      00000088H   SFRSYM    DATA     BYTE      TCON
      00000098H   SFRSYM    DATA     BYTE      SCON
      000000F1H   SFRSYM    DATA     BYTE      CANICR
      00000087H   SFRSYM    DATA     BYTE      PCON
      000000BCH   SFRSYM    DATA     BYTE      ADC_CONTR
      000000E7H   SFRSYM    DATA     BYTE      CMPCR2
      000000E6H   SFRSYM    DATA     BYTE      CMPCR1
      000000B8H   SFRSYM    DATA     BYTE      IP
      0000008FH   SFRSYM    DATA     BYTE      INTCLKO
      000000EEH   SFRSYM    DATA     BYTE      IP3H
      000000B6H   SFRSYM    DATA     BYTE      IP2H
      000000A8H   SFRSYM    DATA     BYTE      IE
      000000BBH   SFRSYM    DATA     BYTE      P_SW3
      000000BAH   SFRSYM    DATA     BYTE      P_SW2
      000000A2H   SFRSYM    DATA     BYTE      P_SW1
      000000CEH   SFRSYM    DATA     BYTE      SPCTL
      000000F8H   SFRSYM    DATA     BYTE      P7
      000000E8H   SFRSYM    DATA     BYTE      P6
      000000C8H   SFRSYM    DATA     BYTE      P5
      000000C0H   SFRSYM    DATA     BYTE      P4
      000000B0H   SFRSYM    DATA     BYTE      P3
      000000A0H   SFRSYM    DATA     BYTE      P2
      00000090H   SFRSYM    DATA     BYTE      P1
      00000080H   SFRSYM    DATA     BYTE      P0

      00FF55D4H   BLOCK     CODE     ---       LVL=0
      00FF55D4H   LINE      CODE     ---       #17
      00FF55D4H   LINE      CODE     ---       #19
      00FF55DDH   LINE      CODE     ---       #20
      00FF55E6H   LINE      CODE     ---       #21
      00FF55EFH   LINE      CODE     ---       #22
      00FF55F8H   LINE      CODE     ---       #24
      00FF5601H   LINE      CODE     ---       #25
      00FF560AH   LINE      CODE     ---       #26
      00FF5613H   LINE      CODE     ---       #27
      ---         BLOCKEND  ---      ---       LVL=0

      00FF553DH   BLOCK     CODE     ---       LVL=0
      WR12        REGSYM    ---      INT       adcn
      WR14        REGSYM    ---      INT       speed
      0000079BH   SYMBOL    EDATA    BYTE      count
      00FF5547H   BLOCK     CODE     NEAR LAB  LVL=1
      0000079CH   SYMBOL    EDATA    BYTE      i
      0000079DH   SYMBOL    EDATA    DWORD     sum
      ---         BLOCKEND  ---      ---       LVL=1
      00FF553DH   LINE      CODE     ---       #34
      00FF5547H   LINE      CODE     ---       #35
      00FF5547H   LINE      CODE     ---       #39
      00FF554DH   LINE      CODE     ---       #40
      00FF5550H   LINE      CODE     ---       #42
      00FF5565H   LINE      CODE     ---       #43
      00FF5578H   LINE      CODE     ---       #45
      00FF5587H   LINE      CODE     ---       #46
L251 LINKER/LOCATER V4.66.93.0                                                        05/03/2023  20:46:59  PAGE 78


      00FF5587H   LINE      CODE     ---       #47
      ---         BLOCKEND  ---      ---       LVL=0

      00FF4FC6H   BLOCK     CODE     ---       LVL=0
      00FF4FC6H   LINE      CODE     ---       #52
      00FF4FC6H   LINE      CODE     ---       #55
      00FF4FD5H   LINE      CODE     ---       #56
      00FF4FE4H   LINE      CODE     ---       #57
      00FF4FF3H   LINE      CODE     ---       #58
      00FF5002H   LINE      CODE     ---       #60
      00FF5011H   LINE      CODE     ---       #61
      00FF5020H   LINE      CODE     ---       #62
      00FF502FH   LINE      CODE     ---       #63
      00FF503EH   LINE      CODE     ---       #64
      ---         BLOCKEND  ---      ---       LVL=0

      ---         MODULE    ---      ---       control
      00FF5299H   PUBLIC    CODE     ---       ADC_error_window_filtering
      00FF5118H   PUBLIC    CODE     ---       Correct_Angle
      00FF4EAFH   PUBLIC    CODE     ---       lost_line_judge
      00FF4A36H   PUBLIC    CODE     ---       Direct_judge
      00FF523CH   PUBLIC    CODE     ---       lostline_deal
      00FF59F0H   PUBLIC    CODE     ---       ADC_error_weight_filtering
      00FF503FH   PUBLIC    CODE     ---       ADC_error_processing
      00000627H   PUBLIC    EDATA    ---       akeman_left
      0000063BH   PUBLIC    EDATA    FLOAT     order_angle
      0000063FH   PUBLIC    EDATA    INT       Dir_judge_flag
      00000641H   PUBLIC    EDATA    INT       lostline_dir
      00000643H   PUBLIC    EDATA    FLOAT     order_speed
      00000647H   PUBLIC    EDATA    FLOAT     ADC_error_a
      0000064BH   PUBLIC    EDATA    INT       window_flag
      0000064DH   PUBLIC    EDATA    INT       Roundabout_flag
      0000064FH   PUBLIC    EDATA    BYTE      pid_flag
      00000650H   PUBLIC    EDATA    FLOAT     adc_err
      00000654H   PUBLIC    EDATA    ---       adc_err_array
      00000668H   PUBLIC    EDATA    INT       lostline_flag
      0000066AH   PUBLIC    EDATA    ---       akeman_right
      00000793H   PUBLIC    EDATA    BYTE      ?ADC_error_processing?BYTE
      00000793H   PUBLIC    EDATA    BYTE      ?Correct_Angle?BYTE
      000000D0H   SFRSYM    DATA     BYTE      PSW
      0000009DH   SFRSYM    DATA     BYTE      IRCBAND
      00000097H   SFRSYM    DATA     BYTE      AUXR2
      000000EFH   SFRSYM    DATA     BYTE      AUXINTIF
      000000FDH   SFRSYM    DATA     BYTE      S4CON
      000000ACH   SFRSYM    DATA     BYTE      S3CON
      0000009AH   SFRSYM    DATA     BYTE      S2CON
      000000B7H   SFRSYM    DATA     BYTE      IPH
      000000CDH   SFRSYM    DATA     BYTE      SPSTAT
      000000DDH   SFRSYM    DATA     BYTE      T4T3M
      000000C1H   SFRSYM    DATA     BYTE      WDT_CONTR
      000000DFH   SFRSYM    DATA     BYTE      IP3
      000000F4H   SFRSYM    DATA     BYTE      USBCON
      000000B5H   SFRSYM    DATA     BYTE      IP2
      000000FFH   SFRSYM    DATA     BYTE      RSTCFG
      000000F9H   SFRSYM    DATA     BYTE      LINICR
      0000008EH   SFRSYM    DATA     BYTE      AUXR
      000000AFH   SFRSYM    DATA     BYTE      IE2
      00000088H   SFRSYM    DATA     BYTE      TCON
      00000098H   SFRSYM    DATA     BYTE      SCON
      000000F1H   SFRSYM    DATA     BYTE      CANICR
      00000087H   SFRSYM    DATA     BYTE      PCON
      000000BCH   SFRSYM    DATA     BYTE      ADC_CONTR
      000000E7H   SFRSYM    DATA     BYTE      CMPCR2
      000000E6H   SFRSYM    DATA     BYTE      CMPCR1
      000000B8H   SFRSYM    DATA     BYTE      IP
L251 LINKER/LOCATER V4.66.93.0                                                        05/03/2023  20:46:59  PAGE 79


      0000008FH   SFRSYM    DATA     BYTE      INTCLKO
      000000EEH   SFRSYM    DATA     BYTE      IP3H
      000000B6H   SFRSYM    DATA     BYTE      IP2H
      000000A8H   SFRSYM    DATA     BYTE      IE
      000000BBH   SFRSYM    DATA     BYTE      P_SW3
      000000BAH   SFRSYM    DATA     BYTE      P_SW2
      000000A2H   SFRSYM    DATA     BYTE      P_SW1
      000000CEH   SFRSYM    DATA     BYTE      SPCTL
      000000F8H   SFRSYM    DATA     BYTE      P7
      000000E8H   SFRSYM    DATA     BYTE      P6
      000000C8H   SFRSYM    DATA     BYTE      P5
      000000C0H   SFRSYM    DATA     BYTE      P4
      000000B0H   SFRSYM    DATA     BYTE      P3
      000000A0H   SFRSYM    DATA     BYTE      P2
      00000090H   SFRSYM    DATA     BYTE      P1
      00000080H   SFRSYM    DATA     BYTE      P0
      DR12        REGSYM    ---      FLOAT     basic_speed
      DR28        REGSYM    ---      FLOAT     akeman_diff
      DR8         REGSYM    ---      FLOAT     current_l
      DR0         REGSYM    ---      FLOAT     target_l
      0000067EH   SYMBOL    EDATA    FLOAT     pwm_l
      00000682H   SYMBOL    EDATA    FLOAT     pwm_r

      00FF503FH   BLOCK     CODE     ---       LVL=0
      DR24        REGSYM    ---      FLOAT     A
      DR28        REGSYM    ---      FLOAT     B
      0000079BH   SYMBOL    EDATA    FLOAT     compensation
      00FF503FH   LINE      CODE     ---       #101
      00FF5041H   LINE      CODE     ---       #106
      00FF50AEH   LINE      CODE     ---       #107
      00FF50AEH   LINE      CODE     ---       #108
      ---         BLOCKEND  ---      ---       LVL=0

      00FF59F0H   BLOCK     CODE     ---       LVL=0
      00000686H   SYMBOL    EDATA    FLOAT     adc_err_last
      00FF59F0H   LINE      CODE     ---       #115
      00FF59F0H   LINE      CODE     ---       #116
      00FF59F0H   LINE      CODE     ---       #118
      00FF5A19H   LINE      CODE     ---       #119
      00FF5A1DH   LINE      CODE     ---       #121
      00FF5A1DH   LINE      CODE     ---       #122
      ---         BLOCKEND  ---      ---       LVL=0

      00FF5299H   BLOCK     CODE     ---       LVL=0
      00FF5299H   LINE      CODE     ---       #128
      00FF5299H   LINE      CODE     ---       #130
      00FF52AFH   LINE      CODE     ---       #131
      00FF52B5H   LINE      CODE     ---       #132
      00FF52BBH   LINE      CODE     ---       #133
      00FF52C1H   LINE      CODE     ---       #134
      00FF52C9H   LINE      CODE     ---       #135
      00FF52EFH   LINE      CODE     ---       #136
      00FF52F3H   LINE      CODE     ---       #137
      ---         BLOCKEND  ---      ---       LVL=0

      00FF4A36H   BLOCK     CODE     ---       LVL=0
      0000068AH   SYMBOL    EDATA    INT       res
      00FF4A36H   LINE      CODE     ---       #152
      00FF4A36H   LINE      CODE     ---       #153
      00FF4A36H   LINE      CODE     ---       #157
      00FF4A55H   LINE      CODE     ---       #158
      00FF4A5FH   LINE      CODE     ---       #160
      00FF4A7AH   LINE      CODE     ---       #161
      00FF4A80H   LINE      CODE     ---       #163
      00FF4AA2H   LINE      CODE     ---       #164
L251 LINKER/LOCATER V4.66.93.0                                                        05/03/2023  20:46:59  PAGE 80


      00FF4AA8H   LINE      CODE     ---       #167
      00FF4AC5H   LINE      CODE     ---       #168
      00FF4ACBH   LINE      CODE     ---       #170
      00FF4AE4H   LINE      CODE     ---       #171
      00FF4AECH   LINE      CODE     ---       #173
      00FF4AF0H   LINE      CODE     ---       #174
      ---         BLOCKEND  ---      ---       LVL=0

      00FF4EAFH   BLOCK     CODE     ---       LVL=0
      00FF4EB3H   BLOCK     CODE     NEAR LAB  LVL=1
      R13         REGSYM    ---      CHAR      i
      R14         REGSYM    ---      CHAR      L_count
      R15         REGSYM    ---      CHAR      R_count
      ---         BLOCKEND  ---      ---       LVL=1
      00FF4EAFH   LINE      CODE     ---       #180
      00FF4EB3H   LINE      CODE     ---       #181
      00FF4EB3H   LINE      CODE     ---       #182
      00FF4EB7H   LINE      CODE     ---       #183
      00FF4EBDH   LINE      CODE     ---       #184
      00FF4EC5H   LINE      CODE     ---       #186
      00FF4EEDH   LINE      CODE     ---       #187
      00FF4EF5H   LINE      CODE     ---       #189
      00FF4EF7H   LINE      CODE     ---       #191
      00FF4F10H   LINE      CODE     ---       #192
      00FF4F12H   LINE      CODE     ---       #193
      00FF4F1BH   LINE      CODE     ---       #194
      00FF4F1DH   LINE      CODE     ---       #195
      00FF4F24H   LINE      CODE     ---       #196
      00FF4F28H   LINE      CODE     ---       #197
      00FF4F30H   LINE      CODE     ---       #198
      00FF4F34H   LINE      CODE     ---       #199
      00FF4F3CH   LINE      CODE     ---       #201
      00FF4F3CH   LINE      CODE     ---       #202
      ---         BLOCKEND  ---      ---       LVL=0

      00FF523CH   BLOCK     CODE     ---       LVL=0
      00FF523CH   LINE      CODE     ---       #207
      00FF523CH   LINE      CODE     ---       #210
      00FF5246H   LINE      CODE     ---       #212
      00FF5250H   LINE      CODE     ---       #213
      00FF525AH   LINE      CODE     ---       #215
      00FF5260H   LINE      CODE     ---       #216
      00FF526AH   LINE      CODE     ---       #218
      00FF5292H   LINE      CODE     ---       #219
      00FF5298H   LINE      CODE     ---       #220
      00FF5298H   LINE      CODE     ---       #221
      ---         BLOCKEND  ---      ---       LVL=0

      00FF5118H   BLOCK     CODE     ---       LVL=0
      DR20        REGSYM    ---      FLOAT     kp
      DR28        REGSYM    ---      FLOAT     kd
      DR24        REGSYM    ---      FLOAT     ki
      00FF5122H   BLOCK     CODE     NEAR LAB  LVL=1
      DR28        REGSYM    ---      FLOAT     target_angle
      DR16        REGSYM    ---      FLOAT     target_angle_last
      0000068CH   SYMBOL    EDATA    FLOAT     adc_err_last
      ---         BLOCKEND  ---      ---       LVL=1
      00FF5118H   LINE      CODE     ---       #227
      00FF5122H   LINE      CODE     ---       #228
      00FF5122H   LINE      CODE     ---       #238
      00FF5157H   LINE      CODE     ---       #239
      00FF5178H   LINE      CODE     ---       #240
      00FF5178H   LINE      CODE     ---       #242
      00FF517CH   LINE      CODE     ---       #244
      00FF517CH   LINE      CODE     ---       #245
L251 LINKER/LOCATER V4.66.93.0                                                        05/03/2023  20:46:59  PAGE 81


      ---         BLOCKEND  ---      ---       LVL=0

      ---         MODULE    ---      ---       key
      000000D0H   SFRSYM    DATA     BYTE      PSW
      0000009DH   SFRSYM    DATA     BYTE      IRCBAND
      00000097H   SFRSYM    DATA     BYTE      AUXR2
      000000EFH   SFRSYM    DATA     BYTE      AUXINTIF
      000000FDH   SFRSYM    DATA     BYTE      S4CON
      000000ACH   SFRSYM    DATA     BYTE      S3CON
      0000009AH   SFRSYM    DATA     BYTE      S2CON
      000000B7H   SFRSYM    DATA     BYTE      IPH
      000000CDH   SFRSYM    DATA     BYTE      SPSTAT
      000000DDH   SFRSYM    DATA     BYTE      T4T3M
      000000C1H   SFRSYM    DATA     BYTE      WDT_CONTR
      000000DFH   SFRSYM    DATA     BYTE      IP3
      000000F4H   SFRSYM    DATA     BYTE      USBCON
      000000B5H   SFRSYM    DATA     BYTE      IP2
      000000FFH   SFRSYM    DATA     BYTE      RSTCFG
      000000F9H   SFRSYM    DATA     BYTE      LINICR
      0000008EH   SFRSYM    DATA     BYTE      AUXR
      000000AFH   SFRSYM    DATA     BYTE      IE2
      000000F8H.3 SFRSYM    DATA     BIT       P73
      000000F8H.2 SFRSYM    DATA     BIT       P72
      000000F8H.1 SFRSYM    DATA     BIT       P71
      000000F8H.0 SFRSYM    DATA     BIT       P70
      00000088H   SFRSYM    DATA     BYTE      TCON
      00000098H   SFRSYM    DATA     BYTE      SCON
      000000F1H   SFRSYM    DATA     BYTE      CANICR
      00000087H   SFRSYM    DATA     BYTE      PCON
      000000BCH   SFRSYM    DATA     BYTE      ADC_CONTR
      000000E7H   SFRSYM    DATA     BYTE      CMPCR2
      000000E6H   SFRSYM    DATA     BYTE      CMPCR1
      000000B8H   SFRSYM    DATA     BYTE      IP
      0000008FH   SFRSYM    DATA     BYTE      INTCLKO
      000000EEH   SFRSYM    DATA     BYTE      IP3H
      000000B6H   SFRSYM    DATA     BYTE      IP2H
      000000A8H   SFRSYM    DATA     BYTE      IE
      000000BBH   SFRSYM    DATA     BYTE      P_SW3
      000000BAH   SFRSYM    DATA     BYTE      P_SW2
      000000A2H   SFRSYM    DATA     BYTE      P_SW1
      000000CEH   SFRSYM    DATA     BYTE      SPCTL
      000000F8H   SFRSYM    DATA     BYTE      P7
      000000E8H   SFRSYM    DATA     BYTE      P6
      000000C8H   SFRSYM    DATA     BYTE      P5
      000000C0H   SFRSYM    DATA     BYTE      P4
      000000B0H   SFRSYM    DATA     BYTE      P3
      000000A0H   SFRSYM    DATA     BYTE      P2
      00000090H   SFRSYM    DATA     BYTE      P1
      00000080H   SFRSYM    DATA     BYTE      P0
      R7          REGSYM    ---      BYTE      mode
      00000850H   SYMBOL    EDATA    BYTE      key_up

      ---         MODULE    ---      ---       motor
      00FF54A0H   PUBLIC    CODE     ---       Motor_Init
      00FF4C48H   PUBLIC    CODE     ---       Motor_Control
      0000083AH   PUBLIC    EDATA    INT       pulse_right
      0000083CH   PUBLIC    EDATA    INT       pulse_left
      000000D0H   SFRSYM    DATA     BYTE      PSW
      0000009DH   SFRSYM    DATA     BYTE      IRCBAND
      00000097H   SFRSYM    DATA     BYTE      AUXR2
      000000EFH   SFRSYM    DATA     BYTE      AUXINTIF
      000000FDH   SFRSYM    DATA     BYTE      S4CON
      000000ACH   SFRSYM    DATA     BYTE      S3CON
      0000009AH   SFRSYM    DATA     BYTE      S2CON
      000000B7H   SFRSYM    DATA     BYTE      IPH
L251 LINKER/LOCATER V4.66.93.0                                                        05/03/2023  20:46:59  PAGE 82


      000000CDH   SFRSYM    DATA     BYTE      SPSTAT
      000000DDH   SFRSYM    DATA     BYTE      T4T3M
      000000C1H   SFRSYM    DATA     BYTE      WDT_CONTR
      000000DFH   SFRSYM    DATA     BYTE      IP3
      000000F4H   SFRSYM    DATA     BYTE      USBCON
      000000B5H   SFRSYM    DATA     BYTE      IP2
      000000FFH   SFRSYM    DATA     BYTE      RSTCFG
      000000F9H   SFRSYM    DATA     BYTE      LINICR
      0000008EH   SFRSYM    DATA     BYTE      AUXR
      000000AFH   SFRSYM    DATA     BYTE      IE2
      000000B0H.5 SFRSYM    DATA     BIT       P35
      000000C8H.3 SFRSYM    DATA     BIT       P53
      00000088H   SFRSYM    DATA     BYTE      TCON
      00000098H   SFRSYM    DATA     BYTE      SCON
      000000F1H   SFRSYM    DATA     BYTE      CANICR
      00000087H   SFRSYM    DATA     BYTE      PCON
      000000BCH   SFRSYM    DATA     BYTE      ADC_CONTR
      000000E7H   SFRSYM    DATA     BYTE      CMPCR2
      000000E6H   SFRSYM    DATA     BYTE      CMPCR1
      000000B8H   SFRSYM    DATA     BYTE      IP
      0000008FH   SFRSYM    DATA     BYTE      INTCLKO
      000000EEH   SFRSYM    DATA     BYTE      IP3H
      000000B6H   SFRSYM    DATA     BYTE      IP2H
      000000A8H   SFRSYM    DATA     BYTE      IE
      000000BBH   SFRSYM    DATA     BYTE      P_SW3
      000000BAH   SFRSYM    DATA     BYTE      P_SW2
      000000A2H   SFRSYM    DATA     BYTE      P_SW1
      000000CEH   SFRSYM    DATA     BYTE      SPCTL
      000000F8H   SFRSYM    DATA     BYTE      P7
      000000E8H   SFRSYM    DATA     BYTE      P6
      000000C8H   SFRSYM    DATA     BYTE      P5
      000000C0H   SFRSYM    DATA     BYTE      P4
      000000B0H   SFRSYM    DATA     BYTE      P3
      000000A0H   SFRSYM    DATA     BYTE      P2
      00000090H   SFRSYM    DATA     BYTE      P1
      00000080H   SFRSYM    DATA     BYTE      P0

      00FF54A0H   BLOCK     CODE     ---       LVL=0
      00FF54A0H   LINE      CODE     ---       #12
      00FF54A0H   LINE      CODE     ---       #15
      00FF54B1H   LINE      CODE     ---       #16
      00FF54C2H   LINE      CODE     ---       #18
      00FF54D3H   LINE      CODE     ---       #19
      00FF54E4H   LINE      CODE     ---       #21
      00FF54E9H   LINE      CODE     ---       #22
      ---         BLOCKEND  ---      ---       LVL=0

      00FF4C48H   BLOCK     CODE     ---       LVL=0
      0000079BH   SYMBOL    EDATA    LONG      left_duty
      DR12        REGSYM    ---      LONG      right_duty
      00FF4C48H   LINE      CODE     ---       #31
      00FF4C50H   LINE      CODE     ---       #34
      00FF4C5EH   LINE      CODE     ---       #35
      00FF4C70H   LINE      CODE     ---       #36
      00FF4C7AH   LINE      CODE     ---       #37
      00FF4C84H   LINE      CODE     ---       #39
      00FF4C8EH   LINE      CODE     ---       #41
      00FF4C97H   LINE      CODE     ---       #42
      00FF4C9FH   LINE      CODE     ---       #43
      00FF4CA1H   LINE      CODE     ---       #46
      00FF4CB6H   LINE      CODE     ---       #47
      00FF4CBFH   LINE      CODE     ---       #48
      00FF4CBFH   LINE      CODE     ---       #50
      00FF4CC5H   LINE      CODE     ---       #52
      00FF4CCEH   LINE      CODE     ---       #53
L251 LINKER/LOCATER V4.66.93.0                                                        05/03/2023  20:46:59  PAGE 83


      00FF4CD4H   LINE      CODE     ---       #54
      00FF4CD6H   LINE      CODE     ---       #57
      00FF4CE1H   LINE      CODE     ---       #58
      00FF4CEAH   LINE      CODE     ---       #59
      00FF4CEAH   LINE      CODE     ---       #60
      ---         BLOCKEND  ---      ---       LVL=0

      ---         MODULE    ---      ---       steer
      00FF4CEDH   PUBLIC    CODE     ---       Steer_Spin
      00FF5BACH   PUBLIC    CODE     ---       Steer_Spin_limit
      00FF5D28H   PUBLIC    CODE     ---       Steer_Init
      0000083EH   PUBLIC    EDATA    FLOAT     angle_limit
      000000D0H   SFRSYM    DATA     BYTE      PSW
      0000009DH   SFRSYM    DATA     BYTE      IRCBAND
      00000097H   SFRSYM    DATA     BYTE      AUXR2
      000000EFH   SFRSYM    DATA     BYTE      AUXINTIF
      000000FDH   SFRSYM    DATA     BYTE      S4CON
      000000ACH   SFRSYM    DATA     BYTE      S3CON
      0000009AH   SFRSYM    DATA     BYTE      S2CON
      000000B7H   SFRSYM    DATA     BYTE      IPH
      000000CDH   SFRSYM    DATA     BYTE      SPSTAT
      000000DDH   SFRSYM    DATA     BYTE      T4T3M
      000000C1H   SFRSYM    DATA     BYTE      WDT_CONTR
      000000DFH   SFRSYM    DATA     BYTE      IP3
      000000F4H   SFRSYM    DATA     BYTE      USBCON
      000000B5H   SFRSYM    DATA     BYTE      IP2
      000000FFH   SFRSYM    DATA     BYTE      RSTCFG
      000000F9H   SFRSYM    DATA     BYTE      LINICR
      0000008EH   SFRSYM    DATA     BYTE      AUXR
      000000AFH   SFRSYM    DATA     BYTE      IE2
      00000088H   SFRSYM    DATA     BYTE      TCON
      00000098H   SFRSYM    DATA     BYTE      SCON
      000000F1H   SFRSYM    DATA     BYTE      CANICR
      00000087H   SFRSYM    DATA     BYTE      PCON
      000000BCH   SFRSYM    DATA     BYTE      ADC_CONTR
      000000E7H   SFRSYM    DATA     BYTE      CMPCR2
      000000E6H   SFRSYM    DATA     BYTE      CMPCR1
      000000B8H   SFRSYM    DATA     BYTE      IP
      0000008FH   SFRSYM    DATA     BYTE      INTCLKO
      000000EEH   SFRSYM    DATA     BYTE      IP3H
      000000B6H   SFRSYM    DATA     BYTE      IP2H
      000000A8H   SFRSYM    DATA     BYTE      IE
      000000BBH   SFRSYM    DATA     BYTE      P_SW3
      000000BAH   SFRSYM    DATA     BYTE      P_SW2
      000000A2H   SFRSYM    DATA     BYTE      P_SW1
      000000CEH   SFRSYM    DATA     BYTE      SPCTL
      000000F8H   SFRSYM    DATA     BYTE      P7
      000000E8H   SFRSYM    DATA     BYTE      P6
      000000C8H   SFRSYM    DATA     BYTE      P5
      000000C0H   SFRSYM    DATA     BYTE      P4
      000000B0H   SFRSYM    DATA     BYTE      P3
      000000A0H   SFRSYM    DATA     BYTE      P2
      00000090H   SFRSYM    DATA     BYTE      P1
      00000080H   SFRSYM    DATA     BYTE      P0

      00FF5D28H   BLOCK     CODE     ---       LVL=0
      00FF5D28H   LINE      CODE     ---       #9
      00FF5D28H   LINE      CODE     ---       #11
      ---         BLOCKEND  ---      ---       LVL=0

      00FF4CEDH   BLOCK     CODE     ---       LVL=0
      DR28        REGSYM    ---      FLOAT     target_angle
      00FF4CF1H   BLOCK     CODE     NEAR LAB  LVL=1
      DR12        REGSYM    ---      DWORD     duty
      ---         BLOCKEND  ---      ---       LVL=1
L251 LINKER/LOCATER V4.66.93.0                                                        05/03/2023  20:46:59  PAGE 84


      00FF4CEDH   LINE      CODE     ---       #19
      00FF4CF1H   LINE      CODE     ---       #20
      00FF4CF1H   LINE      CODE     ---       #24
      00FF4D00H   LINE      CODE     ---       #25
      00FF4D11H   LINE      CODE     ---       #26
      00FF4D23H   LINE      CODE     ---       #28
      00FF4D2EH   LINE      CODE     ---       #30
      00FF4D50H   LINE      CODE     ---       #32
      00FF4D50H   LINE      CODE     ---       #34
      00FF4D59H   LINE      CODE     ---       #36
      00FF4D7BH   LINE      CODE     ---       #38
      00FF4D7BH   LINE      CODE     ---       #40
      00FF4D84H   LINE      CODE     ---       #41
      ---         BLOCKEND  ---      ---       LVL=0

      00FF5BACH   BLOCK     CODE     ---       LVL=0
      DR28        REGSYM    ---      FLOAT     target_angle
      DR24        REGSYM    ---      FLOAT     angle_limit
      00FF5BACH   LINE      CODE     ---       #48
      00FF5BB0H   LINE      CODE     ---       #50
      00FF5BB5H   LINE      CODE     ---       #51
      00FF5BB7H   LINE      CODE     ---       #52
      00FF5BC5H   LINE      CODE     ---       #53
      00FF5BC7H   LINE      CODE     ---       #55
      ---         BLOCKEND  ---      ---       LVL=0

      ---         MODULE    ---      ---       timer
      00FF5DECH   PUBLIC    CODE     ---       Timer4_Init
      000000D0H   SFRSYM    DATA     BYTE      PSW
      0000009DH   SFRSYM    DATA     BYTE      IRCBAND
      00000097H   SFRSYM    DATA     BYTE      AUXR2
      000000EFH   SFRSYM    DATA     BYTE      AUXINTIF
      000000FDH   SFRSYM    DATA     BYTE      S4CON
      000000ACH   SFRSYM    DATA     BYTE      S3CON
      0000009AH   SFRSYM    DATA     BYTE      S2CON
      000000B7H   SFRSYM    DATA     BYTE      IPH
      000000CDH   SFRSYM    DATA     BYTE      SPSTAT
      000000DDH   SFRSYM    DATA     BYTE      T4T3M
      000000C1H   SFRSYM    DATA     BYTE      WDT_CONTR
      000000DFH   SFRSYM    DATA     BYTE      IP3
      000000F4H   SFRSYM    DATA     BYTE      USBCON
      000000B5H   SFRSYM    DATA     BYTE      IP2
      000000FFH   SFRSYM    DATA     BYTE      RSTCFG
      000000F9H   SFRSYM    DATA     BYTE      LINICR
      0000008EH   SFRSYM    DATA     BYTE      AUXR
      000000AFH   SFRSYM    DATA     BYTE      IE2
      00000088H   SFRSYM    DATA     BYTE      TCON
      00000098H   SFRSYM    DATA     BYTE      SCON
      000000F1H   SFRSYM    DATA     BYTE      CANICR
      00000087H   SFRSYM    DATA     BYTE      PCON
      000000BCH   SFRSYM    DATA     BYTE      ADC_CONTR
      000000E7H   SFRSYM    DATA     BYTE      CMPCR2
      000000E6H   SFRSYM    DATA     BYTE      CMPCR1
      000000B8H   SFRSYM    DATA     BYTE      IP
      0000008FH   SFRSYM    DATA     BYTE      INTCLKO
      000000EEH   SFRSYM    DATA     BYTE      IP3H
      000000B6H   SFRSYM    DATA     BYTE      IP2H
      000000A8H   SFRSYM    DATA     BYTE      IE
      000000BBH   SFRSYM    DATA     BYTE      P_SW3
      000000BAH   SFRSYM    DATA     BYTE      P_SW2
      000000A2H   SFRSYM    DATA     BYTE      P_SW1
      000000CEH   SFRSYM    DATA     BYTE      SPCTL
      000000F8H   SFRSYM    DATA     BYTE      P7
      000000E8H   SFRSYM    DATA     BYTE      P6
      000000C8H   SFRSYM    DATA     BYTE      P5
L251 LINKER/LOCATER V4.66.93.0                                                        05/03/2023  20:46:59  PAGE 85


      000000C0H   SFRSYM    DATA     BYTE      P4
      000000B0H   SFRSYM    DATA     BYTE      P3
      000000A0H   SFRSYM    DATA     BYTE      P2
      00000090H   SFRSYM    DATA     BYTE      P1
      00000080H   SFRSYM    DATA     BYTE      P0

      00FF5DECH   BLOCK     CODE     ---       LVL=0
      WR4         REGSYM    ---      WORD      time_ms
      00FF5DECH   LINE      CODE     ---       #9
      00FF5DEEH   LINE      CODE     ---       #11
      ---         BLOCKEND  ---      ---       LVL=0

      ---         MODULE    ---      ---       oled
      00FF4AF1H   PUBLIC    CODE     ---       OLED_Init
      00FF52F4H   PUBLIC    CODE     ---       OLED_WR_Byte
      00FF5A73H   PUBLIC    CODE     ---       OLED_Set_Pos
      00FF5902H   PUBLIC    CODE     ---       OLED_Clear
      00FF5E2CH   PUBLIC    HCONST   ---       F6x8
      00FF6054H   PUBLIC    HCONST   ---       F8X16
      00000008H   PUBLIC    EDATA    ---       Hzk
      000003C8H   PUBLIC    EDATA    BYTE      show_mode
      000000D0H   SFRSYM    DATA     BYTE      PSW
      0000009DH   SFRSYM    DATA     BYTE      IRCBAND
      00000097H   SFRSYM    DATA     BYTE      AUXR2
      000000EFH   SFRSYM    DATA     BYTE      AUXINTIF
      000000FDH   SFRSYM    DATA     BYTE      S4CON
      000000B0H.7 SFRSYM    DATA     BIT       OLED_SCL
      000000ACH   SFRSYM    DATA     BYTE      S3CON
      0000009AH   SFRSYM    DATA     BYTE      S2CON
      000000B7H   SFRSYM    DATA     BYTE      IPH
      000000CDH   SFRSYM    DATA     BYTE      SPSTAT
      000000DDH   SFRSYM    DATA     BYTE      T4T3M
      000000C1H   SFRSYM    DATA     BYTE      WDT_CONTR
      000000DFH   SFRSYM    DATA     BYTE      IP3
      000000F4H   SFRSYM    DATA     BYTE      USBCON
      000000B5H   SFRSYM    DATA     BYTE      IP2
      000000FFH   SFRSYM    DATA     BYTE      RSTCFG
      000000F9H   SFRSYM    DATA     BYTE      LINICR
      0000008EH   SFRSYM    DATA     BYTE      AUXR
      000000AFH   SFRSYM    DATA     BYTE      IE2
      00000088H   SFRSYM    DATA     BYTE      TCON
      000000B0H.6 SFRSYM    DATA     BIT       OLED_SDIN
      00000098H   SFRSYM    DATA     BYTE      SCON
      000000F1H   SFRSYM    DATA     BYTE      CANICR
      00000087H   SFRSYM    DATA     BYTE      PCON
      000000BCH   SFRSYM    DATA     BYTE      ADC_CONTR
      000000E7H   SFRSYM    DATA     BYTE      CMPCR2
      000000E6H   SFRSYM    DATA     BYTE      CMPCR1
      00000080H.2 SFRSYM    DATA     BIT       OLED_CS
      000000B8H   SFRSYM    DATA     BYTE      IP
      0000008FH   SFRSYM    DATA     BYTE      INTCLKO
      000000EEH   SFRSYM    DATA     BYTE      IP3H
      000000B6H   SFRSYM    DATA     BYTE      IP2H
      000000A8H   SFRSYM    DATA     BYTE      IE
      000000BBH   SFRSYM    DATA     BYTE      P_SW3
      000000BAH   SFRSYM    DATA     BYTE      P_SW2
      000000C8H.2 SFRSYM    DATA     BIT       OLED_DC
      000000A2H   SFRSYM    DATA     BYTE      P_SW1
      000000CEH   SFRSYM    DATA     BYTE      SPCTL
      000000F8H   SFRSYM    DATA     BYTE      P7
      000000E8H   SFRSYM    DATA     BYTE      P6
      000000C8H   SFRSYM    DATA     BYTE      P5
      000000C0H   SFRSYM    DATA     BYTE      P4
      000000B0H   SFRSYM    DATA     BYTE      P3
      000000A0H   SFRSYM    DATA     BYTE      P2
L251 LINKER/LOCATER V4.66.93.0                                                        05/03/2023  20:46:59  PAGE 86


      00000090H   SFRSYM    DATA     BYTE      P1
      00000080H   SFRSYM    DATA     BYTE      P0
      000000C8H.1 SFRSYM    DATA     BIT       OLED_RST

      00FF52F4H   BLOCK     CODE     ---       LVL=0
      R10         REGSYM    ---      BYTE      dat
      R7          REGSYM    ---      BYTE      cmd
      00FF52F6H   BLOCK     CODE     NEAR LAB  LVL=1
      R6          REGSYM    ---      BYTE      i
      ---         BLOCKEND  ---      ---       LVL=1
      00FF52F4H   LINE      CODE     ---       #83
      00FF52F6H   LINE      CODE     ---       #84
      00FF52F6H   LINE      CODE     ---       #86
      00FF52FAH   LINE      CODE     ---       #88
      00FF52FCH   LINE      CODE     ---       #89
      00FF52FEH   LINE      CODE     ---       #90
      00FF5300H   LINE      CODE     ---       #92
      00FF5302H   LINE      CODE     ---       #93
      00FF5308H   LINE      CODE     ---       #95
      00FF530DH   LINE      CODE     ---       #97
      00FF530FH   LINE      CODE     ---       #98
      00FF5311H   LINE      CODE     ---       #100
      00FF5313H   LINE      CODE     ---       #101
      00FF5315H   LINE      CODE     ---       #104
      00FF531AH   LINE      CODE     ---       #106
      00FF531CH   LINE      CODE     ---       #107
      00FF531EH   LINE      CODE     ---       #109
      00FF5320H   LINE      CODE     ---       #110
      00FF5320H   LINE      CODE     ---       #112
      00FF5322H   LINE      CODE     ---       #113
      00FF5324H   LINE      CODE     ---       #114
      00FF532AH   LINE      CODE     ---       #115
      00FF532CH   LINE      CODE     ---       #119
      00FF532EH   LINE      CODE     ---       #120
      00FF5330H   LINE      CODE     ---       #122
      00FF5332H   LINE      CODE     ---       #124
      00FF5334H   LINE      CODE     ---       #125
      00FF5339H   LINE      CODE     ---       #127
      00FF533BH   LINE      CODE     ---       #128
      00FF533DH   LINE      CODE     ---       #130
      00FF533FH   LINE      CODE     ---       #131
      00FF5341H   LINE      CODE     ---       #132
      00FF5343H   LINE      CODE     ---       #133
      00FF5349H   LINE      CODE     ---       #135
      00FF5349H   LINE      CODE     ---       #138
      00FF534BH   LINE      CODE     ---       #139
      00FF534DH   LINE      CODE     ---       #140
      ---         BLOCKEND  ---      ---       LVL=0

      00FF5A73H   BLOCK     CODE     ---       LVL=0
      R15         REGSYM    ---      BYTE      x
      R10         REGSYM    ---      BYTE      y
      00FF5A73H   LINE      CODE     ---       #142
      00FF5A77H   LINE      CODE     ---       #144
      00FF5A82H   LINE      CODE     ---       #145
      00FF5A8EH   LINE      CODE     ---       #146
      00FF5A97H   LINE      CODE     ---       #147
      ---         BLOCKEND  ---      ---       LVL=0

      00FF5902H   BLOCK     CODE     ---       LVL=0
      00FF5904H   BLOCK     CODE     NEAR LAB  LVL=1
      R15         REGSYM    ---      BYTE      i
      R14         REGSYM    ---      BYTE      n
      ---         BLOCKEND  ---      ---       LVL=1
      00FF5902H   LINE      CODE     ---       #163
L251 LINKER/LOCATER V4.66.93.0                                                        05/03/2023  20:46:59  PAGE 87


      00FF5904H   LINE      CODE     ---       #164
      00FF5904H   LINE      CODE     ---       #166
      00FF5906H   LINE      CODE     ---       #168
      00FF5911H   LINE      CODE     ---       #169
      00FF5915H   LINE      CODE     ---       #170
      00FF591AH   LINE      CODE     ---       #171
      00FF592AH   LINE      CODE     ---       #172
      00FF5931H   LINE      CODE     ---       #173
      ---         BLOCKEND  ---      ---       LVL=0
      R14         REGSYM    ---      BYTE      x
      R15         REGSYM    ---      BYTE      y
      R6          REGSYM    ---      BYTE      chr
      R12         REGSYM    ---      BYTE      c
      R13         REGSYM    ---      BYTE      i
      R3          REGSYM    ---      BYTE      m
      R10         REGSYM    ---      BYTE      n
      WR6         REGSYM    ---      WORD      result
      WR14        REGSYM    ---      WORD      num
      R13         REGSYM    ---      BYTE      len
      R12         REGSYM    ---      BYTE      size2
      REG=3       REGSYM    ---      ---       chr
      R13         REGSYM    ---      BYTE      x
      R14         REGSYM    ---      BYTE      y
      R15         REGSYM    ---      BYTE      no
      R12         REGSYM    ---      BYTE      t
      R10         REGSYM    ---      BYTE      y0
      REG=3       REGSYM    ---      ---       BMP

      00FF4AF1H   BLOCK     CODE     ---       LVL=0
      00FF4AF1H   LINE      CODE     ---       #282
      00FF4AF1H   LINE      CODE     ---       #287
      00FF4AF3H   LINE      CODE     ---       #288
      00FF4AFAH   LINE      CODE     ---       #289
      00FF4AFCH   LINE      CODE     ---       #290
      00FF4B03H   LINE      CODE     ---       #291
      00FF4B05H   LINE      CODE     ---       #323
      00FF4B0CH   LINE      CODE     ---       #324
      00FF4B10H   LINE      CODE     ---       #325
      00FF4B15H   LINE      CODE     ---       #326
      00FF4B1AH   LINE      CODE     ---       #327
      00FF4B1FH   LINE      CODE     ---       #328
      00FF4B24H   LINE      CODE     ---       #329
      00FF4B29H   LINE      CODE     ---       #330
      00FF4B2EH   LINE      CODE     ---       #331
      00FF4B33H   LINE      CODE     ---       #332
      00FF4B38H   LINE      CODE     ---       #333
      00FF4B3DH   LINE      CODE     ---       #334
      00FF4B42H   LINE      CODE     ---       #335
      00FF4B46H   LINE      CODE     ---       #336
      00FF4B4BH   LINE      CODE     ---       #337
      00FF4B50H   LINE      CODE     ---       #338
      00FF4B55H   LINE      CODE     ---       #339
      00FF4B5AH   LINE      CODE     ---       #340
      00FF4B5FH   LINE      CODE     ---       #341
      00FF4B64H   LINE      CODE     ---       #342
      00FF4B69H   LINE      CODE     ---       #343
      00FF4B6EH   LINE      CODE     ---       #344
      00FF4B73H   LINE      CODE     ---       #345
      00FF4B78H   LINE      CODE     ---       #346
      00FF4B7DH   LINE      CODE     ---       #347
      00FF4B82H   LINE      CODE     ---       #348
      00FF4B87H   LINE      CODE     ---       #349
      00FF4B8CH   LINE      CODE     ---       #350
      00FF4B91H   LINE      CODE     ---       #352
      00FF4B96H   LINE      CODE     ---       #353
L251 LINKER/LOCATER V4.66.93.0                                                        05/03/2023  20:46:59  PAGE 88


      00FF4B99H   LINE      CODE     ---       #354
      ---         BLOCKEND  ---      ---       LVL=0

      ---         MODULE    ---      ---       brushless
      00FF5ABFH   PUBLIC    CODE     ---       Brushless_Init
      000000D0H   SFRSYM    DATA     BYTE      PSW
      0000009DH   SFRSYM    DATA     BYTE      IRCBAND
      00000097H   SFRSYM    DATA     BYTE      AUXR2
      000000EFH   SFRSYM    DATA     BYTE      AUXINTIF
      000000FDH   SFRSYM    DATA     BYTE      S4CON
      000000ACH   SFRSYM    DATA     BYTE      S3CON
      0000009AH   SFRSYM    DATA     BYTE      S2CON
      000000B7H   SFRSYM    DATA     BYTE      IPH
      000000CDH   SFRSYM    DATA     BYTE      SPSTAT
      000000DDH   SFRSYM    DATA     BYTE      T4T3M
      000000C1H   SFRSYM    DATA     BYTE      WDT_CONTR
      000000DFH   SFRSYM    DATA     BYTE      IP3
      000000F4H   SFRSYM    DATA     BYTE      USBCON
      000000B5H   SFRSYM    DATA     BYTE      IP2
      000000FFH   SFRSYM    DATA     BYTE      RSTCFG
      000000F9H   SFRSYM    DATA     BYTE      LINICR
      0000008EH   SFRSYM    DATA     BYTE      AUXR
      000000AFH   SFRSYM    DATA     BYTE      IE2
      00000088H   SFRSYM    DATA     BYTE      TCON
      00000098H   SFRSYM    DATA     BYTE      SCON
      000000F1H   SFRSYM    DATA     BYTE      CANICR
      00000087H   SFRSYM    DATA     BYTE      PCON
      000000BCH   SFRSYM    DATA     BYTE      ADC_CONTR
      000000E7H   SFRSYM    DATA     BYTE      CMPCR2
      000000E6H   SFRSYM    DATA     BYTE      CMPCR1
      000000B8H   SFRSYM    DATA     BYTE      IP
      0000008FH   SFRSYM    DATA     BYTE      INTCLKO
      000000EEH   SFRSYM    DATA     BYTE      IP3H
      000000B6H   SFRSYM    DATA     BYTE      IP2H
      000000A8H   SFRSYM    DATA     BYTE      IE
      000000BBH   SFRSYM    DATA     BYTE      P_SW3
      000000BAH   SFRSYM    DATA     BYTE      P_SW2
      000000A2H   SFRSYM    DATA     BYTE      P_SW1
      000000CEH   SFRSYM    DATA     BYTE      SPCTL
      000000F8H   SFRSYM    DATA     BYTE      P7
      000000E8H   SFRSYM    DATA     BYTE      P6
      000000C8H   SFRSYM    DATA     BYTE      P5
      000000C0H   SFRSYM    DATA     BYTE      P4
      000000B0H   SFRSYM    DATA     BYTE      P3
      000000A0H   SFRSYM    DATA     BYTE      P2
      00000090H   SFRSYM    DATA     BYTE      P1
      00000080H   SFRSYM    DATA     BYTE      P0

      00FF5ABFH   BLOCK     CODE     ---       LVL=0
      00FF5ABFH   LINE      CODE     ---       #13
      00FF5ABFH   LINE      CODE     ---       #16
      00FF5AD0H   LINE      CODE     ---       #17
      ---         BLOCKEND  ---      ---       LVL=0
      WR14        REGSYM    ---      WORD      value

      ---         MODULE    ---      ---       pid
      00FF517FH   PUBLIC    CODE     ---       PID_struct_init
      00000597H   PUBLIC    EDATA    ---       pid_right_
      000005DFH   PUBLIC    EDATA    ---       pid_left_
      00000799H   PUBLIC    EDATA    BYTE      ?PID_struct_init?BYTE
      000000D0H   SFRSYM    DATA     BYTE      PSW
      0000009DH   SFRSYM    DATA     BYTE      IRCBAND
      00000097H   SFRSYM    DATA     BYTE      AUXR2
      000000EFH   SFRSYM    DATA     BYTE      AUXINTIF
      000000FDH   SFRSYM    DATA     BYTE      S4CON
L251 LINKER/LOCATER V4.66.93.0                                                        05/03/2023  20:46:59  PAGE 89


      000000ACH   SFRSYM    DATA     BYTE      S3CON
      0000009AH   SFRSYM    DATA     BYTE      S2CON
      000000B7H   SFRSYM    DATA     BYTE      IPH
      000000CDH   SFRSYM    DATA     BYTE      SPSTAT
      000000DDH   SFRSYM    DATA     BYTE      T4T3M
      000000C1H   SFRSYM    DATA     BYTE      WDT_CONTR
      000000DFH   SFRSYM    DATA     BYTE      IP3
      000000F4H   SFRSYM    DATA     BYTE      USBCON
      000000B5H   SFRSYM    DATA     BYTE      IP2
      000000FFH   SFRSYM    DATA     BYTE      RSTCFG
      000000F9H   SFRSYM    DATA     BYTE      LINICR
      0000008EH   SFRSYM    DATA     BYTE      AUXR
      000000AFH   SFRSYM    DATA     BYTE      IE2
      00000088H   SFRSYM    DATA     BYTE      TCON
      00000098H   SFRSYM    DATA     BYTE      SCON
      000000F1H   SFRSYM    DATA     BYTE      CANICR
      00000087H   SFRSYM    DATA     BYTE      PCON
      000000BCH   SFRSYM    DATA     BYTE      ADC_CONTR
      000000E7H   SFRSYM    DATA     BYTE      CMPCR2
      000000E6H   SFRSYM    DATA     BYTE      CMPCR1
      000000B8H   SFRSYM    DATA     BYTE      IP
      0000008FH   SFRSYM    DATA     BYTE      INTCLKO
      000000EEH   SFRSYM    DATA     BYTE      IP3H
      000000B6H   SFRSYM    DATA     BYTE      IP2H
      000000A8H   SFRSYM    DATA     BYTE      IE
      000000BBH   SFRSYM    DATA     BYTE      P_SW3
      000000BAH   SFRSYM    DATA     BYTE      P_SW2
      000000A2H   SFRSYM    DATA     BYTE      P_SW1
      000000CEH   SFRSYM    DATA     BYTE      SPCTL
      000000F8H   SFRSYM    DATA     BYTE      P7
      000000E8H   SFRSYM    DATA     BYTE      P6
      000000C8H   SFRSYM    DATA     BYTE      P5
      000000C0H   SFRSYM    DATA     BYTE      P4
      000000B0H   SFRSYM    DATA     BYTE      P3
      000000A0H   SFRSYM    DATA     BYTE      P2
      00000090H   SFRSYM    DATA     BYTE      P1
      00000080H   SFRSYM    DATA     BYTE      P0
      00FF56A9H   SYMBOL    CODE     ---       pid_reset
      00FF561CH   SYMBOL    CODE     ---       pid_param_init
      REG=6       REGSYM    ---      ---       a
      DR28        REGSYM    ---      FLOAT     ABS_MAX

      00FF561CH   BLOCK     CODE     ---       LVL=0
      REG=2       REGSYM    ---      ---       pid
      DR28        REGSYM    ---      DWORD     mode
      000007B5H   SYMBOL    EDATA    DWORD     maxout
      000007B9H   SYMBOL    EDATA    DWORD     intergral_limit
      000007BDH   SYMBOL    EDATA    FLOAT     kp
      000007C1H   SYMBOL    EDATA    FLOAT     ki
      000007C5H   SYMBOL    EDATA    FLOAT     kd
      00FF561CH   LINE      CODE     ---       #25
      00FF5620H   LINE      CODE     ---       #35
      00FF562CH   LINE      CODE     ---       #36
      00FF5638H   LINE      CODE     ---       #37
      00FF5640H   LINE      CODE     ---       #39
      00FF564BH   LINE      CODE     ---       #40
      00FF5657H   LINE      CODE     ---       #41
      00FF5663H   LINE      CODE     ---       #42
      ---         BLOCKEND  ---      ---       LVL=0

      00FF56A9H   BLOCK     CODE     ---       LVL=0
      REG=2       REGSYM    ---      ---       pid
      DR4         REGSYM    ---      FLOAT     kp
      000007B5H   SYMBOL    EDATA    FLOAT     ki
      000007B9H   SYMBOL    EDATA    FLOAT     kd
L251 LINKER/LOCATER V4.66.93.0                                                        05/03/2023  20:46:59  PAGE 90


      00FF56A9H   LINE      CODE     ---       #49
      00FF56ABH   LINE      CODE     ---       #51
      00FF56B2H   LINE      CODE     ---       #52
      00FF56BEH   LINE      CODE     ---       #53
      00FF56CAH   LINE      CODE     ---       #55
      00FF56D4H   LINE      CODE     ---       #56
      00FF56DCH   LINE      CODE     ---       #57
      00FF56E4H   LINE      CODE     ---       #58
      00FF56ECH   LINE      CODE     ---       #59
      ---         BLOCKEND  ---      ---       LVL=0
      REG=3       REGSYM    ---      ---       pid
      DR28        REGSYM    ---      FLOAT     get

      00FF517FH   BLOCK     CODE     ---       LVL=0
      REG=3       REGSYM    ---      ---       pid
      DR8         REGSYM    ---      DWORD     mode
      000007A1H   SYMBOL    EDATA    DWORD     maxout
      000007A5H   SYMBOL    EDATA    DWORD     intergral_limit
      000007A9H   SYMBOL    EDATA    FLOAT     kp
      000007ADH   SYMBOL    EDATA    FLOAT     ki
      000007B1H   SYMBOL    EDATA    FLOAT     kd
      00FF517FH   LINE      CODE     ---       #109
      00FF5185H   LINE      CODE     ---       #119
      00FF518DH   LINE      CODE     ---       #120
      00FF5195H   LINE      CODE     ---       #122
      00FF51BFH   LINE      CODE     ---       #123
      00FF51DBH   LINE      CODE     ---       #124
      ---         BLOCKEND  ---      ---       LVL=0
      REG=3       REGSYM    ---      ---       pid
      DR28        REGSYM    ---      FLOAT     get
      REG=2       REGSYM    ---      ---       pid

      ---         MODULE    ---      ---       host
      00FF4F41H   PUBLIC    CODE     ---       send_four_data
      000000D0H   SFRSYM    DATA     BYTE      PSW
      0000009DH   SFRSYM    DATA     BYTE      IRCBAND
      00000097H   SFRSYM    DATA     BYTE      AUXR2
      000000EFH   SFRSYM    DATA     BYTE      AUXINTIF
      000000FDH   SFRSYM    DATA     BYTE      S4CON
      000000ACH   SFRSYM    DATA     BYTE      S3CON
      0000009AH   SFRSYM    DATA     BYTE      S2CON
      000000B7H   SFRSYM    DATA     BYTE      IPH
      000000CDH   SFRSYM    DATA     BYTE      SPSTAT
      000000DDH   SFRSYM    DATA     BYTE      T4T3M
      000000C1H   SFRSYM    DATA     BYTE      WDT_CONTR
      000000DFH   SFRSYM    DATA     BYTE      IP3
      000000F4H   SFRSYM    DATA     BYTE      USBCON
      000000B5H   SFRSYM    DATA     BYTE      IP2
      000000FFH   SFRSYM    DATA     BYTE      RSTCFG
      000000F9H   SFRSYM    DATA     BYTE      LINICR
      0000008EH   SFRSYM    DATA     BYTE      AUXR
      000000AFH   SFRSYM    DATA     BYTE      IE2
      00000088H   SFRSYM    DATA     BYTE      TCON
      00000098H   SFRSYM    DATA     BYTE      SCON
      000000F1H   SFRSYM    DATA     BYTE      CANICR
      00000087H   SFRSYM    DATA     BYTE      PCON
      000000BCH   SFRSYM    DATA     BYTE      ADC_CONTR
      000000E7H   SFRSYM    DATA     BYTE      CMPCR2
      000000E6H   SFRSYM    DATA     BYTE      CMPCR1
      000000B8H   SFRSYM    DATA     BYTE      IP
      0000008FH   SFRSYM    DATA     BYTE      INTCLKO
      000000EEH   SFRSYM    DATA     BYTE      IP3H
      000000B6H   SFRSYM    DATA     BYTE      IP2H
      000000A8H   SFRSYM    DATA     BYTE      IE
      000000BBH   SFRSYM    DATA     BYTE      P_SW3
L251 LINKER/LOCATER V4.66.93.0                                                        05/03/2023  20:46:59  PAGE 91


      000000BAH   SFRSYM    DATA     BYTE      P_SW2
      000000A2H   SFRSYM    DATA     BYTE      P_SW1
      000000CEH   SFRSYM    DATA     BYTE      SPCTL
      000000F8H   SFRSYM    DATA     BYTE      P7
      000000E8H   SFRSYM    DATA     BYTE      P6
      000000C8H   SFRSYM    DATA     BYTE      P5
      000000C0H   SFRSYM    DATA     BYTE      P4
      000000B0H   SFRSYM    DATA     BYTE      P3
      000000A0H   SFRSYM    DATA     BYTE      P2
      00000090H   SFRSYM    DATA     BYTE      P1
      00000080H   SFRSYM    DATA     BYTE      P0

      00FF4F41H   BLOCK     CODE     ---       LVL=0
      WR8         REGSYM    ---      INT       num1
      WR4         REGSYM    ---      INT       num2
      WR2         REGSYM    ---      INT       num3
      WR0         REGSYM    ---      INT       num4
      00FF4F45H   BLOCK     CODE     NEAR LAB  LVL=1
      R15         REGSYM    ---      BYTE      i
      R7          REGSYM    ---      BYTE      sumcheck
      R10         REGSYM    ---      BYTE      addcheck
      000007A1H   SYMBOL    EDATA    ---       data_buf
      ---         BLOCKEND  ---      ---       LVL=1
      00FF4F41H   LINE      CODE     ---       #35
      00FF4F45H   LINE      CODE     ---       #36
      00FF4F45H   LINE      CODE     ---       #38
      00FF4F47H   LINE      CODE     ---       #39
      00FF4F49H   LINE      CODE     ---       #43
      00FF4F4FH   LINE      CODE     ---       #44
      00FF4F55H   LINE      CODE     ---       #45
      00FF4F5BH   LINE      CODE     ---       #46
      00FF4F61H   LINE      CODE     ---       #49
      00FF4F65H   LINE      CODE     ---       #50
      00FF4F69H   LINE      CODE     ---       #51
      00FF4F6DH   LINE      CODE     ---       #52
      00FF4F71H   LINE      CODE     ---       #54
      00FF4F77H   LINE      CODE     ---       #55
      00FF4F7DH   LINE      CODE     ---       #56
      00FF4F83H   LINE      CODE     ---       #57
      00FF4F89H   LINE      CODE     ---       #60
      00FF4F8DH   LINE      CODE     ---       #62
      00FF4F95H   LINE      CODE     ---       #63
      00FF4F97H   LINE      CODE     ---       #64
      00FF4FA7H   LINE      CODE     ---       #65
      00FF4FABH   LINE      CODE     ---       #66
      00FF4FAFH   LINE      CODE     ---       #69
      00FF4FB1H   LINE      CODE     ---       #70
      00FF4FC3H   LINE      CODE     ---       #72
      ---         BLOCKEND  ---      ---       LVL=0

      ---         MODULE    ---      ---       SEEKFREE_CONFIG
      00FF00A6H   PUBLIC    CODE     ---       imu660ra_config_file

      ---         MODULE    ---      ---       ?C?FPADD
      00FF2EB4H   PUBLIC    CODE     ---       ?C?FPADD
      00FF2EB1H   PUBLIC    CODE     ---       ?C?FPSUB

      ---         MODULE    ---      ---       ?C?FPMUL
      00FF2F6CH   PUBLIC    CODE     ---       ?C?FPMUL

      ---         MODULE    ---      ---       ?C?FPDIV
      00FF300CH   PUBLIC    CODE     ---       ?C?FPDIV

      ---         MODULE    ---      ---       ?C?FPCMP
      00FF308FH   PUBLIC    CODE     ---       ?C?FPCMP
L251 LINKER/LOCATER V4.66.93.0                                                        05/03/2023  20:46:59  PAGE 92


      00FF308DH   PUBLIC    CODE     ---       ?C?FPCMP3

      ---         MODULE    ---      ---       ?C?FPNEG
      00FF30D3H   PUBLIC    CODE     ---       ?C?FPNEG

      ---         MODULE    ---      ---       ?C?FCAST
      00FF30EBH   PUBLIC    CODE     NEAR LAB  ?C?FCASTC
      00FF30E6H   PUBLIC    CODE     NEAR LAB  ?C?FCASTI
      00FF30E1H   PUBLIC    CODE     NEAR LAB  ?C?FCASTL

      ---         MODULE    ---      ---       ?C?CASTF
      00FF311EH   PUBLIC    CODE     NEAR LAB  ?C?CASTF

      ---         MODULE    ---      ---       PRINTF
      00FF315BH   PUBLIC    CODE     NEAR LAB  PRINTF

      ---         MODULE    ---      ---       FABS
      00FF3187H   PUBLIC    CODE     NEAR LAB  FABS?_

      ---         MODULE    ---      ---       SIN?_
      00FF31DEH   PUBLIC    CODE     ---       COS?_
      00FF31FBH   PUBLIC    CODE     ---       SIN?_
      00FF3228H   PUBLIC    CODE     ---       TAN?_

      ---         MODULE    ---      ---       ?C?FPGETOPN
      00FF32CEH   PUBLIC    CODE     ---       ?C?FPGETOPN2
      00FF330BH   PUBLIC    CODE     ---       ?C?FPNANRESULT
      00FF3313H   PUBLIC    CODE     ---       ?C?FPOVERFLOW
      00FF32E7H   PUBLIC    CODE     ---       ?C?FPRESULT
      00FF32FDH   PUBLIC    CODE     ---       ?C?FPRESULT2
      00FF3310H   PUBLIC    CODE     ---       ?C?FPUNDERFLOW

      ---         MODULE    ---      ---       ?C?PRNFMT
      00FF334CH   PUBLIC    CODE     ---       ?C?PRNFMT

      ---         MODULE    ---      ---       ?C?FPSERIES
      00FF375BH   PUBLIC    CODE     ---       ?C?FP2SERIES
      00FF3764H   PUBLIC    CODE     ---       ?C?FPSERIES

      ---         MODULE    ---      ---       ?C?FPCONVERT
      00FF3796H   PUBLIC    CODE     ---       ?C?FPCONVERT
      00FF384EH   PUBLIC    CODE     ---       ?C?FPROUND

      ---         MODULE    ---      ---       ?C?FTNPWR
      00FF38C1H   PUBLIC    CODE     ---       ?C?FTNPWR

      ---         MODULE    ---      ---       ?C_START
      00FF0000H   PUBLIC    CODE     ---       ?C?STARTUP
      00FF0000H   PUBLIC    CODE     ---       ?C_STARTUP

      ---         MODULE    ---      ---       ?C?INITEDATA
      00FF5742H   PUBLIC    CODE     ---       ?C?INITEDATA

      ---         MODULE    ---      ---       ?C?SIDIV
      00FF38F8H   PUBLIC    CODE     ---       ?C?SIDIV

      ---         MODULE    ---      ---       ?C?LMUL
      00FF392AH   PUBLIC    CODE     ---       ?C?LMUL

      ---         MODULE    ---      ---       ?C?LIMUL
      00FF393BH   PUBLIC    CODE     ---       ?C?LIMUL

      ---         MODULE    ---      ---       ?C?ULDIV
      00FF3946H   PUBLIC    CODE     NEAR LAB  ?C?ULDIV
      00FF3944H   PUBLIC    CODE     NEAR LAB  ?C?ULIDIV
L251 LINKER/LOCATER V4.66.93.0                                                        05/03/2023  20:46:59  PAGE 93



      ---         MODULE    ---      ---       ?C?SLDIV
      00FF3997H   PUBLIC    CODE     NEAR LAB  ?C?SLDIV

      ---         MODULE    ---      ---       memcpy
      00FF5A9AH   PUBLIC    CODE     ---       memcpy?_

      ---         MODULE    ---      ---       memset

      ---         MODULE    ---      ---       ?C?INITEDATA_END
      00FF6B19H   PUBLIC    HCONST   WORD      ?C?INITEDATA_END

Program Size: data=8.0 edata+hdata=2377 xdata=0 const=3628 code=24067
L251 RUN COMPLETE.  0 WARNING(S),  0 ERROR(S)
