L251 LINKER/LOCATER V4.66.93.0                                                          03/26/2023  21:30:35  PAGE 1


L251 LINKER/LOCATER V4.66.93.0, INVOKED BY:
D:\APPLICATION\KEIL_V5_ARM\C251\BIN\L251.EXE .\Out_File\board.obj, .\Out_File\common.obj, .\Out_File\zf_adc.obj, .\Out_F
>> ile\zf_delay.obj, .\Out_File\zf_eeprom.obj, .\Out_File\zf_exti.obj, .\Out_File\zf_gpio.obj, .\Out_File\zf_iic.obj, .\
>> Out_File\zf_nvic.obj, .\Out_File\zf_pwm.obj, .\Out_File\zf_spi.obj, .\Out_File\zf_tim.obj, .\Out_File\zf_uart.obj, .\
>> Out_File\zf_fifo.obj, .\Out_File\SEEKFREE_ABSOLUTE_ENCODER.obj, .\Out_File\SEEKFREE_AT24C02.obj, .\Out_File\SEEKFREE_
>> BLUETOOTH_CH9141.obj, ..\..\Libraries\seekfree_peripheral\SEEKFREE_CONFIG.LIB, .\Out_File\SEEKFREE_DL1A.obj, .\Out_Fi
>> le\SEEKFREE_FONT.obj, .\Out_File\SEEKFREE_ICM20602.obj, .\Out_File\SEEKFREE_IMU660RA.obj, .\Out_File\SEEKFREE_IMU963R
>> A.obj, .\Out_File\SEEKFREE_IPS114_SPI.obj, .\Out_File\SEEKFREE_MPU6050.obj, .\Out_File\SEEKFREE_PRINTF.obj, .\Out_Fil
>> e\SEEKFREE_TSL1401.obj, .\Out_File\SEEKFREE_VIRSCO.obj, .\Out_File\SEEKFREE_WIRELESS.obj, .\Out_File\SEEKFREE_WIRELES
>> S_CH573.obj, .\Out_File\isr.obj, .\Out_File\main.obj, .\Out_File\adc.obj, .\Out_File\control.obj, .\Out_File\key.obj,
>>  .\Out_File\motor.obj, .\Out_File\steer.obj, .\Out_File\timer.obj, .\Out_File\oled.obj, .\Out_File\brushless.obj, .\O
>> ut_File\pid.obj TO .\Out_File\SEEKFREE PRINT (.\Out_File\SEEKFREE.map) CASE DISABLEWARNING (16, 57) REMOVEUNUSED CLAS
>> SES (EDATA (0X0-0XFFF), HDATA (0X0-0XFFF))


CPU MODE:     251 SOURCE MODE
INTR FRAME:   2 BYTES SAVED ON INTERRUPT
MEMORY MODEL: XSMALL WITH FLOATING POINT ARITHMETIC


INPUT MODULES INCLUDED:
  .\Out_File\board.obj (board)
         COMMENT TYPE 0: C251 V5.60.0
  .\Out_File\common.obj (common)
         COMMENT TYPE 0: C251 V5.60.0
  .\Out_File\zf_adc.obj (zf_adc)
         COMMENT TYPE 0: C251 V5.60.0
  .\Out_File\zf_delay.obj (zf_delay)
         COMMENT TYPE 0: C251 V5.60.0
  .\Out_File\zf_eeprom.obj (zf_eeprom)
         COMMENT TYPE 0: C251 V5.60.0
  .\Out_File\zf_exti.obj (zf_exti)
         COMMENT TYPE 0: C251 V5.60.0
  .\Out_File\zf_gpio.obj (zf_gpio)
         COMMENT TYPE 0: C251 V5.60.0
  .\Out_File\zf_iic.obj (zf_iic)
         COMMENT TYPE 0: C251 V5.60.0
  .\Out_File\zf_nvic.obj (zf_nvic)
         COMMENT TYPE 0: C251 V5.60.0
  .\Out_File\zf_pwm.obj (zf_pwm)
         COMMENT TYPE 0: C251 V5.60.0
  .\Out_File\zf_spi.obj (zf_spi)
         COMMENT TYPE 0: C251 V5.60.0
  .\Out_File\zf_tim.obj (zf_tim)
         COMMENT TYPE 0: C251 V5.60.0
  .\Out_File\zf_uart.obj (zf_uart)
         COMMENT TYPE 0: C251 V5.60.0
  .\Out_File\zf_fifo.obj (zf_fifo)
         COMMENT TYPE 0: C251 V5.60.0
  .\Out_File\SEEKFREE_ABSOLUTE_ENCODER.obj (SEEKFREE_ABSOLUTE_ENCODER)
         COMMENT TYPE 0: C251 V5.60.0
  .\Out_File\SEEKFREE_AT24C02.obj (SEEKFREE_AT24C02)
         COMMENT TYPE 0: C251 V5.60.0
  .\Out_File\SEEKFREE_BLUETOOTH_CH9141.obj (SEEKFREE_BLUETOOTH_CH9141)
         COMMENT TYPE 0: C251 V5.60.0
  .\Out_File\SEEKFREE_DL1A.obj (SEEKFREE_DL1A)
         COMMENT TYPE 0: C251 V5.60.0
  .\Out_File\SEEKFREE_FONT.obj (SEEKFREE_FONT)
         COMMENT TYPE 0: C251 V5.60.0
  .\Out_File\SEEKFREE_ICM20602.obj (SEEKFREE_ICM20602)
         COMMENT TYPE 0: C251 V5.60.0
  .\Out_File\SEEKFREE_IMU660RA.obj (SEEKFREE_IMU660RA)
         COMMENT TYPE 0: C251 V5.60.0
  .\Out_File\SEEKFREE_IMU963RA.obj (SEEKFREE_IMU963RA)
         COMMENT TYPE 0: C251 V5.60.0
  .\Out_File\SEEKFREE_IPS114_SPI.obj (SEEKFREE_IPS114_SPI)
L251 LINKER/LOCATER V4.66.93.0                                                        03/26/2023  21:30:35  PAGE 2


         COMMENT TYPE 0: C251 V5.60.0
  .\Out_File\SEEKFREE_MPU6050.obj (SEEKFREE_MPU6050)
         COMMENT TYPE 0: C251 V5.60.0
  .\Out_File\SEEKFREE_PRINTF.obj (SEEKFREE_PRINTF)
         COMMENT TYPE 0: C251 V5.60.0
  .\Out_File\SEEKFREE_TSL1401.obj (SEEKFREE_TSL1401)
         COMMENT TYPE 0: C251 V5.60.0
  .\Out_File\SEEKFREE_VIRSCO.obj (SEEKFREE_VIRSCO)
         COMMENT TYPE 0: C251 V5.60.0
  .\Out_File\SEEKFREE_WIRELESS.obj (SEEKFREE_WIRELESS)
         COMMENT TYPE 0: C251 V5.60.0
  .\Out_File\SEEKFREE_WIRELESS_CH573.obj (SEEKFREE_WIRELESS_CH573)
         COMMENT TYPE 0: C251 V5.60.0
  .\Out_File\isr.obj (isr)
         COMMENT TYPE 0: C251 V5.60.0
  .\Out_File\main.obj (main)
         COMMENT TYPE 0: C251 V5.60.0
  .\Out_File\adc.obj (adc)
         COMMENT TYPE 0: C251 V5.60.0
  .\Out_File\control.obj (control)
         COMMENT TYPE 0: C251 V5.60.0
  .\Out_File\key.obj (key)
         COMMENT TYPE 0: C251 V5.60.0
  .\Out_File\motor.obj (motor)
         COMMENT TYPE 0: C251 V5.60.0
  .\Out_File\steer.obj (steer)
         COMMENT TYPE 0: C251 V5.60.0
  .\Out_File\timer.obj (timer)
         COMMENT TYPE 0: C251 V5.60.0
  .\Out_File\oled.obj (oled)
         COMMENT TYPE 0: C251 V5.60.0
  .\Out_File\brushless.obj (brushless)
         COMMENT TYPE 0: C251 V5.60.0
  .\Out_File\pid.obj (pid)
         COMMENT TYPE 0: C251 V5.60.0
  ..\..\Libraries\seekfree_peripheral\SEEKFREE_CONFIG.LIB (SEEKFREE_CONFIG)
         COMMENT TYPE 0: C251 V5.60.0
  D:\APPLICATION\KEIL_V5_ARM\C251\LIB\C2SFPXS.LIB (?C?FPADD)
         COMMENT TYPE 0: A251 V4.69.6.0
  D:\APPLICATION\KEIL_V5_ARM\C251\LIB\C2SFPXS.LIB (?C?FPMUL)
         COMMENT TYPE 0: A251 V4.69.6.0
  D:\APPLICATION\KEIL_V5_ARM\C251\LIB\C2SFPXS.LIB (?C?FPDIV)
         COMMENT TYPE 0: A251 V4.69.6.0
  D:\APPLICATION\KEIL_V5_ARM\C251\LIB\C2SFPXS.LIB (?C?FPCMP)
         COMMENT TYPE 0: A251 V4.69.6.0
  D:\APPLICATION\KEIL_V5_ARM\C251\LIB\C2SFPXS.LIB (?C?FPNEG)
         COMMENT TYPE 0: A251 V4.69.6.0
  D:\APPLICATION\KEIL_V5_ARM\C251\LIB\C2SFPXS.LIB (?C?FCAST)
         COMMENT TYPE 0: A251 V4.69.6.0
  D:\APPLICATION\KEIL_V5_ARM\C251\LIB\C2SFPXS.LIB (?C?CASTF)
         COMMENT TYPE 0: A251 V4.69.6.0
  D:\APPLICATION\KEIL_V5_ARM\C251\LIB\C2SFPXS.LIB (PRINTF)
         COMMENT TYPE 0: A251 V4.69.6.0
  D:\APPLICATION\KEIL_V5_ARM\C251\LIB\C2SFPXS.LIB (FABS)
         COMMENT TYPE 0: A251 V4.69.6.0
  D:\APPLICATION\KEIL_V5_ARM\C251\LIB\C2SFPXS.LIB (SIN?_)
         COMMENT TYPE 0: A251 V4.69.6.0
  D:\APPLICATION\KEIL_V5_ARM\C251\LIB\C2SFPXS.LIB (?C?FPGETOPN)
         COMMENT TYPE 0: A251 V4.69.6.0
  D:\APPLICATION\KEIL_V5_ARM\C251\LIB\C2SFPXS.LIB (?C?PRNFMT)
         COMMENT TYPE 0: A251 V4.69.6.0
  D:\APPLICATION\KEIL_V5_ARM\C251\LIB\C2SFPXS.LIB (?C?FPSERIES)
         COMMENT TYPE 0: A251 V4.69.6.0
  D:\APPLICATION\KEIL_V5_ARM\C251\LIB\C2SFPXS.LIB (?C?FPCONVERT)
         COMMENT TYPE 0: A251 V4.69.6.0
L251 LINKER/LOCATER V4.66.93.0                                                        03/26/2023  21:30:35  PAGE 3


  D:\APPLICATION\KEIL_V5_ARM\C251\LIB\C2SFPXS.LIB (?C?FTNPWR)
         COMMENT TYPE 0: A251 V4.69.6.0
  D:\APPLICATION\KEIL_V5_ARM\C251\LIB\C2SXS.LIB (?C_START)
         COMMENT TYPE 0: A251 V4.69.6.0
  D:\APPLICATION\KEIL_V5_ARM\C251\LIB\C2SXS.LIB (?C?INITEDATA)
         COMMENT TYPE 0: A251 V4.69.6.0
  D:\APPLICATION\KEIL_V5_ARM\C251\LIB\C2SXS.LIB (?C?SIDIV)
         COMMENT TYPE 0: A251 V4.69.6.0
  D:\APPLICATION\KEIL_V5_ARM\C251\LIB\C2SXS.LIB (?C?LMUL)
         COMMENT TYPE 0: A251 V4.69.6.0
  D:\APPLICATION\KEIL_V5_ARM\C251\LIB\C2SXS.LIB (?C?LIMUL)
         COMMENT TYPE 0: A251 V4.69.6.0
  D:\APPLICATION\KEIL_V5_ARM\C251\LIB\C2SXS.LIB (?C?ULDIV)
         COMMENT TYPE 0: A251 V4.69.6.0
  D:\APPLICATION\KEIL_V5_ARM\C251\LIB\C2SXS.LIB (?C?SLDIV)
         COMMENT TYPE 0: A251 V4.69.6.0
  D:\APPLICATION\KEIL_V5_ARM\C251\LIB\C2SXS.LIB (memcpy)
         COMMENT TYPE 0: C251 V5.58.7
  D:\APPLICATION\KEIL_V5_ARM\C251\LIB\C2SXS.LIB (memset)
         COMMENT TYPE 0: C251 V5.58.7
  D:\APPLICATION\KEIL_V5_ARM\C251\LIB\C2SXS.LIB (?C?INITEDATA_END)
         COMMENT TYPE 0: A251 V4.69.6.0


ACTIVE MEMORY CLASSES OF MODULE:  .\Out_File\SEEKFREE (board)

BASE        START       END         USED      MEMORY CLASS
==========================================================
000000H     000000H     000FFFH     000923H   EDATA
000000H     000000H     000FFFH               HDATA
FF0000H     FF0000H     FFFFFFH     005D50H   CODE
000000H     FF0000H     FFFFFFH     000DFEH   HCONST
FF0000H     FF0000H     FFFFFFH     000004H   CONST
000000H     000000H     00007FH     000008H   DATA


MEMORY MAP OF MODULE:  .\Out_File\SEEKFREE (board)


START     STOP      LENGTH    ALIGN  RELOC    MEMORY CLASS   SEGMENT NAME
=========================================================================
000000H   000007H   000008H   ---    AT..     DATA           "REG BANK 0"
000008H   0003C8H   0003C1H   BYTE   UNIT     EDATA          ?ED?OLED
0003C9H   0004C9H   000101H   BYTE   UNIT     EDATA          ?ED?SEEKFREE_TSL1401
0004CAH   000596H   0000CDH   BYTE   UNIT     EDATA          ?ED?ZF_UART
000597H   000626H   000090H   BYTE   UNIT     EDATA          ?ED?PID
000627H   00067BH   000055H   BYTE   UNIT     EDATA          ?ED?SEEKFREE_BLUETOOTH_CH9141
00067CH   0006D0H   000055H   BYTE   UNIT     EDATA          ?ED?SEEKFREE_WIRELESS
0006D1H   000725H   000055H   BYTE   UNIT     EDATA          ?ED?SEEKFREE_WIRELESS_CH573
000726H   000769H   000044H   BYTE   UNIT     EDATA          _EDATA_GROUP_
00076AH   0007A6H   00003DH   BYTE   UNIT     EDATA          ?ED?CONTROL
0007A7H   0007B8H   000012H   BYTE   UNIT     EDATA          ?ED?SEEKFREE_IMU963RA
0007B9H   0007C8H   000010H   BYTE   UNIT     EDATA          ?ED?ADC
0007C9H   0007D4H   00000CH   BYTE   UNIT     EDATA          ?ED?SEEKFREE_ICM20602
0007D5H   0007E0H   00000CH   BYTE   UNIT     EDATA          ?ED?SEEKFREE_IMU660RA
0007E1H   0007ECH   00000CH   BYTE   UNIT     EDATA          ?ED?SEEKFREE_MPU6050
0007EDH   0007F6H   00000AH   BYTE   UNIT     EDATA          ?ED?SEEKFREE_VIRSCO
0007F7H   0007FCH   000006H   BYTE   UNIT     EDATA          ?ED?DL1A_SIMIIC_READ_REGS?SEEKFREE_DL1A
0007FDH   000802H   000006H   BYTE   UNIT     EDATA          ?ED?DL1A_GET_SEQUENCE_STEP_TIMEOUTS?SEEKFREE_DL1A
000803H   000807H   000005H   BYTE   UNIT     EDATA          ?ED?DL1A_SIMIIC_WRITE_DATS?SEEKFREE_DL1A
000808H   00080BH   000004H   BYTE   UNIT     EDATA          ?ED?BOARD
00080CH   00080FH   000004H   BYTE   UNIT     EDATA          ?ED?ZF_DELAY
000810H   000813H   000004H   BYTE   UNIT     EDATA          ?ED?ICM20602_SIMSPI_R_REG_BYTES?SEEKFREE_ICM20602
000814H   000817H   000004H   BYTE   UNIT     EDATA          ?ED?IMU660RA_SIMSPI_R_REG_BYTES?SEEKFREE_IMU660RA
000818H   00081BH   000004H   BYTE   UNIT     EDATA          ?ED?MOTOR
L251 LINKER/LOCATER V4.66.93.0                                                        03/26/2023  21:30:35  PAGE 4


00081CH   00081EH   000003H   BYTE   UNIT     EDATA          ?ED?SEEKFREE_DL1A
00081FH   000820H   000002H   BYTE   UNIT     EDATA          ?ED?COMMON
000821H   000822H   000002H   BYTE   UNIT     EDATA          ?ED?IMU660RA_READ_REGISTER?SEEKFREE_IMU660RA
000823H   000824H   000002H   BYTE   UNIT     EDATA          ?ED?IPS114_WRITEDATA_16BIT?SEEKFREE_IPS114_SPI
000825H   000825H   000001H   BYTE   UNIT     EDATA          ?ED?DL1A_GET_SEQUENCE_STEP_ENABLES?SEEKFREE_DL1A
000826H   000826H   000001H   BYTE   UNIT     EDATA          ?ED?DL1A_GET_VCSEL_PULSE_PERIOD?SEEKFREE_DL1A
000827H   000827H   000001H   BYTE   UNIT     EDATA          ?ED?ICM20602_READ_REGISTER?SEEKFREE_ICM20602
000828H   000828H   000001H   BYTE   UNIT     EDATA          ?ED?IMU963RA_READ_ACC_GYRO_REGISTER?SEEKFREE_IMU963RA
000829H   000829H   000001H   BYTE   UNIT     EDATA          ?ED?ISR
00082AH   00082AH   000001H   BYTE   UNIT     EDATA          ?ED?KEY
00082BH   00092AH   000100H   BYTE   UNIT     EDATA          ?STACK
00092BH   FEFFFFH   FEF6D5H   ---    ---      **GAP**
FF0000H   FF0002H   000003H   ---    OFFS..   CODE           ?CO?start251?4
FF0003H   FF0005H   000003H   ---    OFFS..   CODE           ?PR?IV?0
FF0006H   FF000AH   000005H   BYTE   INSEG    CODE           ?PR?ENCODER_DELAY_US?SEEKFREE_ABSOLUTE_ENCODER
FF000BH   FF000DH   000003H   ---    OFFS..   CODE           ?PR?IV?1
FF000EH   FF0010H   000003H   BYTE   INSEG    CODE           ?PR?ENABLEGLOBALIRQ?BOARD
FF0011H   FF0011H   000001H   BYTE   INSEG    CODE           ?PR?INT1_ISR?ISR
FF0012H   FF0012H   000001H   BYTE   INSEG    CODE           ?PR?TM0_ISR?ISR
FF0013H   FF0015H   000003H   ---    OFFS..   CODE           ?PR?IV?2
FF0016H   FF0016H   000001H   BYTE   INSEG    CODE           ?PR?TM1_ISR?ISR
FF0017H   FF001AH   000004H   BYTE   UNIT     CONST          ?CO?PRINTF
FF001BH   FF001DH   000003H   ---    OFFS..   CODE           ?PR?IV?3
FF001EH   FF0022H   000005H   ---    ---      **GAP**
FF0023H   FF0025H   000003H   ---    OFFS..   CODE           ?PR?IV?4
FF0026H   FF0041H   00001CH   BYTE   INSEG    CODE           ?PR?DL1A_SCCB_WAITACK?SEEKFREE_DL1A
FF0042H   FF0042H   000001H   ---    ---      **GAP**
FF0043H   FF0045H   000003H   ---    OFFS..   CODE           ?PR?IV?8
FF0046H   FF0052H   00000DH   BYTE   INSEG    CODE           ?PR?AT24C02_SIMIIC_DELAY?SEEKFREE_AT24C02
FF0053H   FF0055H   000003H   ---    OFFS..   CODE           ?PR?IV?10
FF0056H   FF005AH   000005H   ---    ---      **GAP**
FF005BH   FF005DH   000003H   ---    OFFS..   CODE           ?PR?IV?11
FF005EH   FF0062H   000005H   ---    ---      **GAP**
FF0063H   FF0065H   000003H   ---    OFFS..   CODE           ?PR?IV?12
FF0066H   FF0081H   00001CH   BYTE   INSEG    CODE           ?PR?IMU963RA_SIMSPI_R_REG_BYTE?SEEKFREE_IMU963RA
FF0082H   FF0082H   000001H   ---    ---      **GAP**
FF0083H   FF0085H   000003H   ---    OFFS..   CODE           ?PR?IV?16
FF0086H   FF008AH   000005H   ---    ---      **GAP**
FF008BH   FF008DH   000003H   ---    OFFS..   CODE           ?PR?IV?17
FF008EH   FF0092H   000005H   ---    ---      **GAP**
FF0093H   FF0095H   000003H   ---    OFFS..   CODE           ?PR?IV?18
FF0096H   FF009AH   000005H   ---    ---      **GAP**
FF009BH   FF009DH   000003H   ---    OFFS..   CODE           ?PR?IV?19
FF009EH   FF00A2H   000005H   ---    ---      **GAP**
FF00A3H   FF00A5H   000003H   ---    OFFS..   CODE           ?PR?IV?20
FF00A6H   FF20A5H   002000H   BYTE   UNIT     CODE           ?CO?SEEKFREE_CONFIG
FF20A6H   FF2EADH   000E08H   BYTE   UNIT     CODE           ?CO?SEEKFREE_FONT
FF2EAEH   FF39CAH   000B1DH   BYTE   UNIT     CODE           ?C?LIB_CODE
FF39CBH   FF3DC1H   0003F7H   BYTE   INSEG    CODE           ?PR?GPIO_MODE?ZF_GPIO
FF3DC2H   FF40BDH   0002FCH   BYTE   INSEG    CODE           ?PR?PWM_INIT?ZF_PWM
FF40BEH   FF435EH   0002A1H   BYTE   INSEG    CODE           ?PR?PWM_SET_GPIO?ZF_PWM
FF435FH   FF4595H   000237H   BYTE   INSEG    CODE           ?PR?PID_CALC?PID
FF4596H   FF4754H   0001BFH   BYTE   INSEG    CODE           ?PR?UART_INIT?ZF_UART
FF4755H   FF4876H   000122H   BYTE   INSEG    CODE           ?PR?SET_CLK?BOARD
FF4877H   FF4956H   0000E0H   BYTE   INSEG    CODE           ?PR?FIFO_WRITE_BUFFER?ZF_FIFO
FF4957H   FF4A31H   0000DBH   BYTE   INSEG    CODE           ?PR?DL1A_GET_SEQUENCE_STEP_TIMEOUTS?SEEKFREE_DL1A
FF4A32H   FF4AF9H   0000C8H   BYTE   INSEG    CODE           ?PR?PWM_DUTY?ZF_PWM
FF4AFAH   FF4BAAH   0000B1H   BYTE   INSEG    CODE           ?PR?AKEMAN_CONTROL?CONTROL
FF4BABH   FF4C58H   0000AEH   BYTE   INSEG    CODE           ?PR?OLED_INIT?OLED
FF4C59H   FF4CFDH   0000A5H   BYTE   INSEG    CODE           ?PR?MOTOR_CONTROL?MOTOR
FF4CFEH   FF4D91H   000094H   BYTE   INSEG    CODE           ?PR?BOARD_INIT?BOARD
FF4D92H   FF4E25H   000094H   BYTE   INSEG    CODE           ?PR?PIT_TIMER_MS?ZF_TIM
FF4E26H   FF4E9EH   000079H   BYTE   INSEG    CODE           ?PR?READ_ADC_VALUE?ADC
FF4E9FH   FF4F11H   000073H   BYTE   INSEG    CODE           ?PR?TM4_ISR?ISR
FF4F12H   FF4F7EH   00006DH   BYTE   INSEG    CODE           ?PR?MAIN?MAIN
L251 LINKER/LOCATER V4.66.93.0                                                        03/26/2023  21:30:35  PAGE 5


FF4F7FH   FF4FE7H   000069H   BYTE   INSEG    CODE           ?PR?UART4_ISR?ISR
FF4FE8H   FF5046H   00005FH   BYTE   INSEG    CODE           ?PR?PID_STRUCT_INIT?PID
FF5047H   FF50A4H   00005EH   BYTE   INSEG    CODE           ?PR?ADC_INIT?ZF_ADC
FF50A5H   FF50FEH   00005AH   BYTE   INSEG    CODE           ?PR?OLED_WR_BYTE?OLED
FF50FFH   FF5156H   000058H   BYTE   INSEG    CODE           ?PR?DL1A_GET_SEQUENCE_STEP_ENABLES?SEEKFREE_DL1A
FF5157H   FF51AAH   000054H   BYTE   INSEG    CODE           ?PR?UART_PUTCHAR?ZF_UART
FF51ABH   FF51FEH   000054H   BYTE   INSEG    CODE           ?PR?DL1A_SIMIIC_READ_REGS?SEEKFREE_DL1A
FF51FFH   FF5250H   000052H   BYTE   INSEG    CODE           ?PR?IMU963RA_READ_MAG_REGISTER?SEEKFREE_IMU963RA
FF5251H   FF52A1H   000051H   BYTE   INSEG    CODE           ?PR?CTIMER_COUNT_CLEAN?ZF_TIM
FF52A2H   FF52F1H   000050H   BYTE   INSEG    CODE           ?PR?MOTOR_INIT?MOTOR
FF52F2H   FF533EH   00004DH   BYTE   INSEG    CODE           ?PR?CTIMER_COUNT_READ?ZF_TIM
FF533FH   FF538BH   00004DH   BYTE   INSEG    CODE           ?PR?DL1A_GET_VCSEL_PULSE_PERIOD?SEEKFREE_DL1A
FF538CH   FF53D8H   00004DH   BYTE   INSEG    CODE           ?PR?ADC_MEAN_FILTER?ADC
FF53D9H   FF5422H   00004AH   BYTE   INSEG    CODE           ?PR?CTIMER_COUNT_INIT?ZF_TIM
FF5423H   FF546BH   000049H   BYTE   INSEG    CODE           ?PR?ENCODER_READ?MOTOR
FF546CH   FF54B3H   000048H   BYTE   INSEG    CODE           ?PR?MY_ADC_INIT?ADC
FF54B4H   FF54FBH   000048H   BYTE   INSEG    CODE           ?PR?PID_PARAM_INIT?PID
FF54FCH   FF5540H   000045H   BYTE   INSEG    CODE           ?PR?WAIT?ZF_IIC
FF5541H   FF5584H   000044H   BYTE   INSEG    CODE           ?PR?STEER_SPIN?STEER
FF5585H   FF55C8H   000044H   BYTE   INSEG    CODE           ?PR?PID_RESET?PID
FF55C9H   FF560AH   000042H   BYTE   INSEG    CODE           ?PR?FIFO_HEAD_OFFSET?ZF_FIFO
FF560BH   FF564CH   000042H   BYTE   INSEG    CODE           ?PR?CORRECT_ANGLE?CONTROL
FF564DH   FF565FH   000013H   BYTE   UNIT     CODE           ?C_C51STARTUP
FF5660H   FF5688H   000029H   BYTE   UNIT     CODE           ?C_C51STARTUP?2
FF5689H   FF568BH   000003H   BYTE   UNIT     CODE           ?C_C51STARTUP?3
FF568CH   FF56C9H   00003EH   BYTE   INSEG    CODE           ?PR?DL1A_TIMEOUT_MCLKS_TO_MICROSECONDS?SEEKFREE_DL1A
FF56CAH   FF5706H   00003DH   BYTE   INSEG    CODE           ?PR?UART1_ISR?ISR
FF5707H   FF5743H   00003DH   BYTE   INSEG    CODE           ?PR?MOTOR_PID_CONTROL?CONTROL
FF5744H   FF577FH   00003CH   BYTE   INSEG    CODE           ?PR?DL1A_TIMEOUT_MICROSECONDS_TO_MCLKS?SEEKFREE_DL1A
FF5780H   FF57BAH   00003BH   BYTE   INSEG    CODE           ?PR?DL1A_READ_CH?SEEKFREE_DL1A
FF57BBH   FF57F3H   000039H   BYTE   INSEG    CODE           ?PR?DELAY_INIT?ZF_DELAY
FF57F4H   FF5828H   000035H   BYTE   INSEG    CODE           ?PR?DL1A_SIMIIC_WRITE_DATS?SEEKFREE_DL1A
FF5829H   FF585CH   000034H   BYTE   INSEG    CODE           ?PR?DL1A_ENCODE_TIMEOUT?SEEKFREE_DL1A
FF585DH   FF5890H   000034H   BYTE   INSEG    CODE           ?PR?ABS_LIMIT?PID
FF5891H   FF58C2H   000032H   BYTE   INSEG    CODE           ?PR?OLED_CLEAR?OLED
FF58C3H   FF58F2H   000030H   BYTE   INSEG    CODE           ?PR?ICM20602_SIMSPI_R_REG_BYTES?SEEKFREE_ICM20602
FF58F3H   FF5922H   000030H   BYTE   INSEG    CODE           ?PR?IMU660RA_SIMSPI_R_REG_BYTES?SEEKFREE_IMU660RA
FF5923H   FF5950H   00002EH   BYTE   INSEG    CODE           ?PR?ADC_ONCE?ZF_ADC
FF5951H   FF597EH   00002EH   BYTE   INSEG    CODE           ?PR?DL1A_SEND_CH?SEEKFREE_DL1A
FF597FH   FF59AAH   00002CH   BYTE   INSEG    CODE           ?PR?IPS114_WRITEDATAI_16BIT_SIMSPI?SEEKFREE_IPS114_SPI
FF59ABH   FF59D3H   000029H   BYTE   INSEG    CODE           ?PR?IPS114_WRITEINDEX_SIMSPI?SEEKFREE_IPS114_SPI
FF59D4H   FF59FAH   000027H   BYTE   INSEG    CODE           ?PR?OLED_SET_POS?OLED
FF59FBH   FF5A1FH   000025H   BYTE   INSEG    CODE           ?PR?MEMCPY?_?MEMCPY
FF5A20H   FF5A43H   000024H   BYTE   INSEG    CODE           ?PR?BRUSHLESS_INIT?BRUSHLESS
FF5A44H   FF5A66H   000023H   BYTE   INSEG    CODE           ?PR?ICM20602_SIMSPI_WR_BYTE?SEEKFREE_ICM20602
FF5A67H   FF5A89H   000023H   BYTE   INSEG    CODE           ?PR?IMU660RA_SIMSPI_WR_BYTE?SEEKFREE_IMU660RA
FF5A8AH   FF5AACH   000023H   BYTE   INSEG    CODE           ?PR?IMU963RA_SIMSPI_WR_BYTE?SEEKFREE_IMU963RA
FF5AADH   FF5ACCH   000020H   BYTE   INSEG    CODE           ?PR?AT24C02_SIMIIC_SENDACK?SEEKFREE_AT24C02
FF5ACDH   FF5AECH   000020H   BYTE   INSEG    CODE           ?PR?DL1A_SIMIIC_SENDACK?SEEKFREE_DL1A
FF5AEDH   FF5B0CH   000020H   BYTE   INSEG    CODE           ?PR?MPU6050_SIMIIC_SENDACK?SEEKFREE_MPU6050
FF5B0DH   FF5B2BH   00001FH   BYTE   INSEG    CODE           ?PR?IPS114_WRITEDATA_16BIT?SEEKFREE_IPS114_SPI
FF5B2CH   FF5B49H   00001EH   BYTE   INSEG    CODE           ?PR?UART2_ISR?ISR
FF5B4AH   FF5B67H   00001EH   BYTE   INSEG    CODE           ?PR?UART3_ISR?ISR
FF5B68H   FF5B82H   00001BH   BYTE   INSEG    CODE           ?PR?IMU963RA_READ_ACC_GYRO_REGISTER?SEEKFREE_IMU963RA
FF5B83H   FF5B9BH   000019H   BYTE   INSEG    CODE           ?PR?DELAY_US?ZF_DELAY
FF5B9CH   FF5BB4H   000019H   BYTE   INSEG    CODE           ?PR?BLUETOOTH_CH9141_UART_CALLBACK?SEEKFREE_BLUETOOTH_CH91
                                                             -41
FF5BB5H   FF5BCDH   000019H   BYTE   INSEG    CODE           ?PR?WIRELESS_UART_CALLBACK?SEEKFREE_WIRELESS
FF5BCEH   FF5BE6H   000019H   BYTE   INSEG    CODE           ?PR?WIRELESS_CH573_CALLBACK?SEEKFREE_WIRELESS_CH573
FF5BE7H   FF5BFEH   000018H   BYTE   INSEG    CODE           ?PR?ICM20602_SIMSPI_R_REG_BYTE?SEEKFREE_ICM20602
FF5BFFH   FF5C15H   000017H   BYTE   INSEG    CODE           ?PR?DELAY_MS?ZF_DELAY
FF5C16H   FF5C2BH   000016H   BYTE   INSEG    CODE           ?PR?IMU660RA_READ_REGISTER?SEEKFREE_IMU660RA
FF5C2CH   FF5C40H   000015H   BYTE   INSEG    CODE           ?PR?EEPROM_TRIG?ZF_EEPROM
FF5C41H   FF5C55H   000015H   BYTE   INSEG    CODE           ?PR?IIC_DELAY_US?ZF_IIC
FF5C56H   FF5C68H   000013H   BYTE   INSEG    CODE           ?PR?IMU963RA_SIMSPI_W_REG_BYTE?SEEKFREE_IMU963RA
L251 LINKER/LOCATER V4.66.93.0                                                        03/26/2023  21:30:35  PAGE 6


FF5C69H   FF5C7BH   000013H   BYTE   INSEG    CODE           ?PR?STEER_INIT?STEER
FF5C7CH   FF5C8DH   000012H   BYTE   INSEG    CODE           ?PR?ICM20602_READ_REGISTER?SEEKFREE_ICM20602
FF5C8EH   FF5C9EH   000011H   BYTE   INSEG    CODE           ?PR?AT24C02_SIMIIC_STOP?SEEKFREE_AT24C02
FF5C9FH   FF5CAFH   000011H   BYTE   INSEG    CODE           ?PR?DL1A_SIMIIC_STOP?SEEKFREE_DL1A
FF5CB0H   FF5CC0H   000011H   BYTE   INSEG    CODE           ?PR?MPU6050_SIMIIC_STOP?SEEKFREE_MPU6050
FF5CC1H   FF5CD0H   000010H   BYTE   INSEG    CODE           ?PR?DL1A_DECODE_TIMEOUT?SEEKFREE_DL1A
FF5CD1H   FF5CDFH   00000FH   BYTE   INSEG    CODE           ?PR?DL1A_SIMIIC_START?SEEKFREE_DL1A
FF5CE0H   FF5CEEH   00000FH   BYTE   INSEG    CODE           ?PR?MPU6050_SIMIIC_START?SEEKFREE_MPU6050
FF5CEFH   FF5CFCH   00000EH   BYTE   INSEG    CODE           ?PR?PUTCHAR?BOARD
FF5CFDH   FF5D0AH   00000EH   BYTE   INSEG    CODE           ?PR?SPI_MOSI?ZF_SPI
FF5D0BH   FF5D17H   00000DH   BYTE   INSEG    CODE           ?PR?DL1A_SIMIIC_DELAY?SEEKFREE_DL1A
FF5D18H   FF5D23H   00000CH   BYTE   INSEG    CODE           ?PR?ENCODER_CLEAR?MOTOR
FF5D24H   FF5D2EH   00000BH   BYTE   INSEG    CODE           ?PR?MPU6050_SIMIIC_DELAY?SEEKFREE_MPU6050
FF5D2FH   FF5D38H   00000AH   BYTE   INSEG    CODE           ?PR?IPS114_WRITEINDEX?SEEKFREE_IPS114_SPI
FF5D39H   FF5D41H   000009H   BYTE   INSEG    CODE           ?PR?TIMER4_INIT?TIMER
FF5D42H   FF5D49H   000008H   BYTE   INSEG    CODE           ?PR?IMU963RA_WRITE_ACC_GYRO_REGISTER?SEEKFREE_IMU963RA
FF5D4AH   FF5D51H   000008H   BYTE   INSEG    CODE           ?PR?INT2_ISR?ISR
FF5D52H   FF5D59H   000008H   BYTE   INSEG    CODE           ?PR?INT3_ISR?ISR
FF5D5AH   FF5D61H   000008H   BYTE   INSEG    CODE           ?PR?INT4_ISR?ISR
FF5D62H   FF5D69H   000008H   BYTE   INSEG    CODE           ?PR?TM2_ISR?ISR
FF5D6AH   FF5D71H   000008H   BYTE   INSEG    CODE           ?PR?TM3_ISR?ISR
FF5D72H   FF5D78H   000007H   BYTE   INSEG    CODE           ?PR?INT0_ISR?ISR
FF5D79H   FF6590H   000818H   BYTE   UNIT     HCONST         ?HC?OLED
FF6591H   FF6A3DH   0004ADH   BYTE   UNIT     HCONST         ?C_INITEDATA
FF6A3EH   FF6A95H   000058H   BYTE   UNIT     HCONST         ?HC?ZF_PWM
FF6A96H   FF6AE0H   00004BH   BYTE   UNIT     HCONST         ?HC?SEEKFREE_IMU963RA
FF6AE1H   FF6B14H   000034H   BYTE   UNIT     HCONST         ?HC?SEEKFREE_IMU660RA
FF6B15H   FF6B47H   000033H   BYTE   UNIT     HCONST         ?HC?SEEKFREE_ICM20602
FF6B48H   FF6B5DH   000016H   BYTE   UNIT     HCONST         ?HC?SEEKFREE_MPU6050
FF6B5EH   FF6B70H   000013H   BYTE   UNIT     HCONST         ?HC?SEEKFREE_DL1A
FF6B71H   FF6B76H   000006H   BYTE   UNIT     HCONST         ?HC?SEEKFREE_IPS114_SPI

* * * * * * * * *   R E M O V E D     S E G M E N T S   * * * * * * * *
   *DEL*:           000003H   BYTE   INSEG    CODE           ?PR?DISABLEGLOBALIRQ?BOARD
   *DEL*:           000016H   BYTE   INSEG    CODE           ?PR?IAP_SET_TPS?ZF_EEPROM
   *DEL*:           00000EH   BYTE   INSEG    CODE           ?PR?IAP_ERASE_PAGE?ZF_EEPROM
   *DEL*:           000004H   BYTE   INSEG    CODE           ?PR?IAP_IDLE?ZF_EEPROM
   *DEL*:           000047H   BYTE   INSEG    CODE           ?PR?IAP_READ_BYTES?ZF_EEPROM
   *DEL*:           00006DH   BYTE   INSEG    CODE           ?PR?EXTERN_IAP_WRITE_BYTES?ZF_EEPROM
   *DEL*:           000006H   BYTE   INSEG    CODE           ?PR?IAP_INIT?ZF_EEPROM
   *DEL*:           000047H   BYTE   INSEG    CODE           ?PR?IAP_WRITE_BYTES?ZF_EEPROM
   *DEL*:           00000CH   BYTE   INSEG    CODE           ?PR?IAP_GET_CMD_STATE?ZF_EEPROM
   *DEL*:           000004H   BYTE   UNIT     EDATA          ?ED?IAP_READ_BYTES?ZF_EEPROM
   *DEL*:           000004H   BYTE   UNIT     EDATA          ?ED?IAP_WRITE_BYTES?ZF_EEPROM
   *DEL*:           000204H   BYTE   UNIT     EDATA          ?ED?EXTERN_IAP_WRITE_BYTES?ZF_EEPROM
   *DEL*:           00003EH   BYTE   INSEG    CODE           ?PR?EXIT_INIT?ZF_EXTI
   *DEL*:           00006EH   BYTE   INSEG    CODE           ?PR?GPIO_PULL_SET?ZF_GPIO
   *DEL*:           000017H   BYTE   INSEG    CODE           ?PR?SEND_DATA?ZF_IIC
   *DEL*:           00002FH   BYTE   INSEG    CODE           ?PR?IIC_CHANGE_PIN?ZF_IIC
   *DEL*:           00001CH   BYTE   INSEG    CODE           ?PR?RECV_DATA?ZF_IIC
   *DEL*:           000010H   BYTE   INSEG    CODE           ?PR?START?ZF_IIC
   *DEL*:           000018H   BYTE   INSEG    CODE           ?PR?SEND_ACK?ZF_IIC
   *DEL*:           000010H   BYTE   INSEG    CODE           ?PR?RECV_ACK?ZF_IIC
   *DEL*:           000010H   BYTE   INSEG    CODE           ?PR?STOP?ZF_IIC
   *DEL*:           000019H   BYTE   INSEG    CODE           ?PR?SEND_NAK?ZF_IIC
   *DEL*:           00005EH   BYTE   INSEG    CODE           ?PR?IIC_INIT?ZF_IIC
   *DEL*:           000075H   BYTE   INSEG    CODE           ?PR?IIC_READ_REG?ZF_IIC
   *DEL*:           00009CH   BYTE   INSEG    CODE           ?PR?IIC_READ_REG_BYTES?ZF_IIC
   *DEL*:           000060H   BYTE   INSEG    CODE           ?PR?IIC_WRITE_REG?ZF_IIC
   *DEL*:           000004H   BYTE   UNIT     EDATA          ?ED?IIC_INIT?ZF_IIC
   *DEL*:           000004H   BYTE   UNIT     EDATA          ?ED?IIC_READ_REG?ZF_IIC
   *DEL*:           000003H   BYTE   UNIT     EDATA          ?ED?IIC_READ_REG_BYTES?ZF_IIC
   *DEL*:           00006CH   BYTE   INSEG    CODE           ?PR?NVIC_SETPRIORITY?ZF_NVIC
   *DEL*:           000131H   BYTE   INSEG    CODE           ?PR?PWM_FREQ?ZF_PWM
   *DEL*:           000004H   BYTE   UNIT     EDATA          ?ED?PWM_FREQ?ZF_PWM
L251 LINKER/LOCATER V4.66.93.0                                                        03/26/2023  21:30:35  PAGE 7


   *DEL*:           00001DH   BYTE   INSEG    CODE           ?PR?SPI_CHANGE_MODE?ZF_SPI
   *DEL*:           0000AEH   BYTE   INSEG    CODE           ?PR?SPI_CHANGE_PIN?ZF_SPI
   *DEL*:           0000DFH   BYTE   INSEG    CODE           ?PR?SPI_INIT?ZF_SPI
   *DEL*:           000004H   BYTE   UNIT     EDATA          ?ED?SPI_INIT?ZF_SPI
   *DEL*:           00002DH   BYTE   INSEG    CODE           ?PR?UART_PUTBUFF?ZF_UART
   *DEL*:           00001EH   BYTE   INSEG    CODE           ?PR?UART_PUTSTR?ZF_UART
   *DEL*:           000004H   BYTE   UNIT     EDATA          ?ED?UART_PUTBUFF?ZF_UART
   *DEL*:           000002H   BYTE   UNIT     EDATA          ?ED?UART_PUTSTR?ZF_UART
   *DEL*:           000113H   BYTE   INSEG    CODE           ?PR?FIFO_READ_BUFFER?ZF_FIFO
   *DEL*:           000025H   BYTE   INSEG    CODE           ?PR?FIFO_CLEAR?ZF_FIFO
   *DEL*:           000046H   BYTE   INSEG    CODE           ?PR?FIFO_END_OFFSET?ZF_FIFO
   *DEL*:           000015H   BYTE   INSEG    CODE           ?PR?FIFO_USED?ZF_FIFO
   *DEL*:           000043H   BYTE   INSEG    CODE           ?PR?FIFO_INIT?ZF_FIFO
   *DEL*:           000004H   BYTE   UNIT     EDATA          ?ED?FIFO_INIT?ZF_FIFO
   *DEL*:           00000FH   BYTE   UNIT     EDATA          ?ED?FIFO_READ_BUFFER?ZF_FIFO
   *DEL*:           000011H   BYTE   INSEG    CODE           ?PR?ENCODER_SELF4_CHECK?SEEKFREE_ABSOLUTE_ENCODER
   *DEL*:           000011H   BYTE   INSEG    CODE           ?PR?ENCODER_SELF5_CHECK?SEEKFREE_ABSOLUTE_ENCODER
   *DEL*:           00002FH   BYTE   INSEG    CODE           ?PR?ENCODER_SPI_R_REG_BYTE?SEEKFREE_ABSOLUTE_ENCODER
   *DEL*:           000038H   BYTE   INSEG    CODE           ?PR?ENCODER_SPI_W_REG_BYTE?SEEKFREE_ABSOLUTE_ENCODER
   *DEL*:           00001CH   BYTE   INSEG    CODE           ?PR?SIMSPI_R_REG_BYTE?SEEKFREE_ABSOLUTE_ENCODER
   *DEL*:           00001AH   BYTE   INSEG    CODE           ?PR?SIMSPI_W_REG_BYTE?SEEKFREE_ABSOLUTE_ENCODER
   *DEL*:           000029H   BYTE   INSEG    CODE           ?PR?ENCODER_INIT_SPI?SEEKFREE_ABSOLUTE_ENCODER
   *DEL*:           000004H   BYTE   INSEG    CODE           ?PR?SPI_WR_BYTE?SEEKFREE_ABSOLUTE_ENCODER
   *DEL*:           000024H   BYTE   INSEG    CODE           ?PR?SET_ZERO_POSITION_SIMSPI?SEEKFREE_ABSOLUTE_ENCODER
   *DEL*:           000023H   BYTE   INSEG    CODE           ?PR?ENCODER_ANGLE_SIMSPI?SEEKFREE_ABSOLUTE_ENCODER
   *DEL*:           00001CH   BYTE   INSEG    CODE           ?PR?SPI_R_REG_BYTE?SEEKFREE_ABSOLUTE_ENCODER
   *DEL*:           00001AH   BYTE   INSEG    CODE           ?PR?SPI_W_REG_BYTE?SEEKFREE_ABSOLUTE_ENCODER
   *DEL*:           00002FH   BYTE   INSEG    CODE           ?PR?ENCODER_SIMSPI_R_REG_BYTE?SEEKFREE_ABSOLUTE_ENCODER
   *DEL*:           000038H   BYTE   INSEG    CODE           ?PR?ENCODER_SIMSPI_W_REG_BYTE?SEEKFREE_ABSOLUTE_ENCODER
   *DEL*:           00000FH   BYTE   INSEG    CODE           ?PR?ENCODER_INIT_SIMSPI?SEEKFREE_ABSOLUTE_ENCODER
   *DEL*:           000024H   BYTE   INSEG    CODE           ?PR?SET_ZERO_POSITION_SPI?SEEKFREE_ABSOLUTE_ENCODER
   *DEL*:           00001FH   BYTE   INSEG    CODE           ?PR?SIMSPI_WR_BYTE?SEEKFREE_ABSOLUTE_ENCODER
   *DEL*:           000023H   BYTE   INSEG    CODE           ?PR?ENCODER_ANGLE_SPI?SEEKFREE_ABSOLUTE_ENCODER
   *DEL*:           000001H   BYTE   UNIT     EDATA          ?ED?ENCODER_SELF4_CHECK?SEEKFREE_ABSOLUTE_ENCODER
   *DEL*:           000001H   BYTE   UNIT     EDATA          ?ED?ENCODER_SELF5_CHECK?SEEKFREE_ABSOLUTE_ENCODER
   *DEL*:           000029H   BYTE   INSEG    CODE           ?PR?AT24C02_SIMIIC_READ_REG?SEEKFREE_AT24C02
   *DEL*:           00005EH   BYTE   INSEG    CODE           ?PR?AT24C02_READ_BYTES?SEEKFREE_AT24C02
   *DEL*:           000022H   BYTE   INSEG    CODE           ?PR?AT24C02_SIMIIC_WRITE_REG?SEEKFREE_AT24C02
   *DEL*:           000015H   BYTE   INSEG    CODE           ?PR?AT24C02_READ_BYTE?SEEKFREE_AT24C02
   *DEL*:           00005BH   BYTE   INSEG    CODE           ?PR?AT24C02_WRITE_BYTES?SEEKFREE_AT24C02
   *DEL*:           000019H   BYTE   INSEG    CODE           ?PR?AT24C02_WRITE_BYTE?SEEKFREE_AT24C02
   *DEL*:           00003BH   BYTE   INSEG    CODE           ?PR?AT24C02_READ_CH?SEEKFREE_AT24C02
   *DEL*:           00002EH   BYTE   INSEG    CODE           ?PR?AT24C02_SEND_CH?SEEKFREE_AT24C02
   *DEL*:           00001CH   BYTE   INSEG    CODE           ?PR?AT24C02_SCCB_WAITACK?SEEKFREE_AT24C02
   *DEL*:           00000FH   BYTE   INSEG    CODE           ?PR?AT24C02_SIMIIC_START?SEEKFREE_AT24C02
   *DEL*:           000002H   BYTE   UNIT     EDATA          ?ED?AT24C02_WRITE_BYTES?SEEKFREE_AT24C02
   *DEL*:           000002H   BYTE   UNIT     EDATA          ?ED?AT24C02_READ_BYTES?SEEKFREE_AT24C02
   *DEL*:           000022H   BYTE   INSEG    CODE           ?PR?BLUETOOTH_CH9141_READ_BUFF?SEEKFREE_BLUETOOTH_CH9141
   *DEL*:           0000ABH   BYTE   INSEG    CODE           ?PR?BLUETOOTH_CH9141_SEND_BUFF?SEEKFREE_BLUETOOTH_CH9141
   *DEL*:           00003CH   BYTE   INSEG    CODE           ?PR?BLUETOOTH_CH9141_INIT?SEEKFREE_BLUETOOTH_CH9141
   *DEL*:           000006H   BYTE   UNIT     EDATA          ?ED?BLUETOOTH_CH9141_SEND_BUFF?SEEKFREE_BLUETOOTH_CH9141
   *DEL*:           000004H   BYTE   UNIT     EDATA          ?ED?BLUETOOTH_CH9141_READ_BUFF?SEEKFREE_BLUETOOTH_CH9141
   *DEL*:           000027H   BYTE   INSEG    CODE           ?PR?DL1A_SET_SIGNAL_RATE_LIMIT?SEEKFREE_DL1A
   *DEL*:           00017CH   BYTE   INSEG    CODE           ?PR?DL1A_GET_SPAD_INFO?SEEKFREE_DL1A
   *DEL*:           00005DH   BYTE   INSEG    CODE           ?PR?DL1A_GET_DISTANCE?SEEKFREE_DL1A
   *DEL*:           000077H   BYTE   INSEG    CODE           ?PR?DL1A_PERFORM_SINGLE_REF_CALIBRATION?SEEKFREE_DL1A
   *DEL*:           000073H   BYTE   INSEG    CODE           ?PR?DL1A_GET_MEASUREMENT_TIMING_BUDGET?SEEKFREE_DL1A
   *DEL*:           000029H   BYTE   INSEG    CODE           ?PR?DL1A_SIMIIC_READ_REG?SEEKFREE_DL1A
   *DEL*:           000054H   BYTE   INSEG    CODE           ?PR?DL1A_SIMIIC_READ_REGS_1?SEEKFREE_DL1A
   *DEL*:           0000E4H   BYTE   INSEG    CODE           ?PR?DL1A_SET_MEASUREMENT_TIMING_BUDGET?SEEKFREE_DL1A
   *DEL*:           000022H   BYTE   INSEG    CODE           ?PR?DL1A_SIMIIC_WRITE_REG?SEEKFREE_DL1A
   *DEL*:           00061BH   BYTE   INSEG    CODE           ?PR?DL1A_INIT?SEEKFREE_DL1A
   *DEL*:           000006H   BYTE   UNIT     EDATA          ?ED?DL1A_SIMIIC_READ_REGS_1?SEEKFREE_DL1A
   *DEL*:           000008H   BYTE   UNIT     EDATA          ?ED?DL1A_GET_SPAD_INFO?SEEKFREE_DL1A
   *DEL*:           000003H   BYTE   UNIT     EDATA          ?ED?DL1A_PERFORM_SINGLE_REF_CALIBRATION?SEEKFREE_DL1A
L251 LINKER/LOCATER V4.66.93.0                                                        03/26/2023  21:30:35  PAGE 8


   *DEL*:           000023H   BYTE   UNIT     EDATA          ?ED?DL1A_SET_MEASUREMENT_TIMING_BUDGET?SEEKFREE_DL1A
   *DEL*:           00001BH   BYTE   UNIT     EDATA          ?ED?DL1A_GET_MEASUREMENT_TIMING_BUDGET?SEEKFREE_DL1A
   *DEL*:           000003H   BYTE   UNIT     EDATA          ?ED?DL1A_SET_SIGNAL_RATE_LIMIT?SEEKFREE_DL1A
   *DEL*:           000003H   BYTE   UNIT     EDATA          ?ED?DL1A_GET_DISTANCE?SEEKFREE_DL1A
   *DEL*:           000012H   BYTE   UNIT     EDATA          ?ED?DL1A_INIT?SEEKFREE_DL1A
   *DEL*:           000012H   BYTE   INSEG    CODE           ?PR?ICM20602_GYRO_TRANSITION?SEEKFREE_ICM20602
   *DEL*:           000008H   BYTE   INSEG    CODE           ?PR?ICM20602_WRITE_REGISTER?SEEKFREE_ICM20602
   *DEL*:           00002DH   BYTE   INSEG    CODE           ?PR?ICM20602_SELF_CHECK?SEEKFREE_ICM20602
   *DEL*:           00000FH   BYTE   INSEG    CODE           ?PR?ICM20602_SIMSPI_W_REG_BYTE?SEEKFREE_ICM20602
   *DEL*:           000098H   BYTE   INSEG    CODE           ?PR?ICM20602_INIT?SEEKFREE_ICM20602
   *DEL*:           000040H   BYTE   INSEG    CODE           ?PR?ICM20602_GET_ACC?SEEKFREE_ICM20602
   *DEL*:           000010H   BYTE   INSEG    CODE           ?PR?ICM20602_ACC_TRANSITION?SEEKFREE_ICM20602
   *DEL*:           000010H   BYTE   INSEG    CODE           ?PR?ICM20602_READ_REGISTERS?SEEKFREE_ICM20602
   *DEL*:           000040H   BYTE   INSEG    CODE           ?PR?ICM20602_GET_GYRO?SEEKFREE_ICM20602
   *DEL*:           000006H   BYTE   UNIT     EDATA          ?ED?ICM20602_GET_ACC?SEEKFREE_ICM20602
   *DEL*:           000006H   BYTE   UNIT     EDATA          ?ED?ICM20602_GET_GYRO?SEEKFREE_ICM20602
   *DEL*:           000040H   BYTE   INSEG    CODE           ?PR?IMU660RA_GET_GYRO?SEEKFREE_IMU660RA
   *DEL*:           00000EH   BYTE   INSEG    CODE           ?PR?IMU660RA_WRITE_REGISTERS?SEEKFREE_IMU660RA
   *DEL*:           000012H   BYTE   INSEG    CODE           ?PR?IMU660RA_GYRO_TRANSITION?SEEKFREE_IMU660RA
   *DEL*:           000008H   BYTE   INSEG    CODE           ?PR?IMU660RA_WRITE_REGISTER?SEEKFREE_IMU660RA
   *DEL*:           00002CH   BYTE   INSEG    CODE           ?PR?IMU660RA_SELF_CHECK?SEEKFREE_IMU660RA
   *DEL*:           000025H   BYTE   INSEG    CODE           ?PR?IMU660RA_SIMSPI_W_REG_BYTES?SEEKFREE_IMU660RA
   *DEL*:           00000FH   BYTE   INSEG    CODE           ?PR?IMU660RA_SIMSPI_W_REG_BYTE?SEEKFREE_IMU660RA
   *DEL*:           00009AH   BYTE   INSEG    CODE           ?PR?IMU660RA_INIT?SEEKFREE_IMU660RA
   *DEL*:           000040H   BYTE   INSEG    CODE           ?PR?IMU660RA_GET_ACC?SEEKFREE_IMU660RA
   *DEL*:           000010H   BYTE   INSEG    CODE           ?PR?IMU660RA_ACC_TRANSITION?SEEKFREE_IMU660RA
   *DEL*:           000010H   BYTE   INSEG    CODE           ?PR?IMU660RA_READ_REGISTERS?SEEKFREE_IMU660RA
   *DEL*:           000004H   BYTE   UNIT     EDATA          ?ED?IMU660RA_SIMSPI_W_REG_BYTES?SEEKFREE_IMU660RA
   *DEL*:           000007H   BYTE   UNIT     EDATA          ?ED?IMU660RA_GET_ACC?SEEKFREE_IMU660RA
   *DEL*:           000007H   BYTE   UNIT     EDATA          ?ED?IMU660RA_GET_GYRO?SEEKFREE_IMU660RA
   *DEL*:           000003H   BYTE   INSEG    CODE           ?PR?IMU963RA_ACC_TRANSITION?SEEKFREE_IMU963RA
   *DEL*:           000040H   BYTE   INSEG    CODE           ?PR?IMU963RA_GET_GYRO?SEEKFREE_IMU963RA
   *DEL*:           000012H   BYTE   INSEG    CODE           ?PR?IMU963RA_MAG_TRANSITION?SEEKFREE_IMU963RA
   *DEL*:           000003H   BYTE   INSEG    CODE           ?PR?IMU963RA_GYRO_TRANSITION?SEEKFREE_IMU963RA
   *DEL*:           00002CH   BYTE   INSEG    CODE           ?PR?IMU963RA_CONNECT_MAG?SEEKFREE_IMU963RA
   *DEL*:           000010H   BYTE   INSEG    CODE           ?PR?IMU963RA_READ_ACC_GYRO_REGISTERS?SEEKFREE_IMU963RA
   *DEL*:           000061H   BYTE   INSEG    CODE           ?PR?IMU963RA_WRITE_MAG_REGISTER?SEEKFREE_IMU963RA
   *DEL*:           000030H   BYTE   INSEG    CODE           ?PR?IMU963RA_SIMSPI_R_REG_BYTES?SEEKFREE_IMU963RA
   *DEL*:           000030H   BYTE   INSEG    CODE           ?PR?IMU963RA_MAG_SELF_CHECK?SEEKFREE_IMU963RA
   *DEL*:           00010AH   BYTE   INSEG    CODE           ?PR?IMU963RA_INIT?SEEKFREE_IMU963RA
   *DEL*:           00002DH   BYTE   INSEG    CODE           ?PR?IMU963RA_ACC_GYRO_SELF_CHECK?SEEKFREE_IMU963RA
   *DEL*:           000040H   BYTE   INSEG    CODE           ?PR?IMU963RA_GET_ACC?SEEKFREE_IMU963RA
   *DEL*:           000056H   BYTE   INSEG    CODE           ?PR?IMU963RA_GET_MAG?SEEKFREE_IMU963RA
   *DEL*:           000004H   BYTE   UNIT     EDATA          ?ED?IMU963RA_SIMSPI_R_REG_BYTES?SEEKFREE_IMU963RA
   *DEL*:           000002H   BYTE   UNIT     EDATA          ?ED?IMU963RA_WRITE_MAG_REGISTER?SEEKFREE_IMU963RA
   *DEL*:           000006H   BYTE   UNIT     EDATA          ?ED?IMU963RA_GET_ACC?SEEKFREE_IMU963RA
   *DEL*:           000006H   BYTE   UNIT     EDATA          ?ED?IMU963RA_GET_GYRO?SEEKFREE_IMU963RA
   *DEL*:           000006H   BYTE   UNIT     EDATA          ?ED?IMU963RA_GET_MAG?SEEKFREE_IMU963RA
   *DEL*:           00007BH   BYTE   INSEG    CODE           ?PR?IPS114_SHOWUINT8_SIMSPI?SEEKFREE_IPS114_SPI
   *DEL*:           000077H   BYTE   INSEG    CODE           ?PR?IPS114_SHOWUINT8?SEEKFREE_IPS114_SPI
   *DEL*:           0000B9H   BYTE   INSEG    CODE           ?PR?IPS114_SHOWINT8_SIMSPI?SEEKFREE_IPS114_SPI
   *DEL*:           0000B5H   BYTE   INSEG    CODE           ?PR?IPS114_SHOWINT8?SEEKFREE_IPS114_SPI
   *DEL*:           0000F8H   BYTE   INSEG    CODE           ?PR?IPS114_SHOWFLOAT_SIMSPI?SEEKFREE_IPS114_SPI
   *DEL*:           000013H   BYTE   INSEG    CODE           ?PR?IPS114_DRAWPOINT_SIMSPI?SEEKFREE_IPS114_SPI
   *DEL*:           0000F8H   BYTE   INSEG    CODE           ?PR?IPS114_SHOWFLOAT?SEEKFREE_IPS114_SPI
   *DEL*:           000013H   BYTE   INSEG    CODE           ?PR?IPS114_DRAWPOINT?SEEKFREE_IPS114_SPI
   *DEL*:           00008EH   BYTE   INSEG    CODE           ?PR?IPS114_SHOWCHAR_SIMSPI?SEEKFREE_IPS114_SPI
   *DEL*:           00008EH   BYTE   INSEG    CODE           ?PR?IPS114_SHOWCHAR?SEEKFREE_IPS114_SPI
   *DEL*:           00008BH   BYTE   INSEG    CODE           ?PR?IPS114_SHOWUINT16_SIMSPI?SEEKFREE_IPS114_SPI
   *DEL*:           00008BH   BYTE   INSEG    CODE           ?PR?IPS114_SHOWUINT16?SEEKFREE_IPS114_SPI
   *DEL*:           000082H   BYTE   INSEG    CODE           ?PR?IPS114_SHOWINT32_SIMSPI?SEEKFREE_IPS114_SPI
   *DEL*:           0000DDH   BYTE   INSEG    CODE           ?PR?IPS114_SHOWINT16_SIMSPI?SEEKFREE_IPS114_SPI
   *DEL*:           000082H   BYTE   INSEG    CODE           ?PR?IPS114_SHOWINT32?SEEKFREE_IPS114_SPI
   *DEL*:           0000D9H   BYTE   INSEG    CODE           ?PR?IPS114_SHOWINT16?SEEKFREE_IPS114_SPI
   *DEL*:           00003CH   BYTE   INSEG    CODE           ?PR?IPS114_CLEAR_SIMSPI?SEEKFREE_IPS114_SPI
L251 LINKER/LOCATER V4.66.93.0                                                        03/26/2023  21:30:35  PAGE 9


   *DEL*:           00003CH   BYTE   INSEG    CODE           ?PR?IPS114_CLEAR?SEEKFREE_IPS114_SPI
   *DEL*:           00004EH   BYTE   INSEG    CODE           ?PR?IPS114_SHOWSTR_SIMSPI?SEEKFREE_IPS114_SPI
   *DEL*:           00004EH   BYTE   INSEG    CODE           ?PR?IPS114_SHOWSTR?SEEKFREE_IPS114_SPI
   *DEL*:           000029H   BYTE   INSEG    CODE           ?PR?IPS114_WRITEDATA_SIMSPI?SEEKFREE_IPS114_SPI
   *DEL*:           00000AH   BYTE   INSEG    CODE           ?PR?IPS114_WRITEDATA?SEEKFREE_IPS114_SPI
   *DEL*:           000044H   BYTE   INSEG    CODE           ?PR?IPS114_SET_REGION_SIMSPI?SEEKFREE_IPS114_SPI
   *DEL*:           00014FH   BYTE   INSEG    CODE           ?PR?IPS114_INIT_SIMSPI?SEEKFREE_IPS114_SPI
   *DEL*:           000048H   BYTE   INSEG    CODE           ?PR?IPS114_SET_REGION?SEEKFREE_IPS114_SPI
   *DEL*:           00016DH   BYTE   INSEG    CODE           ?PR?IPS114_INIT?SEEKFREE_IPS114_SPI
   *DEL*:           000004H   BYTE   UNIT     EDATA          ?ED?IPS114_SET_REGION_SIMSPI?SEEKFREE_IPS114_SPI
   *DEL*:           000002H   BYTE   UNIT     EDATA          ?ED?IPS114_CLEAR_SIMSPI?SEEKFREE_IPS114_SPI
   *DEL*:           000004H   BYTE   UNIT     EDATA          ?ED?IPS114_SHOWCHAR_SIMSPI?SEEKFREE_IPS114_SPI
   *DEL*:           000006H   BYTE   UNIT     EDATA          ?ED?IPS114_SHOWSTR_SIMSPI?SEEKFREE_IPS114_SPI
   *DEL*:           000005H   BYTE   UNIT     EDATA          ?ED?IPS114_SHOWINT8_SIMSPI?SEEKFREE_IPS114_SPI
   *DEL*:           000004H   BYTE   UNIT     EDATA          ?ED?IPS114_SHOWUINT8_SIMSPI?SEEKFREE_IPS114_SPI
   *DEL*:           000008H   BYTE   UNIT     EDATA          ?ED?IPS114_SHOWINT16_SIMSPI?SEEKFREE_IPS114_SPI
   *DEL*:           000006H   BYTE   UNIT     EDATA          ?ED?IPS114_SHOWUINT16_SIMSPI?SEEKFREE_IPS114_SPI
   *DEL*:           000028H   BYTE   UNIT     EDATA          ?ED?IPS114_SHOWINT32_SIMSPI?SEEKFREE_IPS114_SPI
   *DEL*:           00002BH   BYTE   UNIT     EDATA          ?ED?IPS114_SHOWFLOAT_SIMSPI?SEEKFREE_IPS114_SPI
   *DEL*:           000004H   BYTE   UNIT     EDATA          ?ED?IPS114_SET_REGION?SEEKFREE_IPS114_SPI
   *DEL*:           000002H   BYTE   UNIT     EDATA          ?ED?IPS114_CLEAR?SEEKFREE_IPS114_SPI
   *DEL*:           000004H   BYTE   UNIT     EDATA          ?ED?IPS114_SHOWCHAR?SEEKFREE_IPS114_SPI
   *DEL*:           000006H   BYTE   UNIT     EDATA          ?ED?IPS114_SHOWSTR?SEEKFREE_IPS114_SPI
   *DEL*:           000005H   BYTE   UNIT     EDATA          ?ED?IPS114_SHOWINT8?SEEKFREE_IPS114_SPI
   *DEL*:           000004H   BYTE   UNIT     EDATA          ?ED?IPS114_SHOWUINT8?SEEKFREE_IPS114_SPI
   *DEL*:           000008H   BYTE   UNIT     EDATA          ?ED?IPS114_SHOWINT16?SEEKFREE_IPS114_SPI
   *DEL*:           000006H   BYTE   UNIT     EDATA          ?ED?IPS114_SHOWUINT16?SEEKFREE_IPS114_SPI
   *DEL*:           000028H   BYTE   UNIT     EDATA          ?ED?IPS114_SHOWINT32?SEEKFREE_IPS114_SPI
   *DEL*:           00002BH   BYTE   UNIT     EDATA          ?ED?IPS114_SHOWFLOAT?SEEKFREE_IPS114_SPI
   *DEL*:           000055H   BYTE   INSEG    CODE           ?PR?MPU6050_SIMIIC_READ_REGS?SEEKFREE_MPU6050
   *DEL*:           000029H   BYTE   INSEG    CODE           ?PR?MPU6050_SIMIIC_READ_REG?SEEKFREE_MPU6050
   *DEL*:           000022H   BYTE   INSEG    CODE           ?PR?MPU6050_SIMIIC_WRITE_REG?SEEKFREE_MPU6050
   *DEL*:           00005CH   BYTE   INSEG    CODE           ?PR?MPU6050_INIT?SEEKFREE_MPU6050
   *DEL*:           000032H   BYTE   INSEG    CODE           ?PR?MPU6050_SELF1_CHECK?SEEKFREE_MPU6050
   *DEL*:           00003BH   BYTE   INSEG    CODE           ?PR?MPU6050_READ_CH?SEEKFREE_MPU6050
   *DEL*:           00002EH   BYTE   INSEG    CODE           ?PR?MPU6050_SEND_CH?SEEKFREE_MPU6050
   *DEL*:           000040H   BYTE   INSEG    CODE           ?PR?MPU6050_GET_GYRO?SEEKFREE_MPU6050
   *DEL*:           00001CH   BYTE   INSEG    CODE           ?PR?MPU6050_SCCB_WAITACK?SEEKFREE_MPU6050
   *DEL*:           000040H   BYTE   INSEG    CODE           ?PR?MPU6050_GET_ACCDATA?SEEKFREE_MPU6050
   *DEL*:           000003H   BYTE   UNIT     EDATA          ?ED?MPU6050_SIMIIC_READ_REGS?SEEKFREE_MPU6050
   *DEL*:           000006H   BYTE   UNIT     EDATA          ?ED?MPU6050_GET_ACCDATA?SEEKFREE_MPU6050
   *DEL*:           000006H   BYTE   UNIT     EDATA          ?ED?MPU6050_GET_GYRO?SEEKFREE_MPU6050
   *DEL*:           000092H   BYTE   INSEG    CODE           ?PR?NUMBER_CONVERSION_ASCII?SEEKFREE_PRINTF
   *DEL*:           0004FAH   BYTE   INSEG    CODE           ?PR?ZF_SPRINTF?SEEKFREE_PRINTF
   *DEL*:           00003EH   BYTE   INSEG    CODE           ?PR?PRINTF_REVERSE_ORDER?SEEKFREE_PRINTF
   *DEL*:           000001H   BYTE   UNIT     EDATA          ?ED?NUMBER_CONVERSION_ASCII?SEEKFREE_PRINTF
   *DEL*:           00005FH   BYTE   UNIT     EDATA          ?ED?ZF_SPRINTF?SEEKFREE_PRINTF
   *DEL*:           000070H   BYTE   INSEG    CODE           ?PR?CCD_SEND_DATA?SEEKFREE_TSL1401
   *DEL*:           000016H   BYTE   INSEG    CODE           ?PR?CCD_INIT?SEEKFREE_TSL1401
   *DEL*:           000035H   BYTE   INSEG    CODE           ?PR?CCD_COLLECT?SEEKFREE_TSL1401
   *DEL*:           000003H   BYTE   UNIT     EDATA          ?ED?CCD_SEND_DATA?SEEKFREE_TSL1401
   *DEL*:           00003AH   BYTE   INSEG    CODE           ?PR?CRC_CHECK?SEEKFREE_VIRSCO
   *DEL*:           000069H   BYTE   INSEG    CODE           ?PR?DATA_CONVERSION?SEEKFREE_VIRSCO
   *DEL*:           000004H   BYTE   UNIT     EDATA          ?ED?DATA_CONVERSION?SEEKFREE_VIRSCO
   *DEL*:           000022H   BYTE   INSEG    CODE           ?PR?WIRELESS_UART_READ_BUFF?SEEKFREE_WIRELESS
   *DEL*:           00005DH   BYTE   INSEG    CODE           ?PR?WIRELESS_UART_SEND_BUFF?SEEKFREE_WIRELESS
   *DEL*:           00003CH   BYTE   INSEG    CODE           ?PR?WIRELESS_UART_INIT?SEEKFREE_WIRELESS
   *DEL*:           000002H   BYTE   UNIT     EDATA          ?ED?WIRELESS_UART_SEND_BUFF?SEEKFREE_WIRELESS
   *DEL*:           000004H   BYTE   UNIT     EDATA          ?ED?WIRELESS_UART_READ_BUFF?SEEKFREE_WIRELESS
   *DEL*:           000022H   BYTE   INSEG    CODE           ?PR?WIRELESS_CH573_READ_BUFF?SEEKFREE_WIRELESS_CH573
   *DEL*:           00005DH   BYTE   INSEG    CODE           ?PR?WIRELESS_CH573_SEND_BUFF?SEEKFREE_WIRELESS_CH573
   *DEL*:           00003CH   BYTE   INSEG    CODE           ?PR?WIRELESS_CH573_INIT?SEEKFREE_WIRELESS_CH573
   *DEL*:           000002H   BYTE   UNIT     EDATA          ?ED?WIRELESS_CH573_SEND_BUFF?SEEKFREE_WIRELESS_CH573
   *DEL*:           000004H   BYTE   UNIT     EDATA          ?ED?WIRELESS_CH573_READ_BUFF?SEEKFREE_WIRELESS_CH573
   *DEL*:           000007H   BYTE   INSEG    CODE           ?PR?PID_ON?CONTROL
L251 LINKER/LOCATER V4.66.93.0                                                        03/26/2023  21:30:35  PAGE 10


   *DEL*:           000006H   BYTE   INSEG    CODE           ?PR?PID_OFF?CONTROL
   *DEL*:           00007DH   BYTE   INSEG    CODE           ?PR?KEY_SCAN?KEY
   *DEL*:           000024H   BYTE   INSEG    CODE           ?PR?MOTOR_SHUT?MOTOR
   *DEL*:           000011H   BYTE   INSEG    CODE           ?PR?OLED_DISPLAY_ON?OLED
   *DEL*:           000064H   BYTE   INSEG    CODE           ?PR?OLED_SHOWSTRING?OLED
   *DEL*:           0000AFH   BYTE   INSEG    CODE           ?PR?OLED_SHOWCHAR?OLED
   *DEL*:           00007CH   BYTE   INSEG    CODE           ?PR?OLED_SHOWCHINESE?OLED
   *DEL*:           0000AAH   BYTE   INSEG    CODE           ?PR?OLED_SHOWNUM?OLED
   *DEL*:           000011H   BYTE   INSEG    CODE           ?PR?OLED_DISPLAY_OFF?OLED
   *DEL*:           000017H   BYTE   INSEG    CODE           ?PR?OLED_POW?OLED
   *DEL*:           00009DH   BYTE   INSEG    CODE           ?PR?OLED_DRAWBMP?OLED
   *DEL*:           000005H   BYTE   UNIT     EDATA          ?ED?OLED_SHOWNUM?OLED
   *DEL*:           000003H   BYTE   UNIT     EDATA          ?ED?OLED_SHOWSTRING?OLED
   *DEL*:           000001H   BYTE   UNIT     EDATA          ?ED?OLED_SHOWCHINESE?OLED
   *DEL*:           000007H   BYTE   UNIT     EDATA          ?ED?OLED_DRAWBMP?OLED
   *DEL*:           000044H   BYTE   INSEG    CODE           ?PR?SET_BRUSHLESS_OUTPUT?BRUSHLESS
   *DEL*:           000110H   BYTE   INSEG    CODE           ?PR?POSITION_PID_CALC?PID
   *DEL*:           00000DH   BYTE   INSEG    CODE           ?PR?PID_CLEAR_INTEGRAL?PID
   *DEL*:           000004H   BYTE   UNIT     EDATA          ?ED?POSITION_PID_CALC?PID
   *DEL*:           000028H   BYTE   UNIT     EDATA          ?ED?PRINTF
   *DEL*:           00001AH   BYTE   INSEG    CODE           ?PR?MEMSET?_?MEMSET



OVERLAY MAP OF MODULE:   .\Out_File\SEEKFREE (board)


FUNCTION/MODULE                               EDATA_GROUP
--> CALLED FUNCTION/MODULE                    START  STOP
=========================================================
UART1_Isr/isr                                 ----- -----

*** NEW ROOT ********************************

UART2_Isr/isr                                 ----- -----

*** NEW ROOT ********************************

UART3_Isr/isr                                 ----- -----

*** NEW ROOT ********************************

UART4_Isr/isr                                 ----- -----
  +--> wireless_uart_callback/SEEKFREE_WIRELESS
  +--> bluetooth_ch9141_uart_callback/SEEKFREE_BLUETOOTH_CH9141
  +--> wireless_ch573_callback/SEEKFREE_WIRELESS_CH573

wireless_uart_callback/SEEKFREE_WIRELESS      ----- -----
  +--> fifo_write_buffer/zf_fifo

fifo_write_buffer/zf_fifo                     0726H 0731H
  +--> memcpy?_/memcpy
  +--> fifo_head_offset/zf_fifo

memcpy?_/memcpy                               ----- -----

fifo_head_offset/zf_fifo                      ----- -----

bluetooth_ch9141_uart_callback/SEEKFREE_+     ----- -----
... BLUETOOTH_CH9141
  +--> fifo_write_buffer/zf_fifo

wireless_ch573_callback/SEEKFREE_WIRELES+     ----- -----
... S_CH573
  +--> fifo_write_buffer/zf_fifo
L251 LINKER/LOCATER V4.66.93.0                                                        03/26/2023  21:30:35  PAGE 11



*** NEW ROOT ********************************

INT0_Isr/isr                                  ----- -----

*** NEW ROOT ********************************

INT1_Isr/isr                                  ----- -----

*** NEW ROOT ********************************

INT2_Isr/isr                                  ----- -----

*** NEW ROOT ********************************

INT3_Isr/isr                                  ----- -----

*** NEW ROOT ********************************

INT4_Isr/isr                                  ----- -----

*** NEW ROOT ********************************

TM0_Isr/isr                                   ----- -----

*** NEW ROOT ********************************

TM1_Isr/isr                                   ----- -----

*** NEW ROOT ********************************

TM2_Isr/isr                                   ----- -----

*** NEW ROOT ********************************

TM3_Isr/isr                                   ----- -----

*** NEW ROOT ********************************

TM4_Isr/isr                                   ----- -----
  +--> Read_Adc_Value/adc
  +--> Correct_Angle/control
  +--> Akeman_Control/control

Read_Adc_Value/adc                            ----- -----
  +--> adc_mean_filter/adc

adc_mean_filter/adc                           0732H 0737H
  +--> adc_once/zf_adc
  +--> ?C?ULIDIV/?C?ULDIV

adc_once/zf_adc                               ----- -----

?C?ULIDIV/?C?ULDIV                            ----- -----

Correct_Angle/control                         ----- -----

Akeman_Control/control                        0732H 0735H
  +--> Encoder_Read/motor
  +--> Encoder_Clear/motor
  +--> Motor_PID_Control/control
  +--> Steer_Spin/steer

Encoder_Read/motor                            ----- -----
  +--> ctimer_count_read/zf_tim
L251 LINKER/LOCATER V4.66.93.0                                                        03/26/2023  21:30:35  PAGE 12



ctimer_count_read/zf_tim                      ----- -----

Encoder_Clear/motor                           ----- -----
  +--> ctimer_count_clean/zf_tim

ctimer_count_clean/zf_tim                     ----- -----

Motor_PID_Control/control                     0736H 073DH
  +--> pid_calc/pid
  +--> Motor_Control/motor

pid_calc/pid                                  073EH 0741H
  +--> FABS?_/FABS
  +--> abs_limit/pid

FABS?_/FABS                                   ----- -----

abs_limit/pid                                 ----- -----

Motor_Control/motor                           073EH 0741H
  +--> pwm_duty/zf_pwm

pwm_duty/zf_pwm                               ----- -----

Steer_Spin/steer                              ----- -----
  +--> pwm_duty/zf_pwm

*** NEW ROOT ********************************

?C_C51STARTUP                                 ----- -----

*** NEW ROOT ********************************

?C_C51STARTUP?3                               ----- -----
  +--> main/main

main/main                                     ----- -----
  +--> board_init/board
  +--> PID_struct_init/pid
  +--> My_Adc_Init/adc
  +--> Motor_Init/motor
  +--> Steer_Init/steer
  +--> Brushless_Init/brushless
  +--> OLED_Init/oled
  +--> Timer4_Init/timer

board_init/board                              ----- -----
  +--> set_clk/board
  +--> delay_init/zf_delay
  +--> uart_init/zf_uart
  +--> EnableGlobalIRQ/board

set_clk/board                                 ----- -----

delay_init/zf_delay                           ----- -----
  +--> ?C?SLDIV/?C?SLDIV

?C?SLDIV/?C?SLDIV                             ----- -----
  +--> ?C?ULIDIV/?C?ULDIV

uart_init/zf_uart                             0742H 0747H
  +--> ?C?ULIDIV/?C?ULDIV

EnableGlobalIRQ/board                         ----- -----
L251 LINKER/LOCATER V4.66.93.0                                                        03/26/2023  21:30:35  PAGE 13



PID_struct_init/pid                           0742H 0755H
  +--> pid_param_init/pid
  +--> pid_reset/pid

pid_param_init/pid                            0756H 0769H

pid_reset/pid                                 0756H 075DH

My_Adc_Init/adc                               ----- -----
  +--> adc_init/zf_adc

adc_init/zf_adc                               ----- -----

Motor_Init/motor                              ----- -----
  +--> pwm_init/zf_pwm
  +--> ctimer_count_init/zf_tim

pwm_init/zf_pwm                               0742H 074DH
  +--> pwm_set_gpio/zf_pwm
  +--> ?C?ULIDIV/?C?ULDIV

pwm_set_gpio/zf_pwm                           ----- -----
  +--> gpio_mode/zf_gpio

gpio_mode/zf_gpio                             ----- -----

ctimer_count_init/zf_tim                      ----- -----

Steer_Init/steer                              ----- -----
  +--> pwm_init/zf_pwm

Brushless_Init/brushless                      ----- -----
  +--> pwm_init/zf_pwm

OLED_Init/oled                                ----- -----
  +--> delay_ms/zf_delay
  +--> OLED_WR_Byte/oled
  +--> OLED_Clear/oled
  +--> OLED_Set_Pos/oled

delay_ms/zf_delay                             ----- -----

OLED_WR_Byte/oled                             ----- -----

OLED_Clear/oled                               ----- -----
  +--> OLED_WR_Byte/oled

OLED_Set_Pos/oled                             ----- -----
  +--> OLED_WR_Byte/oled

Timer4_Init/timer                             ----- -----
  +--> pit_timer_ms/zf_tim

pit_timer_ms/zf_tim                           ----- -----
  +--> ?C?SLDIV/?C?SLDIV

*** NEW ROOT ********************************

?C_C51STARTUP?2                               ----- -----



PUBLIC SYMBOLS OF MODULE:  .\Out_File\SEEKFREE (board)

L251 LINKER/LOCATER V4.66.93.0                                                        03/26/2023  21:30:35  PAGE 14



      VALUE       CLASS    TYPE      PUBLIC SYMBOL NAME
      =================================================
      00FF311EH   CODE     NEAR LAB  ?C?CASTF
      000000FFH   NUMBER   ---       ?C?CODESEG
      00FF30EBH   CODE     NEAR LAB  ?C?FCASTC
      00FF30E6H   CODE     NEAR LAB  ?C?FCASTI
      00FF30E1H   CODE     NEAR LAB  ?C?FCASTL
      00FF375BH   CODE     ---       ?C?FP2SERIES
      00FF2EB4H   CODE     ---       ?C?FPADD
      00FF308FH   CODE     ---       ?C?FPCMP
      00FF308DH   CODE     ---       ?C?FPCMP3
      00FF3796H   CODE     ---       ?C?FPCONVERT
      00FF300CH   CODE     ---       ?C?FPDIV
      00FF32CEH   CODE     ---       ?C?FPGETOPN2
      00FF2F6CH   CODE     ---       ?C?FPMUL
      00FF330BH   CODE     ---       ?C?FPNANRESULT
      00FF30D3H   CODE     ---       ?C?FPNEG
      00FF3313H   CODE     ---       ?C?FPOVERFLOW
      00FF32E7H   CODE     ---       ?C?FPRESULT
      00FF32FDH   CODE     ---       ?C?FPRESULT2
      00FF384EH   CODE     ---       ?C?FPROUND
      00FF3764H   CODE     ---       ?C?FPSERIES
      00FF2EB1H   CODE     ---       ?C?FPSUB
      00FF3310H   CODE     ---       ?C?FPUNDERFLOW
      00FF38C1H   CODE     ---       ?C?FTNPWR
      00FF5660H   CODE     ---       ?C?INITEDATA
      00FF6A3CH   HCONST   WORD      ?C?INITEDATA_END
      00FF393BH   CODE     ---       ?C?LIMUL
      00FF392AH   CODE     ---       ?C?LMUL
      00FF334CH   CODE     ---       ?C?PRNFMT
      00FF38F8H   CODE     ---       ?C?SIDIV
      00FF3997H   CODE     NEAR LAB  ?C?SLDIV
      00FF0000H   CODE     ---       ?C?STARTUP
      00FF3946H   CODE     NEAR LAB  ?C?ULDIV
      00FF3944H   CODE     NEAR LAB  ?C?ULIDIV
      00000001H   NUMBER   ---       ?C?XDATASEG
      00FF0000H   CODE     ---       ?C_STARTUP
*DEL*:1FFFFFF8H   EDATA    BYTE      ?data_conversion?BYTE
*DEL*:1FFFFFF8H   EDATA    BYTE      ?fifo_init?BYTE
*DEL*:1FFFFFFCH   EDATA    BYTE      ?fifo_read_buffer?BYTE
      00000722H   EDATA    BYTE      ?fifo_write_buffer?BYTE
*DEL*:1FFFFFFAH   EDATA    BYTE      ?iic_init?BYTE
*DEL*:1FFFFFFCH   EDATA    BYTE      ?ips114_showfloat?BYTE
*DEL*:1FFFFFFCH   EDATA    BYTE      ?ips114_showfloat_simspi?BYTE
      0000072EH   EDATA    BYTE      ?Motor_PID_Control?BYTE
*DEL*:1FFFFFF7H   EDATA    BYTE      ?number_conversion_ascii?BYTE
      00000736H   EDATA    BYTE      ?pid_calc?BYTE
      0000073AH   EDATA    BYTE      ?PID_struct_init?BYTE
*DEL*:1FFFFFF8H   EDATA    BYTE      ?position_pid_calc?BYTE
*DEL*:00000028H   EDATA    ---       ?printf?BYTE
*DEL*:1FFFFFFAH   EDATA    BYTE      ?pwm_freq?BYTE
      00000740H   EDATA    BYTE      ?pwm_init?BYTE
*DEL*:1FFFFFF7H   EDATA    BYTE      ?spi_init?BYTE
      0000073CH   EDATA    BYTE      ?uart_init?BYTE
*DEL*:00000028H   EDATA    BYTE      ?zf_sprintf?BYTE
      00FF585DH   CODE     ---       abs_limit
      000007B9H   EDATA    WORD      adc1
      000007BBH   EDATA    WORD      adc2
      000007BDH   EDATA    WORD      adc3
      000007BFH   EDATA    WORD      adc4
      000007C1H   EDATA    WORD      adc5
      000007C3H   EDATA    WORD      adc6
      000007C5H   EDATA    WORD      adc7
      000007C7H   EDATA    WORD      adc8
L251 LINKER/LOCATER V4.66.93.0                                                        03/26/2023  21:30:35  PAGE 15


*SFR* 000000BCH   DATA     BYTE      ADC_CONTR
      00FF5047H   CODE     ---       adc_init
      00FF538CH   CODE     ---       adc_mean_filter
      00FF5923H   CODE     ---       adc_once
*SFR* 000000BDH   DATA     BYTE      ADC_RES
*SFR* 000000BEH   DATA     BYTE      ADC_RESL
*SFR* 000000DEH   DATA     BYTE      ADCCFG
      00FF4AFAH   CODE     ---       Akeman_Control
      0000076AH   EDATA    ---       akeman_left
      00000787H   EDATA    ---       akeman_right
*DEL*:00000000H   CODE     ---       at24c02_read_byte
*DEL*:00000000H   CODE     ---       at24c02_read_bytes
*DEL*:00000000H   CODE     ---       at24c02_write_byte
*DEL*:00000000H   CODE     ---       at24c02_write_bytes
*SFR* 000000EFH   DATA     BYTE      AUXINTIF
*SFR* 0000008EH   DATA     BYTE      AUXR
*SFR* 00000097H   DATA     BYTE      AUXR2
*DEL*:00000000H   CODE     ---       bluetooth_ch9141_init
*DEL*:00000000H   CODE     ---       bluetooth_ch9141_read_buff
*DEL*:00000000H   CODE     ---       bluetooth_ch9141_send_buff
      00FF5B9CH   CODE     ---       bluetooth_ch9141_uart_callback
      00FF4CFEH   CODE     ---       board_init
      00FF5A20H   CODE     ---       Brushless_Init
      00000592H   EDATA    ---       busy
*SFR* 000000F1H   DATA     BYTE      CANICR
*DEL*:00000000H   CODE     ---       ccd_collect
      000003CAH   EDATA    ---       ccd_data
*DEL*:00000000H   CODE     ---       ccd_init
*DEL*:00000000H   CODE     ---       ccd_send_data
*SFR* 000000EAH   DATA     BYTE      CKCON
*SFR* 000000E6H   DATA     BYTE      CMPCR1
*SFR* 000000E7H   DATA     BYTE      CMPCR2
      00FF560BH   CODE     ---       Correct_Angle
      00FF31DEH   CODE     ---       COS?_
*DEL*:00000000H   CODE     ---       CRC_CHECK
      00FF5251H   CODE     ---       ctimer_count_clean
      00FF53D9H   CODE     ---       ctimer_count_init
      00FF52F2H   CODE     ---       ctimer_count_read
*DEL*:00000000H   CODE     ---       data_conversion
      00FF57BBH   CODE     ---       delay_init
      00FF5BFFH   CODE     ---       delay_ms
      00FF5B83H   CODE     ---       delay_us
*DEL*:00000000H   CODE     ---       DisableGlobalIRQ
      0000081CH   EDATA    WORD      dl1a_distance_mm
      0000081EH   EDATA    BYTE      dl1a_finsh_flag
*DEL*:00000000H   CODE     ---       dl1a_get_distance
*DEL*:00000000H   CODE     ---       dl1a_init
*SFR* 000000A8H.7 DATA     BIT       EA
*SFR* 000000BAH.7 DATA     BIT       EAXFR
      00FF5C2CH   CODE     ---       eeprom_trig
      00FF000EH   CODE     ---       EnableGlobalIRQ
*DEL*:00000000H   CODE     ---       encoder_angle_simspi
*DEL*:00000000H   CODE     ---       encoder_angle_spi
      00FF5D18H   CODE     ---       Encoder_Clear
      00FF0006H   CODE     ---       encoder_delay_us
*DEL*:00000000H   CODE     ---       encoder_init_simspi
*DEL*:00000000H   CODE     ---       encoder_init_spi
      00FF5423H   CODE     ---       Encoder_Read
*DEL*:00000000H   CODE     ---       encoder_self4_check
*DEL*:00000000H   CODE     ---       encoder_self5_check
*DEL*:00000000H   CODE     ---       encoder_simspi_r_reg_byte
*DEL*:00000000H   CODE     ---       encoder_simspi_w_reg_byte
*DEL*:00000000H   CODE     ---       encoder_spi_r_reg_byte
*DEL*:00000000H   CODE     ---       encoder_spi_w_reg_byte
*SFR* 000000A8H.4 DATA     BIT       ES
L251 LINKER/LOCATER V4.66.93.0                                                        03/26/2023  21:30:35  PAGE 16


*SFR* 000000A8H.1 DATA     BIT       ET0
*SFR* 000000A8H.3 DATA     BIT       ET1
*SFR* 000000A8H.0 DATA     BIT       EX0
*SFR* 000000A8H.2 DATA     BIT       EX1
*DEL*:00000000H   CODE     ---       exit_init
*DEL*:00000000H   CODE     ---       extern_iap_write_bytes
*SFR* 000000D0H.5 DATA     BIT       F0
      00FF5D79H   HCONST   ---       F6x8
      00FF5FA1H   HCONST   ---       F8X16
      00FF3187H   CODE     NEAR LAB  fabs?_
*DEL*:00000000H   CODE     ---       fifo_clear
*DEL*:00000000H   CODE     ---       fifo_end_offset
      00FF55C9H   CODE     ---       fifo_head_offset
*DEL*:00000000H   CODE     ---       fifo_init
*DEL*:00000000H   CODE     ---       fifo_read_buffer
*DEL*:00000000H   CODE     ---       fifo_used
      00FF4877H   CODE     ---       fifo_write_buffer
      00FF39CBH   CODE     ---       gpio_mode
*DEL*:00000000H   CODE     ---       gpio_pull_set
      00000008H   EDATA    ---       Hzk
*SFR* 000000F6H   DATA     BYTE      IAP_ADDRE
*SFR* 000000C3H   DATA     BYTE      IAP_ADDRH
*SFR* 000000C4H   DATA     BYTE      IAP_ADDRL
*SFR* 000000C5H   DATA     BYTE      IAP_CMD
*SFR* 000000C7H   DATA     BYTE      IAP_CONTR
*SFR* 000000C2H   DATA     BYTE      IAP_DATA
*DEL*:00000000H   CODE     ---       iap_erase_page
*DEL*:00000000H   CODE     ---       iap_get_cmd_state
*DEL*:00000000H   CODE     ---       iap_idle
*DEL*:00000000H   CODE     ---       iap_init
*DEL*:00000000H   CODE     ---       iap_read_bytes
*DEL*:00000000H   CODE     ---       iap_set_tps
*SFR* 000000F5H   DATA     BYTE      IAP_TPS
*SFR* 000000C6H   DATA     BYTE      IAP_TRIG
*DEL*:00000000H   CODE     ---       iap_write_bytes
*DEL*:00000000H   CODE     ---       icm20602_acc_transition
      000007C9H   EDATA    INT       icm20602_acc_x
      000007CBH   EDATA    INT       icm20602_acc_y
      000007CDH   EDATA    INT       icm20602_acc_z
*DEL*:00000000H   CODE     ---       icm20602_get_acc
*DEL*:00000000H   CODE     ---       icm20602_get_gyro
*DEL*:00000000H   CODE     ---       icm20602_gyro_transition
      000007CFH   EDATA    INT       icm20602_gyro_x
      000007D1H   EDATA    INT       icm20602_gyro_y
      000007D3H   EDATA    INT       icm20602_gyro_z
*DEL*:00000000H   CODE     ---       icm20602_init
*SFR* 000000A8H   DATA     BYTE      IE
*SFR* 000000AFH   DATA     BYTE      IE2
*DEL*:00000000H   CODE     ---       iic_change_pin
      00FF5C41H   CODE     ---       iic_delay_us
*DEL*:00000000H   CODE     ---       iic_init
*DEL*:00000000H   CODE     ---       iic_read_reg
*DEL*:00000000H   CODE     ---       iic_read_reg_bytes
*DEL*:00000000H   CODE     ---       iic_write_reg
*DEL*:00000000H   CODE     ---       imu660ra_acc_transition
      000007D5H   EDATA    INT       imu660ra_acc_x
      000007D7H   EDATA    INT       imu660ra_acc_y
      000007D9H   EDATA    INT       imu660ra_acc_z
      00FF00A6H   CODE     ---       imu660ra_config_file
*DEL*:00000000H   CODE     ---       imu660ra_get_acc
*DEL*:00000000H   CODE     ---       imu660ra_get_gyro
*DEL*:00000000H   CODE     ---       imu660ra_gyro_transition
      000007DBH   EDATA    INT       imu660ra_gyro_x
      000007DDH   EDATA    INT       imu660ra_gyro_y
      000007DFH   EDATA    INT       imu660ra_gyro_z
L251 LINKER/LOCATER V4.66.93.0                                                        03/26/2023  21:30:35  PAGE 17


*DEL*:00000000H   CODE     ---       imu660ra_init
*DEL*:00000000H   CODE     ---       imu963ra_acc_transition
      000007A7H   EDATA    INT       imu963ra_acc_x
      000007A9H   EDATA    INT       imu963ra_acc_y
      000007ABH   EDATA    INT       imu963ra_acc_z
*DEL*:00000000H   CODE     ---       imu963ra_get_acc
*DEL*:00000000H   CODE     ---       imu963ra_get_gyro
*DEL*:00000000H   CODE     ---       imu963ra_get_mag
*DEL*:00000000H   CODE     ---       imu963ra_gyro_transition
      000007B3H   EDATA    INT       imu963ra_gyro_x
      000007B5H   EDATA    INT       imu963ra_gyro_y
      000007B7H   EDATA    INT       imu963ra_gyro_z
*DEL*:00000000H   CODE     ---       imu963ra_init
*DEL*:00000000H   CODE     ---       imu963ra_mag_transition
      000007ADH   EDATA    INT       imu963ra_mag_x
      000007AFH   EDATA    INT       imu963ra_mag_y
      000007B1H   EDATA    INT       imu963ra_mag_z
      00FF5D72H   CODE     ---       INT0_Isr
      00FF0011H   CODE     ---       INT1_Isr
      00FF5D4AH   CODE     ---       INT2_Isr
      00FF5D52H   CODE     ---       INT3_Isr
      00FF5D5AH   CODE     ---       INT4_Isr
*SFR* 0000008FH   DATA     BYTE      INTCLKO
*SFR* 000000B8H   DATA     BYTE      IP
*SFR* 000000B5H   DATA     BYTE      IP2
*SFR* 000000B6H   DATA     BYTE      IP2H
*SFR* 000000DFH   DATA     BYTE      IP3
*SFR* 000000EEH   DATA     BYTE      IP3H
*SFR* 000000B7H   DATA     BYTE      IPH
*DEL*:00000000H   CODE     ---       ips114_clear
*DEL*:00000000H   CODE     ---       ips114_clear_simspi
*DEL*:00000000H   CODE     ---       ips114_drawpoint
*DEL*:00000000H   CODE     ---       ips114_drawpoint_simspi
*DEL*:00000000H   CODE     ---       ips114_init
*DEL*:00000000H   CODE     ---       ips114_init_simspi
*DEL*:00000000H   CODE     ---       ips114_set_region
*DEL*:00000000H   CODE     ---       ips114_set_region_simspi
*DEL*:00000000H   CODE     ---       ips114_showchar
*DEL*:00000000H   CODE     ---       ips114_showchar_simspi
*DEL*:00000000H   CODE     ---       ips114_showfloat
*DEL*:00000000H   CODE     ---       ips114_showfloat_simspi
*DEL*:00000000H   CODE     ---       ips114_showint16
*DEL*:00000000H   CODE     ---       ips114_showint16_simspi
*DEL*:00000000H   CODE     ---       ips114_showint32
*DEL*:00000000H   CODE     ---       ips114_showint32_simspi
*DEL*:00000000H   CODE     ---       ips114_showint8
*DEL*:00000000H   CODE     ---       ips114_showint8_simspi
*DEL*:00000000H   CODE     ---       ips114_showstr
*DEL*:00000000H   CODE     ---       ips114_showstr_simspi
*DEL*:00000000H   CODE     ---       ips114_showuint16
*DEL*:00000000H   CODE     ---       ips114_showuint16_simspi
*DEL*:00000000H   CODE     ---       ips114_showuint8
*DEL*:00000000H   CODE     ---       ips114_showuint8_simspi
*DEL*:00000000H   CODE     ---       ips114_writeData
      00FF5B0DH   CODE     ---       ips114_writedata_16bit
*DEL*:00000000H   CODE     ---       ips114_writeData_simspi
      00FF597FH   CODE     ---       ips114_writeDatai_16bit_simspi
      00FF5D2FH   CODE     ---       ips114_writeIndex
      00FF59ABH   CODE     ---       ips114_writeIndex_simspi
*SFR* 0000009DH   DATA     BYTE      IRCBAND
*SFR* 0000009FH   DATA     BYTE      IRTRIM
*SFR* 00000088H.0 DATA     BIT       IT0
*SFR* 00000088H.2 DATA     BIT       IT1
*DEL*:00000000H   CODE     ---       Key_Scan
*SFR* 000000F9H   DATA     BYTE      LINICR
L251 LINKER/LOCATER V4.66.93.0                                                        03/26/2023  21:30:35  PAGE 18


      00FF4F12H   CODE     ---       main
      00FF59FBH   CODE     ---       memcpy?_
*DEL*:00000000H   CODE     ---       memset?_
      00FF4C59H   CODE     ---       Motor_Control
      00FF52A2H   CODE     ---       Motor_Init
      00FF5707H   CODE     ---       Motor_PID_Control
*DEL*:00000000H   CODE     ---       Motor_Shut
      000007E1H   EDATA    INT       mpu6050_acc_x
      000007E3H   EDATA    INT       mpu6050_acc_y
      000007E5H   EDATA    INT       mpu6050_acc_z
*DEL*:00000000H   CODE     ---       mpu6050_get_accdata
*DEL*:00000000H   CODE     ---       mpu6050_get_gyro
      000007E7H   EDATA    INT       mpu6050_gyro_x
      000007E9H   EDATA    INT       mpu6050_gyro_y
      000007EBH   EDATA    INT       mpu6050_gyro_z
*DEL*:00000000H   CODE     ---       mpu6050_init
*DEL*:00000000H   CODE     ---       mpu6050_simiic_read_reg
*DEL*:00000000H   CODE     ---       mpu6050_simiic_read_regs
      00FF546CH   CODE     ---       My_Adc_Init
*DEL*:00000000H   CODE     ---       number_conversion_ascii
*DEL*:00000000H   CODE     ---       NVIC_SetPriority
      00FF2C86H   CODE     ---       oled_6x8
      00FF20A6H   CODE     ---       oled_8x16
      00FF5891H   CODE     ---       OLED_Clear
*SFR* 00000080H.2 DATA     BIT       OLED_CS
*SFR* 000000C8H.2 DATA     BIT       OLED_DC
*DEL*:00000000H   CODE     ---       OLED_Display_Off
*DEL*:00000000H   CODE     ---       OLED_Display_On
*DEL*:00000000H   CODE     ---       OLED_DrawBMP
      00FF4BABH   CODE     ---       OLED_Init
*DEL*:00000000H   CODE     ---       oled_pow
*SFR* 000000C8H.1 DATA     BIT       OLED_RST
*SFR* 000000B0H.7 DATA     BIT       OLED_SCL
*SFR* 000000B0H.6 DATA     BIT       OLED_SDIN
      00FF59D4H   CODE     ---       OLED_Set_Pos
*DEL*:00000000H   CODE     ---       OLED_ShowChar
*DEL*:00000000H   CODE     ---       OLED_ShowCHinese
*DEL*:00000000H   CODE     ---       OLED_ShowNum
*DEL*:00000000H   CODE     ---       OLED_ShowString
      00FF50A5H   CODE     ---       OLED_WR_Byte
      0000077EH   EDATA    FLOAT     order_angle
      00000782H   EDATA    FLOAT     order_speed
*SFR* 00000080H   DATA     BYTE      P0
*SFR* 00000080H.7 DATA     BIT       P07
*SFR* 00000094H   DATA     BYTE      P0M0
*SFR* 00000093H   DATA     BYTE      P0M1
*SFR* 00000090H   DATA     BYTE      P1
*SFR* 00000092H   DATA     BYTE      P1M0
*SFR* 00000091H   DATA     BYTE      P1M1
*SFR* 000000A0H   DATA     BYTE      P2
*SFR* 000000A0H.0 DATA     BIT       P20
*SFR* 000000A0H.1 DATA     BIT       P21
*SFR* 000000A0H.2 DATA     BIT       P22
*SFR* 000000A0H.3 DATA     BIT       P23
*SFR* 000000A0H.4 DATA     BIT       P24
*SFR* 000000A0H.5 DATA     BIT       P25
*SFR* 000000A0H.6 DATA     BIT       P26
*SFR* 000000A0H.7 DATA     BIT       P27
*SFR* 00000096H   DATA     BYTE      P2M0
*SFR* 00000095H   DATA     BYTE      P2M1
*SFR* 000000B0H   DATA     BYTE      P3
*SFR* 000000B0H.2 DATA     BIT       P32
*SFR* 000000B0H.3 DATA     BIT       P33
*SFR* 000000B0H.5 DATA     BIT       P35
*SFR* 000000B2H   DATA     BYTE      P3M0
L251 LINKER/LOCATER V4.66.93.0                                                        03/26/2023  21:30:35  PAGE 19


*SFR* 000000B1H   DATA     BYTE      P3M1
*SFR* 000000C0H   DATA     BYTE      P4
*SFR* 000000C0H.0 DATA     BIT       P40
*SFR* 000000C0H.1 DATA     BIT       P41
*SFR* 000000C0H.2 DATA     BIT       P42
*SFR* 000000C0H.3 DATA     BIT       P43
*SFR* 000000C0H.4 DATA     BIT       P44
*SFR* 000000C0H.5 DATA     BIT       P45
*SFR* 000000B4H   DATA     BYTE      P4M0
*SFR* 000000B3H   DATA     BYTE      P4M1
*SFR* 000000C8H   DATA     BYTE      P5
*SFR* 000000C8H.2 DATA     BIT       P52
*SFR* 000000C8H.3 DATA     BIT       P53
*SFR* 000000CAH   DATA     BYTE      P5M0
*SFR* 000000C9H   DATA     BYTE      P5M1
*SFR* 000000E8H   DATA     BYTE      P6
*SFR* 000000CCH   DATA     BYTE      P6M0
*SFR* 000000CBH   DATA     BYTE      P6M1
*SFR* 000000F8H   DATA     BYTE      P7
*SFR* 000000F8H.0 DATA     BIT       P70
*SFR* 000000F8H.1 DATA     BIT       P71
*SFR* 000000F8H.2 DATA     BIT       P72
*SFR* 000000F8H.3 DATA     BIT       P73
*SFR* 000000E2H   DATA     BYTE      P7M0
*SFR* 000000E1H   DATA     BYTE      P7M1
*SFR* 000000A2H   DATA     BYTE      P_SW1
*SFR* 000000BAH   DATA     BYTE      P_SW2
*SFR* 000000BBH   DATA     BYTE      P_SW3
*SFR* 00000087H   DATA     BYTE      PCON
      00FF435FH   CODE     ---       pid_calc
*DEL*:00000000H   CODE     ---       pid_clear_integral
      00000786H   EDATA    BYTE      pid_flag
      000005DFH   EDATA    ---       pid_left_
*DEL*:00000000H   CODE     ---       PID_off
*DEL*:00000000H   CODE     ---       PID_on
      00000597H   EDATA    ---       pid_right_
      00FF4FE8H   CODE     ---       PID_struct_init
      00FF4D92H   CODE     ---       pit_timer_ms
*DEL*:00000000H   CODE     ---       position_pid_calc
      00FF315BH   CODE     NEAR LAB  printf
*DEL*:00000000H   CODE     ---       printf_reverse_order
*SFR* 000000D0H   DATA     BYTE      PSW
      0000081AH   EDATA    INT       pulse_left
      00000818H   EDATA    INT       pulse_right
      00FF5CEFH   CODE     ---       putchar
      00FF6A5EH   HCONST   ---       PWM_ARR_ADDR
      00FF6A66H   HCONST   ---       PWM_CCER_ADDR
      00FF6A76H   HCONST   ---       PWM_CCMR_ADDR
      00FF6A3EH   HCONST   ---       PWM_CCR_ADDR
      00FF4A32H   CODE     ---       pwm_duty
*DEL*:00000000H   CODE     ---       pwm_freq
      00FF3DC2H   CODE     ---       pwm_init
      00FF40BEH   CODE     ---       pwm_set_gpio
      00FF4E26H   CODE     ---       Read_Adc_Value
*DEL*:00000000H   CODE     ---       recv_ack
*DEL*:00000000H   CODE     ---       recv_data
*SFR* 000000FFH   DATA     BYTE      RSTCFG
*SFR* 0000009BH   DATA     BYTE      S2BUF
*SFR* 0000009AH   DATA     BYTE      S2CON
*SFR* 000000ADH   DATA     BYTE      S3BUF
*SFR* 000000ACH   DATA     BYTE      S3CON
*SFR* 000000FEH   DATA     BYTE      S4BUF
*SFR* 000000FDH   DATA     BYTE      S4CON
*SFR* 00000099H   DATA     BYTE      SBUF
*SFR* 00000098H   DATA     BYTE      SCON
L251 LINKER/LOCATER V4.66.93.0                                                        03/26/2023  21:30:35  PAGE 20


*DEL*:00000000H   CODE     ---       send_ack
*DEL*:00000000H   CODE     ---       send_data
*DEL*:00000000H   CODE     ---       send_nak
*DEL*:00000000H   CODE     ---       Set_Brushless_Output
      00FF4755H   CODE     ---       set_clk
*DEL*:00000000H   CODE     ---       set_zero_position_simspi
*DEL*:00000000H   CODE     ---       set_zero_position_spi
      000003C8H   EDATA    BYTE      show_mode
*DEL*:00000000H   CODE     ---       simspi_r_reg_byte
*DEL*:00000000H   CODE     ---       simspi_w_reg_byte
*DEL*:00000000H   CODE     ---       simspi_wr_byte
      00FF31FBH   CODE     ---       SIN?_
*SFR* 000000CEH   DATA     BYTE      SPCTL
*SFR* 000000CFH   DATA     BYTE      SPDAT
*DEL*:00000000H   CODE     ---       spi_change_mode
*DEL*:00000000H   CODE     ---       spi_change_pin
*DEL*:00000000H   CODE     ---       spi_init
      00FF5CFDH   CODE     ---       spi_mosi
*DEL*:00000000H   CODE     ---       spi_r_reg_byte
*DEL*:00000000H   CODE     ---       spi_w_reg_byte
*DEL*:00000000H   CODE     ---       spi_wr_byte
*SFR* 000000CDH   DATA     BYTE      SPSTAT
*DEL*:00000000H   CODE     ---       start
      00FF5C69H   CODE     ---       Steer_Init
      00FF5541H   CODE     ---       Steer_Spin
*DEL*:00000000H   CODE     ---       stop
      00000808H   EDATA    LONG      sys_clk
*SFR* 000000D6H   DATA     BYTE      T2H
*SFR* 000000D7H   DATA     BYTE      T2L
*SFR* 000000D4H   DATA     BYTE      T3H
*SFR* 000000D5H   DATA     BYTE      T3L
*SFR* 000000D2H   DATA     BYTE      T4H
*SFR* 000000D3H   DATA     BYTE      T4L
*SFR* 000000DDH   DATA     BYTE      T4T3M
      00FF3228H   CODE     ---       tan?_
*SFR* 00000088H   DATA     BYTE      TCON
      00FF2696H   CODE     ---       tft_ascii
*SFR* 0000008CH   DATA     BYTE      TH0
*SFR* 0000008DH   DATA     BYTE      TH1
      00FF5D39H   CODE     ---       Timer4_Init
*SFR* 0000008AH   DATA     BYTE      TL0
*SFR* 0000008BH   DATA     BYTE      TL1
      00FF0012H   CODE     ---       TM0_Isr
      00FF0016H   CODE     ---       TM1_Isr
      00FF5D62H   CODE     ---       TM2_Isr
      00FF5D6AH   CODE     ---       TM3_Isr
      00FF4E9FH   CODE     ---       TM4_Isr
*SFR* 00000089H   DATA     BYTE      TMOD
*SFR* 00000088H.4 DATA     BIT       TR0
*SFR* 00000088H.6 DATA     BIT       TR1
      000003C9H   EDATA    BYTE      tsl1401_finish_flag
      00FF56CAH   CODE     ---       UART1_Isr
      000004CAH   EDATA    ---       uart1_rx_buff
      0000052EH   EDATA    ---       uart1_tx_buff
      00FF5B2CH   CODE     ---       UART2_Isr
      00FF5B4AH   CODE     ---       UART3_Isr
      00FF4F7FH   CODE     ---       UART4_Isr
      00FF4596H   CODE     ---       uart_init
*DEL*:00000000H   CODE     ---       uart_putbuff
      00FF5157H   CODE     ---       uart_putchar
*DEL*:00000000H   CODE     ---       uart_putstr
*SFR* 000000F4H   DATA     BYTE      USBCON
      000007EDH   EDATA    ---       virtual_scope_data
*SFR* 000000A6H   DATA     BYTE      VRTRIM
      00FF54FCH   CODE     ---       wait
L251 LINKER/LOCATER V4.66.93.0                                                        03/26/2023  21:30:35  PAGE 21


*SFR* 000000C1H   DATA     BYTE      WDT_CONTR
      00FF5BCEH   CODE     ---       wireless_ch573_callback
*DEL*:00000000H   CODE     ---       wireless_ch573_init
*DEL*:00000000H   CODE     ---       wireless_ch573_read_buff
*DEL*:00000000H   CODE     ---       wireless_ch573_send_buff
      0000081FH   EDATA    INT       wireless_type
      00FF5BB5H   CODE     ---       wireless_uart_callback
*DEL*:00000000H   CODE     ---       wireless_uart_init
*DEL*:00000000H   CODE     ---       wireless_uart_read_buff
*DEL*:00000000H   CODE     ---       wireless_uart_send_buff
*SFR* 000000E9H   DATA     BYTE      WTST
      0000080CH   EDATA    WORD      zf_delay_ms
      0000080EH   EDATA    WORD      zf_delay_us
*DEL*:00000000H   CODE     ---       zf_sprintf



SYMBOL TABLE OF MODULE:  .\Out_File\SEEKFREE (board)

      VALUE       REP       CLASS    TYPE      SYMBOL NAME
      ====================================================
      ---         MODULE    ---      ---       board
      00FF000EH   PUBLIC    CODE     ---       EnableGlobalIRQ
      00FF4CFEH   PUBLIC    CODE     ---       board_init
      00FF4755H   PUBLIC    CODE     ---       set_clk
      00FF5CEFH   PUBLIC    CODE     ---       putchar
      00000808H   PUBLIC    EDATA    LONG      sys_clk
      00000094H   SFRSYM    DATA     BYTE      P0M0
      000000D0H   SFRSYM    DATA     BYTE      PSW
      000000BAH.7 SFRSYM    DATA     BIT       EAXFR
      0000009DH   SFRSYM    DATA     BYTE      IRCBAND
      00000097H   SFRSYM    DATA     BYTE      AUXR2
      000000EAH   SFRSYM    DATA     BYTE      CKCON
      000000EFH   SFRSYM    DATA     BYTE      AUXINTIF
      000000FDH   SFRSYM    DATA     BYTE      S4CON
      000000ACH   SFRSYM    DATA     BYTE      S3CON
      0000009AH   SFRSYM    DATA     BYTE      S2CON
      000000A6H   SFRSYM    DATA     BYTE      VRTRIM
      000000B7H   SFRSYM    DATA     BYTE      IPH
      000000CDH   SFRSYM    DATA     BYTE      SPSTAT
      000000DDH   SFRSYM    DATA     BYTE      T4T3M
      0000009FH   SFRSYM    DATA     BYTE      IRTRIM
      000000C1H   SFRSYM    DATA     BYTE      WDT_CONTR
      000000E9H   SFRSYM    DATA     BYTE      WTST
      000000DFH   SFRSYM    DATA     BYTE      IP3
      000000F4H   SFRSYM    DATA     BYTE      USBCON
      000000B5H   SFRSYM    DATA     BYTE      IP2
      000000FFH   SFRSYM    DATA     BYTE      RSTCFG
      000000F9H   SFRSYM    DATA     BYTE      LINICR
      0000008EH   SFRSYM    DATA     BYTE      AUXR
      000000AFH   SFRSYM    DATA     BYTE      IE2
      00000088H   SFRSYM    DATA     BYTE      TCON
      00000089H   SFRSYM    DATA     BYTE      TMOD
      00000098H   SFRSYM    DATA     BYTE      SCON
      000000F1H   SFRSYM    DATA     BYTE      CANICR
      00000087H   SFRSYM    DATA     BYTE      PCON
      000000BCH   SFRSYM    DATA     BYTE      ADC_CONTR
      000000E7H   SFRSYM    DATA     BYTE      CMPCR2
      000000E6H   SFRSYM    DATA     BYTE      CMPCR1
      000000DEH   SFRSYM    DATA     BYTE      ADCCFG
      000000B8H   SFRSYM    DATA     BYTE      IP
      0000008FH   SFRSYM    DATA     BYTE      INTCLKO
      000000EEH   SFRSYM    DATA     BYTE      IP3H
      000000B6H   SFRSYM    DATA     BYTE      IP2H
      000000A8H   SFRSYM    DATA     BYTE      IE
L251 LINKER/LOCATER V4.66.93.0                                                        03/26/2023  21:30:35  PAGE 22


      000000BBH   SFRSYM    DATA     BYTE      P_SW3
      000000BAH   SFRSYM    DATA     BYTE      P_SW2
      000000A2H   SFRSYM    DATA     BYTE      P_SW1
      000000CEH   SFRSYM    DATA     BYTE      SPCTL
      000000F8H   SFRSYM    DATA     BYTE      P7
      000000A8H.7 SFRSYM    DATA     BIT       EA
      000000E1H   SFRSYM    DATA     BYTE      P7M1
      000000E8H   SFRSYM    DATA     BYTE      P6
      000000C8H   SFRSYM    DATA     BYTE      P5
      000000CBH   SFRSYM    DATA     BYTE      P6M1
      000000E2H   SFRSYM    DATA     BYTE      P7M0
      000000C0H   SFRSYM    DATA     BYTE      P4
      000000C9H   SFRSYM    DATA     BYTE      P5M1
      000000CCH   SFRSYM    DATA     BYTE      P6M0
      000000B0H   SFRSYM    DATA     BYTE      P3
      000000B3H   SFRSYM    DATA     BYTE      P4M1
      000000CAH   SFRSYM    DATA     BYTE      P5M0
      000000A0H   SFRSYM    DATA     BYTE      P2
      000000B1H   SFRSYM    DATA     BYTE      P3M1
      000000B4H   SFRSYM    DATA     BYTE      P4M0
      00000090H   SFRSYM    DATA     BYTE      P1
      00000095H   SFRSYM    DATA     BYTE      P2M1
      000000B2H   SFRSYM    DATA     BYTE      P3M0
      00000080H   SFRSYM    DATA     BYTE      P0
      00000091H   SFRSYM    DATA     BYTE      P1M1
      00000096H   SFRSYM    DATA     BYTE      P2M0
      00000092H   SFRSYM    DATA     BYTE      P1M0
      00000093H   SFRSYM    DATA     BYTE      P0M1

      00FF4755H   BLOCK     CODE     ---       LVL=0
      00FF4755H   LINE      CODE     ---       #43
      00FF4755H   LINE      CODE     ---       #46
      00FF4758H   LINE      CODE     ---       #48
      00FF4768H   LINE      CODE     ---       #51
      00FF4775H   LINE      CODE     ---       #52
      00FF4779H   LINE      CODE     ---       #53
      00FF4779H   LINE      CODE     ---       #54
      00FF4779H   LINE      CODE     ---       #55
      00FF4779H   LINE      CODE     ---       #56
      00FF477BH   LINE      CODE     ---       #57
      00FF4787H   LINE      CODE     ---       #60
      00FF4794H   LINE      CODE     ---       #61
      00FF4798H   LINE      CODE     ---       #62
      00FF4798H   LINE      CODE     ---       #63
      00FF4798H   LINE      CODE     ---       #64
      00FF4798H   LINE      CODE     ---       #65
      00FF479AH   LINE      CODE     ---       #66
      00FF47A6H   LINE      CODE     ---       #69
      00FF47B3H   LINE      CODE     ---       #70
      00FF47B7H   LINE      CODE     ---       #71
      00FF47B7H   LINE      CODE     ---       #72
      00FF47B7H   LINE      CODE     ---       #73
      00FF47B7H   LINE      CODE     ---       #74
      00FF47B9H   LINE      CODE     ---       #75
      00FF47C5H   LINE      CODE     ---       #79
      00FF47D2H   LINE      CODE     ---       #80
      00FF47D6H   LINE      CODE     ---       #81
      00FF47D6H   LINE      CODE     ---       #82
      00FF47D6H   LINE      CODE     ---       #83
      00FF47D6H   LINE      CODE     ---       #84
      00FF47D8H   LINE      CODE     ---       #85
      00FF47E4H   LINE      CODE     ---       #88
      00FF47F1H   LINE      CODE     ---       #89
      00FF47FEH   LINE      CODE     ---       #90
      00FF4807H   LINE      CODE     ---       #91
L251 LINKER/LOCATER V4.66.93.0                                                        03/26/2023  21:30:35  PAGE 23


      00FF480AH   LINE      CODE     ---       #92
      00FF480AH   LINE      CODE     ---       #93
      00FF480CH   LINE      CODE     ---       #94
      00FF4818H   LINE      CODE     ---       #97
      00FF4825H   LINE      CODE     ---       #98
      00FF4832H   LINE      CODE     ---       #99
      00FF483BH   LINE      CODE     ---       #100
      00FF483EH   LINE      CODE     ---       #101
      00FF4842H   LINE      CODE     ---       #102
      00FF4844H   LINE      CODE     ---       #105
      00FF4848H   LINE      CODE     ---       #107
      00FF4855H   LINE      CODE     ---       #108
      00FF4862H   LINE      CODE     ---       #109
      00FF486BH   LINE      CODE     ---       #110
      00FF486EH   LINE      CODE     ---       #111
      00FF4872H   LINE      CODE     ---       #112
      00FF4872H   LINE      CODE     ---       #114
      00FF4876H   LINE      CODE     ---       #115
      ---         BLOCKEND  ---      ---       LVL=0

      00FF4CFEH   BLOCK     CODE     ---       LVL=0
      00FF4CFEH   LINE      CODE     ---       #121
      00FF4CFEH   LINE      CODE     ---       #123
      00FF4D01H   LINE      CODE     ---       #124
      00FF4D04H   LINE      CODE     ---       #125
      00FF4D07H   LINE      CODE     ---       #126
      00FF4D0AH   LINE      CODE     ---       #127
      00FF4D0DH   LINE      CODE     ---       #137
      00FF4D14H   LINE      CODE     ---       #143
      00FF4D17H   LINE      CODE     ---       #145
      00FF4D1AH   LINE      CODE     ---       #146
      00FF4D1DH   LINE      CODE     ---       #147
      00FF4D29H   LINE      CODE     ---       #149
      00FF4D2CH   LINE      CODE     ---       #150
      00FF4D2FH   LINE      CODE     ---       #151
      00FF4D32H   LINE      CODE     ---       #152
      00FF4D35H   LINE      CODE     ---       #153
      00FF4D38H   LINE      CODE     ---       #154
      00FF4D3BH   LINE      CODE     ---       #155
      00FF4D3EH   LINE      CODE     ---       #156
      00FF4D41H   LINE      CODE     ---       #157
      00FF4D44H   LINE      CODE     ---       #158
      00FF4D47H   LINE      CODE     ---       #159
      00FF4D4AH   LINE      CODE     ---       #160
      00FF4D4DH   LINE      CODE     ---       #161
      00FF4D50H   LINE      CODE     ---       #162
      00FF4D53H   LINE      CODE     ---       #163
      00FF4D56H   LINE      CODE     ---       #164
      00FF4D59H   LINE      CODE     ---       #166
      00FF4D5CH   LINE      CODE     ---       #167
      00FF4D5FH   LINE      CODE     ---       #168
      00FF4D62H   LINE      CODE     ---       #169
      00FF4D65H   LINE      CODE     ---       #170
      00FF4D68H   LINE      CODE     ---       #171
      00FF4D6BH   LINE      CODE     ---       #172
      00FF4D6EH   LINE      CODE     ---       #173
      00FF4D71H   LINE      CODE     ---       #174
      00FF4D74H   LINE      CODE     ---       #176
      00FF4D8FH   LINE      CODE     ---       #177
      ---         BLOCKEND  ---      ---       LVL=0

      00FF5CEFH   BLOCK     CODE     ---       LVL=0
      R15         REGSYM    ---      CHAR      c
      00FF5CEFH   LINE      CODE     ---       #183
      00FF5CF3H   LINE      CODE     ---       #185
L251 LINKER/LOCATER V4.66.93.0                                                        03/26/2023  21:30:35  PAGE 24


      00FF5CF8H   LINE      CODE     ---       #187
      00FF5CFAH   LINE      CODE     ---       #188
      ---         BLOCKEND  ---      ---       LVL=0

      00FF000EH   BLOCK     CODE     ---       LVL=0
      00FF000EH   LINE      CODE     ---       #197
      00FF000EH   LINE      CODE     ---       #199
      00FF0010H   LINE      CODE     ---       #200
      ---         BLOCKEND  ---      ---       LVL=0

      ---         MODULE    ---      ---       common
      0000081FH   PUBLIC    EDATA    INT       wireless_type
      000000D0H   SFRSYM    DATA     BYTE      PSW
      0000009DH   SFRSYM    DATA     BYTE      IRCBAND
      00000097H   SFRSYM    DATA     BYTE      AUXR2
      000000EFH   SFRSYM    DATA     BYTE      AUXINTIF
      000000FDH   SFRSYM    DATA     BYTE      S4CON
      000000ACH   SFRSYM    DATA     BYTE      S3CON
      0000009AH   SFRSYM    DATA     BYTE      S2CON
      000000B7H   SFRSYM    DATA     BYTE      IPH
      000000CDH   SFRSYM    DATA     BYTE      SPSTAT
      000000DDH   SFRSYM    DATA     BYTE      T4T3M
      000000C1H   SFRSYM    DATA     BYTE      WDT_CONTR
      000000DFH   SFRSYM    DATA     BYTE      IP3
      000000F4H   SFRSYM    DATA     BYTE      USBCON
      000000B5H   SFRSYM    DATA     BYTE      IP2
      000000FFH   SFRSYM    DATA     BYTE      RSTCFG
      000000F9H   SFRSYM    DATA     BYTE      LINICR
      0000008EH   SFRSYM    DATA     BYTE      AUXR
      000000AFH   SFRSYM    DATA     BYTE      IE2
      00000088H   SFRSYM    DATA     BYTE      TCON
      00000098H   SFRSYM    DATA     BYTE      SCON
      000000F1H   SFRSYM    DATA     BYTE      CANICR
      00000087H   SFRSYM    DATA     BYTE      PCON
      000000BCH   SFRSYM    DATA     BYTE      ADC_CONTR
      000000E7H   SFRSYM    DATA     BYTE      CMPCR2
      000000E6H   SFRSYM    DATA     BYTE      CMPCR1
      000000B8H   SFRSYM    DATA     BYTE      IP
      0000008FH   SFRSYM    DATA     BYTE      INTCLKO
      000000EEH   SFRSYM    DATA     BYTE      IP3H
      000000B6H   SFRSYM    DATA     BYTE      IP2H
      000000A8H   SFRSYM    DATA     BYTE      IE
      000000BBH   SFRSYM    DATA     BYTE      P_SW3
      000000BAH   SFRSYM    DATA     BYTE      P_SW2
      000000A2H   SFRSYM    DATA     BYTE      P_SW1
      000000CEH   SFRSYM    DATA     BYTE      SPCTL
      000000F8H   SFRSYM    DATA     BYTE      P7
      000000E8H   SFRSYM    DATA     BYTE      P6
      000000C8H   SFRSYM    DATA     BYTE      P5
      000000C0H   SFRSYM    DATA     BYTE      P4
      000000B0H   SFRSYM    DATA     BYTE      P3
      000000A0H   SFRSYM    DATA     BYTE      P2
      00000090H   SFRSYM    DATA     BYTE      P1
      00000080H   SFRSYM    DATA     BYTE      P0

      ---         MODULE    ---      ---       zf_adc
      00FF5923H   PUBLIC    CODE     ---       adc_once
      00FF5047H   PUBLIC    CODE     ---       adc_init
      00000094H   SFRSYM    DATA     BYTE      P0M0
      000000D0H   SFRSYM    DATA     BYTE      PSW
      0000009DH   SFRSYM    DATA     BYTE      IRCBAND
      00000097H   SFRSYM    DATA     BYTE      AUXR2
      000000EFH   SFRSYM    DATA     BYTE      AUXINTIF
      000000FDH   SFRSYM    DATA     BYTE      S4CON
      000000ACH   SFRSYM    DATA     BYTE      S3CON
L251 LINKER/LOCATER V4.66.93.0                                                        03/26/2023  21:30:35  PAGE 25


      0000009AH   SFRSYM    DATA     BYTE      S2CON
      000000B7H   SFRSYM    DATA     BYTE      IPH
      000000CDH   SFRSYM    DATA     BYTE      SPSTAT
      000000BEH   SFRSYM    DATA     BYTE      ADC_RESL
      000000DDH   SFRSYM    DATA     BYTE      T4T3M
      000000C1H   SFRSYM    DATA     BYTE      WDT_CONTR
      000000DFH   SFRSYM    DATA     BYTE      IP3
      000000F4H   SFRSYM    DATA     BYTE      USBCON
      000000B5H   SFRSYM    DATA     BYTE      IP2
      000000FFH   SFRSYM    DATA     BYTE      RSTCFG
      000000F9H   SFRSYM    DATA     BYTE      LINICR
      0000008EH   SFRSYM    DATA     BYTE      AUXR
      000000AFH   SFRSYM    DATA     BYTE      IE2
      00000088H   SFRSYM    DATA     BYTE      TCON
      00000098H   SFRSYM    DATA     BYTE      SCON
      000000F1H   SFRSYM    DATA     BYTE      CANICR
      00000087H   SFRSYM    DATA     BYTE      PCON
      000000BCH   SFRSYM    DATA     BYTE      ADC_CONTR
      000000E7H   SFRSYM    DATA     BYTE      CMPCR2
      000000E6H   SFRSYM    DATA     BYTE      CMPCR1
      000000DEH   SFRSYM    DATA     BYTE      ADCCFG
      000000B8H   SFRSYM    DATA     BYTE      IP
      0000008FH   SFRSYM    DATA     BYTE      INTCLKO
      000000EEH   SFRSYM    DATA     BYTE      IP3H
      000000B6H   SFRSYM    DATA     BYTE      IP2H
      000000BDH   SFRSYM    DATA     BYTE      ADC_RES
      000000A8H   SFRSYM    DATA     BYTE      IE
      000000BBH   SFRSYM    DATA     BYTE      P_SW3
      000000BAH   SFRSYM    DATA     BYTE      P_SW2
      000000A2H   SFRSYM    DATA     BYTE      P_SW1
      000000CEH   SFRSYM    DATA     BYTE      SPCTL
      000000F8H   SFRSYM    DATA     BYTE      P7
      000000E8H   SFRSYM    DATA     BYTE      P6
      000000C8H   SFRSYM    DATA     BYTE      P5
      000000C0H   SFRSYM    DATA     BYTE      P4
      000000B0H   SFRSYM    DATA     BYTE      P3
      000000A0H   SFRSYM    DATA     BYTE      P2
      00000090H   SFRSYM    DATA     BYTE      P1
      00000080H   SFRSYM    DATA     BYTE      P0
      00000091H   SFRSYM    DATA     BYTE      P1M1
      00000092H   SFRSYM    DATA     BYTE      P1M0
      00000093H   SFRSYM    DATA     BYTE      P0M1

      00FF5047H   BLOCK     CODE     ---       LVL=0
      WR4         REGSYM    ---      INT       adcn
      WR2         REGSYM    ---      INT       speed
      00FF5047H   LINE      CODE     ---       #32
      00FF504BH   LINE      CODE     ---       #34
      00FF504EH   LINE      CODE     ---       #36
      00FF5051H   LINE      CODE     ---       #37
      00FF5057H   LINE      CODE     ---       #39
      00FF5063H   LINE      CODE     ---       #42
      00FF5078H   LINE      CODE     ---       #43
      00FF507CH   LINE      CODE     ---       #44
      00FF507EH   LINE      CODE     ---       #45
      00FF5082H   LINE      CODE     ---       #48
      00FF5097H   LINE      CODE     ---       #49
      00FF509BH   LINE      CODE     ---       #50
      00FF509BH   LINE      CODE     ---       #52
      00FF50A1H   LINE      CODE     ---       #54
      00FF50A4H   LINE      CODE     ---       #55
      ---         BLOCKEND  ---      ---       LVL=0

      00FF5923H   BLOCK     CODE     ---       LVL=0
      WR6         REGSYM    ---      INT       adcn
L251 LINKER/LOCATER V4.66.93.0                                                        03/26/2023  21:30:35  PAGE 26


      WR4         REGSYM    ---      INT       resolution
      WR6         REGSYM    ---      WORD      adc_value
      00FF5923H   LINE      CODE     ---       #66
      00FF5923H   LINE      CODE     ---       #67
      00FF5923H   LINE      CODE     ---       #70
      00FF5926H   LINE      CODE     ---       #71
      00FF592AH   LINE      CODE     ---       #73
      00FF592DH   LINE      CODE     ---       #74
      00FF5932H   LINE      CODE     ---       #75
      00FF5935H   LINE      CODE     ---       #77
      00FF5937H   LINE      CODE     ---       #78
      00FF593BH   LINE      CODE     ---       #79
      00FF5941H   LINE      CODE     ---       #81
      00FF5944H   LINE      CODE     ---       #82
      00FF5947H   LINE      CODE     ---       #84
      00FF5950H   LINE      CODE     ---       #87
      00FF5950H   LINE      CODE     ---       #88
      ---         BLOCKEND  ---      ---       LVL=0

      ---         MODULE    ---      ---       zf_delay
      00FF57BBH   PUBLIC    CODE     ---       delay_init
      00FF5BFFH   PUBLIC    CODE     ---       delay_ms
      00FF5B83H   PUBLIC    CODE     ---       delay_us
      0000080CH   PUBLIC    EDATA    WORD      zf_delay_ms
      0000080EH   PUBLIC    EDATA    WORD      zf_delay_us
      000000D0H   SFRSYM    DATA     BYTE      PSW
      0000009DH   SFRSYM    DATA     BYTE      IRCBAND
      00000097H   SFRSYM    DATA     BYTE      AUXR2
      000000EFH   SFRSYM    DATA     BYTE      AUXINTIF
      000000FDH   SFRSYM    DATA     BYTE      S4CON
      000000ACH   SFRSYM    DATA     BYTE      S3CON
      0000009AH   SFRSYM    DATA     BYTE      S2CON
      000000B7H   SFRSYM    DATA     BYTE      IPH
      000000CDH   SFRSYM    DATA     BYTE      SPSTAT
      000000DDH   SFRSYM    DATA     BYTE      T4T3M
      000000C1H   SFRSYM    DATA     BYTE      WDT_CONTR
      000000DFH   SFRSYM    DATA     BYTE      IP3
      000000F4H   SFRSYM    DATA     BYTE      USBCON
      000000B5H   SFRSYM    DATA     BYTE      IP2
      000000FFH   SFRSYM    DATA     BYTE      RSTCFG
      000000F9H   SFRSYM    DATA     BYTE      LINICR
      0000008EH   SFRSYM    DATA     BYTE      AUXR
      000000AFH   SFRSYM    DATA     BYTE      IE2
      00000088H   SFRSYM    DATA     BYTE      TCON
      00000098H   SFRSYM    DATA     BYTE      SCON
      000000F1H   SFRSYM    DATA     BYTE      CANICR
      00000087H   SFRSYM    DATA     BYTE      PCON
      000000BCH   SFRSYM    DATA     BYTE      ADC_CONTR
      000000E7H   SFRSYM    DATA     BYTE      CMPCR2
      000000E6H   SFRSYM    DATA     BYTE      CMPCR1
      000000B8H   SFRSYM    DATA     BYTE      IP
      0000008FH   SFRSYM    DATA     BYTE      INTCLKO
      000000EEH   SFRSYM    DATA     BYTE      IP3H
      000000B6H   SFRSYM    DATA     BYTE      IP2H
      000000A8H   SFRSYM    DATA     BYTE      IE
      000000BBH   SFRSYM    DATA     BYTE      P_SW3
      000000BAH   SFRSYM    DATA     BYTE      P_SW2
      000000A2H   SFRSYM    DATA     BYTE      P_SW1
      000000CEH   SFRSYM    DATA     BYTE      SPCTL
      000000F8H   SFRSYM    DATA     BYTE      P7
      000000E8H   SFRSYM    DATA     BYTE      P6
      000000C8H   SFRSYM    DATA     BYTE      P5
      000000C0H   SFRSYM    DATA     BYTE      P4
      000000B0H   SFRSYM    DATA     BYTE      P3
      000000A0H   SFRSYM    DATA     BYTE      P2
L251 LINKER/LOCATER V4.66.93.0                                                        03/26/2023  21:30:35  PAGE 27


      00000090H   SFRSYM    DATA     BYTE      P1
      00000080H   SFRSYM    DATA     BYTE      P0

      00FF57BBH   BLOCK     CODE     ---       LVL=0
      00FF57BBH   LINE      CODE     ---       #34
      00FF57BBH   LINE      CODE     ---       #36
      00FF57CCH   LINE      CODE     ---       #37
      00FF57DDH   LINE      CODE     ---       #38
      00FF57F3H   LINE      CODE     ---       #40
      ---         BLOCKEND  ---      ---       LVL=0

      00FF5BFFH   BLOCK     CODE     ---       LVL=0
      WR4         REGSYM    ---      WORD      ms
      00FF5C01H   BLOCK     CODE     NEAR LAB  LVL=1
      WR6         REGSYM    ---      WORD      i
      ---         BLOCKEND  ---      ---       LVL=1
      00FF5BFFH   LINE      CODE     ---       #48
      00FF5C01H   LINE      CODE     ---       #49
      00FF5C01H   LINE      CODE     ---       #51
      00FF5C01H   LINE      CODE     ---       #52
      00FF5C05H   LINE      CODE     ---       #54
      00FF5C0DH   LINE      CODE     ---       #55
      00FF5C15H   LINE      CODE     ---       #56
      ---         BLOCKEND  ---      ---       LVL=0

      00FF5B83H   BLOCK     CODE     ---       LVL=0
      DR0         REGSYM    ---      DWORD     us
      00FF5B85H   BLOCK     CODE     NEAR LAB  LVL=1
      WR6         REGSYM    ---      WORD      i
      ---         BLOCKEND  ---      ---       LVL=1
      00FF5B83H   LINE      CODE     ---       #64
      00FF5B85H   LINE      CODE     ---       #65
      00FF5B85H   LINE      CODE     ---       #67
      00FF5B85H   LINE      CODE     ---       #68
      00FF5B89H   LINE      CODE     ---       #70
      00FF5B91H   LINE      CODE     ---       #71
      00FF5B9BH   LINE      CODE     ---       #72
      ---         BLOCKEND  ---      ---       LVL=0

      ---         MODULE    ---      ---       zf_eeprom
      00FF5C2CH   PUBLIC    CODE     ---       eeprom_trig
      000000D0H   SFRSYM    DATA     BYTE      PSW
      0000009DH   SFRSYM    DATA     BYTE      IRCBAND
      000000D0H.5 SFRSYM    DATA     BIT       F0
      00000097H   SFRSYM    DATA     BYTE      AUXR2
      000000C6H   SFRSYM    DATA     BYTE      IAP_TRIG
      000000EFH   SFRSYM    DATA     BYTE      AUXINTIF
      000000FDH   SFRSYM    DATA     BYTE      S4CON
      000000ACH   SFRSYM    DATA     BYTE      S3CON
      0000009AH   SFRSYM    DATA     BYTE      S2CON
      000000B7H   SFRSYM    DATA     BYTE      IPH
      000000CDH   SFRSYM    DATA     BYTE      SPSTAT
      000000DDH   SFRSYM    DATA     BYTE      T4T3M
      000000C1H   SFRSYM    DATA     BYTE      WDT_CONTR
      000000C2H   SFRSYM    DATA     BYTE      IAP_DATA
      000000DFH   SFRSYM    DATA     BYTE      IP3
      000000F4H   SFRSYM    DATA     BYTE      USBCON
      000000B5H   SFRSYM    DATA     BYTE      IP2
      000000FFH   SFRSYM    DATA     BYTE      RSTCFG
      000000C7H   SFRSYM    DATA     BYTE      IAP_CONTR
      000000F9H   SFRSYM    DATA     BYTE      LINICR
      0000008EH   SFRSYM    DATA     BYTE      AUXR
      000000AFH   SFRSYM    DATA     BYTE      IE2
      00000088H   SFRSYM    DATA     BYTE      TCON
      00000098H   SFRSYM    DATA     BYTE      SCON
L251 LINKER/LOCATER V4.66.93.0                                                        03/26/2023  21:30:35  PAGE 28


      000000F5H   SFRSYM    DATA     BYTE      IAP_TPS
      000000F1H   SFRSYM    DATA     BYTE      CANICR
      00000087H   SFRSYM    DATA     BYTE      PCON
      000000BCH   SFRSYM    DATA     BYTE      ADC_CONTR
      000000E7H   SFRSYM    DATA     BYTE      CMPCR2
      000000E6H   SFRSYM    DATA     BYTE      CMPCR1
      000000C4H   SFRSYM    DATA     BYTE      IAP_ADDRL
      000000C3H   SFRSYM    DATA     BYTE      IAP_ADDRH
      000000F6H   SFRSYM    DATA     BYTE      IAP_ADDRE
      000000B8H   SFRSYM    DATA     BYTE      IP
      0000008FH   SFRSYM    DATA     BYTE      INTCLKO
      000000EEH   SFRSYM    DATA     BYTE      IP3H
      000000B6H   SFRSYM    DATA     BYTE      IP2H
      000000C5H   SFRSYM    DATA     BYTE      IAP_CMD
      000000A8H   SFRSYM    DATA     BYTE      IE
      000000BBH   SFRSYM    DATA     BYTE      P_SW3
      000000BAH   SFRSYM    DATA     BYTE      P_SW2
      000000A2H   SFRSYM    DATA     BYTE      P_SW1
      000000CEH   SFRSYM    DATA     BYTE      SPCTL
      000000F8H   SFRSYM    DATA     BYTE      P7
      000000A8H.7 SFRSYM    DATA     BIT       EA
      000000E8H   SFRSYM    DATA     BYTE      P6
      000000C8H   SFRSYM    DATA     BYTE      P5
      000000C0H   SFRSYM    DATA     BYTE      P4
      000000B0H   SFRSYM    DATA     BYTE      P3
      000000A0H   SFRSYM    DATA     BYTE      P2
      00000090H   SFRSYM    DATA     BYTE      P1
      00000080H   SFRSYM    DATA     BYTE      P0

      00FF5C2CH   BLOCK     CODE     ---       LVL=0
      00FF5C2CH   LINE      CODE     ---       #30
      00FF5C2CH   LINE      CODE     ---       #32
      00FF5C30H   LINE      CODE     ---       #33
      00FF5C32H   LINE      CODE     ---       #34
      00FF5C35H   LINE      CODE     ---       #35
      00FF5C38H   LINE      CODE     ---       #38
      00FF5C39H   LINE      CODE     ---       #39
      00FF5C3AH   LINE      CODE     ---       #40
      00FF5C3BH   LINE      CODE     ---       #41
      00FF5C3CH   LINE      CODE     ---       #42
      00FF5C40H   LINE      CODE     ---       #43
      ---         BLOCKEND  ---      ---       LVL=0
      R11         REGSYM    ---      BYTE      write_time
      REG=3       REGSYM    ---      ---       buf
      REG=3       REGSYM    ---      ---       buf
      WR6         REGSYM    ---      WORD      addr
      REG=3       REGSYM    ---      ---       buf
      WR6         REGSYM    ---      WORD      i

      ---         MODULE    ---      ---       zf_exti
      000000D0H   SFRSYM    DATA     BYTE      PSW
      0000009DH   SFRSYM    DATA     BYTE      IRCBAND
      00000097H   SFRSYM    DATA     BYTE      AUXR2
      000000EFH   SFRSYM    DATA     BYTE      AUXINTIF
      000000FDH   SFRSYM    DATA     BYTE      S4CON
      000000ACH   SFRSYM    DATA     BYTE      S3CON
      0000009AH   SFRSYM    DATA     BYTE      S2CON
      000000B7H   SFRSYM    DATA     BYTE      IPH
      000000CDH   SFRSYM    DATA     BYTE      SPSTAT
      000000DDH   SFRSYM    DATA     BYTE      T4T3M
      000000C1H   SFRSYM    DATA     BYTE      WDT_CONTR
      00000088H.2 SFRSYM    DATA     BIT       IT1
      000000A8H.2 SFRSYM    DATA     BIT       EX1
      00000088H.0 SFRSYM    DATA     BIT       IT0
      000000A8H.0 SFRSYM    DATA     BIT       EX0
L251 LINKER/LOCATER V4.66.93.0                                                        03/26/2023  21:30:35  PAGE 29


      000000DFH   SFRSYM    DATA     BYTE      IP3
      000000F4H   SFRSYM    DATA     BYTE      USBCON
      000000B5H   SFRSYM    DATA     BYTE      IP2
      000000FFH   SFRSYM    DATA     BYTE      RSTCFG
      000000F9H   SFRSYM    DATA     BYTE      LINICR
      0000008EH   SFRSYM    DATA     BYTE      AUXR
      000000AFH   SFRSYM    DATA     BYTE      IE2
      00000088H   SFRSYM    DATA     BYTE      TCON
      00000098H   SFRSYM    DATA     BYTE      SCON
      000000F1H   SFRSYM    DATA     BYTE      CANICR
      00000087H   SFRSYM    DATA     BYTE      PCON
      000000BCH   SFRSYM    DATA     BYTE      ADC_CONTR
      000000E7H   SFRSYM    DATA     BYTE      CMPCR2
      000000E6H   SFRSYM    DATA     BYTE      CMPCR1
      000000B8H   SFRSYM    DATA     BYTE      IP
      0000008FH   SFRSYM    DATA     BYTE      INTCLKO
      000000EEH   SFRSYM    DATA     BYTE      IP3H
      000000B6H   SFRSYM    DATA     BYTE      IP2H
      000000A8H   SFRSYM    DATA     BYTE      IE
      000000BBH   SFRSYM    DATA     BYTE      P_SW3
      000000BAH   SFRSYM    DATA     BYTE      P_SW2
      000000A2H   SFRSYM    DATA     BYTE      P_SW1
      000000CEH   SFRSYM    DATA     BYTE      SPCTL
      000000F8H   SFRSYM    DATA     BYTE      P7
      000000E8H   SFRSYM    DATA     BYTE      P6
      000000C8H   SFRSYM    DATA     BYTE      P5
      000000C0H   SFRSYM    DATA     BYTE      P4
      000000B0H   SFRSYM    DATA     BYTE      P3
      000000A0H   SFRSYM    DATA     BYTE      P2
      00000090H   SFRSYM    DATA     BYTE      P1
      00000080H   SFRSYM    DATA     BYTE      P0
      WR4         REGSYM    ---      INT       int_n
      WR2         REGSYM    ---      INT       mode

      ---         MODULE    ---      ---       zf_gpio
      00FF39CBH   PUBLIC    CODE     ---       gpio_mode
      00000094H   SFRSYM    DATA     BYTE      P0M0
      000000D0H   SFRSYM    DATA     BYTE      PSW
      0000009DH   SFRSYM    DATA     BYTE      IRCBAND
      00000097H   SFRSYM    DATA     BYTE      AUXR2
      000000EFH   SFRSYM    DATA     BYTE      AUXINTIF
      000000FDH   SFRSYM    DATA     BYTE      S4CON
      000000ACH   SFRSYM    DATA     BYTE      S3CON
      0000009AH   SFRSYM    DATA     BYTE      S2CON
      000000B7H   SFRSYM    DATA     BYTE      IPH
      000000CDH   SFRSYM    DATA     BYTE      SPSTAT
      000000DDH   SFRSYM    DATA     BYTE      T4T3M
      000000C1H   SFRSYM    DATA     BYTE      WDT_CONTR
      000000DFH   SFRSYM    DATA     BYTE      IP3
      000000F4H   SFRSYM    DATA     BYTE      USBCON
      000000B5H   SFRSYM    DATA     BYTE      IP2
      000000FFH   SFRSYM    DATA     BYTE      RSTCFG
      000000F9H   SFRSYM    DATA     BYTE      LINICR
      0000008EH   SFRSYM    DATA     BYTE      AUXR
      000000AFH   SFRSYM    DATA     BYTE      IE2
      00000088H   SFRSYM    DATA     BYTE      TCON
      00000098H   SFRSYM    DATA     BYTE      SCON
      000000F1H   SFRSYM    DATA     BYTE      CANICR
      00000087H   SFRSYM    DATA     BYTE      PCON
      000000BCH   SFRSYM    DATA     BYTE      ADC_CONTR
      000000E7H   SFRSYM    DATA     BYTE      CMPCR2
      000000E6H   SFRSYM    DATA     BYTE      CMPCR1
      000000B8H   SFRSYM    DATA     BYTE      IP
      0000008FH   SFRSYM    DATA     BYTE      INTCLKO
      000000EEH   SFRSYM    DATA     BYTE      IP3H
L251 LINKER/LOCATER V4.66.93.0                                                        03/26/2023  21:30:35  PAGE 30


      000000B6H   SFRSYM    DATA     BYTE      IP2H
      000000A8H   SFRSYM    DATA     BYTE      IE
      000000BBH   SFRSYM    DATA     BYTE      P_SW3
      000000BAH   SFRSYM    DATA     BYTE      P_SW2
      000000A2H   SFRSYM    DATA     BYTE      P_SW1
      000000CEH   SFRSYM    DATA     BYTE      SPCTL
      000000F8H   SFRSYM    DATA     BYTE      P7
      000000E1H   SFRSYM    DATA     BYTE      P7M1
      000000E8H   SFRSYM    DATA     BYTE      P6
      000000C8H   SFRSYM    DATA     BYTE      P5
      000000CBH   SFRSYM    DATA     BYTE      P6M1
      000000E2H   SFRSYM    DATA     BYTE      P7M0
      000000C0H   SFRSYM    DATA     BYTE      P4
      000000C9H   SFRSYM    DATA     BYTE      P5M1
      000000CCH   SFRSYM    DATA     BYTE      P6M0
      000000B0H   SFRSYM    DATA     BYTE      P3
      000000B3H   SFRSYM    DATA     BYTE      P4M1
      000000CAH   SFRSYM    DATA     BYTE      P5M0
      000000A0H   SFRSYM    DATA     BYTE      P2
      000000B1H   SFRSYM    DATA     BYTE      P3M1
      000000B4H   SFRSYM    DATA     BYTE      P4M0
      00000090H   SFRSYM    DATA     BYTE      P1
      00000095H   SFRSYM    DATA     BYTE      P2M1
      000000B2H   SFRSYM    DATA     BYTE      P3M0
      00000080H   SFRSYM    DATA     BYTE      P0
      00000091H   SFRSYM    DATA     BYTE      P1M1
      00000096H   SFRSYM    DATA     BYTE      P2M0
      00000092H   SFRSYM    DATA     BYTE      P1M0
      00000093H   SFRSYM    DATA     BYTE      P0M1
      WR4         REGSYM    ---      INT       pin
      WR2         REGSYM    ---      INT       pull

      00FF39CBH   BLOCK     CODE     ---       LVL=0
      WR4         REGSYM    ---      INT       pin
      WR2         REGSYM    ---      INT       mode
      00FF39CBH   LINE      CODE     ---       #54
      00FF39CFH   LINE      CODE     ---       #56
      00FF39D6H   LINE      CODE     ---       #58
      00FF39DEH   LINE      CODE     ---       #60
      00FF39F6H   LINE      CODE     ---       #61
      00FF39F8H   LINE      CODE     ---       #62
      00FF39F8H   LINE      CODE     ---       #63
      00FF39FEH   LINE      CODE     ---       #65
      00FF3A16H   LINE      CODE     ---       #66
      00FF3A18H   LINE      CODE     ---       #67
      00FF3A18H   LINE      CODE     ---       #68
      00FF3A1EH   LINE      CODE     ---       #70
      00FF3A36H   LINE      CODE     ---       #71
      00FF3A38H   LINE      CODE     ---       #72
      00FF3A38H   LINE      CODE     ---       #74
      00FF3A3EH   LINE      CODE     ---       #76
      00FF3A56H   LINE      CODE     ---       #77
      00FF3A58H   LINE      CODE     ---       #78
      00FF3A58H   LINE      CODE     ---       #79
      00FF3A5EH   LINE      CODE     ---       #81
      00FF3A76H   LINE      CODE     ---       #82
      00FF3A78H   LINE      CODE     ---       #83
      00FF3A78H   LINE      CODE     ---       #84
      00FF3A7EH   LINE      CODE     ---       #86
      00FF3A96H   LINE      CODE     ---       #87
      00FF3A98H   LINE      CODE     ---       #88
      00FF3A98H   LINE      CODE     ---       #89
      00FF3A9EH   LINE      CODE     ---       #91
      00FF3AB6H   LINE      CODE     ---       #92
      00FF3AB8H   LINE      CODE     ---       #93
L251 LINKER/LOCATER V4.66.93.0                                                        03/26/2023  21:30:35  PAGE 31


      00FF3AB8H   LINE      CODE     ---       #94
      00FF3AC1H   LINE      CODE     ---       #96
      00FF3AD9H   LINE      CODE     ---       #97
      00FF3ADBH   LINE      CODE     ---       #98
      00FF3ADCH   LINE      CODE     ---       #100
      00FF3AE5H   LINE      CODE     ---       #102
      00FF3AEDH   LINE      CODE     ---       #104
      00FF3B02H   LINE      CODE     ---       #105
      00FF3B06H   LINE      CODE     ---       #106
      00FF3B06H   LINE      CODE     ---       #107
      00FF3B0CH   LINE      CODE     ---       #109
      00FF3B21H   LINE      CODE     ---       #110
      00FF3B25H   LINE      CODE     ---       #111
      00FF3B25H   LINE      CODE     ---       #112
      00FF3B2BH   LINE      CODE     ---       #114
      00FF3B40H   LINE      CODE     ---       #115
      00FF3B44H   LINE      CODE     ---       #116
      00FF3B44H   LINE      CODE     ---       #118
      00FF3B4AH   LINE      CODE     ---       #120
      00FF3B5FH   LINE      CODE     ---       #121
      00FF3B63H   LINE      CODE     ---       #122
      00FF3B63H   LINE      CODE     ---       #123
      00FF3B69H   LINE      CODE     ---       #125
      00FF3B7EH   LINE      CODE     ---       #126
      00FF3B82H   LINE      CODE     ---       #127
      00FF3B82H   LINE      CODE     ---       #128
      00FF3B88H   LINE      CODE     ---       #130
      00FF3B9DH   LINE      CODE     ---       #131
      00FF3BA1H   LINE      CODE     ---       #132
      00FF3BA1H   LINE      CODE     ---       #133
      00FF3BA7H   LINE      CODE     ---       #135
      00FF3BBCH   LINE      CODE     ---       #136
      00FF3BC0H   LINE      CODE     ---       #137
      00FF3BC0H   LINE      CODE     ---       #138
      00FF3BC9H   LINE      CODE     ---       #140
      00FF3BE0H   LINE      CODE     ---       #141
      00FF3BE0H   LINE      CODE     ---       #142
      00FF3BE3H   LINE      CODE     ---       #145
      00FF3BECH   LINE      CODE     ---       #147
      00FF3BF4H   LINE      CODE     ---       #149
      00FF3C07H   LINE      CODE     ---       #150
      00FF3C0BH   LINE      CODE     ---       #151
      00FF3C0BH   LINE      CODE     ---       #152
      00FF3C11H   LINE      CODE     ---       #154
      00FF3C24H   LINE      CODE     ---       #155
      00FF3C28H   LINE      CODE     ---       #156
      00FF3C28H   LINE      CODE     ---       #157
      00FF3C2EH   LINE      CODE     ---       #159
      00FF3C41H   LINE      CODE     ---       #160
      00FF3C45H   LINE      CODE     ---       #161
      00FF3C45H   LINE      CODE     ---       #163
      00FF3C4BH   LINE      CODE     ---       #165
      00FF3C5EH   LINE      CODE     ---       #166
      00FF3C62H   LINE      CODE     ---       #167
      00FF3C62H   LINE      CODE     ---       #168
      00FF3C68H   LINE      CODE     ---       #170
      00FF3C7BH   LINE      CODE     ---       #171
      00FF3C7FH   LINE      CODE     ---       #172
      00FF3C7FH   LINE      CODE     ---       #173
      00FF3C85H   LINE      CODE     ---       #175
      00FF3C98H   LINE      CODE     ---       #176
      00FF3C9CH   LINE      CODE     ---       #177
      00FF3C9CH   LINE      CODE     ---       #178
      00FF3CA2H   LINE      CODE     ---       #180
      00FF3CB5H   LINE      CODE     ---       #181
L251 LINKER/LOCATER V4.66.93.0                                                        03/26/2023  21:30:35  PAGE 32


      00FF3CB9H   LINE      CODE     ---       #182
      00FF3CB9H   LINE      CODE     ---       #183
      00FF3CC2H   LINE      CODE     ---       #185
      00FF3CD5H   LINE      CODE     ---       #186
      00FF3CD9H   LINE      CODE     ---       #187
      00FF3CDAH   LINE      CODE     ---       #189
      00FF3CE3H   LINE      CODE     ---       #191
      00FF3CEBH   LINE      CODE     ---       #193
      00FF3CFEH   LINE      CODE     ---       #194
      00FF3D00H   LINE      CODE     ---       #195
      00FF3D00H   LINE      CODE     ---       #196
      00FF3D06H   LINE      CODE     ---       #198
      00FF3D19H   LINE      CODE     ---       #199
      00FF3D1BH   LINE      CODE     ---       #200
      00FF3D1BH   LINE      CODE     ---       #201
      00FF3D21H   LINE      CODE     ---       #203
      00FF3D34H   LINE      CODE     ---       #204
      00FF3D36H   LINE      CODE     ---       #205
      00FF3D36H   LINE      CODE     ---       #207
      00FF3D3CH   LINE      CODE     ---       #209
      00FF3D4FH   LINE      CODE     ---       #210
      00FF3D51H   LINE      CODE     ---       #211
      00FF3D51H   LINE      CODE     ---       #212
      00FF3D57H   LINE      CODE     ---       #214
      00FF3D6AH   LINE      CODE     ---       #215
      00FF3D6CH   LINE      CODE     ---       #216
      00FF3D6CH   LINE      CODE     ---       #217
      00FF3D72H   LINE      CODE     ---       #219
      00FF3D85H   LINE      CODE     ---       #220
      00FF3D87H   LINE      CODE     ---       #221
      00FF3D87H   LINE      CODE     ---       #222
      00FF3D8DH   LINE      CODE     ---       #224
      00FF3DA0H   LINE      CODE     ---       #225
      00FF3DA2H   LINE      CODE     ---       #226
      00FF3DA2H   LINE      CODE     ---       #227
      00FF3DA8H   LINE      CODE     ---       #229
      00FF3DBDH   LINE      CODE     ---       #230
      00FF3DC1H   LINE      CODE     ---       #231
      00FF3DC1H   LINE      CODE     ---       #233
      ---         BLOCKEND  ---      ---       LVL=0

      ---         MODULE    ---      ---       zf_iic
      00FF54FCH   PUBLIC    CODE     ---       wait
      00FF5C41H   PUBLIC    CODE     ---       iic_delay_us
      000000D0H   SFRSYM    DATA     BYTE      PSW
      0000009DH   SFRSYM    DATA     BYTE      IRCBAND
      00000097H   SFRSYM    DATA     BYTE      AUXR2
      000000EFH   SFRSYM    DATA     BYTE      AUXINTIF
      000000FDH   SFRSYM    DATA     BYTE      S4CON
      000000ACH   SFRSYM    DATA     BYTE      S3CON
      0000009AH   SFRSYM    DATA     BYTE      S2CON
      000000B7H   SFRSYM    DATA     BYTE      IPH
      000000CDH   SFRSYM    DATA     BYTE      SPSTAT
      000000DDH   SFRSYM    DATA     BYTE      T4T3M
      000000C1H   SFRSYM    DATA     BYTE      WDT_CONTR
      000000DFH   SFRSYM    DATA     BYTE      IP3
      000000F4H   SFRSYM    DATA     BYTE      USBCON
      000000B5H   SFRSYM    DATA     BYTE      IP2
      000000FFH   SFRSYM    DATA     BYTE      RSTCFG
      000000F9H   SFRSYM    DATA     BYTE      LINICR
      0000008EH   SFRSYM    DATA     BYTE      AUXR
      000000AFH   SFRSYM    DATA     BYTE      IE2
      00000088H   SFRSYM    DATA     BYTE      TCON
      00000098H   SFRSYM    DATA     BYTE      SCON
      000000F1H   SFRSYM    DATA     BYTE      CANICR
L251 LINKER/LOCATER V4.66.93.0                                                        03/26/2023  21:30:35  PAGE 33


      00000087H   SFRSYM    DATA     BYTE      PCON
      000000BCH   SFRSYM    DATA     BYTE      ADC_CONTR
      000000E7H   SFRSYM    DATA     BYTE      CMPCR2
      000000E6H   SFRSYM    DATA     BYTE      CMPCR1
      000000B8H   SFRSYM    DATA     BYTE      IP
      0000008FH   SFRSYM    DATA     BYTE      INTCLKO
      000000EEH   SFRSYM    DATA     BYTE      IP3H
      000000B6H   SFRSYM    DATA     BYTE      IP2H
      000000A8H   SFRSYM    DATA     BYTE      IE
      000000BBH   SFRSYM    DATA     BYTE      P_SW3
      000000BAH   SFRSYM    DATA     BYTE      P_SW2
      000000A2H   SFRSYM    DATA     BYTE      P_SW1
      000000CEH   SFRSYM    DATA     BYTE      SPCTL
      000000F8H   SFRSYM    DATA     BYTE      P7
      000000E8H   SFRSYM    DATA     BYTE      P6
      000000C8H   SFRSYM    DATA     BYTE      P5
      000000C0H   SFRSYM    DATA     BYTE      P4
      000000B0H   SFRSYM    DATA     BYTE      P3
      000000A0H   SFRSYM    DATA     BYTE      P2
      00000090H   SFRSYM    DATA     BYTE      P1
      00000080H   SFRSYM    DATA     BYTE      P0

      00FF5C41H   BLOCK     CODE     ---       LVL=0
      WR6         REGSYM    ---      WORD      x
      R10         REGSYM    ---      BYTE      i
      00FF5C41H   LINE      CODE     ---       #30
      00FF5C41H   LINE      CODE     ---       #31
      00FF5C41H   LINE      CODE     ---       #33
      00FF5C43H   LINE      CODE     ---       #35
      00FF5C46H   LINE      CODE     ---       #36
      00FF5C4DH   LINE      CODE     ---       #37
      00FF5C55H   LINE      CODE     ---       #38
      ---         BLOCKEND  ---      ---       LVL=0

      00FF54FCH   BLOCK     CODE     ---       LVL=0
      00FF5500H   BLOCK     CODE     NEAR LAB  LVL=1
      WR12        REGSYM    ---      WORD      count
      R15         REGSYM    ---      BYTE      ret
      ---         BLOCKEND  ---      ---       LVL=1
      00FF54FCH   LINE      CODE     ---       #47
      00FF5500H   LINE      CODE     ---       #48
      00FF5500H   LINE      CODE     ---       #49
      00FF5502H   LINE      CODE     ---       #50
      00FF5504H   LINE      CODE     ---       #51
      00FF5506H   LINE      CODE     ---       #53
      00FF550DH   LINE      CODE     ---       #54
      00FF5517H   LINE      CODE     ---       #56
      00FF551AH   LINE      CODE     ---       #57
      00FF551CH   LINE      CODE     ---       #58
      00FF552AH   LINE      CODE     ---       #60
      00FF553AH   LINE      CODE     ---       #61
      00FF553CH   LINE      CODE     ---       #62
      ---         BLOCKEND  ---      ---       LVL=0
      R11         REGSYM    ---      BYTE      ret
      R11         REGSYM    ---      CHAR      dat
      R11         REGSYM    ---      BYTE      ret
      R11         REGSYM    ---      BYTE      ret
      R11         REGSYM    ---      BYTE      ret
      R11         REGSYM    ---      BYTE      ret
      WR6         REGSYM    ---      INT       iic_n
      R13         REGSYM    ---      BYTE      dev_add
      R14         REGSYM    ---      BYTE      reg
      R15         REGSYM    ---      BYTE      dat
      R15         REGSYM    ---      BYTE      dev_add
      R14         REGSYM    ---      BYTE      reg
L251 LINKER/LOCATER V4.66.93.0                                                        03/26/2023  21:30:35  PAGE 34


      REG=3       REGSYM    ---      ---       dat
      WR6         REGSYM    ---      INT       iic_n

      ---         MODULE    ---      ---       zf_nvic
      000000D0H   SFRSYM    DATA     BYTE      PSW
      0000009DH   SFRSYM    DATA     BYTE      IRCBAND
      00000097H   SFRSYM    DATA     BYTE      AUXR2
      000000EFH   SFRSYM    DATA     BYTE      AUXINTIF
      000000FDH   SFRSYM    DATA     BYTE      S4CON
      000000ACH   SFRSYM    DATA     BYTE      S3CON
      0000009AH   SFRSYM    DATA     BYTE      S2CON
      000000B7H   SFRSYM    DATA     BYTE      IPH
      000000CDH   SFRSYM    DATA     BYTE      SPSTAT
      000000DDH   SFRSYM    DATA     BYTE      T4T3M
      000000C1H   SFRSYM    DATA     BYTE      WDT_CONTR
      000000DFH   SFRSYM    DATA     BYTE      IP3
      000000F4H   SFRSYM    DATA     BYTE      USBCON
      000000B5H   SFRSYM    DATA     BYTE      IP2
      000000FFH   SFRSYM    DATA     BYTE      RSTCFG
      000000F9H   SFRSYM    DATA     BYTE      LINICR
      0000008EH   SFRSYM    DATA     BYTE      AUXR
      000000AFH   SFRSYM    DATA     BYTE      IE2
      00000088H   SFRSYM    DATA     BYTE      TCON
      00000098H   SFRSYM    DATA     BYTE      SCON
      000000F1H   SFRSYM    DATA     BYTE      CANICR
      00000087H   SFRSYM    DATA     BYTE      PCON
      000000BCH   SFRSYM    DATA     BYTE      ADC_CONTR
      000000E7H   SFRSYM    DATA     BYTE      CMPCR2
      000000E6H   SFRSYM    DATA     BYTE      CMPCR1
      000000B8H   SFRSYM    DATA     BYTE      IP
      0000008FH   SFRSYM    DATA     BYTE      INTCLKO
      000000EEH   SFRSYM    DATA     BYTE      IP3H
      000000B6H   SFRSYM    DATA     BYTE      IP2H
      000000A8H   SFRSYM    DATA     BYTE      IE
      000000BBH   SFRSYM    DATA     BYTE      P_SW3
      000000BAH   SFRSYM    DATA     BYTE      P_SW2
      000000A2H   SFRSYM    DATA     BYTE      P_SW1
      000000CEH   SFRSYM    DATA     BYTE      SPCTL
      000000F8H   SFRSYM    DATA     BYTE      P7
      000000E8H   SFRSYM    DATA     BYTE      P6
      000000C8H   SFRSYM    DATA     BYTE      P5
      000000C0H   SFRSYM    DATA     BYTE      P4
      000000B0H   SFRSYM    DATA     BYTE      P3
      000000A0H   SFRSYM    DATA     BYTE      P2
      00000090H   SFRSYM    DATA     BYTE      P1
      00000080H   SFRSYM    DATA     BYTE      P0
      WR4         REGSYM    ---      INT       irqn
      R3          REGSYM    ---      BYTE      priority

      ---         MODULE    ---      ---       zf_pwm
      00FF4A32H   PUBLIC    CODE     ---       pwm_duty
      00FF40BEH   PUBLIC    CODE     ---       pwm_set_gpio
      00FF3DC2H   PUBLIC    CODE     ---       pwm_init
      00FF6A3EH   PUBLIC    HCONST   ---       PWM_CCR_ADDR
      00FF6A5EH   PUBLIC    HCONST   ---       PWM_ARR_ADDR
      00FF6A66H   PUBLIC    HCONST   ---       PWM_CCER_ADDR
      00FF6A76H   PUBLIC    HCONST   ---       PWM_CCMR_ADDR
      00000740H   PUBLIC    EDATA    BYTE      ?pwm_init?BYTE
      000000D0H   SFRSYM    DATA     BYTE      PSW
      0000009DH   SFRSYM    DATA     BYTE      IRCBAND
      00000097H   SFRSYM    DATA     BYTE      AUXR2
      000000EFH   SFRSYM    DATA     BYTE      AUXINTIF
      000000FDH   SFRSYM    DATA     BYTE      S4CON
      000000ACH   SFRSYM    DATA     BYTE      S3CON
      0000009AH   SFRSYM    DATA     BYTE      S2CON
L251 LINKER/LOCATER V4.66.93.0                                                        03/26/2023  21:30:35  PAGE 35


      000000B7H   SFRSYM    DATA     BYTE      IPH
      000000CDH   SFRSYM    DATA     BYTE      SPSTAT
      000000DDH   SFRSYM    DATA     BYTE      T4T3M
      000000C1H   SFRSYM    DATA     BYTE      WDT_CONTR
      000000DFH   SFRSYM    DATA     BYTE      IP3
      000000F4H   SFRSYM    DATA     BYTE      USBCON
      000000B5H   SFRSYM    DATA     BYTE      IP2
      000000FFH   SFRSYM    DATA     BYTE      RSTCFG
      000000F9H   SFRSYM    DATA     BYTE      LINICR
      0000008EH   SFRSYM    DATA     BYTE      AUXR
      000000AFH   SFRSYM    DATA     BYTE      IE2
      00000088H   SFRSYM    DATA     BYTE      TCON
      00000098H   SFRSYM    DATA     BYTE      SCON
      000000F1H   SFRSYM    DATA     BYTE      CANICR
      00000087H   SFRSYM    DATA     BYTE      PCON
      000000BCH   SFRSYM    DATA     BYTE      ADC_CONTR
      000000E7H   SFRSYM    DATA     BYTE      CMPCR2
      000000E6H   SFRSYM    DATA     BYTE      CMPCR1
      000000B8H   SFRSYM    DATA     BYTE      IP
      0000008FH   SFRSYM    DATA     BYTE      INTCLKO
      000000EEH   SFRSYM    DATA     BYTE      IP3H
      000000B6H   SFRSYM    DATA     BYTE      IP2H
      000000A8H   SFRSYM    DATA     BYTE      IE
      000000BBH   SFRSYM    DATA     BYTE      P_SW3
      000000BAH   SFRSYM    DATA     BYTE      P_SW2
      000000A2H   SFRSYM    DATA     BYTE      P_SW1
      000000CEH   SFRSYM    DATA     BYTE      SPCTL
      000000F8H   SFRSYM    DATA     BYTE      P7
      000000E8H   SFRSYM    DATA     BYTE      P6
      000000C8H   SFRSYM    DATA     BYTE      P5
      000000C0H   SFRSYM    DATA     BYTE      P4
      000000B0H   SFRSYM    DATA     BYTE      P3
      000000A0H   SFRSYM    DATA     BYTE      P2
      00000090H   SFRSYM    DATA     BYTE      P1
      00000080H   SFRSYM    DATA     BYTE      P0

      00FF40BEH   BLOCK     CODE     ---       LVL=0
      WR6         REGSYM    ---      INT       pwmch
      00FF40BEH   LINE      CODE     ---       #49
      00FF40BEH   LINE      CODE     ---       #51
      00FF4231H   LINE      CODE     ---       #53
      00FF4231H   LINE      CODE     ---       #55
      00FF4235H   LINE      CODE     ---       #56
      00FF4238H   LINE      CODE     ---       #58
      00FF4238H   LINE      CODE     ---       #60
      00FF423CH   LINE      CODE     ---       #61
      00FF423FH   LINE      CODE     ---       #63
      00FF423FH   LINE      CODE     ---       #65
      00FF4243H   LINE      CODE     ---       #66
      00FF4246H   LINE      CODE     ---       #68
      00FF4246H   LINE      CODE     ---       #70
      00FF424AH   LINE      CODE     ---       #71
      00FF424DH   LINE      CODE     ---       #73
      00FF424DH   LINE      CODE     ---       #75
      00FF4251H   LINE      CODE     ---       #76
      00FF4254H   LINE      CODE     ---       #78
      00FF4254H   LINE      CODE     ---       #80
      00FF4258H   LINE      CODE     ---       #81
      00FF425BH   LINE      CODE     ---       #84
      00FF425BH   LINE      CODE     ---       #86
      00FF425FH   LINE      CODE     ---       #87
      00FF4262H   LINE      CODE     ---       #89
      00FF4262H   LINE      CODE     ---       #91
      00FF4266H   LINE      CODE     ---       #92
      00FF4269H   LINE      CODE     ---       #94
L251 LINKER/LOCATER V4.66.93.0                                                        03/26/2023  21:30:35  PAGE 36


      00FF4269H   LINE      CODE     ---       #96
      00FF426DH   LINE      CODE     ---       #97
      00FF4270H   LINE      CODE     ---       #99
      00FF4270H   LINE      CODE     ---       #101
      00FF4274H   LINE      CODE     ---       #102
      00FF4277H   LINE      CODE     ---       #104
      00FF4277H   LINE      CODE     ---       #106
      00FF427BH   LINE      CODE     ---       #107
      00FF427EH   LINE      CODE     ---       #109
      00FF427EH   LINE      CODE     ---       #111
      00FF4282H   LINE      CODE     ---       #112
      00FF4285H   LINE      CODE     ---       #115
      00FF4285H   LINE      CODE     ---       #117
      00FF4289H   LINE      CODE     ---       #118
      00FF428BH   LINE      CODE     ---       #120
      00FF428BH   LINE      CODE     ---       #122
      00FF428FH   LINE      CODE     ---       #123
      00FF4291H   LINE      CODE     ---       #125
      00FF4291H   LINE      CODE     ---       #127
      00FF4295H   LINE      CODE     ---       #128
      00FF4297H   LINE      CODE     ---       #130
      00FF4297H   LINE      CODE     ---       #132
      00FF429BH   LINE      CODE     ---       #133
      00FF429DH   LINE      CODE     ---       #135
      00FF429DH   LINE      CODE     ---       #137
      00FF42A1H   LINE      CODE     ---       #138
      00FF42A3H   LINE      CODE     ---       #140
      00FF42A3H   LINE      CODE     ---       #142
      00FF42A7H   LINE      CODE     ---       #143
      00FF42A9H   LINE      CODE     ---       #147
      00FF42A9H   LINE      CODE     ---       #149
      00FF42ADH   LINE      CODE     ---       #150
      00FF42AFH   LINE      CODE     ---       #152
      00FF42AFH   LINE      CODE     ---       #154
      00FF42B3H   LINE      CODE     ---       #155
      00FF42B5H   LINE      CODE     ---       #157
      00FF42B5H   LINE      CODE     ---       #159
      00FF42B9H   LINE      CODE     ---       #160
      00FF42BBH   LINE      CODE     ---       #162
      00FF42BBH   LINE      CODE     ---       #164
      00FF42BFH   LINE      CODE     ---       #165
      00FF42C1H   LINE      CODE     ---       #167
      00FF42C1H   LINE      CODE     ---       #169
      00FF42C5H   LINE      CODE     ---       #170
      00FF42C7H   LINE      CODE     ---       #172
      00FF42C7H   LINE      CODE     ---       #174
      00FF42CBH   LINE      CODE     ---       #175
      00FF42CDH   LINE      CODE     ---       #177
      00FF42CDH   LINE      CODE     ---       #179
      00FF42D1H   LINE      CODE     ---       #180
      00FF42D3H   LINE      CODE     ---       #182
      00FF42D3H   LINE      CODE     ---       #184
      00FF42D7H   LINE      CODE     ---       #185
      00FF42D9H   LINE      CODE     ---       #189
      00FF42D9H   LINE      CODE     ---       #191
      00FF42DDH   LINE      CODE     ---       #192
      00FF42DFH   LINE      CODE     ---       #194
      00FF42DFH   LINE      CODE     ---       #196
      00FF42E3H   LINE      CODE     ---       #197
      00FF42E5H   LINE      CODE     ---       #199
      00FF42E5H   LINE      CODE     ---       #201
      00FF42E7H   LINE      CODE     ---       #202
      00FF42E9H   LINE      CODE     ---       #204
      00FF42E9H   LINE      CODE     ---       #206
      00FF42EDH   LINE      CODE     ---       #207
L251 LINKER/LOCATER V4.66.93.0                                                        03/26/2023  21:30:35  PAGE 37


      00FF42EFH   LINE      CODE     ---       #210
      00FF42EFH   LINE      CODE     ---       #212
      00FF42F3H   LINE      CODE     ---       #213
      00FF42F5H   LINE      CODE     ---       #215
      00FF42F5H   LINE      CODE     ---       #217
      00FF42F9H   LINE      CODE     ---       #218
      00FF42FBH   LINE      CODE     ---       #220
      00FF42FBH   LINE      CODE     ---       #222
      00FF4301H   LINE      CODE     ---       #223
      00FF4303H   LINE      CODE     ---       #225
      00FF4303H   LINE      CODE     ---       #227
      00FF430BH   LINE      CODE     ---       #228
      00FF430DH   LINE      CODE     ---       #232
      00FF430DH   LINE      CODE     ---       #234
      00FF4315H   LINE      CODE     ---       #235
      00FF4317H   LINE      CODE     ---       #237
      00FF4317H   LINE      CODE     ---       #239
      00FF431FH   LINE      CODE     ---       #240
      00FF4321H   LINE      CODE     ---       #242
      00FF4321H   LINE      CODE     ---       #244
      00FF4329H   LINE      CODE     ---       #245
      00FF432BH   LINE      CODE     ---       #247
      00FF432BH   LINE      CODE     ---       #249
      00FF4333H   LINE      CODE     ---       #250
      00FF4335H   LINE      CODE     ---       #254
      00FF4335H   LINE      CODE     ---       #256
      00FF433DH   LINE      CODE     ---       #257
      00FF433FH   LINE      CODE     ---       #259
      00FF433FH   LINE      CODE     ---       #261
      00FF4347H   LINE      CODE     ---       #262
      00FF4349H   LINE      CODE     ---       #264
      00FF4349H   LINE      CODE     ---       #266
      00FF4351H   LINE      CODE     ---       #267
      00FF4353H   LINE      CODE     ---       #269
      00FF4353H   LINE      CODE     ---       #271
      00FF435EH   LINE      CODE     ---       #272
      00FF435EH   LINE      CODE     ---       #275
      00FF435EH   LINE      CODE     ---       #277
      ---         BLOCKEND  ---      ---       LVL=0

      00FF3DC2H   BLOCK     CODE     ---       LVL=0
      WR14        REGSYM    ---      INT       pwmch
      00000742H   SYMBOL    EDATA    DWORD     freq
      00000746H   SYMBOL    EDATA    DWORD     duty
      00FF3DCAH   BLOCK     CODE     NEAR LAB  LVL=1
      0000074AH   SYMBOL    EDATA    DWORD     match_temp
      DR28        REGSYM    ---      DWORD     period_temp
      WR26        REGSYM    ---      WORD      freq_div
      ---         BLOCKEND  ---      ---       LVL=1
      00FF3DC2H   LINE      CODE     ---       #290
      00FF3DCAH   LINE      CODE     ---       #291
      00FF3DCAH   LINE      CODE     ---       #295
      00FF3DCAH   LINE      CODE     ---       #298
      00FF3DCDH   LINE      CODE     ---       #301
      00FF3DD0H   LINE      CODE     ---       #305
      00FF3DE1H   LINE      CODE     ---       #306
      00FF3DE1H   LINE      CODE     ---       #307
      00FF3DEAH   LINE      CODE     ---       #309
      00FF3DF4H   LINE      CODE     ---       #311
      00FF3E11H   LINE      CODE     ---       #312
      00FF3E13H   LINE      CODE     ---       #315
      00FF3E1BH   LINE      CODE     ---       #316
      00FF3E1BH   LINE      CODE     ---       #319
      00FF3E24H   LINE      CODE     ---       #322
      00FF3E4FH   LINE      CODE     ---       #323
L251 LINKER/LOCATER V4.66.93.0                                                        03/26/2023  21:30:35  PAGE 38


      00FF3E70H   LINE      CODE     ---       #326
      00FF3EBCH   LINE      CODE     ---       #329
      00FF3ECBH   LINE      CODE     ---       #330
      00FF3ED6H   LINE      CODE     ---       #332
      00FF3EDFH   LINE      CODE     ---       #333
      00FF3EE5H   LINE      CODE     ---       #334
      00FF3EE8H   LINE      CODE     ---       #337
      00FF3F20H   LINE      CODE     ---       #338
      00FF3F43H   LINE      CODE     ---       #341
      00FF3F95H   LINE      CODE     ---       #345
      00FF3FA4H   LINE      CODE     ---       #346
      00FF3FAFH   LINE      CODE     ---       #348
      00FF3FB8H   LINE      CODE     ---       #349
      00FF3FC5H   LINE      CODE     ---       #350
      00FF3FC5H   LINE      CODE     ---       #353
      00FF3FF1H   LINE      CODE     ---       #354
      00FF401FH   LINE      CODE     ---       #357
      00FF404BH   LINE      CODE     ---       #358
      00FF4079H   LINE      CODE     ---       #361
      00FF4090H   LINE      CODE     ---       #362
      00FF40BBH   LINE      CODE     ---       #367
      ---         BLOCKEND  ---      ---       LVL=0

      00FF4A32H   BLOCK     CODE     ---       LVL=0
      WR30        REGSYM    ---      INT       pwmch
      DR24        REGSYM    ---      DWORD     duty
      00FF4A36H   BLOCK     CODE     NEAR LAB  LVL=1
      DR20        REGSYM    ---      DWORD     match_temp
      DR16        REGSYM    ---      DWORD     arr
      ---         BLOCKEND  ---      ---       LVL=1
      00FF4A32H   LINE      CODE     ---       #377
      00FF4A36H   LINE      CODE     ---       #378
      00FF4A36H   LINE      CODE     ---       #380
      00FF4A7AH   LINE      CODE     ---       #384
      00FF4A80H   LINE      CODE     ---       #386
      00FF4AA1H   LINE      CODE     ---       #387
      00FF4AA3H   LINE      CODE     ---       #390
      00FF4AA7H   LINE      CODE     ---       #391
      00FF4AA7H   LINE      CODE     ---       #396
      00FF4ACFH   LINE      CODE     ---       #397
      00FF4AF9H   LINE      CODE     ---       #401
      ---         BLOCKEND  ---      ---       LVL=0
      WR30        REGSYM    ---      INT       pwmch
      DR24        REGSYM    ---      DWORD     freq
      DR20        REGSYM    ---      DWORD     match_temp
      DR24        REGSYM    ---      DWORD     period_temp
      WR28        REGSYM    ---      WORD      freq_div

      ---         MODULE    ---      ---       zf_spi
      00FF5CFDH   PUBLIC    CODE     ---       spi_mosi
      000000CFH   SFRSYM    DATA     BYTE      SPDAT
      000000D0H   SFRSYM    DATA     BYTE      PSW
      0000009DH   SFRSYM    DATA     BYTE      IRCBAND
      00000097H   SFRSYM    DATA     BYTE      AUXR2
      000000EFH   SFRSYM    DATA     BYTE      AUXINTIF
      000000FDH   SFRSYM    DATA     BYTE      S4CON
      000000ACH   SFRSYM    DATA     BYTE      S3CON
      0000009AH   SFRSYM    DATA     BYTE      S2CON
      000000B7H   SFRSYM    DATA     BYTE      IPH
      000000CDH   SFRSYM    DATA     BYTE      SPSTAT
      000000DDH   SFRSYM    DATA     BYTE      T4T3M
      000000C1H   SFRSYM    DATA     BYTE      WDT_CONTR
      000000DFH   SFRSYM    DATA     BYTE      IP3
      000000F4H   SFRSYM    DATA     BYTE      USBCON
      000000B5H   SFRSYM    DATA     BYTE      IP2
L251 LINKER/LOCATER V4.66.93.0                                                        03/26/2023  21:30:35  PAGE 39


      000000FFH   SFRSYM    DATA     BYTE      RSTCFG
      000000F9H   SFRSYM    DATA     BYTE      LINICR
      0000008EH   SFRSYM    DATA     BYTE      AUXR
      000000AFH   SFRSYM    DATA     BYTE      IE2
      00000088H   SFRSYM    DATA     BYTE      TCON
      00000098H   SFRSYM    DATA     BYTE      SCON
      000000F1H   SFRSYM    DATA     BYTE      CANICR
      00000087H   SFRSYM    DATA     BYTE      PCON
      000000BCH   SFRSYM    DATA     BYTE      ADC_CONTR
      000000E7H   SFRSYM    DATA     BYTE      CMPCR2
      000000E6H   SFRSYM    DATA     BYTE      CMPCR1
      000000B8H   SFRSYM    DATA     BYTE      IP
      0000008FH   SFRSYM    DATA     BYTE      INTCLKO
      000000EEH   SFRSYM    DATA     BYTE      IP3H
      000000B6H   SFRSYM    DATA     BYTE      IP2H
      000000A8H   SFRSYM    DATA     BYTE      IE
      000000BBH   SFRSYM    DATA     BYTE      P_SW3
      000000BAH   SFRSYM    DATA     BYTE      P_SW2
      000000A2H   SFRSYM    DATA     BYTE      P_SW1
      000000CEH   SFRSYM    DATA     BYTE      SPCTL
      000000F8H   SFRSYM    DATA     BYTE      P7
      000000E8H   SFRSYM    DATA     BYTE      P6
      000000C8H   SFRSYM    DATA     BYTE      P5
      000000C0H   SFRSYM    DATA     BYTE      P4
      000000B0H   SFRSYM    DATA     BYTE      P3
      000000A0H   SFRSYM    DATA     BYTE      P2
      00000090H   SFRSYM    DATA     BYTE      P1
      00000080H   SFRSYM    DATA     BYTE      P0
      WR14        REGSYM    ---      INT       spi_n
      R13         REGSYM    ---      BYTE      mode

      00FF5CFDH   BLOCK     CODE     ---       LVL=0
      R11         REGSYM    ---      BYTE      dat
      00FF5CFDH   LINE      CODE     ---       #129
      00FF5CFDH   LINE      CODE     ---       #131
      00FF5D00H   LINE      CODE     ---       #132
      00FF5D05H   LINE      CODE     ---       #133
      00FF5D08H   LINE      CODE     ---       #134
      00FF5D0AH   LINE      CODE     ---       #135
      ---         BLOCKEND  ---      ---       LVL=0
      WR14        REGSYM    ---      INT       spi_n
      R7          REGSYM    ---      BYTE      mode

      ---         MODULE    ---      ---       zf_tim
      00FF52F2H   PUBLIC    CODE     ---       ctimer_count_read
      00FF4D92H   PUBLIC    CODE     ---       pit_timer_ms
      00FF53D9H   PUBLIC    CODE     ---       ctimer_count_init
      00FF5251H   PUBLIC    CODE     ---       ctimer_count_clean
      000000D0H   SFRSYM    DATA     BYTE      PSW
      0000009DH   SFRSYM    DATA     BYTE      IRCBAND
      00000097H   SFRSYM    DATA     BYTE      AUXR2
      000000EFH   SFRSYM    DATA     BYTE      AUXINTIF
      000000FDH   SFRSYM    DATA     BYTE      S4CON
      000000ACH   SFRSYM    DATA     BYTE      S3CON
      0000009AH   SFRSYM    DATA     BYTE      S2CON
      000000B7H   SFRSYM    DATA     BYTE      IPH
      000000CDH   SFRSYM    DATA     BYTE      SPSTAT
      000000DDH   SFRSYM    DATA     BYTE      T4T3M
      000000C1H   SFRSYM    DATA     BYTE      WDT_CONTR
      00000088H.6 SFRSYM    DATA     BIT       TR1
      00000088H.4 SFRSYM    DATA     BIT       TR0
      000000D3H   SFRSYM    DATA     BYTE      T4L
      000000D5H   SFRSYM    DATA     BYTE      T3L
      000000D7H   SFRSYM    DATA     BYTE      T2L
      0000008BH   SFRSYM    DATA     BYTE      TL1
L251 LINKER/LOCATER V4.66.93.0                                                        03/26/2023  21:30:35  PAGE 40


      0000008AH   SFRSYM    DATA     BYTE      TL0
      000000D2H   SFRSYM    DATA     BYTE      T4H
      000000D4H   SFRSYM    DATA     BYTE      T3H
      000000D6H   SFRSYM    DATA     BYTE      T2H
      0000008DH   SFRSYM    DATA     BYTE      TH1
      0000008CH   SFRSYM    DATA     BYTE      TH0
      000000DFH   SFRSYM    DATA     BYTE      IP3
      000000F4H   SFRSYM    DATA     BYTE      USBCON
      000000B5H   SFRSYM    DATA     BYTE      IP2
      000000FFH   SFRSYM    DATA     BYTE      RSTCFG
      000000A8H.3 SFRSYM    DATA     BIT       ET1
      000000A8H.1 SFRSYM    DATA     BIT       ET0
      000000F9H   SFRSYM    DATA     BYTE      LINICR
      0000008EH   SFRSYM    DATA     BYTE      AUXR
      000000AFH   SFRSYM    DATA     BYTE      IE2
      00000088H   SFRSYM    DATA     BYTE      TCON
      00000089H   SFRSYM    DATA     BYTE      TMOD
      00000098H   SFRSYM    DATA     BYTE      SCON
      000000F1H   SFRSYM    DATA     BYTE      CANICR
      00000087H   SFRSYM    DATA     BYTE      PCON
      000000BCH   SFRSYM    DATA     BYTE      ADC_CONTR
      000000E7H   SFRSYM    DATA     BYTE      CMPCR2
      000000E6H   SFRSYM    DATA     BYTE      CMPCR1
      000000B8H   SFRSYM    DATA     BYTE      IP
      0000008FH   SFRSYM    DATA     BYTE      INTCLKO
      000000EEH   SFRSYM    DATA     BYTE      IP3H
      000000B6H   SFRSYM    DATA     BYTE      IP2H
      000000A8H   SFRSYM    DATA     BYTE      IE
      000000BBH   SFRSYM    DATA     BYTE      P_SW3
      000000BAH   SFRSYM    DATA     BYTE      P_SW2
      000000A2H   SFRSYM    DATA     BYTE      P_SW1
      000000CEH   SFRSYM    DATA     BYTE      SPCTL
      000000F8H   SFRSYM    DATA     BYTE      P7
      000000E8H   SFRSYM    DATA     BYTE      P6
      000000C8H   SFRSYM    DATA     BYTE      P5
      000000C0H   SFRSYM    DATA     BYTE      P4
      000000B0H   SFRSYM    DATA     BYTE      P3
      000000A0H   SFRSYM    DATA     BYTE      P2
      00000090H   SFRSYM    DATA     BYTE      P1
      00000080H   SFRSYM    DATA     BYTE      P0

      00FF53D9H   BLOCK     CODE     ---       LVL=0
      WR6         REGSYM    ---      INT       tim_n
      00FF53D9H   LINE      CODE     ---       #39
      00FF53D9H   LINE      CODE     ---       #42
      00FF53EDH   LINE      CODE     ---       #44
      00FF53EDH   LINE      CODE     ---       #46
      00FF53F0H   LINE      CODE     ---       #47
      00FF53F3H   LINE      CODE     ---       #48
      00FF53F6H   LINE      CODE     ---       #49
      00FF53F8H   LINE      CODE     ---       #50
      00FF53F9H   LINE      CODE     ---       #53
      00FF53F9H   LINE      CODE     ---       #55
      00FF53FCH   LINE      CODE     ---       #56
      00FF53FFH   LINE      CODE     ---       #57
      00FF5402H   LINE      CODE     ---       #58
      00FF5404H   LINE      CODE     ---       #59
      00FF5405H   LINE      CODE     ---       #62
      00FF5405H   LINE      CODE     ---       #64
      00FF5408H   LINE      CODE     ---       #65
      00FF540BH   LINE      CODE     ---       #66
      00FF540EH   LINE      CODE     ---       #67
      00FF540FH   LINE      CODE     ---       #70
      00FF540FH   LINE      CODE     ---       #72
      00FF5412H   LINE      CODE     ---       #73
L251 LINKER/LOCATER V4.66.93.0                                                        03/26/2023  21:30:35  PAGE 41


      00FF5415H   LINE      CODE     ---       #74
      00FF5418H   LINE      CODE     ---       #75
      00FF5419H   LINE      CODE     ---       #78
      00FF5419H   LINE      CODE     ---       #80
      00FF541CH   LINE      CODE     ---       #81
      00FF541FH   LINE      CODE     ---       #82
      00FF5422H   LINE      CODE     ---       #83
      00FF5422H   LINE      CODE     ---       #86
      00FF5422H   LINE      CODE     ---       #87
      ---         BLOCKEND  ---      ---       LVL=0

      00FF52F2H   BLOCK     CODE     ---       LVL=0
      WR4         REGSYM    ---      INT       tim_n
      00FF52F4H   BLOCK     CODE     NEAR LAB  LVL=1
      WR6         REGSYM    ---      WORD      dat
      ---         BLOCKEND  ---      ---       LVL=1
      00FF52F2H   LINE      CODE     ---       #95
      00FF52F4H   LINE      CODE     ---       #96
      00FF52F4H   LINE      CODE     ---       #97
      00FF52F6H   LINE      CODE     ---       #99
      00FF530AH   LINE      CODE     ---       #101
      00FF530AH   LINE      CODE     ---       #103
      00FF5310H   LINE      CODE     ---       #104
      00FF5312H   LINE      CODE     ---       #105
      00FF5314H   LINE      CODE     ---       #107
      00FF5314H   LINE      CODE     ---       #109
      00FF531AH   LINE      CODE     ---       #110
      00FF531CH   LINE      CODE     ---       #111
      00FF531EH   LINE      CODE     ---       #113
      00FF531EH   LINE      CODE     ---       #115
      00FF5324H   LINE      CODE     ---       #116
      00FF5326H   LINE      CODE     ---       #117
      00FF5328H   LINE      CODE     ---       #119
      00FF5328H   LINE      CODE     ---       #121
      00FF532EH   LINE      CODE     ---       #122
      00FF5330H   LINE      CODE     ---       #123
      00FF5332H   LINE      CODE     ---       #125
      00FF5332H   LINE      CODE     ---       #127
      00FF5338H   LINE      CODE     ---       #128
      00FF533EH   LINE      CODE     ---       #129
      00FF533EH   LINE      CODE     ---       #132
      00FF533EH   LINE      CODE     ---       #133
      00FF533EH   LINE      CODE     ---       #134
      ---         BLOCKEND  ---      ---       LVL=0

      00FF5251H   BLOCK     CODE     ---       LVL=0
      WR6         REGSYM    ---      INT       tim_n
      00FF5251H   LINE      CODE     ---       #143
      00FF5251H   LINE      CODE     ---       #145
      00FF5265H   LINE      CODE     ---       #147
      00FF5265H   LINE      CODE     ---       #149
      00FF5267H   LINE      CODE     ---       #150
      00FF526AH   LINE      CODE     ---       #151
      00FF526DH   LINE      CODE     ---       #152
      00FF526FH   LINE      CODE     ---       #153
      00FF5270H   LINE      CODE     ---       #155
      00FF5270H   LINE      CODE     ---       #157
      00FF5272H   LINE      CODE     ---       #158
      00FF5275H   LINE      CODE     ---       #159
      00FF5278H   LINE      CODE     ---       #160
      00FF527AH   LINE      CODE     ---       #161
      00FF527BH   LINE      CODE     ---       #163
      00FF527BH   LINE      CODE     ---       #165
      00FF527EH   LINE      CODE     ---       #166
      00FF5281H   LINE      CODE     ---       #167
L251 LINKER/LOCATER V4.66.93.0                                                        03/26/2023  21:30:35  PAGE 42


      00FF5284H   LINE      CODE     ---       #168
      00FF5287H   LINE      CODE     ---       #169
      00FF5288H   LINE      CODE     ---       #171
      00FF5288H   LINE      CODE     ---       #173
      00FF528BH   LINE      CODE     ---       #174
      00FF528EH   LINE      CODE     ---       #175
      00FF5291H   LINE      CODE     ---       #176
      00FF5294H   LINE      CODE     ---       #177
      00FF5295H   LINE      CODE     ---       #179
      00FF5295H   LINE      CODE     ---       #181
      00FF5298H   LINE      CODE     ---       #182
      00FF529BH   LINE      CODE     ---       #183
      00FF529EH   LINE      CODE     ---       #184
      00FF52A1H   LINE      CODE     ---       #185
      00FF52A1H   LINE      CODE     ---       #187
      00FF52A1H   LINE      CODE     ---       #188
      ---         BLOCKEND  ---      ---       LVL=0

      00FF4D92H   BLOCK     CODE     ---       LVL=0
      WR30        REGSYM    ---      INT       tim_n
      WR28        REGSYM    ---      WORD      time_ms
      00FF4D94H   BLOCK     CODE     NEAR LAB  LVL=1
      WR28        REGSYM    ---      WORD      temp
      ---         BLOCKEND  ---      ---       LVL=1
      00FF4D92H   LINE      CODE     ---       #198
      00FF4D94H   LINE      CODE     ---       #199
      00FF4D94H   LINE      CODE     ---       #201
      00FF4DB1H   LINE      CODE     ---       #203
      00FF4DB5H   LINE      CODE     ---       #205
      00FF4DB9H   LINE      CODE     ---       #206
      00FF4DBFH   LINE      CODE     ---       #207
      00FF4DC3H   LINE      CODE     ---       #208
      00FF4DC5H   LINE      CODE     ---       #209
      00FF4DC7H   LINE      CODE     ---       #210
      00FF4DC8H   LINE      CODE     ---       #211
      00FF4DCEH   LINE      CODE     ---       #213
      00FF4DD2H   LINE      CODE     ---       #214
      00FF4DD8H   LINE      CODE     ---       #215
      00FF4DDCH   LINE      CODE     ---       #216
      00FF4DDEH   LINE      CODE     ---       #217
      00FF4DE0H   LINE      CODE     ---       #218
      00FF4DE1H   LINE      CODE     ---       #219
      00FF4DE7H   LINE      CODE     ---       #221
      00FF4DEDH   LINE      CODE     ---       #222
      00FF4DF1H   LINE      CODE     ---       #223
      00FF4DF4H   LINE      CODE     ---       #224
      00FF4DF7H   LINE      CODE     ---       #225
      00FF4DF8H   LINE      CODE     ---       #226
      00FF4DFEH   LINE      CODE     ---       #228
      00FF4E04H   LINE      CODE     ---       #229
      00FF4E08H   LINE      CODE     ---       #230
      00FF4E0BH   LINE      CODE     ---       #231
      00FF4E0EH   LINE      CODE     ---       #232
      00FF4E0FH   LINE      CODE     ---       #233
      00FF4E15H   LINE      CODE     ---       #235
      00FF4E1BH   LINE      CODE     ---       #236
      00FF4E1FH   LINE      CODE     ---       #237
      00FF4E22H   LINE      CODE     ---       #238
      00FF4E25H   LINE      CODE     ---       #239
      ---         BLOCKEND  ---      ---       LVL=0

      ---         MODULE    ---      ---       zf_uart
      00FF5157H   PUBLIC    CODE     ---       uart_putchar
      00FF4596H   PUBLIC    CODE     ---       uart_init
      000004CAH   PUBLIC    EDATA    ---       uart1_rx_buff
L251 LINKER/LOCATER V4.66.93.0                                                        03/26/2023  21:30:35  PAGE 43


      0000052EH   PUBLIC    EDATA    ---       uart1_tx_buff
      00000592H   PUBLIC    EDATA    ---       busy
      0000073CH   PUBLIC    EDATA    BYTE      ?uart_init?BYTE
      000000D0H   SFRSYM    DATA     BYTE      PSW
      0000009DH   SFRSYM    DATA     BYTE      IRCBAND
      00000097H   SFRSYM    DATA     BYTE      AUXR2
      000000EFH   SFRSYM    DATA     BYTE      AUXINTIF
      000000FDH   SFRSYM    DATA     BYTE      S4CON
      000000ACH   SFRSYM    DATA     BYTE      S3CON
      0000009AH   SFRSYM    DATA     BYTE      S2CON
      000000FEH   SFRSYM    DATA     BYTE      S4BUF
      000000ADH   SFRSYM    DATA     BYTE      S3BUF
      0000009BH   SFRSYM    DATA     BYTE      S2BUF
      000000B7H   SFRSYM    DATA     BYTE      IPH
      000000CDH   SFRSYM    DATA     BYTE      SPSTAT
      000000DDH   SFRSYM    DATA     BYTE      T4T3M
      000000C1H   SFRSYM    DATA     BYTE      WDT_CONTR
      00000088H.6 SFRSYM    DATA     BIT       TR1
      000000D3H   SFRSYM    DATA     BYTE      T4L
      000000D5H   SFRSYM    DATA     BYTE      T3L
      000000D7H   SFRSYM    DATA     BYTE      T2L
      0000008BH   SFRSYM    DATA     BYTE      TL1
      000000D2H   SFRSYM    DATA     BYTE      T4H
      000000D4H   SFRSYM    DATA     BYTE      T3H
      000000D6H   SFRSYM    DATA     BYTE      T2H
      0000008DH   SFRSYM    DATA     BYTE      TH1
      000000DFH   SFRSYM    DATA     BYTE      IP3
      000000F4H   SFRSYM    DATA     BYTE      USBCON
      000000B5H   SFRSYM    DATA     BYTE      IP2
      000000FFH   SFRSYM    DATA     BYTE      RSTCFG
      000000F9H   SFRSYM    DATA     BYTE      LINICR
      0000008EH   SFRSYM    DATA     BYTE      AUXR
      000000AFH   SFRSYM    DATA     BYTE      IE2
      00000088H   SFRSYM    DATA     BYTE      TCON
      00000089H   SFRSYM    DATA     BYTE      TMOD
      00000098H   SFRSYM    DATA     BYTE      SCON
      000000F1H   SFRSYM    DATA     BYTE      CANICR
      00000087H   SFRSYM    DATA     BYTE      PCON
      00000099H   SFRSYM    DATA     BYTE      SBUF
      000000BCH   SFRSYM    DATA     BYTE      ADC_CONTR
      000000E7H   SFRSYM    DATA     BYTE      CMPCR2
      000000E6H   SFRSYM    DATA     BYTE      CMPCR1
      000000B8H   SFRSYM    DATA     BYTE      IP
      000000A8H.4 SFRSYM    DATA     BIT       ES
      0000008FH   SFRSYM    DATA     BYTE      INTCLKO
      000000EEH   SFRSYM    DATA     BYTE      IP3H
      000000B6H   SFRSYM    DATA     BYTE      IP2H
      000000A8H   SFRSYM    DATA     BYTE      IE
      000000BBH   SFRSYM    DATA     BYTE      P_SW3
      000000BAH   SFRSYM    DATA     BYTE      P_SW2
      000000A2H   SFRSYM    DATA     BYTE      P_SW1
      000000CEH   SFRSYM    DATA     BYTE      SPCTL
      000000F8H   SFRSYM    DATA     BYTE      P7
      000000E8H   SFRSYM    DATA     BYTE      P6
      000000C8H   SFRSYM    DATA     BYTE      P5
      000000C0H   SFRSYM    DATA     BYTE      P4
      000000C9H   SFRSYM    DATA     BYTE      P5M1
      000000B0H   SFRSYM    DATA     BYTE      P3
      000000CAH   SFRSYM    DATA     BYTE      P5M0
      000000A0H   SFRSYM    DATA     BYTE      P2
      00000090H   SFRSYM    DATA     BYTE      P1
      00000080H   SFRSYM    DATA     BYTE      P0

      00FF4596H   BLOCK     CODE     ---       LVL=0
      WR24        REGSYM    ---      INT       uart_n
L251 LINKER/LOCATER V4.66.93.0                                                        03/26/2023  21:30:35  PAGE 44


      WR28        REGSYM    ---      INT       uart_rx_pin
      WR30        REGSYM    ---      INT       uart_tx_pin
      00000742H   SYMBOL    EDATA    DWORD     baud
      WR26        REGSYM    ---      INT       tim_n
      00FF459EH   BLOCK     CODE     NEAR LAB  LVL=1
      WR6         REGSYM    ---      WORD      brt
      ---         BLOCKEND  ---      ---       LVL=1
      00FF4596H   LINE      CODE     ---       #48
      00FF459EH   LINE      CODE     ---       #49
      00FF459EH   LINE      CODE     ---       #52
      00FF45C1H   LINE      CODE     ---       #55
      00FF45DFH   LINE      CODE     ---       #57
      00FF45DFH   LINE      CODE     ---       #59
      00FF45E5H   LINE      CODE     ---       #61
      00FF45E8H   LINE      CODE     ---       #62
      00FF45ECH   LINE      CODE     ---       #63
      00FF45F0H   LINE      CODE     ---       #64
      00FF45F4H   LINE      CODE     ---       #65
      00FF45F7H   LINE      CODE     ---       #66
      00FF45F9H   LINE      CODE     ---       #67
      00FF45FEH   LINE      CODE     ---       #68
      00FF4600H   LINE      CODE     ---       #69
      00FF4606H   LINE      CODE     ---       #71
      00FF4609H   LINE      CODE     ---       #72
      00FF460DH   LINE      CODE     ---       #73
      00FF4611H   LINE      CODE     ---       #74
      00FF4614H   LINE      CODE     ---       #75
      00FF4614H   LINE      CODE     ---       #76
      00FF4617H   LINE      CODE     ---       #77
      00FF4621H   LINE      CODE     ---       #79
      00FF4625H   LINE      CODE     ---       #80
      00FF4627H   LINE      CODE     ---       #81
      00FF4633H   LINE      CODE     ---       #83
      00FF4636H   LINE      CODE     ---       #84
      00FF4638H   LINE      CODE     ---       #85
      00FF4644H   LINE      CODE     ---       #87
      00FF4647H   LINE      CODE     ---       #88
      00FF4649H   LINE      CODE     ---       #89
      00FF4655H   LINE      CODE     ---       #91
      00FF4658H   LINE      CODE     ---       #92
      00FF4658H   LINE      CODE     ---       #93
      00FF465DH   LINE      CODE     ---       #94
      00FF465FH   LINE      CODE     ---       #95
      00FF4660H   LINE      CODE     ---       #98
      00FF4660H   LINE      CODE     ---       #100
      00FF4666H   LINE      CODE     ---       #102
      00FF4669H   LINE      CODE     ---       #103
      00FF466DH   LINE      CODE     ---       #104
      00FF4671H   LINE      CODE     ---       #105
      00FF4674H   LINE      CODE     ---       #106
      00FF4674H   LINE      CODE     ---       #108
      00FF4677H   LINE      CODE     ---       #109
      00FF4683H   LINE      CODE     ---       #111
      00FF4687H   LINE      CODE     ---       #112
      00FF4689H   LINE      CODE     ---       #113
      00FF4695H   LINE      CODE     ---       #115
      00FF4698H   LINE      CODE     ---       #116
      00FF4698H   LINE      CODE     ---       #118
      00FF469BH   LINE      CODE     ---       #119
      00FF46A0H   LINE      CODE     ---       #120
      00FF46A1H   LINE      CODE     ---       #123
      00FF46A1H   LINE      CODE     ---       #125
      00FF46A7H   LINE      CODE     ---       #127
      00FF46AAH   LINE      CODE     ---       #128
      00FF46AEH   LINE      CODE     ---       #129
L251 LINKER/LOCATER V4.66.93.0                                                        03/26/2023  21:30:35  PAGE 45


      00FF46B2H   LINE      CODE     ---       #130
      00FF46B5H   LINE      CODE     ---       #131
      00FF46B7H   LINE      CODE     ---       #132
      00FF46BDH   LINE      CODE     ---       #134
      00FF46C0H   LINE      CODE     ---       #135
      00FF46C4H   LINE      CODE     ---       #136
      00FF46C8H   LINE      CODE     ---       #137
      00FF46CBH   LINE      CODE     ---       #138
      00FF46CBH   LINE      CODE     ---       #140
      00FF46CEH   LINE      CODE     ---       #141
      00FF46DAH   LINE      CODE     ---       #143
      00FF46DEH   LINE      CODE     ---       #144
      00FF46E0H   LINE      CODE     ---       #145
      00FF46ECH   LINE      CODE     ---       #147
      00FF46EFH   LINE      CODE     ---       #148
      00FF46EFH   LINE      CODE     ---       #150
      00FF46F2H   LINE      CODE     ---       #151
      00FF46F7H   LINE      CODE     ---       #152
      00FF46F8H   LINE      CODE     ---       #155
      00FF46F8H   LINE      CODE     ---       #157
      00FF46FEH   LINE      CODE     ---       #159
      00FF4701H   LINE      CODE     ---       #160
      00FF4705H   LINE      CODE     ---       #161
      00FF4709H   LINE      CODE     ---       #162
      00FF470CH   LINE      CODE     ---       #163
      00FF470EH   LINE      CODE     ---       #164
      00FF4714H   LINE      CODE     ---       #166
      00FF4717H   LINE      CODE     ---       #167
      00FF471BH   LINE      CODE     ---       #168
      00FF471FH   LINE      CODE     ---       #169
      00FF4722H   LINE      CODE     ---       #170
      00FF4722H   LINE      CODE     ---       #172
      00FF4725H   LINE      CODE     ---       #173
      00FF4731H   LINE      CODE     ---       #175
      00FF4735H   LINE      CODE     ---       #176
      00FF4737H   LINE      CODE     ---       #177
      00FF4743H   LINE      CODE     ---       #179
      00FF4746H   LINE      CODE     ---       #180
      00FF4749H   LINE      CODE     ---       #181
      00FF474CH   LINE      CODE     ---       #182
      00FF474CH   LINE      CODE     ---       #183
      00FF474FH   LINE      CODE     ---       #184
      00FF4754H   LINE      CODE     ---       #185
      00FF4754H   LINE      CODE     ---       #188
      00FF4754H   LINE      CODE     ---       #190
      ---         BLOCKEND  ---      ---       LVL=0

      00FF5157H   BLOCK     CODE     ---       LVL=0
      WR6         REGSYM    ---      INT       uart_n
      R10         REGSYM    ---      BYTE      dat
      00FF5157H   LINE      CODE     ---       #199
      00FF5159H   LINE      CODE     ---       #201
      00FF516BH   LINE      CODE     ---       #203
      00FF516BH   LINE      CODE     ---       #204
      00FF5171H   LINE      CODE     ---       #205
      00FF5177H   LINE      CODE     ---       #206
      00FF517AH   LINE      CODE     ---       #207
      00FF517BH   LINE      CODE     ---       #208
      00FF517BH   LINE      CODE     ---       #209
      00FF5181H   LINE      CODE     ---       #210
      00FF5187H   LINE      CODE     ---       #211
      00FF518AH   LINE      CODE     ---       #212
      00FF518BH   LINE      CODE     ---       #213
      00FF518BH   LINE      CODE     ---       #214
      00FF5191H   LINE      CODE     ---       #215
L251 LINKER/LOCATER V4.66.93.0                                                        03/26/2023  21:30:35  PAGE 46


      00FF5197H   LINE      CODE     ---       #216
      00FF519AH   LINE      CODE     ---       #217
      00FF519BH   LINE      CODE     ---       #218
      00FF519BH   LINE      CODE     ---       #219
      00FF51A1H   LINE      CODE     ---       #220
      00FF51A7H   LINE      CODE     ---       #221
      00FF51AAH   LINE      CODE     ---       #222
      00FF51AAH   LINE      CODE     ---       #223
      00FF51AAH   LINE      CODE     ---       #224
      ---         BLOCKEND  ---      ---       LVL=0
      REG=3       REGSYM    ---      ---       p
      REG=3       REGSYM    ---      ---       str

      ---         MODULE    ---      ---       zf_fifo
      00FF55C9H   PUBLIC    CODE     ---       fifo_head_offset
      00FF4877H   PUBLIC    CODE     ---       fifo_write_buffer
      00000722H   PUBLIC    EDATA    BYTE      ?fifo_write_buffer?BYTE
      000000D0H   SFRSYM    DATA     BYTE      PSW
      0000009DH   SFRSYM    DATA     BYTE      IRCBAND
      00000097H   SFRSYM    DATA     BYTE      AUXR2
      000000EFH   SFRSYM    DATA     BYTE      AUXINTIF
      000000FDH   SFRSYM    DATA     BYTE      S4CON
      000000ACH   SFRSYM    DATA     BYTE      S3CON
      0000009AH   SFRSYM    DATA     BYTE      S2CON
      000000B7H   SFRSYM    DATA     BYTE      IPH
      000000CDH   SFRSYM    DATA     BYTE      SPSTAT
      000000DDH   SFRSYM    DATA     BYTE      T4T3M
      000000C1H   SFRSYM    DATA     BYTE      WDT_CONTR
      000000DFH   SFRSYM    DATA     BYTE      IP3
      000000F4H   SFRSYM    DATA     BYTE      USBCON
      000000B5H   SFRSYM    DATA     BYTE      IP2
      000000FFH   SFRSYM    DATA     BYTE      RSTCFG
      000000F9H   SFRSYM    DATA     BYTE      LINICR
      0000008EH   SFRSYM    DATA     BYTE      AUXR
      000000AFH   SFRSYM    DATA     BYTE      IE2
      00000088H   SFRSYM    DATA     BYTE      TCON
      00000098H   SFRSYM    DATA     BYTE      SCON
      000000F1H   SFRSYM    DATA     BYTE      CANICR
      00000087H   SFRSYM    DATA     BYTE      PCON
      000000BCH   SFRSYM    DATA     BYTE      ADC_CONTR
      000000E7H   SFRSYM    DATA     BYTE      CMPCR2
      000000E6H   SFRSYM    DATA     BYTE      CMPCR1
      000000B8H   SFRSYM    DATA     BYTE      IP
      0000008FH   SFRSYM    DATA     BYTE      INTCLKO
      000000EEH   SFRSYM    DATA     BYTE      IP3H
      000000B6H   SFRSYM    DATA     BYTE      IP2H
      000000A8H   SFRSYM    DATA     BYTE      IE
      000000BBH   SFRSYM    DATA     BYTE      P_SW3
      000000BAH   SFRSYM    DATA     BYTE      P_SW2
      000000A2H   SFRSYM    DATA     BYTE      P_SW1
      000000CEH   SFRSYM    DATA     BYTE      SPCTL
      000000F8H   SFRSYM    DATA     BYTE      P7
      000000E8H   SFRSYM    DATA     BYTE      P6
      000000C8H   SFRSYM    DATA     BYTE      P5
      000000C0H   SFRSYM    DATA     BYTE      P4
      000000B0H   SFRSYM    DATA     BYTE      P3
      000000A0H   SFRSYM    DATA     BYTE      P2
      00000090H   SFRSYM    DATA     BYTE      P1
      00000080H   SFRSYM    DATA     BYTE      P0
      REG=2       REGSYM    ---      ---       fifo
      REG=7       REGSYM    ---      ---       buffer_addr

      00FF55C9H   BLOCK     CODE     ---       LVL=0
      REG=7       REGSYM    ---      ---       fifo
      DR24        REGSYM    ---      DWORD     offset
L251 LINKER/LOCATER V4.66.93.0                                                        03/26/2023  21:30:35  PAGE 47


      00FF55C9H   LINE      CODE     ---       #61
      00FF55CDH   LINE      CODE     ---       #63
      00FF55D8H   LINE      CODE     ---       #65
      00FF55DAH   LINE      CODE     ---       #67
      00FF55F6H   LINE      CODE     ---       #68
      00FF560AH   LINE      CODE     ---       #69
      ---         BLOCKEND  ---      ---       LVL=0
      REG=7       REGSYM    ---      ---       fifo
      DR24        REGSYM    ---      DWORD     offset
      REG=2       REGSYM    ---      ---       fifo
      REG=7       REGSYM    ---      ---       fifo

      00FF4877H   BLOCK     CODE     ---       LVL=0
      REG=3       REGSYM    ---      ---       fifo
      00000726H   SYMBOL    EDATA    ---       dat
      0000072AH   SYMBOL    EDATA    DWORD     length
      00FF487FH   BLOCK     CODE     NEAR LAB  LVL=1
      0000072EH   SYMBOL    EDATA    DWORD     temp_length
      ---         BLOCKEND  ---      ---       LVL=1
      00FF4877H   LINE      CODE     ---       #120
      00FF487FH   LINE      CODE     ---       #121
      00FF487FH   LINE      CODE     ---       #124
      00FF4892H   LINE      CODE     ---       #126
      00FF48A8H   LINE      CODE     ---       #128
      00FF48ACH   LINE      CODE     ---       #130
      00FF48C4H   LINE      CODE     ---       #131
      00FF48CDH   LINE      CODE     ---       #132
      00FF48DDH   LINE      CODE     ---       #133
      00FF48FDH   LINE      CODE     ---       #134
      00FF4909H   LINE      CODE     ---       #135
      00FF490BH   LINE      CODE     ---       #138
      00FF4927H   LINE      CODE     ---       #139
      00FF4930H   LINE      CODE     ---       #140
      00FF4930H   LINE      CODE     ---       #142
      00FF494AH   LINE      CODE     ---       #143
      00FF494CH   LINE      CODE     ---       #146
      00FF4952H   LINE      CODE     ---       #147
      00FF4952H   LINE      CODE     ---       #149
      00FF4954H   LINE      CODE     ---       #150
      ---         BLOCKEND  ---      ---       LVL=0
      REG=3       REGSYM    ---      ---       fifo

      ---         MODULE    ---      ---       SEEKFREE_ABSOLUTE_ENCODER
      00FF0006H   PUBLIC    CODE     ---       encoder_delay_us
      000000D0H   SFRSYM    DATA     BYTE      PSW
      0000009DH   SFRSYM    DATA     BYTE      IRCBAND
      00000097H   SFRSYM    DATA     BYTE      AUXR2
      000000EFH   SFRSYM    DATA     BYTE      AUXINTIF
      000000FDH   SFRSYM    DATA     BYTE      S4CON
      000000ACH   SFRSYM    DATA     BYTE      S3CON
      0000009AH   SFRSYM    DATA     BYTE      S2CON
      000000B7H   SFRSYM    DATA     BYTE      IPH
      000000CDH   SFRSYM    DATA     BYTE      SPSTAT
      000000DDH   SFRSYM    DATA     BYTE      T4T3M
      000000C1H   SFRSYM    DATA     BYTE      WDT_CONTR
      000000DFH   SFRSYM    DATA     BYTE      IP3
      000000F4H   SFRSYM    DATA     BYTE      USBCON
      000000B5H   SFRSYM    DATA     BYTE      IP2
      000000FFH   SFRSYM    DATA     BYTE      RSTCFG
      000000F9H   SFRSYM    DATA     BYTE      LINICR
      0000008EH   SFRSYM    DATA     BYTE      AUXR
      000000AFH   SFRSYM    DATA     BYTE      IE2
      000000A0H.7 SFRSYM    DATA     BIT       P27
      000000A0H.6 SFRSYM    DATA     BIT       P26
      000000A0H.5 SFRSYM    DATA     BIT       P25
L251 LINKER/LOCATER V4.66.93.0                                                        03/26/2023  21:30:35  PAGE 48


      000000A0H.4 SFRSYM    DATA     BIT       P24
      00000088H   SFRSYM    DATA     BYTE      TCON
      00000098H   SFRSYM    DATA     BYTE      SCON
      000000A0H.2 SFRSYM    DATA     BIT       P22
      000000F1H   SFRSYM    DATA     BYTE      CANICR
      00000087H   SFRSYM    DATA     BYTE      PCON
      000000BCH   SFRSYM    DATA     BYTE      ADC_CONTR
      000000E7H   SFRSYM    DATA     BYTE      CMPCR2
      000000E6H   SFRSYM    DATA     BYTE      CMPCR1
      000000B8H   SFRSYM    DATA     BYTE      IP
      0000008FH   SFRSYM    DATA     BYTE      INTCLKO
      000000EEH   SFRSYM    DATA     BYTE      IP3H
      000000B6H   SFRSYM    DATA     BYTE      IP2H
      000000A8H   SFRSYM    DATA     BYTE      IE
      000000BBH   SFRSYM    DATA     BYTE      P_SW3
      000000BAH   SFRSYM    DATA     BYTE      P_SW2
      000000A2H   SFRSYM    DATA     BYTE      P_SW1
      000000CEH   SFRSYM    DATA     BYTE      SPCTL
      000000F8H   SFRSYM    DATA     BYTE      P7
      000000E8H   SFRSYM    DATA     BYTE      P6
      000000C8H   SFRSYM    DATA     BYTE      P5
      000000C0H   SFRSYM    DATA     BYTE      P4
      000000B0H   SFRSYM    DATA     BYTE      P3
      000000A0H   SFRSYM    DATA     BYTE      P2
      00000090H   SFRSYM    DATA     BYTE      P1
      00000080H   SFRSYM    DATA     BYTE      P0

      00FF0006H   BLOCK     CODE     ---       LVL=0
      WR6         REGSYM    ---      WORD      x
      00FF0006H   LINE      CODE     ---       #43
      00FF0006H   LINE      CODE     ---       #45
      ---         BLOCKEND  ---      ---       LVL=0
      R6          REGSYM    ---      BYTE      byte
      R7          REGSYM    ---      BYTE      i
      R7          REGSYM    ---      BYTE      cmd
      R15         REGSYM    ---      BYTE      val
      R7          REGSYM    ---      BYTE      cmd
      REG=3       REGSYM    ---      ---       val
      R7          REGSYM    ---      BYTE      cmd
      R15         REGSYM    ---      BYTE      val
      R14         REGSYM    ---      BYTE      dat
      R7          REGSYM    ---      BYTE      cmd
      REG=3       REGSYM    ---      ---       val
      WR14        REGSYM    ---      WORD      zero_position
      WR14        REGSYM    ---      WORD      angle
      R10         REGSYM    ---      BYTE      byte
      R7          REGSYM    ---      BYTE      cmd
      R15         REGSYM    ---      BYTE      val
      R7          REGSYM    ---      BYTE      cmd
      REG=3       REGSYM    ---      ---       val
      R7          REGSYM    ---      BYTE      cmd
      R15         REGSYM    ---      BYTE      val
      R14         REGSYM    ---      BYTE      dat
      R7          REGSYM    ---      BYTE      cmd
      REG=3       REGSYM    ---      ---       val
      WR14        REGSYM    ---      WORD      zero_position
      WR14        REGSYM    ---      WORD      angle

      ---         MODULE    ---      ---       SEEKFREE_AT24C02
      000000D0H   SFRSYM    DATA     BYTE      PSW
      0000009DH   SFRSYM    DATA     BYTE      IRCBAND
      00000097H   SFRSYM    DATA     BYTE      AUXR2
      000000EFH   SFRSYM    DATA     BYTE      AUXINTIF
      000000FDH   SFRSYM    DATA     BYTE      S4CON
      000000ACH   SFRSYM    DATA     BYTE      S3CON
L251 LINKER/LOCATER V4.66.93.0                                                        03/26/2023  21:30:35  PAGE 49


      0000009AH   SFRSYM    DATA     BYTE      S2CON
      000000B7H   SFRSYM    DATA     BYTE      IPH
      000000CDH   SFRSYM    DATA     BYTE      SPSTAT
      000000DDH   SFRSYM    DATA     BYTE      T4T3M
      000000C1H   SFRSYM    DATA     BYTE      WDT_CONTR
      000000DFH   SFRSYM    DATA     BYTE      IP3
      000000F4H   SFRSYM    DATA     BYTE      USBCON
      000000B5H   SFRSYM    DATA     BYTE      IP2
      000000FFH   SFRSYM    DATA     BYTE      RSTCFG
      000000F9H   SFRSYM    DATA     BYTE      LINICR
      0000008EH   SFRSYM    DATA     BYTE      AUXR
      000000AFH   SFRSYM    DATA     BYTE      IE2
      00000088H   SFRSYM    DATA     BYTE      TCON
      000000A0H.3 SFRSYM    DATA     BIT       P23
      00000098H   SFRSYM    DATA     BYTE      SCON
      000000A0H.2 SFRSYM    DATA     BIT       P22
      000000F1H   SFRSYM    DATA     BYTE      CANICR
      00000087H   SFRSYM    DATA     BYTE      PCON
      000000BCH   SFRSYM    DATA     BYTE      ADC_CONTR
      000000E7H   SFRSYM    DATA     BYTE      CMPCR2
      000000E6H   SFRSYM    DATA     BYTE      CMPCR1
      000000B8H   SFRSYM    DATA     BYTE      IP
      0000008FH   SFRSYM    DATA     BYTE      INTCLKO
      000000EEH   SFRSYM    DATA     BYTE      IP3H
      000000B6H   SFRSYM    DATA     BYTE      IP2H
      000000A8H   SFRSYM    DATA     BYTE      IE
      000000BBH   SFRSYM    DATA     BYTE      P_SW3
      000000BAH   SFRSYM    DATA     BYTE      P_SW2
      000000A2H   SFRSYM    DATA     BYTE      P_SW1
      000000CEH   SFRSYM    DATA     BYTE      SPCTL
      000000F8H   SFRSYM    DATA     BYTE      P7
      000000E8H   SFRSYM    DATA     BYTE      P6
      000000C8H   SFRSYM    DATA     BYTE      P5
      000000C0H   SFRSYM    DATA     BYTE      P4
      000000B0H   SFRSYM    DATA     BYTE      P3
      000000A0H   SFRSYM    DATA     BYTE      P2
      00000090H   SFRSYM    DATA     BYTE      P1
      00000080H   SFRSYM    DATA     BYTE      P0
      00FF5C8EH   SYMBOL    CODE     ---       at24c02_simiic_stop
      00FF5AADH   SYMBOL    CODE     ---       at24c02_simiic_sendack
      00FF0046H   SYMBOL    CODE     ---       at24c02_simiic_delay

      00FF0046H   BLOCK     CODE     ---       LVL=0
      WR6         REGSYM    ---      WORD      j
      00FF0046H   LINE      CODE     ---       #45
      00FF0046H   LINE      CODE     ---       #46
      00FF0046H   LINE      CODE     ---       #47
      00FF004AH   LINE      CODE     ---       #48
      00FF0052H   LINE      CODE     ---       #49
      ---         BLOCKEND  ---      ---       LVL=0

      00FF5C8EH   BLOCK     CODE     ---       LVL=0
      00FF5C8EH   LINE      CODE     ---       #63
      00FF5C8EH   LINE      CODE     ---       #65
      00FF5C90H   LINE      CODE     ---       #66
      00FF5C92H   LINE      CODE     ---       #67
      00FF5C95H   LINE      CODE     ---       #68
      00FF5C97H   LINE      CODE     ---       #69
      00FF5C9AH   LINE      CODE     ---       #70
      00FF5C9CH   LINE      CODE     ---       #71
      ---         BLOCKEND  ---      ---       LVL=0

      00FF5AADH   BLOCK     CODE     ---       LVL=0
      R15         REGSYM    ---      BYTE      ack_dat
      00FF5AADH   LINE      CODE     ---       #76
L251 LINKER/LOCATER V4.66.93.0                                                        03/26/2023  21:30:35  PAGE 50


      00FF5AB1H   LINE      CODE     ---       #78
      00FF5AB3H   LINE      CODE     ---       #79
      00FF5AB6H   LINE      CODE     ---       #80
      00FF5ABEH   LINE      CODE     ---       #81
      00FF5AC0H   LINE      CODE     ---       #83
      00FF5AC2H   LINE      CODE     ---       #84
      00FF5AC5H   LINE      CODE     ---       #85
      00FF5AC7H   LINE      CODE     ---       #86
      00FF5ACAH   LINE      CODE     ---       #87
      ---         BLOCKEND  ---      ---       LVL=0
      R15         REGSYM    ---      BYTE      c
      R14         REGSYM    ---      BYTE      i
      R15         REGSYM    ---      BYTE      ack_x
      R13         REGSYM    ---      BYTE      i
      R14         REGSYM    ---      BYTE      c
      R13         REGSYM    ---      BYTE      dev_add
      R14         REGSYM    ---      BYTE      reg
      R15         REGSYM    ---      BYTE      dat
      R15         REGSYM    ---      BYTE      dev_add
      R14         REGSYM    ---      BYTE      reg
      R15         REGSYM    ---      BYTE      dat
      R14         REGSYM    ---      BYTE      byte_reg
      R15         REGSYM    ---      BYTE      dat
      R15         REGSYM    ---      BYTE      byte_reg
      REG=3       REGSYM    ---      ---       dat_add
      REG=3       REGSYM    ---      ---       dat_add

      ---         MODULE    ---      ---       SEEKFREE_BLUETOOTH_CH9141
      00FF5B9CH   PUBLIC    CODE     ---       bluetooth_ch9141_uart_callback
      000000D0H   SFRSYM    DATA     BYTE      PSW
      0000009DH   SFRSYM    DATA     BYTE      IRCBAND
      00000097H   SFRSYM    DATA     BYTE      AUXR2
      000000EFH   SFRSYM    DATA     BYTE      AUXINTIF
      000000FDH   SFRSYM    DATA     BYTE      S4CON
      000000ACH   SFRSYM    DATA     BYTE      S3CON
      0000009AH   SFRSYM    DATA     BYTE      S2CON
      000000FEH   SFRSYM    DATA     BYTE      S4BUF
      000000B7H   SFRSYM    DATA     BYTE      IPH
      000000CDH   SFRSYM    DATA     BYTE      SPSTAT
      000000DDH   SFRSYM    DATA     BYTE      T4T3M
      000000C1H   SFRSYM    DATA     BYTE      WDT_CONTR
      000000DFH   SFRSYM    DATA     BYTE      IP3
      000000F4H   SFRSYM    DATA     BYTE      USBCON
      000000B5H   SFRSYM    DATA     BYTE      IP2
      000000FFH   SFRSYM    DATA     BYTE      RSTCFG
      000000F9H   SFRSYM    DATA     BYTE      LINICR
      0000008EH   SFRSYM    DATA     BYTE      AUXR
      000000AFH   SFRSYM    DATA     BYTE      IE2
      00000080H.7 SFRSYM    DATA     BIT       P07
      00000088H   SFRSYM    DATA     BYTE      TCON
      00000098H   SFRSYM    DATA     BYTE      SCON
      000000F1H   SFRSYM    DATA     BYTE      CANICR
      00000087H   SFRSYM    DATA     BYTE      PCON
      000000BCH   SFRSYM    DATA     BYTE      ADC_CONTR
      000000E7H   SFRSYM    DATA     BYTE      CMPCR2
      000000E6H   SFRSYM    DATA     BYTE      CMPCR1
      000000B8H   SFRSYM    DATA     BYTE      IP
      0000008FH   SFRSYM    DATA     BYTE      INTCLKO
      000000EEH   SFRSYM    DATA     BYTE      IP3H
      000000B6H   SFRSYM    DATA     BYTE      IP2H
      000000A8H   SFRSYM    DATA     BYTE      IE
      000000BBH   SFRSYM    DATA     BYTE      P_SW3
      000000BAH   SFRSYM    DATA     BYTE      P_SW2
      000000A2H   SFRSYM    DATA     BYTE      P_SW1
      000000CEH   SFRSYM    DATA     BYTE      SPCTL
L251 LINKER/LOCATER V4.66.93.0                                                        03/26/2023  21:30:35  PAGE 51


      000000F8H   SFRSYM    DATA     BYTE      P7
      000000E8H   SFRSYM    DATA     BYTE      P6
      000000C8H   SFRSYM    DATA     BYTE      P5
      000000C0H   SFRSYM    DATA     BYTE      P4
      000000B0H   SFRSYM    DATA     BYTE      P3
      000000A0H   SFRSYM    DATA     BYTE      P2
      00000090H   SFRSYM    DATA     BYTE      P1
      00000080H   SFRSYM    DATA     BYTE      P0
      00000627H   SYMBOL    EDATA    ---       bluetooth_ch9141_buffer
      00000667H   SYMBOL    EDATA    BYTE      bluetooth_ch9141_data
      00000668H   SYMBOL    EDATA    ---       bluetooth_ch9141_fifo

      00FF5B9CH   BLOCK     CODE     ---       LVL=0
      00FF5B9CH   LINE      CODE     ---       #67
      00FF5B9CH   LINE      CODE     ---       #70
      00FF5BA2H   LINE      CODE     ---       #71
      ---         BLOCKEND  ---      ---       LVL=0
      DR12        REGSYM    ---      DWORD     len
      REG=7       REGSYM    ---      ---       buff
      DR8         REGSYM    ---      DWORD     len

      ---         MODULE    ---      ---       SEEKFREE_DL1A
      0000081CH   PUBLIC    EDATA    WORD      dl1a_distance_mm
      0000081EH   PUBLIC    EDATA    BYTE      dl1a_finsh_flag
      000000D0H   SFRSYM    DATA     BYTE      PSW
      0000009DH   SFRSYM    DATA     BYTE      IRCBAND
      00000097H   SFRSYM    DATA     BYTE      AUXR2
      000000EFH   SFRSYM    DATA     BYTE      AUXINTIF
      000000FDH   SFRSYM    DATA     BYTE      S4CON
      000000ACH   SFRSYM    DATA     BYTE      S3CON
      0000009AH   SFRSYM    DATA     BYTE      S2CON
      000000B7H   SFRSYM    DATA     BYTE      IPH
      000000CDH   SFRSYM    DATA     BYTE      SPSTAT
      000000DDH   SFRSYM    DATA     BYTE      T4T3M
      000000C1H   SFRSYM    DATA     BYTE      WDT_CONTR
      000000DFH   SFRSYM    DATA     BYTE      IP3
      000000F4H   SFRSYM    DATA     BYTE      USBCON
      000000B5H   SFRSYM    DATA     BYTE      IP2
      000000FFH   SFRSYM    DATA     BYTE      RSTCFG
      000000F9H   SFRSYM    DATA     BYTE      LINICR
      0000008EH   SFRSYM    DATA     BYTE      AUXR
      000000AFH   SFRSYM    DATA     BYTE      IE2
      000000A0H.7 SFRSYM    DATA     BIT       P27
      000000C0H.5 SFRSYM    DATA     BIT       P45
      000000A0H.6 SFRSYM    DATA     BIT       P26
      00000088H   SFRSYM    DATA     BYTE      TCON
      00000098H   SFRSYM    DATA     BYTE      SCON
      000000F1H   SFRSYM    DATA     BYTE      CANICR
      00000087H   SFRSYM    DATA     BYTE      PCON
      000000BCH   SFRSYM    DATA     BYTE      ADC_CONTR
      000000E7H   SFRSYM    DATA     BYTE      CMPCR2
      000000E6H   SFRSYM    DATA     BYTE      CMPCR1
      000000B8H   SFRSYM    DATA     BYTE      IP
      0000008FH   SFRSYM    DATA     BYTE      INTCLKO
      000000EEH   SFRSYM    DATA     BYTE      IP3H
      000000B6H   SFRSYM    DATA     BYTE      IP2H
      000000A8H   SFRSYM    DATA     BYTE      IE
      000000BBH   SFRSYM    DATA     BYTE      P_SW3
      000000BAH   SFRSYM    DATA     BYTE      P_SW2
      000000A2H   SFRSYM    DATA     BYTE      P_SW1
      000000CEH   SFRSYM    DATA     BYTE      SPCTL
      000000F8H   SFRSYM    DATA     BYTE      P7
      000000E8H   SFRSYM    DATA     BYTE      P6
      000000C8H   SFRSYM    DATA     BYTE      P5
      000000C0H   SFRSYM    DATA     BYTE      P4
L251 LINKER/LOCATER V4.66.93.0                                                        03/26/2023  21:30:35  PAGE 52


      000000B0H   SFRSYM    DATA     BYTE      P3
      000000A0H   SFRSYM    DATA     BYTE      P2
      00000090H   SFRSYM    DATA     BYTE      P1
      00000080H   SFRSYM    DATA     BYTE      P0
      00FF5ACDH   SYMBOL    CODE     ---       dl1a_simiic_sendack
      00FF5744H   SYMBOL    CODE     ---       dl1a_timeout_microseconds_to_mclks
      00FF568CH   SYMBOL    CODE     ---       dl1a_timeout_mclks_to_microseconds
      00FF5780H   SYMBOL    CODE     ---       dl1a_read_ch
      00FF5CC1H   SYMBOL    CODE     ---       dl1a_decode_timeout
      00FF5951H   SYMBOL    CODE     ---       dl1a_send_ch
      00FF5829H   SYMBOL    CODE     ---       dl1a_encode_timeout
      00FF50FFH   SYMBOL    CODE     ---       dl1a_get_sequence_step_enables
      00FF0026H   SYMBOL    CODE     ---       dl1a_sccb_waitack
      00FF5D0BH   SYMBOL    CODE     ---       dl1a_simiic_delay
      00FF4957H   SYMBOL    CODE     ---       dl1a_get_sequence_step_timeouts
      00FF5CD1H   SYMBOL    CODE     ---       dl1a_simiic_start
      00FF51ABH   SYMBOL    CODE     ---       dl1a_simiic_read_regs
      00FF57F4H   SYMBOL    CODE     ---       dl1a_simiic_write_dats
      00FF5C9FH   SYMBOL    CODE     ---       dl1a_simiic_stop
      00FF533FH   SYMBOL    CODE     ---       dl1a_get_vcsel_pulse_period

      00FF5D0BH   BLOCK     CODE     ---       LVL=0
      WR6         REGSYM    ---      WORD      j
      00FF5D0BH   LINE      CODE     ---       #75
      00FF5D0BH   LINE      CODE     ---       #76
      00FF5D0BH   LINE      CODE     ---       #77
      00FF5D0FH   LINE      CODE     ---       #78
      00FF5D17H   LINE      CODE     ---       #79
      ---         BLOCKEND  ---      ---       LVL=0

      00FF5CD1H   BLOCK     CODE     ---       LVL=0
      00FF5CD1H   LINE      CODE     ---       #82
      00FF5CD1H   LINE      CODE     ---       #84
      00FF5CD3H   LINE      CODE     ---       #85
      00FF5CD5H   LINE      CODE     ---       #86
      00FF5CD8H   LINE      CODE     ---       #87
      00FF5CDAH   LINE      CODE     ---       #88
      00FF5CDDH   LINE      CODE     ---       #89
      00FF5CDFH   LINE      CODE     ---       #90
      ---         BLOCKEND  ---      ---       LVL=0

      00FF5C9FH   BLOCK     CODE     ---       LVL=0
      00FF5C9FH   LINE      CODE     ---       #93
      00FF5C9FH   LINE      CODE     ---       #95
      00FF5CA1H   LINE      CODE     ---       #96
      00FF5CA3H   LINE      CODE     ---       #97
      00FF5CA6H   LINE      CODE     ---       #98
      00FF5CA8H   LINE      CODE     ---       #99
      00FF5CABH   LINE      CODE     ---       #100
      00FF5CADH   LINE      CODE     ---       #101
      ---         BLOCKEND  ---      ---       LVL=0

      00FF5ACDH   BLOCK     CODE     ---       LVL=0
      R15         REGSYM    ---      BYTE      ack_dat
      00FF5ACDH   LINE      CODE     ---       #106
      00FF5AD1H   LINE      CODE     ---       #108
      00FF5AD3H   LINE      CODE     ---       #109
      00FF5AD6H   LINE      CODE     ---       #110
      00FF5ADEH   LINE      CODE     ---       #111
      00FF5AE0H   LINE      CODE     ---       #113
      00FF5AE2H   LINE      CODE     ---       #114
      00FF5AE5H   LINE      CODE     ---       #115
      00FF5AE7H   LINE      CODE     ---       #116
      00FF5AEAH   LINE      CODE     ---       #117
      ---         BLOCKEND  ---      ---       LVL=0
L251 LINKER/LOCATER V4.66.93.0                                                        03/26/2023  21:30:35  PAGE 53



      00FF0026H   BLOCK     CODE     ---       LVL=0
      00FF0026H   LINE      CODE     ---       #120
      00FF0026H   LINE      CODE     ---       #122
      00FF0028H   LINE      CODE     ---       #124
      00FF002BH   LINE      CODE     ---       #126
      00FF002DH   LINE      CODE     ---       #127
      00FF0030H   LINE      CODE     ---       #129
      00FF0033H   LINE      CODE     ---       #132
      00FF0035H   LINE      CODE     ---       #133
      00FF0038H   LINE      CODE     ---       #134
      00FF0038H   LINE      CODE     ---       #136
      00FF003AH   LINE      CODE     ---       #137
      00FF003DH   LINE      CODE     ---       #138
      00FF0041H   LINE      CODE     ---       #139
      ---         BLOCKEND  ---      ---       LVL=0

      00FF5951H   BLOCK     CODE     ---       LVL=0
      R15         REGSYM    ---      BYTE      c
      00FF5955H   BLOCK     CODE     NEAR LAB  LVL=1
      R14         REGSYM    ---      BYTE      i
      ---         BLOCKEND  ---      ---       LVL=1
      00FF5951H   LINE      CODE     ---       #145
      00FF5955H   LINE      CODE     ---       #146
      00FF5955H   LINE      CODE     ---       #147
      00FF5958H   LINE      CODE     ---       #148
      00FF595AH   LINE      CODE     ---       #150
      00FF5963H   LINE      CODE     ---       #151
      00FF5965H   LINE      CODE     ---       #152
      00FF5967H   LINE      CODE     ---       #153
      00FF596AH   LINE      CODE     ---       #154
      00FF596CH   LINE      CODE     ---       #155
      00FF596FH   LINE      CODE     ---       #156
      00FF5971H   LINE      CODE     ---       #157
      00FF5979H   LINE      CODE     ---       #158
      00FF597CH   LINE      CODE     ---       #159
      ---         BLOCKEND  ---      ---       LVL=0

      00FF5780H   BLOCK     CODE     ---       LVL=0
      R15         REGSYM    ---      BYTE      ack_x
      00FF5786H   BLOCK     CODE     NEAR LAB  LVL=1
      R13         REGSYM    ---      BYTE      i
      R14         REGSYM    ---      BYTE      c
      ---         BLOCKEND  ---      ---       LVL=1
      00FF5780H   LINE      CODE     ---       #165
      00FF5786H   LINE      CODE     ---       #166
      00FF5786H   LINE      CODE     ---       #169
      00FF5788H   LINE      CODE     ---       #170
      00FF578AH   LINE      CODE     ---       #171
      00FF578DH   LINE      CODE     ---       #172
      00FF578FH   LINE      CODE     ---       #174
      00FF5792H   LINE      CODE     ---       #176
      00FF5795H   LINE      CODE     ---       #177
      00FF5797H   LINE      CODE     ---       #178
      00FF579AH   LINE      CODE     ---       #179
      00FF579CH   LINE      CODE     ---       #180
      00FF579FH   LINE      CODE     ---       #181
      00FF57A1H   LINE      CODE     ---       #182
      00FF57A4H   LINE      CODE     ---       #184
      00FF57A6H   LINE      CODE     ---       #185
      00FF57AAH   LINE      CODE     ---       #188
      00FF57ACH   LINE      CODE     ---       #189
      00FF57AFH   LINE      CODE     ---       #190
      00FF57B4H   LINE      CODE     ---       #192
      00FF57B6H   LINE      CODE     ---       #193
L251 LINKER/LOCATER V4.66.93.0                                                        03/26/2023  21:30:35  PAGE 54


      ---         BLOCKEND  ---      ---       LVL=0

      00FF57F4H   BLOCK     CODE     ---       LVL=0
      00000803H   SYMBOL    EDATA    BYTE      dev_add
      00000804H   SYMBOL    EDATA    ---       dat
      DR12        REGSYM    ---      DWORD     len
      00FF57F4H   LINE      CODE     ---       #205
      00FF5800H   LINE      CODE     ---       #207
      00FF5803H   LINE      CODE     ---       #208
      00FF5809H   LINE      CODE     ---       #209
      00FF580BH   LINE      CODE     ---       #211
      00FF581BH   LINE      CODE     ---       #212
      00FF5823H   LINE      CODE     ---       #215
      00FF5826H   LINE      CODE     ---       #216
      ---         BLOCKEND  ---      ---       LVL=0
      R13         REGSYM    ---      BYTE      dev_add
      R14         REGSYM    ---      BYTE      reg
      R15         REGSYM    ---      BYTE      dat
      R15         REGSYM    ---      BYTE      dev_add
      R14         REGSYM    ---      BYTE      reg
      R15         REGSYM    ---      BYTE      dat

      00FF51ABH   BLOCK     CODE     ---       LVL=0
      000007F7H   SYMBOL    EDATA    BYTE      dev_add
      000007F8H   SYMBOL    EDATA    BYTE      reg
      REG=3       REGSYM    ---      ---       dat_add
      000007F9H   SYMBOL    EDATA    DWORD     num
      00FF51ABH   LINE      CODE     ---       #273
      00FF51B7H   LINE      CODE     ---       #275
      00FF51BAH   LINE      CODE     ---       #276
      00FF51C3H   LINE      CODE     ---       #277
      00FF51CAH   LINE      CODE     ---       #280
      00FF51CDH   LINE      CODE     ---       #281
      00FF51D8H   LINE      CODE     ---       #282
      00FF51DAH   LINE      CODE     ---       #284
      00FF51E2H   LINE      CODE     ---       #285
      00FF51E4H   LINE      CODE     ---       #286
      00FF51F2H   LINE      CODE     ---       #287
      00FF51F9H   LINE      CODE     ---       #288
      00FF51FCH   LINE      CODE     ---       #289
      ---         BLOCKEND  ---      ---       LVL=0
      REG=3       REGSYM    ---      ---       dat_add
      REG=3       REGSYM    ---      ---       type_is_aperture

      00FF568CH   BLOCK     CODE     ---       LVL=0
      WR30        REGSYM    ---      WORD      timeout_period_mclks
      R5          REGSYM    ---      BYTE      vcsel_period_pclks
      00FF568EH   BLOCK     CODE     NEAR LAB  LVL=1
      DR24        REGSYM    ---      DWORD     macro_period_ns
      ---         BLOCKEND  ---      ---       LVL=1
      00FF568CH   LINE      CODE     ---       #417
      00FF568EH   LINE      CODE     ---       #418
      00FF568EH   LINE      CODE     ---       #419
      00FF56AFH   LINE      CODE     ---       #421
      ---         BLOCKEND  ---      ---       LVL=0

      00FF5744H   BLOCK     CODE     ---       LVL=0
      DR28        REGSYM    ---      DWORD     timeout_period_us
      R3          REGSYM    ---      BYTE      vcsel_period_pclks
      00FF5746H   BLOCK     CODE     NEAR LAB  LVL=1
      DR8         REGSYM    ---      DWORD     macro_period_ns
      ---         BLOCKEND  ---      ---       LVL=1
      00FF5744H   LINE      CODE     ---       #432
      00FF5746H   LINE      CODE     ---       #433
      00FF5746H   LINE      CODE     ---       #434
L251 LINKER/LOCATER V4.66.93.0                                                        03/26/2023  21:30:35  PAGE 55


      00FF5767H   LINE      CODE     ---       #436
      ---         BLOCKEND  ---      ---       LVL=0

      00FF5CC1H   BLOCK     CODE     ---       LVL=0
      WR4         REGSYM    ---      WORD      reg_val
      00FF5CC1H   LINE      CODE     ---       #446
      00FF5CC3H   LINE      CODE     ---       #449
      00FF5CD0H   LINE      CODE     ---       #451
      ---         BLOCKEND  ---      ---       LVL=0

      00FF5829H   BLOCK     CODE     ---       LVL=0
      WR2         REGSYM    ---      WORD      timeout_mclks
      00FF582BH   BLOCK     CODE     NEAR LAB  LVL=1
      DR8         REGSYM    ---      DWORD     ls_byte
      WR4         REGSYM    ---      WORD      ms_byte
      WR6         REGSYM    ---      WORD      return_data
      ---         BLOCKEND  ---      ---       LVL=1
      00FF5829H   LINE      CODE     ---       #460
      00FF582BH   LINE      CODE     ---       #461
      00FF582BH   LINE      CODE     ---       #462
      00FF582BH   LINE      CODE     ---       #463
      00FF582FH   LINE      CODE     ---       #464
      00FF582FH   LINE      CODE     ---       #466
      00FF5835H   LINE      CODE     ---       #469
      00FF583BH   LINE      CODE     ---       #470
      00FF583DH   LINE      CODE     ---       #472
      00FF5846H   LINE      CODE     ---       #473
      00FF5848H   LINE      CODE     ---       #474
      00FF5852H   LINE      CODE     ---       #475
      00FF585CH   LINE      CODE     ---       #476
      00FF585CH   LINE      CODE     ---       #477
      00FF585CH   LINE      CODE     ---       #478
      ---         BLOCKEND  ---      ---       LVL=0

      00FF50FFH   BLOCK     CODE     ---       LVL=0
      REG=3       REGSYM    ---      ---       enables
      00FF5103H   BLOCK     CODE     NEAR LAB  LVL=1
      00000825H   SYMBOL    EDATA    BYTE      sequence_config
      ---         BLOCKEND  ---      ---       LVL=1
      00FF50FFH   LINE      CODE     ---       #487
      00FF5103H   LINE      CODE     ---       #488
      00FF5103H   LINE      CODE     ---       #489
      00FF5108H   LINE      CODE     ---       #490
      00FF5119H   LINE      CODE     ---       #492
      00FF5123H   LINE      CODE     ---       #493
      00FF512FH   LINE      CODE     ---       #494
      00FF513DH   LINE      CODE     ---       #495
      00FF5149H   LINE      CODE     ---       #496
      00FF5154H   LINE      CODE     ---       #497
      ---         BLOCKEND  ---      ---       LVL=0

      00FF533FH   BLOCK     CODE     ---       LVL=0
      WR6         REGSYM    ---      INT       type
      00000826H   SYMBOL    EDATA    BYTE      data_buffer
      00FF533FH   LINE      CODE     ---       #506
      00FF533FH   LINE      CODE     ---       #507
      00FF533FH   LINE      CODE     ---       #508
      00FF5344H   LINE      CODE     ---       #509
      00FF5348H   LINE      CODE     ---       #511
      00FF5355H   LINE      CODE     ---       #512
      00FF5355H   LINE      CODE     ---       #513
      00FF5357H   LINE      CODE     ---       #514
      00FF535DH   LINE      CODE     ---       #516
      00FF5371H   LINE      CODE     ---       #517
      00FF537FH   LINE      CODE     ---       #518
L251 LINKER/LOCATER V4.66.93.0                                                        03/26/2023  21:30:35  PAGE 56


      00FF5381H   LINE      CODE     ---       #521
      00FF5387H   LINE      CODE     ---       #522
      00FF5387H   LINE      CODE     ---       #523
      00FF538BH   LINE      CODE     ---       #524
      ---         BLOCKEND  ---      ---       LVL=0

      00FF4957H   BLOCK     CODE     ---       LVL=0
      000007FDH   SYMBOL    EDATA    ---       enables
      REG=3       REGSYM    ---      ---       timeouts
      00FF495FH   BLOCK     CODE     NEAR LAB  LVL=1
      00000801H   SYMBOL    EDATA    ---       reg_buffer
      WR6         REGSYM    ---      WORD      reg16_buffer
      ---         BLOCKEND  ---      ---       LVL=1
      00FF4957H   LINE      CODE     ---       #534
      00FF495FH   LINE      CODE     ---       #535
      00FF495FH   LINE      CODE     ---       #537
      00FF495FH   LINE      CODE     ---       #539
      00FF4969H   LINE      CODE     ---       #541
      00FF497DH   LINE      CODE     ---       #542
      00FF4989H   LINE      CODE     ---       #543
      00FF4997H   LINE      CODE     ---       #545
      00FF49ABH   LINE      CODE     ---       #546
      00FF49B7H   LINE      CODE     ---       #547
      00FF49BEH   LINE      CODE     ---       #548
      00FF49CCH   LINE      CODE     ---       #550
      00FF49D9H   LINE      CODE     ---       #552
      00FF49EDH   LINE      CODE     ---       #553
      00FF49F9H   LINE      CODE     ---       #554
      00FF4A00H   LINE      CODE     ---       #556
      00FF4A0AH   LINE      CODE     ---       #558
      00FF4A1CH   LINE      CODE     ---       #559
      00FF4A1CH   LINE      CODE     ---       #561
      00FF4A2FH   LINE      CODE     ---       #562
      ---         BLOCKEND  ---      ---       LVL=0
      R10         REGSYM    ---      BYTE      vhv_init_byte
      R15         REGSYM    ---      BYTE      return_state
      DR12        REGSYM    ---      DWORD     budget_us
      WR6         REGSYM    ---      WORD      dat
      DR4         REGSYM    ---      DWORD     final_range_timeout_us
      WR6         REGSYM    ---      WORD      final_range_timeout_mclks
      DR12        REGSYM    ---      DWORD     budget_us
      DR4         REGSYM    ---      FLOAT     limit_mcps
      WR6         REGSYM    ---      WORD      limit_mcps_16bit
      R15         REGSYM    ---      BYTE      return_state
      R14         REGSYM    ---      BYTE      reg_data_buffer
      R13         REGSYM    ---      BYTE      i

      ---         MODULE    ---      ---       SEEKFREE_FONT
      00FF20A6H   PUBLIC    CODE     ---       oled_8x16
      00FF2696H   PUBLIC    CODE     ---       tft_ascii
      00FF2C86H   PUBLIC    CODE     ---       oled_6x8
      000000D0H   SFRSYM    DATA     BYTE      PSW
      0000009DH   SFRSYM    DATA     BYTE      IRCBAND
      00000097H   SFRSYM    DATA     BYTE      AUXR2
      000000EFH   SFRSYM    DATA     BYTE      AUXINTIF
      000000FDH   SFRSYM    DATA     BYTE      S4CON
      000000ACH   SFRSYM    DATA     BYTE      S3CON
      0000009AH   SFRSYM    DATA     BYTE      S2CON
      000000B7H   SFRSYM    DATA     BYTE      IPH
      000000CDH   SFRSYM    DATA     BYTE      SPSTAT
      000000DDH   SFRSYM    DATA     BYTE      T4T3M
      000000C1H   SFRSYM    DATA     BYTE      WDT_CONTR
      000000DFH   SFRSYM    DATA     BYTE      IP3
      000000F4H   SFRSYM    DATA     BYTE      USBCON
      000000B5H   SFRSYM    DATA     BYTE      IP2
L251 LINKER/LOCATER V4.66.93.0                                                        03/26/2023  21:30:35  PAGE 57


      000000FFH   SFRSYM    DATA     BYTE      RSTCFG
      000000F9H   SFRSYM    DATA     BYTE      LINICR
      0000008EH   SFRSYM    DATA     BYTE      AUXR
      000000AFH   SFRSYM    DATA     BYTE      IE2
      00000088H   SFRSYM    DATA     BYTE      TCON
      00000098H   SFRSYM    DATA     BYTE      SCON
      000000F1H   SFRSYM    DATA     BYTE      CANICR
      00000087H   SFRSYM    DATA     BYTE      PCON
      000000BCH   SFRSYM    DATA     BYTE      ADC_CONTR
      000000E7H   SFRSYM    DATA     BYTE      CMPCR2
      000000E6H   SFRSYM    DATA     BYTE      CMPCR1
      000000B8H   SFRSYM    DATA     BYTE      IP
      0000008FH   SFRSYM    DATA     BYTE      INTCLKO
      000000EEH   SFRSYM    DATA     BYTE      IP3H
      000000B6H   SFRSYM    DATA     BYTE      IP2H
      000000A8H   SFRSYM    DATA     BYTE      IE
      000000BBH   SFRSYM    DATA     BYTE      P_SW3
      000000BAH   SFRSYM    DATA     BYTE      P_SW2
      000000A2H   SFRSYM    DATA     BYTE      P_SW1
      000000CEH   SFRSYM    DATA     BYTE      SPCTL
      000000F8H   SFRSYM    DATA     BYTE      P7
      000000E8H   SFRSYM    DATA     BYTE      P6
      000000C8H   SFRSYM    DATA     BYTE      P5
      000000C0H   SFRSYM    DATA     BYTE      P4
      000000B0H   SFRSYM    DATA     BYTE      P3
      000000A0H   SFRSYM    DATA     BYTE      P2
      00000090H   SFRSYM    DATA     BYTE      P1
      00000080H   SFRSYM    DATA     BYTE      P0

      ---         MODULE    ---      ---       SEEKFREE_ICM20602
      000007C9H   PUBLIC    EDATA    INT       icm20602_acc_x
      000007CBH   PUBLIC    EDATA    INT       icm20602_acc_y
      000007CDH   PUBLIC    EDATA    INT       icm20602_acc_z
      000007CFH   PUBLIC    EDATA    INT       icm20602_gyro_x
      000007D1H   PUBLIC    EDATA    INT       icm20602_gyro_y
      000007D3H   PUBLIC    EDATA    INT       icm20602_gyro_z
      000000D0H   SFRSYM    DATA     BYTE      PSW
      0000009DH   SFRSYM    DATA     BYTE      IRCBAND
      00000097H   SFRSYM    DATA     BYTE      AUXR2
      000000EFH   SFRSYM    DATA     BYTE      AUXINTIF
      000000FDH   SFRSYM    DATA     BYTE      S4CON
      000000ACH   SFRSYM    DATA     BYTE      S3CON
      0000009AH   SFRSYM    DATA     BYTE      S2CON
      000000B7H   SFRSYM    DATA     BYTE      IPH
      000000CDH   SFRSYM    DATA     BYTE      SPSTAT
      000000DDH   SFRSYM    DATA     BYTE      T4T3M
      000000C1H   SFRSYM    DATA     BYTE      WDT_CONTR
      000000DFH   SFRSYM    DATA     BYTE      IP3
      000000F4H   SFRSYM    DATA     BYTE      USBCON
      000000B5H   SFRSYM    DATA     BYTE      IP2
      000000FFH   SFRSYM    DATA     BYTE      RSTCFG
      000000F9H   SFRSYM    DATA     BYTE      LINICR
      0000008EH   SFRSYM    DATA     BYTE      AUXR
      000000AFH   SFRSYM    DATA     BYTE      IE2
      000000C0H.3 SFRSYM    DATA     BIT       P43
      000000C0H.2 SFRSYM    DATA     BIT       P42
      00000088H   SFRSYM    DATA     BYTE      TCON
      000000C0H.1 SFRSYM    DATA     BIT       P41
      00000098H   SFRSYM    DATA     BYTE      SCON
      000000C0H.0 SFRSYM    DATA     BIT       P40
      000000F1H   SFRSYM    DATA     BYTE      CANICR
      00000087H   SFRSYM    DATA     BYTE      PCON
      000000BCH   SFRSYM    DATA     BYTE      ADC_CONTR
      000000E7H   SFRSYM    DATA     BYTE      CMPCR2
      000000E6H   SFRSYM    DATA     BYTE      CMPCR1
L251 LINKER/LOCATER V4.66.93.0                                                        03/26/2023  21:30:35  PAGE 58


      000000B8H   SFRSYM    DATA     BYTE      IP
      0000008FH   SFRSYM    DATA     BYTE      INTCLKO
      000000EEH   SFRSYM    DATA     BYTE      IP3H
      000000B6H   SFRSYM    DATA     BYTE      IP2H
      000000A8H   SFRSYM    DATA     BYTE      IE
      000000BBH   SFRSYM    DATA     BYTE      P_SW3
      000000BAH   SFRSYM    DATA     BYTE      P_SW2
      000000A2H   SFRSYM    DATA     BYTE      P_SW1
      000000CEH   SFRSYM    DATA     BYTE      SPCTL
      000000F8H   SFRSYM    DATA     BYTE      P7
      000000E8H   SFRSYM    DATA     BYTE      P6
      000000C8H   SFRSYM    DATA     BYTE      P5
      000000C0H   SFRSYM    DATA     BYTE      P4
      000000B0H   SFRSYM    DATA     BYTE      P3
      000000A0H   SFRSYM    DATA     BYTE      P2
      00000090H   SFRSYM    DATA     BYTE      P1
      00000080H   SFRSYM    DATA     BYTE      P0
      00FF5C7CH   SYMBOL    CODE     ---       icm20602_read_register
      00FF5A44H   SYMBOL    CODE     ---       icm20602_simspi_wr_byte
      00FF58C3H   SYMBOL    CODE     ---       icm20602_simspi_r_reg_bytes
      00FF5BE7H   SYMBOL    CODE     ---       icm20602_simspi_r_reg_byte

      00FF5A44H   BLOCK     CODE     ---       LVL=0
      R6          REGSYM    ---      BYTE      byte
      00FF5A46H   BLOCK     CODE     NEAR LAB  LVL=1
      R7          REGSYM    ---      BYTE      i
      ---         BLOCKEND  ---      ---       LVL=1
      00FF5A44H   LINE      CODE     ---       #270
      00FF5A46H   LINE      CODE     ---       #271
      00FF5A46H   LINE      CODE     ---       #274
      00FF5A48H   LINE      CODE     ---       #276
      00FF5A4DH   LINE      CODE     ---       #277
      00FF5A4FH   LINE      CODE     ---       #278
      00FF5A51H   LINE      CODE     ---       #279
      00FF5A53H   LINE      CODE     ---       #281
      00FF5A55H   LINE      CODE     ---       #282
      00FF5A57H   LINE      CODE     ---       #283
      00FF5A5DH   LINE      CODE     ---       #284
      00FF5A64H   LINE      CODE     ---       #285
      00FF5A66H   LINE      CODE     ---       #286
      ---         BLOCKEND  ---      ---       LVL=0
      R7          REGSYM    ---      BYTE      cmd
      R15         REGSYM    ---      BYTE      val

      00FF5BE7H   BLOCK     CODE     ---       LVL=0
      R7          REGSYM    ---      BYTE      cmd
      REG=3       REGSYM    ---      ---       val
      00FF5BE7H   LINE      CODE     ---       #332
      00FF5BEDH   LINE      CODE     ---       #335
      00FF5BF0H   LINE      CODE     ---       #336
      00FF5BF5H   LINE      CODE     ---       #337
      00FF5BFCH   LINE      CODE     ---       #339
      ---         BLOCKEND  ---      ---       LVL=0

      00FF58C3H   BLOCK     CODE     ---       LVL=0
      R7          REGSYM    ---      BYTE      cmd
      REG=3       REGSYM    ---      ---       val
      00000810H   SYMBOL    EDATA    DWORD     num
      00FF58CDH   BLOCK     CODE     NEAR LAB  LVL=1
      ---         BLOCKEND  ---      ---       LVL=1
      00FF58C3H   LINE      CODE     ---       #349
      00FF58CDH   LINE      CODE     ---       #350
      00FF58CDH   LINE      CODE     ---       #351
      00FF58CDH   LINE      CODE     ---       #352
      00FF58D0H   LINE      CODE     ---       #353
L251 LINKER/LOCATER V4.66.93.0                                                        03/26/2023  21:30:35  PAGE 59


      00FF58D5H   LINE      CODE     ---       #355
      00FF58D7H   LINE      CODE     ---       #357
      00FF58E0H   LINE      CODE     ---       #358
      00FF58F0H   LINE      CODE     ---       #359
      ---         BLOCKEND  ---      ---       LVL=0
      R11         REGSYM    ---      BYTE      reg
      R7          REGSYM    ---      BYTE      dat

      00FF5C7CH   BLOCK     CODE     ---       LVL=0
      R7          REGSYM    ---      BYTE      reg
      00000827H   SYMBOL    EDATA    BYTE      dat
      00FF5C7CH   LINE      CODE     ---       #399
      00FF5C7CH   LINE      CODE     ---       #400
      00FF5C7CH   LINE      CODE     ---       #402
      00FF5C7EH   LINE      CODE     ---       #403
      00FF5C87H   LINE      CODE     ---       #404
      00FF5C89H   LINE      CODE     ---       #405
      00FF5C8DH   LINE      CODE     ---       #406
      ---         BLOCKEND  ---      ---       LVL=0
      R3          REGSYM    ---      BYTE      reg
      REG=1       REGSYM    ---      ---       dat
      DR28        REGSYM    ---      DWORD     len
      R14         REGSYM    ---      BYTE      dat
      R15         REGSYM    ---      BYTE      return_state
      WR12        REGSYM    ---      WORD      timeout_count
      WR8         REGSYM    ---      INT       acc_value
      DR4         REGSYM    ---      FLOAT     acc_data
      WR8         REGSYM    ---      INT       gyro_value
      DR4         REGSYM    ---      FLOAT     gyro_data
      R14         REGSYM    ---      BYTE      val
      R15         REGSYM    ---      BYTE      return_state
      WR12        REGSYM    ---      WORD      timeout_count

      ---         MODULE    ---      ---       SEEKFREE_IMU660RA
      000007D5H   PUBLIC    EDATA    INT       imu660ra_acc_x
      000007D7H   PUBLIC    EDATA    INT       imu660ra_acc_y
      000007D9H   PUBLIC    EDATA    INT       imu660ra_acc_z
      000007DBH   PUBLIC    EDATA    INT       imu660ra_gyro_x
      000007DDH   PUBLIC    EDATA    INT       imu660ra_gyro_y
      000007DFH   PUBLIC    EDATA    INT       imu660ra_gyro_z
      000000D0H   SFRSYM    DATA     BYTE      PSW
      0000009DH   SFRSYM    DATA     BYTE      IRCBAND
      00000097H   SFRSYM    DATA     BYTE      AUXR2
      000000EFH   SFRSYM    DATA     BYTE      AUXINTIF
      000000FDH   SFRSYM    DATA     BYTE      S4CON
      000000ACH   SFRSYM    DATA     BYTE      S3CON
      0000009AH   SFRSYM    DATA     BYTE      S2CON
      000000B7H   SFRSYM    DATA     BYTE      IPH
      000000CDH   SFRSYM    DATA     BYTE      SPSTAT
      000000DDH   SFRSYM    DATA     BYTE      T4T3M
      000000C1H   SFRSYM    DATA     BYTE      WDT_CONTR
      000000DFH   SFRSYM    DATA     BYTE      IP3
      000000F4H   SFRSYM    DATA     BYTE      USBCON
      000000B5H   SFRSYM    DATA     BYTE      IP2
      000000FFH   SFRSYM    DATA     BYTE      RSTCFG
      000000F9H   SFRSYM    DATA     BYTE      LINICR
      0000008EH   SFRSYM    DATA     BYTE      AUXR
      000000AFH   SFRSYM    DATA     BYTE      IE2
      000000C0H.3 SFRSYM    DATA     BIT       P43
      000000C0H.2 SFRSYM    DATA     BIT       P42
      00000088H   SFRSYM    DATA     BYTE      TCON
      000000C0H.1 SFRSYM    DATA     BIT       P41
      00000098H   SFRSYM    DATA     BYTE      SCON
      000000C0H.0 SFRSYM    DATA     BIT       P40
      000000F1H   SFRSYM    DATA     BYTE      CANICR
L251 LINKER/LOCATER V4.66.93.0                                                        03/26/2023  21:30:35  PAGE 60


      00000087H   SFRSYM    DATA     BYTE      PCON
      000000BCH   SFRSYM    DATA     BYTE      ADC_CONTR
      000000E7H   SFRSYM    DATA     BYTE      CMPCR2
      000000E6H   SFRSYM    DATA     BYTE      CMPCR1
      000000B8H   SFRSYM    DATA     BYTE      IP
      0000008FH   SFRSYM    DATA     BYTE      INTCLKO
      000000EEH   SFRSYM    DATA     BYTE      IP3H
      000000B6H   SFRSYM    DATA     BYTE      IP2H
      000000A8H   SFRSYM    DATA     BYTE      IE
      000000BBH   SFRSYM    DATA     BYTE      P_SW3
      000000BAH   SFRSYM    DATA     BYTE      P_SW2
      000000A2H   SFRSYM    DATA     BYTE      P_SW1
      000000CEH   SFRSYM    DATA     BYTE      SPCTL
      000000F8H   SFRSYM    DATA     BYTE      P7
      000000E8H   SFRSYM    DATA     BYTE      P6
      000000C8H   SFRSYM    DATA     BYTE      P5
      000000C0H   SFRSYM    DATA     BYTE      P4
      000000B0H   SFRSYM    DATA     BYTE      P3
      000000A0H   SFRSYM    DATA     BYTE      P2
      00000090H   SFRSYM    DATA     BYTE      P1
      00000080H   SFRSYM    DATA     BYTE      P0
      00FF5C16H   SYMBOL    CODE     ---       imu660ra_read_register
      00FF5A67H   SYMBOL    CODE     ---       imu660ra_simspi_wr_byte
      00FF58F3H   SYMBOL    CODE     ---       imu660ra_simspi_r_reg_bytes

      00FF5A67H   BLOCK     CODE     ---       LVL=0
      R6          REGSYM    ---      BYTE      byte
      00FF5A69H   BLOCK     CODE     NEAR LAB  LVL=1
      R7          REGSYM    ---      BYTE      i
      ---         BLOCKEND  ---      ---       LVL=1
      00FF5A67H   LINE      CODE     ---       #326
      00FF5A69H   LINE      CODE     ---       #327
      00FF5A69H   LINE      CODE     ---       #330
      00FF5A6BH   LINE      CODE     ---       #332
      00FF5A70H   LINE      CODE     ---       #333
      00FF5A72H   LINE      CODE     ---       #334
      00FF5A74H   LINE      CODE     ---       #335
      00FF5A76H   LINE      CODE     ---       #336
      00FF5A78H   LINE      CODE     ---       #337
      00FF5A7AH   LINE      CODE     ---       #339
      00FF5A80H   LINE      CODE     ---       #340
      00FF5A87H   LINE      CODE     ---       #341
      00FF5A89H   LINE      CODE     ---       #342
      ---         BLOCKEND  ---      ---       LVL=0
      R7          REGSYM    ---      BYTE      cmd
      R15         REGSYM    ---      BYTE      val
      R11         REGSYM    ---      BYTE      cmd
      DR12        REGSYM    ---      DWORD     len

      00FF58F3H   BLOCK     CODE     ---       LVL=0
      R7          REGSYM    ---      BYTE      cmd
      REG=3       REGSYM    ---      ---       val
      00000814H   SYMBOL    EDATA    DWORD     num
      00FF58F3H   LINE      CODE     ---       #399
      00FF58FDH   LINE      CODE     ---       #401
      00FF5900H   LINE      CODE     ---       #402
      00FF5905H   LINE      CODE     ---       #404
      00FF5907H   LINE      CODE     ---       #406
      00FF5910H   LINE      CODE     ---       #407
      00FF5920H   LINE      CODE     ---       #408
      ---         BLOCKEND  ---      ---       LVL=0
      R11         REGSYM    ---      BYTE      reg
      R7          REGSYM    ---      BYTE      dat
      R3          REGSYM    ---      BYTE      reg
      REG=1       REGSYM    ---      ---       dat
L251 LINKER/LOCATER V4.66.93.0                                                        03/26/2023  21:30:35  PAGE 61


      DR28        REGSYM    ---      DWORD     len

      00FF5C16H   BLOCK     CODE     ---       LVL=0
      R7          REGSYM    ---      BYTE      reg
      00000821H   SYMBOL    EDATA    ---       dat
      00FF5C16H   LINE      CODE     ---       #449
      00FF5C16H   LINE      CODE     ---       #450
      00FF5C16H   LINE      CODE     ---       #452
      00FF5C18H   LINE      CODE     ---       #453
      00FF5C25H   LINE      CODE     ---       #454
      00FF5C27H   LINE      CODE     ---       #455
      00FF5C2BH   LINE      CODE     ---       #456
      ---         BLOCKEND  ---      ---       LVL=0
      R3          REGSYM    ---      BYTE      reg
      REG=1       REGSYM    ---      ---       dat
      DR28        REGSYM    ---      DWORD     len
      R14         REGSYM    ---      BYTE      dat
      R15         REGSYM    ---      BYTE      return_state
      WR12        REGSYM    ---      WORD      timeout_count
      WR8         REGSYM    ---      INT       acc_value
      DR4         REGSYM    ---      FLOAT     acc_dat
      WR8         REGSYM    ---      INT       gyro_value
      DR4         REGSYM    ---      FLOAT     gyro_dat
      R15         REGSYM    ---      BYTE      return_state

      ---         MODULE    ---      ---       SEEKFREE_IMU963RA
      000007A7H   PUBLIC    EDATA    INT       imu963ra_acc_x
      000007A9H   PUBLIC    EDATA    INT       imu963ra_acc_y
      000007ABH   PUBLIC    EDATA    INT       imu963ra_acc_z
      000007ADH   PUBLIC    EDATA    INT       imu963ra_mag_x
      000007AFH   PUBLIC    EDATA    INT       imu963ra_mag_y
      000007B1H   PUBLIC    EDATA    INT       imu963ra_mag_z
      000007B3H   PUBLIC    EDATA    INT       imu963ra_gyro_x
      000007B5H   PUBLIC    EDATA    INT       imu963ra_gyro_y
      000007B7H   PUBLIC    EDATA    INT       imu963ra_gyro_z
      000000D0H   SFRSYM    DATA     BYTE      PSW
      0000009DH   SFRSYM    DATA     BYTE      IRCBAND
      00000097H   SFRSYM    DATA     BYTE      AUXR2
      000000EFH   SFRSYM    DATA     BYTE      AUXINTIF
      000000FDH   SFRSYM    DATA     BYTE      S4CON
      000000ACH   SFRSYM    DATA     BYTE      S3CON
      0000009AH   SFRSYM    DATA     BYTE      S2CON
      000000B7H   SFRSYM    DATA     BYTE      IPH
      000000CDH   SFRSYM    DATA     BYTE      SPSTAT
      000000DDH   SFRSYM    DATA     BYTE      T4T3M
      000000C1H   SFRSYM    DATA     BYTE      WDT_CONTR
      000000DFH   SFRSYM    DATA     BYTE      IP3
      000000F4H   SFRSYM    DATA     BYTE      USBCON
      000000B5H   SFRSYM    DATA     BYTE      IP2
      000000FFH   SFRSYM    DATA     BYTE      RSTCFG
      000000F9H   SFRSYM    DATA     BYTE      LINICR
      0000008EH   SFRSYM    DATA     BYTE      AUXR
      000000AFH   SFRSYM    DATA     BYTE      IE2
      000000C0H.4 SFRSYM    DATA     BIT       P44
      000000C0H.3 SFRSYM    DATA     BIT       P43
      000000C0H.2 SFRSYM    DATA     BIT       P42
      00000088H   SFRSYM    DATA     BYTE      TCON
      000000C0H.1 SFRSYM    DATA     BIT       P41
      00000098H   SFRSYM    DATA     BYTE      SCON
      000000F1H   SFRSYM    DATA     BYTE      CANICR
      00000087H   SFRSYM    DATA     BYTE      PCON
      000000BCH   SFRSYM    DATA     BYTE      ADC_CONTR
      000000E7H   SFRSYM    DATA     BYTE      CMPCR2
      000000E6H   SFRSYM    DATA     BYTE      CMPCR1
      000000B8H   SFRSYM    DATA     BYTE      IP
L251 LINKER/LOCATER V4.66.93.0                                                        03/26/2023  21:30:35  PAGE 62


      0000008FH   SFRSYM    DATA     BYTE      INTCLKO
      000000EEH   SFRSYM    DATA     BYTE      IP3H
      000000B6H   SFRSYM    DATA     BYTE      IP2H
      000000A8H   SFRSYM    DATA     BYTE      IE
      000000BBH   SFRSYM    DATA     BYTE      P_SW3
      000000BAH   SFRSYM    DATA     BYTE      P_SW2
      000000A2H   SFRSYM    DATA     BYTE      P_SW1
      000000CEH   SFRSYM    DATA     BYTE      SPCTL
      000000F8H   SFRSYM    DATA     BYTE      P7
      000000E8H   SFRSYM    DATA     BYTE      P6
      000000C8H   SFRSYM    DATA     BYTE      P5
      000000C0H   SFRSYM    DATA     BYTE      P4
      000000B0H   SFRSYM    DATA     BYTE      P3
      000000A0H   SFRSYM    DATA     BYTE      P2
      00000090H   SFRSYM    DATA     BYTE      P1
      00000080H   SFRSYM    DATA     BYTE      P0
      00FF5A8AH   SYMBOL    CODE     ---       imu963ra_simspi_wr_byte
      00FF51FFH   SYMBOL    CODE     ---       imu963ra_read_mag_register
      00FF5B68H   SYMBOL    CODE     ---       imu963ra_read_acc_gyro_register
      00FF0066H   SYMBOL    CODE     ---       imu963ra_simspi_r_reg_byte
      00FF5D42H   SYMBOL    CODE     ---       imu963ra_write_acc_gyro_register
      00FF5C56H   SYMBOL    CODE     ---       imu963ra_simspi_w_reg_byte

      00FF5A8AH   BLOCK     CODE     ---       LVL=0
      R6          REGSYM    ---      BYTE      byte
      00FF5A8CH   BLOCK     CODE     NEAR LAB  LVL=1
      R7          REGSYM    ---      BYTE      i
      ---         BLOCKEND  ---      ---       LVL=1
      00FF5A8AH   LINE      CODE     ---       #361
      00FF5A8CH   LINE      CODE     ---       #362
      00FF5A8CH   LINE      CODE     ---       #365
      00FF5A8EH   LINE      CODE     ---       #367
      00FF5A93H   LINE      CODE     ---       #368
      00FF5A95H   LINE      CODE     ---       #369
      00FF5A97H   LINE      CODE     ---       #370
      00FF5A99H   LINE      CODE     ---       #372
      00FF5A9BH   LINE      CODE     ---       #373
      00FF5A9DH   LINE      CODE     ---       #374
      00FF5AA3H   LINE      CODE     ---       #375
      00FF5AAAH   LINE      CODE     ---       #376
      00FF5AACH   LINE      CODE     ---       #377
      ---         BLOCKEND  ---      ---       LVL=0

      00FF5C56H   BLOCK     CODE     ---       LVL=0
      R7          REGSYM    ---      BYTE      cmd
      R15         REGSYM    ---      BYTE      val
      00FF5C56H   LINE      CODE     ---       #385
      00FF5C5AH   LINE      CODE     ---       #387
      00FF5C5CH   LINE      CODE     ---       #388
      00FF5C5CH   LINE      CODE     ---       #389
      00FF5C5FH   LINE      CODE     ---       #390
      00FF5C64H   LINE      CODE     ---       #391
      00FF5C66H   LINE      CODE     ---       #392
      ---         BLOCKEND  ---      ---       LVL=0

      00FF0066H   BLOCK     CODE     ---       LVL=0
      R7          REGSYM    ---      BYTE      cmd
      REG=3       REGSYM    ---      ---       val
      00FF0066H   LINE      CODE     ---       #423
      00FF006CH   LINE      CODE     ---       #425
      00FF006EH   LINE      CODE     ---       #426
      00FF0071H   LINE      CODE     ---       #427
      00FF0076H   LINE      CODE     ---       #428
      00FF007DH   LINE      CODE     ---       #429
      00FF007FH   LINE      CODE     ---       #430
L251 LINKER/LOCATER V4.66.93.0                                                        03/26/2023  21:30:35  PAGE 63


      ---         BLOCKEND  ---      ---       LVL=0
      R7          REGSYM    ---      BYTE      cmd
      REG=3       REGSYM    ---      ---       val

      00FF5D42H   BLOCK     CODE     ---       LVL=0
      R11         REGSYM    ---      BYTE      reg
      R7          REGSYM    ---      BYTE      dat
      00FF5D42H   LINE      CODE     ---       #462
      00FF5D42H   LINE      CODE     ---       #464
      00FF5D44H   LINE      CODE     ---       #465
      00FF5D47H   LINE      CODE     ---       #467
      00FF5D49H   LINE      CODE     ---       #468
      ---         BLOCKEND  ---      ---       LVL=0

      00FF5B68H   BLOCK     CODE     ---       LVL=0
      R10         REGSYM    ---      BYTE      reg
      00FF5B6AH   BLOCK     CODE     NEAR LAB  LVL=1
      00000828H   SYMBOL    EDATA    BYTE      dat
      ---         BLOCKEND  ---      ---       LVL=1
      00FF5B68H   LINE      CODE     ---       #477
      00FF5B6AH   LINE      CODE     ---       #478
      00FF5B6AH   LINE      CODE     ---       #479
      00FF5B6FH   LINE      CODE     ---       #480
      00FF5B71H   LINE      CODE     ---       #481
      00FF5B7CH   LINE      CODE     ---       #482
      00FF5B7EH   LINE      CODE     ---       #483
      00FF5B82H   LINE      CODE     ---       #484
      ---         BLOCKEND  ---      ---       LVL=0
      R3          REGSYM    ---      BYTE      reg
      REG=1       REGSYM    ---      ---       dat
      DR28        REGSYM    ---      DWORD     len
      R15         REGSYM    ---      BYTE      addr
      R13         REGSYM    ---      BYTE      reg
      R14         REGSYM    ---      BYTE      dat
      R12         REGSYM    ---      BYTE      return_state

      00FF51FFH   BLOCK     CODE     ---       LVL=0
      R10         REGSYM    ---      BYTE      addr
      R15         REGSYM    ---      BYTE      reg
      00FF5207H   BLOCK     CODE     NEAR LAB  LVL=1
      WR12        REGSYM    ---      WORD      timeout_count
      ---         BLOCKEND  ---      ---       LVL=1
      00FF51FFH   LINE      CODE     ---       #546
      00FF5207H   LINE      CODE     ---       #547
      00FF5207H   LINE      CODE     ---       #548
      00FF5209H   LINE      CODE     ---       #550
      00FF520BH   LINE      CODE     ---       #551
      00FF5215H   LINE      CODE     ---       #552
      00FF521CH   LINE      CODE     ---       #553
      00FF5224H   LINE      CODE     ---       #554
      00FF522CH   LINE      CODE     ---       #557
      00FF522EH   LINE      CODE     ---       #559
      00FF5238H   LINE      CODE     ---       #561
      00FF5238H   LINE      CODE     ---       #562
      00FF5238H   LINE      CODE     ---       #563
      00FF523FH   LINE      CODE     ---       #564
      00FF5247H   LINE      CODE     ---       #566
      00FF524CH   LINE      CODE     ---       #567
      ---         BLOCKEND  ---      ---       LVL=0
      R10         REGSYM    ---      BYTE      addr
      R15         REGSYM    ---      BYTE      reg
      R15         REGSYM    ---      BYTE      return_state
      R14         REGSYM    ---      BYTE      dat
      WR12        REGSYM    ---      WORD      timeout_count
      R15         REGSYM    ---      BYTE      return_state
L251 LINKER/LOCATER V4.66.93.0                                                        03/26/2023  21:30:35  PAGE 64


      R14         REGSYM    ---      BYTE      dat
      WR12        REGSYM    ---      WORD      timeout_count
      R11         REGSYM    ---      BYTE      temp_status
      WR8         REGSYM    ---      INT       mag_value
      DR4         REGSYM    ---      FLOAT     mag_dat
      R15         REGSYM    ---      BYTE      return_state

      ---         MODULE    ---      ---       SEEKFREE_IPS114_SPI
      00FF5B0DH   PUBLIC    CODE     ---       ips114_writedata_16bit
      00FF597FH   PUBLIC    CODE     ---       ips114_writeDatai_16bit_simspi
      00FF59ABH   PUBLIC    CODE     ---       ips114_writeIndex_simspi
      00FF5D2FH   PUBLIC    CODE     ---       ips114_writeIndex
      000000D0H   SFRSYM    DATA     BYTE      PSW
      0000009DH   SFRSYM    DATA     BYTE      IRCBAND
      00000097H   SFRSYM    DATA     BYTE      AUXR2
      000000EFH   SFRSYM    DATA     BYTE      AUXINTIF
      000000FDH   SFRSYM    DATA     BYTE      S4CON
      000000ACH   SFRSYM    DATA     BYTE      S3CON
      0000009AH   SFRSYM    DATA     BYTE      S2CON
      000000B7H   SFRSYM    DATA     BYTE      IPH
      000000CDH   SFRSYM    DATA     BYTE      SPSTAT
      000000DDH   SFRSYM    DATA     BYTE      T4T3M
      000000C1H   SFRSYM    DATA     BYTE      WDT_CONTR
      000000DFH   SFRSYM    DATA     BYTE      IP3
      000000F4H   SFRSYM    DATA     BYTE      USBCON
      000000B5H   SFRSYM    DATA     BYTE      IP2
      000000FFH   SFRSYM    DATA     BYTE      RSTCFG
      000000F9H   SFRSYM    DATA     BYTE      LINICR
      0000008EH   SFRSYM    DATA     BYTE      AUXR
      000000AFH   SFRSYM    DATA     BYTE      IE2
      000000A0H.7 SFRSYM    DATA     BIT       P27
      000000A0H.5 SFRSYM    DATA     BIT       P25
      00000088H   SFRSYM    DATA     BYTE      TCON
      000000A0H.3 SFRSYM    DATA     BIT       P23
      00000098H   SFRSYM    DATA     BYTE      SCON
      000000A0H.2 SFRSYM    DATA     BIT       P22
      000000A0H.1 SFRSYM    DATA     BIT       P21
      000000A0H.0 SFRSYM    DATA     BIT       P20
      000000F1H   SFRSYM    DATA     BYTE      CANICR
      00000087H   SFRSYM    DATA     BYTE      PCON
      000000BCH   SFRSYM    DATA     BYTE      ADC_CONTR
      000000E7H   SFRSYM    DATA     BYTE      CMPCR2
      000000E6H   SFRSYM    DATA     BYTE      CMPCR1
      000000B8H   SFRSYM    DATA     BYTE      IP
      0000008FH   SFRSYM    DATA     BYTE      INTCLKO
      000000EEH   SFRSYM    DATA     BYTE      IP3H
      000000B6H   SFRSYM    DATA     BYTE      IP2H
      000000A8H   SFRSYM    DATA     BYTE      IE
      000000BBH   SFRSYM    DATA     BYTE      P_SW3
      000000BAH   SFRSYM    DATA     BYTE      P_SW2
      000000A2H   SFRSYM    DATA     BYTE      P_SW1
      000000CEH   SFRSYM    DATA     BYTE      SPCTL
      000000F8H   SFRSYM    DATA     BYTE      P7
      000000E8H   SFRSYM    DATA     BYTE      P6
      000000C8H   SFRSYM    DATA     BYTE      P5
      000000C0H   SFRSYM    DATA     BYTE      P4
      000000B0H   SFRSYM    DATA     BYTE      P3
      000000A0H   SFRSYM    DATA     BYTE      P2
      00000090H   SFRSYM    DATA     BYTE      P1
      00000080H   SFRSYM    DATA     BYTE      P0

      00FF59ABH   BLOCK     CODE     ---       LVL=0
      R7          REGSYM    ---      BYTE      dat
      00FF59ADH   BLOCK     CODE     NEAR LAB  LVL=1
      R6          REGSYM    ---      BYTE      i
L251 LINKER/LOCATER V4.66.93.0                                                        03/26/2023  21:30:35  PAGE 65


      ---         BLOCKEND  ---      ---       LVL=1
      00FF59ABH   LINE      CODE     ---       #61
      00FF59ADH   LINE      CODE     ---       #62
      00FF59ADH   LINE      CODE     ---       #63
      00FF59B0H   LINE      CODE     ---       #64
      00FF59B2H   LINE      CODE     ---       #65
      00FF59B4H   LINE      CODE     ---       #67
      00FF59B6H   LINE      CODE     ---       #69
      00FF59B8H   LINE      CODE     ---       #71
      00FF59C1H   LINE      CODE     ---       #72
      00FF59C3H   LINE      CODE     ---       #73
      00FF59C5H   LINE      CODE     ---       #75
      00FF59C7H   LINE      CODE     ---       #76
      00FF59C9H   LINE      CODE     ---       #77
      00FF59D1H   LINE      CODE     ---       #78
      00FF59D3H   LINE      CODE     ---       #79
      ---         BLOCKEND  ---      ---       LVL=0
      R7          REGSYM    ---      BYTE      dat
      R6          REGSYM    ---      BYTE      i

      00FF597FH   BLOCK     CODE     ---       LVL=0
      WR4         REGSYM    ---      WORD      dat
      00FF5981H   BLOCK     CODE     NEAR LAB  LVL=1
      R10         REGSYM    ---      BYTE      i
      ---         BLOCKEND  ---      ---       LVL=1
      00FF597FH   LINE      CODE     ---       #115
      00FF5981H   LINE      CODE     ---       #116
      00FF5981H   LINE      CODE     ---       #117
      00FF5984H   LINE      CODE     ---       #118
      00FF5986H   LINE      CODE     ---       #119
      00FF5988H   LINE      CODE     ---       #120
      00FF598AH   LINE      CODE     ---       #121
      00FF598CH   LINE      CODE     ---       #123
      00FF5998H   LINE      CODE     ---       #124
      00FF599AH   LINE      CODE     ---       #125
      00FF599CH   LINE      CODE     ---       #127
      00FF599EH   LINE      CODE     ---       #128
      00FF59A0H   LINE      CODE     ---       #129
      00FF59A8H   LINE      CODE     ---       #130
      00FF59AAH   LINE      CODE     ---       #131
      ---         BLOCKEND  ---      ---       LVL=0
      WR12        REGSYM    ---      WORD      x2
      WR14        REGSYM    ---      WORD      y2
      WR14        REGSYM    ---      WORD      color
      R13         REGSYM    ---      BYTE      i
      WR2         REGSYM    ---      WORD      x
      WR0         REGSYM    ---      WORD      y
      WR14        REGSYM    ---      WORD      color
      WR12        REGSYM    ---      WORD      x
      WR14        REGSYM    ---      WORD      y
      REG=3       REGSYM    ---      ---       dat
      WR12        REGSYM    ---      WORD      x
      WR14        REGSYM    ---      WORD      y
      WR12        REGSYM    ---      WORD      x
      WR14        REGSYM    ---      WORD      y
      R10         REGSYM    ---      BYTE      dat
      WR12        REGSYM    ---      WORD      x
      WR14        REGSYM    ---      WORD      y
      WR12        REGSYM    ---      WORD      x
      WR14        REGSYM    ---      WORD      y
      WR2         REGSYM    ---      WORD      dat
      WR12        REGSYM    ---      WORD      y
      R15         REGSYM    ---      BYTE      num
      R14         REGSYM    ---      BYTE      length
      DR12        REGSYM    ---      FLOAT     dat
L251 LINKER/LOCATER V4.66.93.0                                                        03/26/2023  21:30:35  PAGE 66


      R7          REGSYM    ---      CHAR      point

      00FF5D2FH   BLOCK     CODE     ---       LVL=0
      R7          REGSYM    ---      BYTE      dat
      00FF5D2FH   LINE      CODE     ---       #594
      00FF5D2FH   LINE      CODE     ---       #596
      00FF5D31H   LINE      CODE     ---       #597
      00FF5D33H   LINE      CODE     ---       #599
      00FF5D36H   LINE      CODE     ---       #600
      00FF5D38H   LINE      CODE     ---       #601
      ---         BLOCKEND  ---      ---       LVL=0
      R7          REGSYM    ---      BYTE      dat

      00FF5B0DH   BLOCK     CODE     ---       LVL=0
      WR4         REGSYM    ---      WORD      dat
      00FF5B0FH   BLOCK     CODE     NEAR LAB  LVL=1
      00000823H   SYMBOL    EDATA    ---       dat1
      ---         BLOCKEND  ---      ---       LVL=1
      00FF5B0DH   LINE      CODE     ---       #626
      00FF5B0FH   LINE      CODE     ---       #627
      00FF5B0FH   LINE      CODE     ---       #629
      00FF5B13H   LINE      CODE     ---       #630
      00FF5B17H   LINE      CODE     ---       #631
      00FF5B19H   LINE      CODE     ---       #632
      00FF5B1BH   LINE      CODE     ---       #633
      00FF5B22H   LINE      CODE     ---       #634
      00FF5B29H   LINE      CODE     ---       #635
      00FF5B2BH   LINE      CODE     ---       #636
      ---         BLOCKEND  ---      ---       LVL=0
      WR12        REGSYM    ---      WORD      x2
      WR14        REGSYM    ---      WORD      y2
      WR14        REGSYM    ---      WORD      color
      R13         REGSYM    ---      BYTE      i
      WR2         REGSYM    ---      WORD      x
      WR0         REGSYM    ---      WORD      y
      WR14        REGSYM    ---      WORD      color
      WR12        REGSYM    ---      WORD      x
      WR14        REGSYM    ---      WORD      y
      REG=3       REGSYM    ---      ---       dat
      WR12        REGSYM    ---      WORD      x
      WR14        REGSYM    ---      WORD      y
      WR12        REGSYM    ---      WORD      x
      WR14        REGSYM    ---      WORD      y
      R10         REGSYM    ---      BYTE      dat
      WR12        REGSYM    ---      WORD      x
      WR14        REGSYM    ---      WORD      y
      WR12        REGSYM    ---      WORD      x
      WR14        REGSYM    ---      WORD      y
      WR2         REGSYM    ---      WORD      dat
      WR12        REGSYM    ---      WORD      y
      R15         REGSYM    ---      BYTE      num
      R14         REGSYM    ---      BYTE      length
      DR12        REGSYM    ---      FLOAT     dat
      R7          REGSYM    ---      CHAR      point

      ---         MODULE    ---      ---       SEEKFREE_MPU6050
      000007E1H   PUBLIC    EDATA    INT       mpu6050_acc_x
      000007E3H   PUBLIC    EDATA    INT       mpu6050_acc_y
      000007E5H   PUBLIC    EDATA    INT       mpu6050_acc_z
      000007E7H   PUBLIC    EDATA    INT       mpu6050_gyro_x
      000007E9H   PUBLIC    EDATA    INT       mpu6050_gyro_y
      000007EBH   PUBLIC    EDATA    INT       mpu6050_gyro_z
      000000D0H   SFRSYM    DATA     BYTE      PSW
      0000009DH   SFRSYM    DATA     BYTE      IRCBAND
      00000097H   SFRSYM    DATA     BYTE      AUXR2
L251 LINKER/LOCATER V4.66.93.0                                                        03/26/2023  21:30:35  PAGE 67


      000000EFH   SFRSYM    DATA     BYTE      AUXINTIF
      000000FDH   SFRSYM    DATA     BYTE      S4CON
      000000ACH   SFRSYM    DATA     BYTE      S3CON
      0000009AH   SFRSYM    DATA     BYTE      S2CON
      000000B7H   SFRSYM    DATA     BYTE      IPH
      000000CDH   SFRSYM    DATA     BYTE      SPSTAT
      000000DDH   SFRSYM    DATA     BYTE      T4T3M
      000000C1H   SFRSYM    DATA     BYTE      WDT_CONTR
      000000DFH   SFRSYM    DATA     BYTE      IP3
      000000F4H   SFRSYM    DATA     BYTE      USBCON
      000000B5H   SFRSYM    DATA     BYTE      IP2
      000000FFH   SFRSYM    DATA     BYTE      RSTCFG
      000000F9H   SFRSYM    DATA     BYTE      LINICR
      0000008EH   SFRSYM    DATA     BYTE      AUXR
      000000AFH   SFRSYM    DATA     BYTE      IE2
      00000088H   SFRSYM    DATA     BYTE      TCON
      000000C0H.1 SFRSYM    DATA     BIT       P41
      00000098H   SFRSYM    DATA     BYTE      SCON
      000000C0H.0 SFRSYM    DATA     BIT       P40
      000000F1H   SFRSYM    DATA     BYTE      CANICR
      00000087H   SFRSYM    DATA     BYTE      PCON
      000000BCH   SFRSYM    DATA     BYTE      ADC_CONTR
      000000E7H   SFRSYM    DATA     BYTE      CMPCR2
      000000E6H   SFRSYM    DATA     BYTE      CMPCR1
      000000B8H   SFRSYM    DATA     BYTE      IP
      0000008FH   SFRSYM    DATA     BYTE      INTCLKO
      000000EEH   SFRSYM    DATA     BYTE      IP3H
      000000B6H   SFRSYM    DATA     BYTE      IP2H
      000000A8H   SFRSYM    DATA     BYTE      IE
      000000BBH   SFRSYM    DATA     BYTE      P_SW3
      000000BAH   SFRSYM    DATA     BYTE      P_SW2
      000000A2H   SFRSYM    DATA     BYTE      P_SW1
      000000CEH   SFRSYM    DATA     BYTE      SPCTL
      000000F8H   SFRSYM    DATA     BYTE      P7
      000000E8H   SFRSYM    DATA     BYTE      P6
      000000C8H   SFRSYM    DATA     BYTE      P5
      000000C0H   SFRSYM    DATA     BYTE      P4
      000000B0H   SFRSYM    DATA     BYTE      P3
      000000A0H   SFRSYM    DATA     BYTE      P2
      00000090H   SFRSYM    DATA     BYTE      P1
      00000080H   SFRSYM    DATA     BYTE      P0
      00FF5CE0H   SYMBOL    CODE     ---       mpu6050_simiic_start
      00FF5CB0H   SYMBOL    CODE     ---       mpu6050_simiic_stop
      00FF5AEDH   SYMBOL    CODE     ---       mpu6050_simiic_sendack
      00FF5D24H   SYMBOL    CODE     ---       mpu6050_simiic_delay

      00FF5D24H   BLOCK     CODE     ---       LVL=0
      WR6         REGSYM    ---      WORD      j
      00FF5D24H   LINE      CODE     ---       #52
      00FF5D24H   LINE      CODE     ---       #53
      00FF5D24H   LINE      CODE     ---       #54
      00FF5D26H   LINE      CODE     ---       #55
      00FF5D2EH   LINE      CODE     ---       #56
      ---         BLOCKEND  ---      ---       LVL=0

      00FF5CE0H   BLOCK     CODE     ---       LVL=0
      00FF5CE0H   LINE      CODE     ---       #59
      00FF5CE0H   LINE      CODE     ---       #61
      00FF5CE2H   LINE      CODE     ---       #62
      00FF5CE4H   LINE      CODE     ---       #63
      00FF5CE7H   LINE      CODE     ---       #64
      00FF5CE9H   LINE      CODE     ---       #65
      00FF5CECH   LINE      CODE     ---       #66
      00FF5CEEH   LINE      CODE     ---       #67
      ---         BLOCKEND  ---      ---       LVL=0
L251 LINKER/LOCATER V4.66.93.0                                                        03/26/2023  21:30:35  PAGE 68



      00FF5CB0H   BLOCK     CODE     ---       LVL=0
      00FF5CB0H   LINE      CODE     ---       #70
      00FF5CB0H   LINE      CODE     ---       #72
      00FF5CB2H   LINE      CODE     ---       #73
      00FF5CB4H   LINE      CODE     ---       #74
      00FF5CB7H   LINE      CODE     ---       #75
      00FF5CB9H   LINE      CODE     ---       #76
      00FF5CBCH   LINE      CODE     ---       #77
      00FF5CBEH   LINE      CODE     ---       #78
      ---         BLOCKEND  ---      ---       LVL=0

      00FF5AEDH   BLOCK     CODE     ---       LVL=0
      R15         REGSYM    ---      BYTE      ack_dat
      00FF5AEDH   LINE      CODE     ---       #83
      00FF5AF1H   LINE      CODE     ---       #85
      00FF5AF3H   LINE      CODE     ---       #86
      00FF5AF6H   LINE      CODE     ---       #87
      00FF5AFEH   LINE      CODE     ---       #88
      00FF5B00H   LINE      CODE     ---       #90
      00FF5B02H   LINE      CODE     ---       #91
      00FF5B05H   LINE      CODE     ---       #92
      00FF5B07H   LINE      CODE     ---       #93
      00FF5B0AH   LINE      CODE     ---       #94
      ---         BLOCKEND  ---      ---       LVL=0
      R15         REGSYM    ---      BYTE      c
      R14         REGSYM    ---      BYTE      i
      R15         REGSYM    ---      BYTE      ack_x
      R13         REGSYM    ---      BYTE      i
      R14         REGSYM    ---      BYTE      c
      R13         REGSYM    ---      BYTE      dev_add
      R14         REGSYM    ---      BYTE      reg
      R15         REGSYM    ---      BYTE      dat
      R15         REGSYM    ---      BYTE      dev_add
      R14         REGSYM    ---      BYTE      reg
      R15         REGSYM    ---      BYTE      dat
      REG=3       REGSYM    ---      ---       dat_add

      ---         MODULE    ---      ---       SEEKFREE_PRINTF
      000000D0H   SFRSYM    DATA     BYTE      PSW
      0000009DH   SFRSYM    DATA     BYTE      IRCBAND
      00000097H   SFRSYM    DATA     BYTE      AUXR2
      000000EFH   SFRSYM    DATA     BYTE      AUXINTIF
      000000FDH   SFRSYM    DATA     BYTE      S4CON
      000000ACH   SFRSYM    DATA     BYTE      S3CON
      0000009AH   SFRSYM    DATA     BYTE      S2CON
      000000B7H   SFRSYM    DATA     BYTE      IPH
      000000CDH   SFRSYM    DATA     BYTE      SPSTAT
      000000DDH   SFRSYM    DATA     BYTE      T4T3M
      000000C1H   SFRSYM    DATA     BYTE      WDT_CONTR
      000000DFH   SFRSYM    DATA     BYTE      IP3
      000000F4H   SFRSYM    DATA     BYTE      USBCON
      000000B5H   SFRSYM    DATA     BYTE      IP2
      000000FFH   SFRSYM    DATA     BYTE      RSTCFG
      000000F9H   SFRSYM    DATA     BYTE      LINICR
      0000008EH   SFRSYM    DATA     BYTE      AUXR
      000000AFH   SFRSYM    DATA     BYTE      IE2
      00000088H   SFRSYM    DATA     BYTE      TCON
      00000098H   SFRSYM    DATA     BYTE      SCON
      000000F1H   SFRSYM    DATA     BYTE      CANICR
      00000087H   SFRSYM    DATA     BYTE      PCON
      000000BCH   SFRSYM    DATA     BYTE      ADC_CONTR
      000000E7H   SFRSYM    DATA     BYTE      CMPCR2
      000000E6H   SFRSYM    DATA     BYTE      CMPCR1
      000000B8H   SFRSYM    DATA     BYTE      IP
L251 LINKER/LOCATER V4.66.93.0                                                        03/26/2023  21:30:35  PAGE 69


      0000008FH   SFRSYM    DATA     BYTE      INTCLKO
      000000EEH   SFRSYM    DATA     BYTE      IP3H
      000000B6H   SFRSYM    DATA     BYTE      IP2H
      000000A8H   SFRSYM    DATA     BYTE      IE
      000000BBH   SFRSYM    DATA     BYTE      P_SW3
      000000BAH   SFRSYM    DATA     BYTE      P_SW2
      000000A2H   SFRSYM    DATA     BYTE      P_SW1
      000000CEH   SFRSYM    DATA     BYTE      SPCTL
      000000F8H   SFRSYM    DATA     BYTE      P7
      000000E8H   SFRSYM    DATA     BYTE      P6
      000000C8H   SFRSYM    DATA     BYTE      P5
      000000C0H   SFRSYM    DATA     BYTE      P4
      000000B0H   SFRSYM    DATA     BYTE      P3
      000000A0H   SFRSYM    DATA     BYTE      P2
      00000090H   SFRSYM    DATA     BYTE      P1
      00000080H   SFRSYM    DATA     BYTE      P0
      DR24        REGSYM    ---      DWORD     dat
      REG=7       REGSYM    ---      ---       p
      R10         REGSYM    ---      BYTE      neg_type
      DR20        REGSYM    ---      LONG      neg_dat
      DR24        REGSYM    ---      DWORD     pos_dat
      R14         REGSYM    ---      BYTE      temp_data
      R15         REGSYM    ---      BYTE      valid_num
      REG=7       REGSYM    ---      ---       d_buff
      DR24        REGSYM    ---      DWORD     len
      DR4         REGSYM    ---      DWORD     i
      R3          REGSYM    ---      CHAR      temp_data
      REG=3       REGSYM    ---      ---       buff

      ---         MODULE    ---      ---       SEEKFREE_TSL1401
      000003C9H   PUBLIC    EDATA    BYTE      tsl1401_finish_flag
      000003CAH   PUBLIC    EDATA    ---       ccd_data
      000000D0H   SFRSYM    DATA     BYTE      PSW
      0000009DH   SFRSYM    DATA     BYTE      IRCBAND
      00000097H   SFRSYM    DATA     BYTE      AUXR2
      000000EFH   SFRSYM    DATA     BYTE      AUXINTIF
      000000FDH   SFRSYM    DATA     BYTE      S4CON
      000000ACH   SFRSYM    DATA     BYTE      S3CON
      0000009AH   SFRSYM    DATA     BYTE      S2CON
      000000B7H   SFRSYM    DATA     BYTE      IPH
      000000CDH   SFRSYM    DATA     BYTE      SPSTAT
      000000DDH   SFRSYM    DATA     BYTE      T4T3M
      000000C1H   SFRSYM    DATA     BYTE      WDT_CONTR
      000000DFH   SFRSYM    DATA     BYTE      IP3
      000000F4H   SFRSYM    DATA     BYTE      USBCON
      000000B5H   SFRSYM    DATA     BYTE      IP2
      000000FFH   SFRSYM    DATA     BYTE      RSTCFG
      000000F9H   SFRSYM    DATA     BYTE      LINICR
      0000008EH   SFRSYM    DATA     BYTE      AUXR
      000000AFH   SFRSYM    DATA     BYTE      IE2
      000000B0H.3 SFRSYM    DATA     BIT       P33
      00000088H   SFRSYM    DATA     BYTE      TCON
      000000B0H.2 SFRSYM    DATA     BIT       P32
      00000098H   SFRSYM    DATA     BYTE      SCON
      000000F1H   SFRSYM    DATA     BYTE      CANICR
      00000087H   SFRSYM    DATA     BYTE      PCON
      000000BCH   SFRSYM    DATA     BYTE      ADC_CONTR
      000000E7H   SFRSYM    DATA     BYTE      CMPCR2
      000000E6H   SFRSYM    DATA     BYTE      CMPCR1
      000000B8H   SFRSYM    DATA     BYTE      IP
      0000008FH   SFRSYM    DATA     BYTE      INTCLKO
      000000EEH   SFRSYM    DATA     BYTE      IP3H
      000000B6H   SFRSYM    DATA     BYTE      IP2H
      000000A8H   SFRSYM    DATA     BYTE      IE
      000000BBH   SFRSYM    DATA     BYTE      P_SW3
L251 LINKER/LOCATER V4.66.93.0                                                        03/26/2023  21:30:35  PAGE 70


      000000BAH   SFRSYM    DATA     BYTE      P_SW2
      000000A2H   SFRSYM    DATA     BYTE      P_SW1
      000000CEH   SFRSYM    DATA     BYTE      SPCTL
      000000F8H   SFRSYM    DATA     BYTE      P7
      000000E8H   SFRSYM    DATA     BYTE      P6
      000000C8H   SFRSYM    DATA     BYTE      P5
      000000C0H   SFRSYM    DATA     BYTE      P4
      000000B0H   SFRSYM    DATA     BYTE      P3
      000000A0H   SFRSYM    DATA     BYTE      P2
      00000090H   SFRSYM    DATA     BYTE      P1
      00000080H   SFRSYM    DATA     BYTE      P0
      REG=3       REGSYM    ---      ---       dat
      R15         REGSYM    ---      BYTE      i

      ---         MODULE    ---      ---       SEEKFREE_VIRSCO
      000007EDH   PUBLIC    EDATA    ---       virtual_scope_data
      000000D0H   SFRSYM    DATA     BYTE      PSW
      0000009DH   SFRSYM    DATA     BYTE      IRCBAND
      00000097H   SFRSYM    DATA     BYTE      AUXR2
      000000EFH   SFRSYM    DATA     BYTE      AUXINTIF
      000000FDH   SFRSYM    DATA     BYTE      S4CON
      000000ACH   SFRSYM    DATA     BYTE      S3CON
      0000009AH   SFRSYM    DATA     BYTE      S2CON
      000000B7H   SFRSYM    DATA     BYTE      IPH
      000000CDH   SFRSYM    DATA     BYTE      SPSTAT
      000000DDH   SFRSYM    DATA     BYTE      T4T3M
      000000C1H   SFRSYM    DATA     BYTE      WDT_CONTR
      000000DFH   SFRSYM    DATA     BYTE      IP3
      000000F4H   SFRSYM    DATA     BYTE      USBCON
      000000B5H   SFRSYM    DATA     BYTE      IP2
      000000FFH   SFRSYM    DATA     BYTE      RSTCFG
      000000F9H   SFRSYM    DATA     BYTE      LINICR
      0000008EH   SFRSYM    DATA     BYTE      AUXR
      000000AFH   SFRSYM    DATA     BYTE      IE2
      00000088H   SFRSYM    DATA     BYTE      TCON
      00000098H   SFRSYM    DATA     BYTE      SCON
      000000F1H   SFRSYM    DATA     BYTE      CANICR
      00000087H   SFRSYM    DATA     BYTE      PCON
      000000BCH   SFRSYM    DATA     BYTE      ADC_CONTR
      000000E7H   SFRSYM    DATA     BYTE      CMPCR2
      000000E6H   SFRSYM    DATA     BYTE      CMPCR1
      000000B8H   SFRSYM    DATA     BYTE      IP
      0000008FH   SFRSYM    DATA     BYTE      INTCLKO
      000000EEH   SFRSYM    DATA     BYTE      IP3H
      000000B6H   SFRSYM    DATA     BYTE      IP2H
      000000A8H   SFRSYM    DATA     BYTE      IE
      000000BBH   SFRSYM    DATA     BYTE      P_SW3
      000000BAH   SFRSYM    DATA     BYTE      P_SW2
      000000A2H   SFRSYM    DATA     BYTE      P_SW1
      000000CEH   SFRSYM    DATA     BYTE      SPCTL
      000000F8H   SFRSYM    DATA     BYTE      P7
      000000E8H   SFRSYM    DATA     BYTE      P6
      000000C8H   SFRSYM    DATA     BYTE      P5
      000000C0H   SFRSYM    DATA     BYTE      P4
      000000B0H   SFRSYM    DATA     BYTE      P3
      000000A0H   SFRSYM    DATA     BYTE      P2
      00000090H   SFRSYM    DATA     BYTE      P1
      00000080H   SFRSYM    DATA     BYTE      P0
      REG=7       REGSYM    ---      ---       Buf
      R10         REGSYM    ---      BYTE      CRC_CNT
      WR6         REGSYM    ---      WORD      CRC_Temp
      R5          REGSYM    ---      BYTE      i
      R4          REGSYM    ---      BYTE      j
      WR0         REGSYM    ---      INT       data1
      WR30        REGSYM    ---      INT       data2
L251 LINKER/LOCATER V4.66.93.0                                                        03/26/2023  21:30:35  PAGE 71


      WR8         REGSYM    ---      INT       data3
      WR10        REGSYM    ---      INT       data4
      WR6         REGSYM    ---      WORD      CRC16

      ---         MODULE    ---      ---       SEEKFREE_WIRELESS
      00FF5BB5H   PUBLIC    CODE     ---       wireless_uart_callback
      000000D0H   SFRSYM    DATA     BYTE      PSW
      0000009DH   SFRSYM    DATA     BYTE      IRCBAND
      00000097H   SFRSYM    DATA     BYTE      AUXR2
      000000EFH   SFRSYM    DATA     BYTE      AUXINTIF
      000000FDH   SFRSYM    DATA     BYTE      S4CON
      000000ACH   SFRSYM    DATA     BYTE      S3CON
      0000009AH   SFRSYM    DATA     BYTE      S2CON
      000000FEH   SFRSYM    DATA     BYTE      S4BUF
      000000B7H   SFRSYM    DATA     BYTE      IPH
      000000CDH   SFRSYM    DATA     BYTE      SPSTAT
      000000DDH   SFRSYM    DATA     BYTE      T4T3M
      000000C1H   SFRSYM    DATA     BYTE      WDT_CONTR
      000000DFH   SFRSYM    DATA     BYTE      IP3
      000000F4H   SFRSYM    DATA     BYTE      USBCON
      000000B5H   SFRSYM    DATA     BYTE      IP2
      000000FFH   SFRSYM    DATA     BYTE      RSTCFG
      000000F9H   SFRSYM    DATA     BYTE      LINICR
      0000008EH   SFRSYM    DATA     BYTE      AUXR
      000000AFH   SFRSYM    DATA     BYTE      IE2
      00000080H.7 SFRSYM    DATA     BIT       P07
      00000088H   SFRSYM    DATA     BYTE      TCON
      00000098H   SFRSYM    DATA     BYTE      SCON
      000000F1H   SFRSYM    DATA     BYTE      CANICR
      00000087H   SFRSYM    DATA     BYTE      PCON
      000000BCH   SFRSYM    DATA     BYTE      ADC_CONTR
      000000E7H   SFRSYM    DATA     BYTE      CMPCR2
      000000E6H   SFRSYM    DATA     BYTE      CMPCR1
      000000B8H   SFRSYM    DATA     BYTE      IP
      0000008FH   SFRSYM    DATA     BYTE      INTCLKO
      000000EEH   SFRSYM    DATA     BYTE      IP3H
      000000B6H   SFRSYM    DATA     BYTE      IP2H
      000000A8H   SFRSYM    DATA     BYTE      IE
      000000BBH   SFRSYM    DATA     BYTE      P_SW3
      000000BAH   SFRSYM    DATA     BYTE      P_SW2
      000000A2H   SFRSYM    DATA     BYTE      P_SW1
      000000CEH   SFRSYM    DATA     BYTE      SPCTL
      000000F8H   SFRSYM    DATA     BYTE      P7
      000000E8H   SFRSYM    DATA     BYTE      P6
      000000C8H   SFRSYM    DATA     BYTE      P5
      000000C0H   SFRSYM    DATA     BYTE      P4
      000000B0H   SFRSYM    DATA     BYTE      P3
      000000A0H   SFRSYM    DATA     BYTE      P2
      00000090H   SFRSYM    DATA     BYTE      P1
      00000080H   SFRSYM    DATA     BYTE      P0
      0000067CH   SYMBOL    EDATA    BYTE      wireless_uart_data
      0000067DH   SYMBOL    EDATA    ---       wireless_uart_fifo
      00000691H   SYMBOL    EDATA    ---       wireless_uart_buffer

      00FF5BB5H   BLOCK     CODE     ---       LVL=0
      00FF5BB5H   LINE      CODE     ---       #48
      00FF5BB5H   LINE      CODE     ---       #51
      00FF5BBBH   LINE      CODE     ---       #52
      ---         BLOCKEND  ---      ---       LVL=0
      REG=3       REGSYM    ---      ---       buff
      REG=7       REGSYM    ---      ---       buff
      DR8         REGSYM    ---      DWORD     len

      ---         MODULE    ---      ---       SEEKFREE_WIRELESS_CH573
      00FF5BCEH   PUBLIC    CODE     ---       wireless_ch573_callback
L251 LINKER/LOCATER V4.66.93.0                                                        03/26/2023  21:30:35  PAGE 72


      000000D0H   SFRSYM    DATA     BYTE      PSW
      0000009DH   SFRSYM    DATA     BYTE      IRCBAND
      00000097H   SFRSYM    DATA     BYTE      AUXR2
      000000EFH   SFRSYM    DATA     BYTE      AUXINTIF
      000000FDH   SFRSYM    DATA     BYTE      S4CON
      000000ACH   SFRSYM    DATA     BYTE      S3CON
      0000009AH   SFRSYM    DATA     BYTE      S2CON
      000000FEH   SFRSYM    DATA     BYTE      S4BUF
      000000B7H   SFRSYM    DATA     BYTE      IPH
      000000CDH   SFRSYM    DATA     BYTE      SPSTAT
      000000DDH   SFRSYM    DATA     BYTE      T4T3M
      000000C1H   SFRSYM    DATA     BYTE      WDT_CONTR
      000000DFH   SFRSYM    DATA     BYTE      IP3
      000000F4H   SFRSYM    DATA     BYTE      USBCON
      000000B5H   SFRSYM    DATA     BYTE      IP2
      000000FFH   SFRSYM    DATA     BYTE      RSTCFG
      000000F9H   SFRSYM    DATA     BYTE      LINICR
      0000008EH   SFRSYM    DATA     BYTE      AUXR
      000000AFH   SFRSYM    DATA     BYTE      IE2
      00000080H.7 SFRSYM    DATA     BIT       P07
      00000088H   SFRSYM    DATA     BYTE      TCON
      00000098H   SFRSYM    DATA     BYTE      SCON
      000000F1H   SFRSYM    DATA     BYTE      CANICR
      00000087H   SFRSYM    DATA     BYTE      PCON
      000000BCH   SFRSYM    DATA     BYTE      ADC_CONTR
      000000E7H   SFRSYM    DATA     BYTE      CMPCR2
      000000E6H   SFRSYM    DATA     BYTE      CMPCR1
      000000B8H   SFRSYM    DATA     BYTE      IP
      0000008FH   SFRSYM    DATA     BYTE      INTCLKO
      000000EEH   SFRSYM    DATA     BYTE      IP3H
      000000B6H   SFRSYM    DATA     BYTE      IP2H
      000000A8H   SFRSYM    DATA     BYTE      IE
      000000BBH   SFRSYM    DATA     BYTE      P_SW3
      000000BAH   SFRSYM    DATA     BYTE      P_SW2
      000000A2H   SFRSYM    DATA     BYTE      P_SW1
      000000CEH   SFRSYM    DATA     BYTE      SPCTL
      000000F8H   SFRSYM    DATA     BYTE      P7
      000000E8H   SFRSYM    DATA     BYTE      P6
      000000C8H   SFRSYM    DATA     BYTE      P5
      000000C0H   SFRSYM    DATA     BYTE      P4
      000000B0H   SFRSYM    DATA     BYTE      P3
      000000A0H   SFRSYM    DATA     BYTE      P2
      00000090H   SFRSYM    DATA     BYTE      P1
      00000080H   SFRSYM    DATA     BYTE      P0
      000006D1H   SYMBOL    EDATA    ---       wireless_ch573_buffer
      00000711H   SYMBOL    EDATA    BYTE      wireless_ch573_data
      00000712H   SYMBOL    EDATA    ---       wireless_ch573_fifo

      00FF5BCEH   BLOCK     CODE     ---       LVL=0
      00FF5BCEH   LINE      CODE     ---       #39
      00FF5BCEH   LINE      CODE     ---       #42
      00FF5BD4H   LINE      CODE     ---       #43
      ---         BLOCKEND  ---      ---       LVL=0
      REG=3       REGSYM    ---      ---       buff
      REG=7       REGSYM    ---      ---       buff
      DR8         REGSYM    ---      DWORD     len

      ---         MODULE    ---      ---       isr
      00FF56CAH   PUBLIC    CODE     ---       UART1_Isr
      00FF5B2CH   PUBLIC    CODE     ---       UART2_Isr
      00FF5B4AH   PUBLIC    CODE     ---       UART3_Isr
      00FF4F7FH   PUBLIC    CODE     ---       UART4_Isr
      00FF5D72H   PUBLIC    CODE     ---       INT0_Isr
      00FF0011H   PUBLIC    CODE     ---       INT1_Isr
      00FF5D4AH   PUBLIC    CODE     ---       INT2_Isr
L251 LINKER/LOCATER V4.66.93.0                                                        03/26/2023  21:30:35  PAGE 73


      00FF5D52H   PUBLIC    CODE     ---       INT3_Isr
      00FF5D5AH   PUBLIC    CODE     ---       INT4_Isr
      00FF0012H   PUBLIC    CODE     ---       TM0_Isr
      00FF0016H   PUBLIC    CODE     ---       TM1_Isr
      00FF5D62H   PUBLIC    CODE     ---       TM2_Isr
      00FF5D6AH   PUBLIC    CODE     ---       TM3_Isr
      00FF4E9FH   PUBLIC    CODE     ---       TM4_Isr
      000000D0H   SFRSYM    DATA     BYTE      PSW
      0000009DH   SFRSYM    DATA     BYTE      IRCBAND
      00000097H   SFRSYM    DATA     BYTE      AUXR2
      000000EFH   SFRSYM    DATA     BYTE      AUXINTIF
      000000FDH   SFRSYM    DATA     BYTE      S4CON
      000000ACH   SFRSYM    DATA     BYTE      S3CON
      0000009AH   SFRSYM    DATA     BYTE      S2CON
      000000B7H   SFRSYM    DATA     BYTE      IPH
      000000CDH   SFRSYM    DATA     BYTE      SPSTAT
      000000DDH   SFRSYM    DATA     BYTE      T4T3M
      000000C1H   SFRSYM    DATA     BYTE      WDT_CONTR
      000000DFH   SFRSYM    DATA     BYTE      IP3
      000000F4H   SFRSYM    DATA     BYTE      USBCON
      000000B5H   SFRSYM    DATA     BYTE      IP2
      000000FFH   SFRSYM    DATA     BYTE      RSTCFG
      000000C7H   SFRSYM    DATA     BYTE      IAP_CONTR
      000000F9H   SFRSYM    DATA     BYTE      LINICR
      0000008EH   SFRSYM    DATA     BYTE      AUXR
      000000AFH   SFRSYM    DATA     BYTE      IE2
      000000C8H.2 SFRSYM    DATA     BIT       P52
      00000088H   SFRSYM    DATA     BYTE      TCON
      00000098H   SFRSYM    DATA     BYTE      SCON
      000000F1H   SFRSYM    DATA     BYTE      CANICR
      00000087H   SFRSYM    DATA     BYTE      PCON
      00000099H   SFRSYM    DATA     BYTE      SBUF
      000000BCH   SFRSYM    DATA     BYTE      ADC_CONTR
      000000E7H   SFRSYM    DATA     BYTE      CMPCR2
      000000E6H   SFRSYM    DATA     BYTE      CMPCR1
      000000B8H   SFRSYM    DATA     BYTE      IP
      0000008FH   SFRSYM    DATA     BYTE      INTCLKO
      000000EEH   SFRSYM    DATA     BYTE      IP3H
      000000B6H   SFRSYM    DATA     BYTE      IP2H
      000000A8H   SFRSYM    DATA     BYTE      IE
      000000BBH   SFRSYM    DATA     BYTE      P_SW3
      000000BAH   SFRSYM    DATA     BYTE      P_SW2
      000000A2H   SFRSYM    DATA     BYTE      P_SW1
      000000CEH   SFRSYM    DATA     BYTE      SPCTL
      000000F8H   SFRSYM    DATA     BYTE      P7
      000000E8H   SFRSYM    DATA     BYTE      P6
      000000C8H   SFRSYM    DATA     BYTE      P5
      000000C0H   SFRSYM    DATA     BYTE      P4
      000000B0H   SFRSYM    DATA     BYTE      P3
      000000A0H   SFRSYM    DATA     BYTE      P2
      00000090H   SFRSYM    DATA     BYTE      P1
      00000080H   SFRSYM    DATA     BYTE      P0

      00FF56CAH   BLOCK     CODE     ---       LVL=0
      00FF56CEH   BLOCK     CODE     NEAR LAB  LVL=1
      R11         REGSYM    ---      BYTE      res
      00000829H   SYMBOL    EDATA    BYTE      dwon_count
      ---         BLOCKEND  ---      ---       LVL=1
      00FF56CAH   LINE      CODE     ---       #22
      00FF56CEH   LINE      CODE     ---       #23
      00FF56CEH   LINE      CODE     ---       #26
      00FF56D3H   LINE      CODE     ---       #28
      00FF56D6H   LINE      CODE     ---       #29
      00FF56DBH   LINE      CODE     ---       #30
      00FF56DBH   LINE      CODE     ---       #31
L251 LINKER/LOCATER V4.66.93.0                                                        03/26/2023  21:30:35  PAGE 74


      00FF56E0H   LINE      CODE     ---       #33
      00FF56E3H   LINE      CODE     ---       #34
      00FF56E5H   LINE      CODE     ---       #36
      00FF56E8H   LINE      CODE     ---       #38
      00FF56F8H   LINE      CODE     ---       #39
      00FF56FBH   LINE      CODE     ---       #40
      00FF56FDH   LINE      CODE     ---       #43
      00FF5702H   LINE      CODE     ---       #44
      00FF5702H   LINE      CODE     ---       #45
      ---         BLOCKEND  ---      ---       LVL=0

      00FF5B2CH   BLOCK     CODE     ---       LVL=0
      00FF5B2CH   LINE      CODE     ---       #49
      00FF5B30H   LINE      CODE     ---       #51
      00FF5B35H   LINE      CODE     ---       #53
      00FF5B38H   LINE      CODE     ---       #54
      00FF5B3DH   LINE      CODE     ---       #55
      00FF5B3DH   LINE      CODE     ---       #56
      00FF5B42H   LINE      CODE     ---       #58
      00FF5B45H   LINE      CODE     ---       #61
      ---         BLOCKEND  ---      ---       LVL=0

      00FF5B4AH   BLOCK     CODE     ---       LVL=0
      00FF5B4AH   LINE      CODE     ---       #66
      00FF5B4EH   LINE      CODE     ---       #68
      00FF5B53H   LINE      CODE     ---       #70
      00FF5B56H   LINE      CODE     ---       #71
      00FF5B5BH   LINE      CODE     ---       #72
      00FF5B5BH   LINE      CODE     ---       #73
      00FF5B60H   LINE      CODE     ---       #75
      00FF5B63H   LINE      CODE     ---       #78
      ---         BLOCKEND  ---      ---       LVL=0

      00FF4F7FH   BLOCK     CODE     ---       LVL=0
      00FF4F7FH   LINE      CODE     ---       #83
      00FF4F97H   LINE      CODE     ---       #85
      00FF4F9CH   LINE      CODE     ---       #87
      00FF4F9FH   LINE      CODE     ---       #88
      00FF4FA4H   LINE      CODE     ---       #89
      00FF4FA4H   LINE      CODE     ---       #90
      00FF4FA9H   LINE      CODE     ---       #92
      00FF4FACH   LINE      CODE     ---       #95
      00FF4FB6H   LINE      CODE     ---       #97
      00FF4FB9H   LINE      CODE     ---       #98
      00FF4FBBH   LINE      CODE     ---       #99
      00FF4FC1H   LINE      CODE     ---       #101
      00FF4FC4H   LINE      CODE     ---       #102
      00FF4FC6H   LINE      CODE     ---       #103
      00FF4FCCH   LINE      CODE     ---       #105
      00FF4FCFH   LINE      CODE     ---       #106
      00FF4FCFH   LINE      CODE     ---       #108
      ---         BLOCKEND  ---      ---       LVL=0

      00FF5D72H   BLOCK     CODE     ---       LVL=0
      00FF5D72H   LINE      CODE     ---       #111
      00FF5D74H   LINE      CODE     ---       #113
      00FF5D76H   LINE      CODE     ---       #114
      ---         BLOCKEND  ---      ---       LVL=0

      00FF0011H   BLOCK     CODE     ---       LVL=0
      00FF0011H   LINE      CODE     ---       #115
      00FF0011H   LINE      CODE     ---       #118
      ---         BLOCKEND  ---      ---       LVL=0

      00FF5D4AH   BLOCK     CODE     ---       LVL=0
L251 LINKER/LOCATER V4.66.93.0                                                        03/26/2023  21:30:35  PAGE 75


      00FF5D4AH   LINE      CODE     ---       #119
      00FF5D4CH   LINE      CODE     ---       #121
      00FF5D4FH   LINE      CODE     ---       #122
      ---         BLOCKEND  ---      ---       LVL=0

      00FF5D52H   BLOCK     CODE     ---       LVL=0
      00FF5D52H   LINE      CODE     ---       #123
      00FF5D54H   LINE      CODE     ---       #125
      00FF5D57H   LINE      CODE     ---       #126
      ---         BLOCKEND  ---      ---       LVL=0

      00FF5D5AH   BLOCK     CODE     ---       LVL=0
      00FF5D5AH   LINE      CODE     ---       #128
      00FF5D5CH   LINE      CODE     ---       #130
      00FF5D5FH   LINE      CODE     ---       #131
      ---         BLOCKEND  ---      ---       LVL=0

      00FF0012H   BLOCK     CODE     ---       LVL=0
      00FF0012H   LINE      CODE     ---       #133
      00FF0012H   LINE      CODE     ---       #136
      ---         BLOCKEND  ---      ---       LVL=0

      00FF0016H   BLOCK     CODE     ---       LVL=0
      00FF0016H   LINE      CODE     ---       #137
      00FF0016H   LINE      CODE     ---       #140
      ---         BLOCKEND  ---      ---       LVL=0

      00FF5D62H   BLOCK     CODE     ---       LVL=0
      00FF5D62H   LINE      CODE     ---       #141
      00FF5D64H   LINE      CODE     ---       #143
      00FF5D67H   LINE      CODE     ---       #145
      ---         BLOCKEND  ---      ---       LVL=0

      00FF5D6AH   BLOCK     CODE     ---       LVL=0
      00FF5D6AH   LINE      CODE     ---       #146
      00FF5D6CH   LINE      CODE     ---       #148
      00FF5D6FH   LINE      CODE     ---       #150
      ---         BLOCKEND  ---      ---       LVL=0

      00FF4E9FH   BLOCK     CODE     ---       LVL=0
      00FF4E9FH   LINE      CODE     ---       #152
      00FF4EB5H   LINE      CODE     ---       #154
      00FF4EB8H   LINE      CODE     ---       #156
      00FF4EBBH   LINE      CODE     ---       #158
      00FF4ECFH   LINE      CODE     ---       #160
      00FF4ED5H   LINE      CODE     ---       #161
      00FF4ED5H   LINE      CODE     ---       #162
      00FF4ED7H   LINE      CODE     ---       #165
      00FF4EEAH   LINE      CODE     ---       #166
      00FF4EF4H   LINE      CODE     ---       #167
      00FF4EF4H   LINE      CODE     ---       #170
      00FF4EFBH   LINE      CODE     ---       #172
      ---         BLOCKEND  ---      ---       LVL=0

      ---         MODULE    ---      ---       main
      00FF4F12H   PUBLIC    CODE     ---       main
      000000D0H   SFRSYM    DATA     BYTE      PSW
      0000009DH   SFRSYM    DATA     BYTE      IRCBAND
      00000097H   SFRSYM    DATA     BYTE      AUXR2
      000000EFH   SFRSYM    DATA     BYTE      AUXINTIF
      000000FDH   SFRSYM    DATA     BYTE      S4CON
      000000ACH   SFRSYM    DATA     BYTE      S3CON
      0000009AH   SFRSYM    DATA     BYTE      S2CON
      000000B7H   SFRSYM    DATA     BYTE      IPH
      000000CDH   SFRSYM    DATA     BYTE      SPSTAT
L251 LINKER/LOCATER V4.66.93.0                                                        03/26/2023  21:30:35  PAGE 76


      000000DDH   SFRSYM    DATA     BYTE      T4T3M
      000000C1H   SFRSYM    DATA     BYTE      WDT_CONTR
      000000DFH   SFRSYM    DATA     BYTE      IP3
      000000F4H   SFRSYM    DATA     BYTE      USBCON
      000000B5H   SFRSYM    DATA     BYTE      IP2
      000000FFH   SFRSYM    DATA     BYTE      RSTCFG
      000000F9H   SFRSYM    DATA     BYTE      LINICR
      0000008EH   SFRSYM    DATA     BYTE      AUXR
      000000AFH   SFRSYM    DATA     BYTE      IE2
      00000088H   SFRSYM    DATA     BYTE      TCON
      00000098H   SFRSYM    DATA     BYTE      SCON
      000000F1H   SFRSYM    DATA     BYTE      CANICR
      00000087H   SFRSYM    DATA     BYTE      PCON
      000000BCH   SFRSYM    DATA     BYTE      ADC_CONTR
      000000E7H   SFRSYM    DATA     BYTE      CMPCR2
      000000E6H   SFRSYM    DATA     BYTE      CMPCR1
      000000B8H   SFRSYM    DATA     BYTE      IP
      0000008FH   SFRSYM    DATA     BYTE      INTCLKO
      000000EEH   SFRSYM    DATA     BYTE      IP3H
      000000B6H   SFRSYM    DATA     BYTE      IP2H
      000000A8H   SFRSYM    DATA     BYTE      IE
      000000BBH   SFRSYM    DATA     BYTE      P_SW3
      000000BAH   SFRSYM    DATA     BYTE      P_SW2
      000000A2H   SFRSYM    DATA     BYTE      P_SW1
      000000CEH   SFRSYM    DATA     BYTE      SPCTL
      000000F8H   SFRSYM    DATA     BYTE      P7
      000000E8H   SFRSYM    DATA     BYTE      P6
      000000C8H   SFRSYM    DATA     BYTE      P5
      000000C0H   SFRSYM    DATA     BYTE      P4
      000000B0H   SFRSYM    DATA     BYTE      P3
      000000A0H   SFRSYM    DATA     BYTE      P2
      00000090H   SFRSYM    DATA     BYTE      P1
      00000080H   SFRSYM    DATA     BYTE      P0

      00FF4F12H   BLOCK     CODE     ---       LVL=0
      00FF4F12H   LINE      CODE     ---       #38
      00FF4F12H   LINE      CODE     ---       #40
      00FF4F15H   LINE      CODE     ---       #42
      00FF4F3EH   LINE      CODE     ---       #43
      00FF4F67H   LINE      CODE     ---       #44
      00FF4F6AH   LINE      CODE     ---       #45
      00FF4F6DH   LINE      CODE     ---       #46
      00FF4F70H   LINE      CODE     ---       #47
      00FF4F73H   LINE      CODE     ---       #48
      00FF4F76H   LINE      CODE     ---       #49
      00FF4F7DH   LINE      CODE     ---       #51
      00FF4F7DH   LINE      CODE     ---       #55
      ---         BLOCKEND  ---      ---       LVL=0

      ---         MODULE    ---      ---       adc
      00FF538CH   PUBLIC    CODE     ---       adc_mean_filter
      00FF546CH   PUBLIC    CODE     ---       My_Adc_Init
      00FF4E26H   PUBLIC    CODE     ---       Read_Adc_Value
      000007B9H   PUBLIC    EDATA    WORD      adc1
      000007BBH   PUBLIC    EDATA    WORD      adc2
      000007BDH   PUBLIC    EDATA    WORD      adc3
      000007BFH   PUBLIC    EDATA    WORD      adc4
      000007C1H   PUBLIC    EDATA    WORD      adc5
      000007C3H   PUBLIC    EDATA    WORD      adc6
      000007C5H   PUBLIC    EDATA    WORD      adc7
      000007C7H   PUBLIC    EDATA    WORD      adc8
      000000D0H   SFRSYM    DATA     BYTE      PSW
      0000009DH   SFRSYM    DATA     BYTE      IRCBAND
      00000097H   SFRSYM    DATA     BYTE      AUXR2
      000000EFH   SFRSYM    DATA     BYTE      AUXINTIF
L251 LINKER/LOCATER V4.66.93.0                                                        03/26/2023  21:30:35  PAGE 77


      000000FDH   SFRSYM    DATA     BYTE      S4CON
      000000ACH   SFRSYM    DATA     BYTE      S3CON
      0000009AH   SFRSYM    DATA     BYTE      S2CON
      000000B7H   SFRSYM    DATA     BYTE      IPH
      000000CDH   SFRSYM    DATA     BYTE      SPSTAT
      000000DDH   SFRSYM    DATA     BYTE      T4T3M
      000000C1H   SFRSYM    DATA     BYTE      WDT_CONTR
      000000DFH   SFRSYM    DATA     BYTE      IP3
      000000F4H   SFRSYM    DATA     BYTE      USBCON
      000000B5H   SFRSYM    DATA     BYTE      IP2
      000000FFH   SFRSYM    DATA     BYTE      RSTCFG
      000000F9H   SFRSYM    DATA     BYTE      LINICR
      0000008EH   SFRSYM    DATA     BYTE      AUXR
      000000AFH   SFRSYM    DATA     BYTE      IE2
      00000088H   SFRSYM    DATA     BYTE      TCON
      00000098H   SFRSYM    DATA     BYTE      SCON
      000000F1H   SFRSYM    DATA     BYTE      CANICR
      00000087H   SFRSYM    DATA     BYTE      PCON
      000000BCH   SFRSYM    DATA     BYTE      ADC_CONTR
      000000E7H   SFRSYM    DATA     BYTE      CMPCR2
      000000E6H   SFRSYM    DATA     BYTE      CMPCR1
      000000B8H   SFRSYM    DATA     BYTE      IP
      0000008FH   SFRSYM    DATA     BYTE      INTCLKO
      000000EEH   SFRSYM    DATA     BYTE      IP3H
      000000B6H   SFRSYM    DATA     BYTE      IP2H
      000000A8H   SFRSYM    DATA     BYTE      IE
      000000BBH   SFRSYM    DATA     BYTE      P_SW3
      000000BAH   SFRSYM    DATA     BYTE      P_SW2
      000000A2H   SFRSYM    DATA     BYTE      P_SW1
      000000CEH   SFRSYM    DATA     BYTE      SPCTL
      000000F8H   SFRSYM    DATA     BYTE      P7
      000000E8H   SFRSYM    DATA     BYTE      P6
      000000C8H   SFRSYM    DATA     BYTE      P5
      000000C0H   SFRSYM    DATA     BYTE      P4
      000000B0H   SFRSYM    DATA     BYTE      P3
      000000A0H   SFRSYM    DATA     BYTE      P2
      00000090H   SFRSYM    DATA     BYTE      P1
      00000080H   SFRSYM    DATA     BYTE      P0

      00FF546CH   BLOCK     CODE     ---       LVL=0
      00FF546CH   LINE      CODE     ---       #17
      00FF546CH   LINE      CODE     ---       #19
      00FF5475H   LINE      CODE     ---       #20
      00FF547EH   LINE      CODE     ---       #21
      00FF5487H   LINE      CODE     ---       #22
      00FF5490H   LINE      CODE     ---       #24
      00FF5499H   LINE      CODE     ---       #25
      00FF54A2H   LINE      CODE     ---       #26
      00FF54ABH   LINE      CODE     ---       #27
      ---         BLOCKEND  ---      ---       LVL=0

      00FF538CH   BLOCK     CODE     ---       LVL=0
      WR12        REGSYM    ---      INT       adcn
      WR14        REGSYM    ---      INT       speed
      00000732H   SYMBOL    EDATA    BYTE      count
      00FF5396H   BLOCK     CODE     NEAR LAB  LVL=1
      00000733H   SYMBOL    EDATA    BYTE      i
      00000734H   SYMBOL    EDATA    DWORD     sum
      ---         BLOCKEND  ---      ---       LVL=1
      00FF538CH   LINE      CODE     ---       #35
      00FF5396H   LINE      CODE     ---       #36
      00FF5396H   LINE      CODE     ---       #40
      00FF539CH   LINE      CODE     ---       #41
      00FF539FH   LINE      CODE     ---       #43
      00FF53B4H   LINE      CODE     ---       #44
L251 LINKER/LOCATER V4.66.93.0                                                        03/26/2023  21:30:35  PAGE 78


      00FF53C7H   LINE      CODE     ---       #46
      00FF53D6H   LINE      CODE     ---       #47
      00FF53D6H   LINE      CODE     ---       #48
      ---         BLOCKEND  ---      ---       LVL=0

      00FF4E26H   BLOCK     CODE     ---       LVL=0
      00FF4E26H   LINE      CODE     ---       #53
      00FF4E26H   LINE      CODE     ---       #56
      00FF4E35H   LINE      CODE     ---       #57
      00FF4E44H   LINE      CODE     ---       #58
      00FF4E53H   LINE      CODE     ---       #59
      00FF4E62H   LINE      CODE     ---       #61
      00FF4E71H   LINE      CODE     ---       #62
      00FF4E80H   LINE      CODE     ---       #63
      00FF4E8FH   LINE      CODE     ---       #64
      00FF4E9EH   LINE      CODE     ---       #65
      ---         BLOCKEND  ---      ---       LVL=0

      ---         MODULE    ---      ---       control
      00FF4AFAH   PUBLIC    CODE     ---       Akeman_Control
      00FF5707H   PUBLIC    CODE     ---       Motor_PID_Control
      00FF560BH   PUBLIC    CODE     ---       Correct_Angle
      0000076AH   PUBLIC    EDATA    ---       akeman_left
      0000077EH   PUBLIC    EDATA    FLOAT     order_angle
      00000782H   PUBLIC    EDATA    FLOAT     order_speed
      00000786H   PUBLIC    EDATA    BYTE      pid_flag
      00000787H   PUBLIC    EDATA    ---       akeman_right
      0000072EH   PUBLIC    EDATA    BYTE      ?Motor_PID_Control?BYTE
      000000D0H   SFRSYM    DATA     BYTE      PSW
      0000009DH   SFRSYM    DATA     BYTE      IRCBAND
      00000097H   SFRSYM    DATA     BYTE      AUXR2
      000000EFH   SFRSYM    DATA     BYTE      AUXINTIF
      000000FDH   SFRSYM    DATA     BYTE      S4CON
      000000ACH   SFRSYM    DATA     BYTE      S3CON
      0000009AH   SFRSYM    DATA     BYTE      S2CON
      000000B7H   SFRSYM    DATA     BYTE      IPH
      000000CDH   SFRSYM    DATA     BYTE      SPSTAT
      000000DDH   SFRSYM    DATA     BYTE      T4T3M
      000000C1H   SFRSYM    DATA     BYTE      WDT_CONTR
      000000DFH   SFRSYM    DATA     BYTE      IP3
      000000F4H   SFRSYM    DATA     BYTE      USBCON
      000000B5H   SFRSYM    DATA     BYTE      IP2
      000000FFH   SFRSYM    DATA     BYTE      RSTCFG
      000000F9H   SFRSYM    DATA     BYTE      LINICR
      0000008EH   SFRSYM    DATA     BYTE      AUXR
      000000AFH   SFRSYM    DATA     BYTE      IE2
      00000088H   SFRSYM    DATA     BYTE      TCON
      00000098H   SFRSYM    DATA     BYTE      SCON
      000000F1H   SFRSYM    DATA     BYTE      CANICR
      00000087H   SFRSYM    DATA     BYTE      PCON
      000000BCH   SFRSYM    DATA     BYTE      ADC_CONTR
      000000E7H   SFRSYM    DATA     BYTE      CMPCR2
      000000E6H   SFRSYM    DATA     BYTE      CMPCR1
      000000B8H   SFRSYM    DATA     BYTE      IP
      0000008FH   SFRSYM    DATA     BYTE      INTCLKO
      000000EEH   SFRSYM    DATA     BYTE      IP3H
      000000B6H   SFRSYM    DATA     BYTE      IP2H
      000000A8H   SFRSYM    DATA     BYTE      IE
      000000BBH   SFRSYM    DATA     BYTE      P_SW3
      000000BAH   SFRSYM    DATA     BYTE      P_SW2
      000000A2H   SFRSYM    DATA     BYTE      P_SW1
      000000CEH   SFRSYM    DATA     BYTE      SPCTL
      000000F8H   SFRSYM    DATA     BYTE      P7
      000000E8H   SFRSYM    DATA     BYTE      P6
      000000C8H   SFRSYM    DATA     BYTE      P5
L251 LINKER/LOCATER V4.66.93.0                                                        03/26/2023  21:30:35  PAGE 79


      000000C0H   SFRSYM    DATA     BYTE      P4
      000000B0H   SFRSYM    DATA     BYTE      P3
      000000A0H   SFRSYM    DATA     BYTE      P2
      00000090H   SFRSYM    DATA     BYTE      P1
      00000080H   SFRSYM    DATA     BYTE      P0

      00FF4AFAH   BLOCK     CODE     ---       LVL=0
      DR12        REGSYM    ---      FLOAT     basic_speed
      00000732H   SYMBOL    EDATA    FLOAT     target_angle
      00FF4B02H   BLOCK     CODE     NEAR LAB  LVL=1
      DR28        REGSYM    ---      FLOAT     akeman_diff
      ---         BLOCKEND  ---      ---       LVL=1
      00FF4AFAH   LINE      CODE     ---       #16
      00FF4B02H   LINE      CODE     ---       #17
      00FF4B02H   LINE      CODE     ---       #21
      00FF4B05H   LINE      CODE     ---       #22
      00FF4B08H   LINE      CODE     ---       #27
      00FF4B22H   LINE      CODE     ---       #28
      00FF4B34H   LINE      CODE     ---       #31
      00FF4B6AH   LINE      CODE     ---       #32
      00FF4B75H   LINE      CODE     ---       #33
      00FF4B80H   LINE      CODE     ---       #36
      00FF4B86H   LINE      CODE     ---       #39
      00FF4BA1H   LINE      CODE     ---       #42
      00FF4BA8H   LINE      CODE     ---       #43
      ---         BLOCKEND  ---      ---       LVL=0

      00FF5707H   BLOCK     CODE     ---       LVL=0
      DR8         REGSYM    ---      FLOAT     current_l
      DR0         REGSYM    ---      FLOAT     target_l
      00000736H   SYMBOL    EDATA    FLOAT     current_r
      0000073AH   SYMBOL    EDATA    FLOAT     target_r
      0000079BH   SYMBOL    EDATA    FLOAT     pwm_l
      0000079FH   SYMBOL    EDATA    FLOAT     pwm_r
      00FF5707H   LINE      CODE     ---       #50
      00FF5707H   LINE      CODE     ---       #51
      00FF5707H   LINE      CODE     ---       #84
      00FF5716H   LINE      CODE     ---       #85
      00FF572FH   LINE      CODE     ---       #86
      ---         BLOCKEND  ---      ---       LVL=0

      00FF560BH   BLOCK     CODE     ---       LVL=0
      DR24        REGSYM    ---      FLOAT     kp
      DR28        REGSYM    ---      FLOAT     kd
      00FF560FH   BLOCK     CODE     NEAR LAB  LVL=1
      DR20        REGSYM    ---      FLOAT     adc_err
      DR4         REGSYM    ---      FLOAT     target_angle
      000007A3H   SYMBOL    EDATA    FLOAT     adc_err_last
      ---         BLOCKEND  ---      ---       LVL=1
      00FF560BH   LINE      CODE     ---       #93
      00FF560FH   LINE      CODE     ---       #94
      00FF560FH   LINE      CODE     ---       #97
      00FF562EH   LINE      CODE     ---       #98
      00FF5648H   LINE      CODE     ---       #99
      00FF564CH   LINE      CODE     ---       #100
      00FF564CH   LINE      CODE     ---       #101
      ---         BLOCKEND  ---      ---       LVL=0

      ---         MODULE    ---      ---       key
      000000D0H   SFRSYM    DATA     BYTE      PSW
      0000009DH   SFRSYM    DATA     BYTE      IRCBAND
      00000097H   SFRSYM    DATA     BYTE      AUXR2
      000000EFH   SFRSYM    DATA     BYTE      AUXINTIF
      000000FDH   SFRSYM    DATA     BYTE      S4CON
      000000ACH   SFRSYM    DATA     BYTE      S3CON
L251 LINKER/LOCATER V4.66.93.0                                                        03/26/2023  21:30:35  PAGE 80


      0000009AH   SFRSYM    DATA     BYTE      S2CON
      000000B7H   SFRSYM    DATA     BYTE      IPH
      000000CDH   SFRSYM    DATA     BYTE      SPSTAT
      000000DDH   SFRSYM    DATA     BYTE      T4T3M
      000000C1H   SFRSYM    DATA     BYTE      WDT_CONTR
      000000DFH   SFRSYM    DATA     BYTE      IP3
      000000F4H   SFRSYM    DATA     BYTE      USBCON
      000000B5H   SFRSYM    DATA     BYTE      IP2
      000000FFH   SFRSYM    DATA     BYTE      RSTCFG
      000000F9H   SFRSYM    DATA     BYTE      LINICR
      0000008EH   SFRSYM    DATA     BYTE      AUXR
      000000AFH   SFRSYM    DATA     BYTE      IE2
      000000F8H.3 SFRSYM    DATA     BIT       P73
      000000F8H.2 SFRSYM    DATA     BIT       P72
      000000F8H.1 SFRSYM    DATA     BIT       P71
      000000F8H.0 SFRSYM    DATA     BIT       P70
      00000088H   SFRSYM    DATA     BYTE      TCON
      00000098H   SFRSYM    DATA     BYTE      SCON
      000000F1H   SFRSYM    DATA     BYTE      CANICR
      00000087H   SFRSYM    DATA     BYTE      PCON
      000000BCH   SFRSYM    DATA     BYTE      ADC_CONTR
      000000E7H   SFRSYM    DATA     BYTE      CMPCR2
      000000E6H   SFRSYM    DATA     BYTE      CMPCR1
      000000B8H   SFRSYM    DATA     BYTE      IP
      0000008FH   SFRSYM    DATA     BYTE      INTCLKO
      000000EEH   SFRSYM    DATA     BYTE      IP3H
      000000B6H   SFRSYM    DATA     BYTE      IP2H
      000000A8H   SFRSYM    DATA     BYTE      IE
      000000BBH   SFRSYM    DATA     BYTE      P_SW3
      000000BAH   SFRSYM    DATA     BYTE      P_SW2
      000000A2H   SFRSYM    DATA     BYTE      P_SW1
      000000CEH   SFRSYM    DATA     BYTE      SPCTL
      000000F8H   SFRSYM    DATA     BYTE      P7
      000000E8H   SFRSYM    DATA     BYTE      P6
      000000C8H   SFRSYM    DATA     BYTE      P5
      000000C0H   SFRSYM    DATA     BYTE      P4
      000000B0H   SFRSYM    DATA     BYTE      P3
      000000A0H   SFRSYM    DATA     BYTE      P2
      00000090H   SFRSYM    DATA     BYTE      P1
      00000080H   SFRSYM    DATA     BYTE      P0
      R7          REGSYM    ---      BYTE      mode
      0000082AH   SYMBOL    EDATA    BYTE      key_up

      ---         MODULE    ---      ---       motor
      00FF52A2H   PUBLIC    CODE     ---       Motor_Init
      00FF5D18H   PUBLIC    CODE     ---       Encoder_Clear
      00FF5423H   PUBLIC    CODE     ---       Encoder_Read
      00FF4C59H   PUBLIC    CODE     ---       Motor_Control
      00000818H   PUBLIC    EDATA    INT       pulse_right
      0000081AH   PUBLIC    EDATA    INT       pulse_left
      000000D0H   SFRSYM    DATA     BYTE      PSW
      0000009DH   SFRSYM    DATA     BYTE      IRCBAND
      00000097H   SFRSYM    DATA     BYTE      AUXR2
      000000EFH   SFRSYM    DATA     BYTE      AUXINTIF
      000000FDH   SFRSYM    DATA     BYTE      S4CON
      000000ACH   SFRSYM    DATA     BYTE      S3CON
      0000009AH   SFRSYM    DATA     BYTE      S2CON
      000000B7H   SFRSYM    DATA     BYTE      IPH
      000000CDH   SFRSYM    DATA     BYTE      SPSTAT
      000000DDH   SFRSYM    DATA     BYTE      T4T3M
      000000C1H   SFRSYM    DATA     BYTE      WDT_CONTR
      000000DFH   SFRSYM    DATA     BYTE      IP3
      000000F4H   SFRSYM    DATA     BYTE      USBCON
      000000B5H   SFRSYM    DATA     BYTE      IP2
      000000FFH   SFRSYM    DATA     BYTE      RSTCFG
L251 LINKER/LOCATER V4.66.93.0                                                        03/26/2023  21:30:35  PAGE 81


      000000F9H   SFRSYM    DATA     BYTE      LINICR
      0000008EH   SFRSYM    DATA     BYTE      AUXR
      000000AFH   SFRSYM    DATA     BYTE      IE2
      000000B0H.5 SFRSYM    DATA     BIT       P35
      000000C8H.3 SFRSYM    DATA     BIT       P53
      00000088H   SFRSYM    DATA     BYTE      TCON
      00000098H   SFRSYM    DATA     BYTE      SCON
      000000F1H   SFRSYM    DATA     BYTE      CANICR
      00000087H   SFRSYM    DATA     BYTE      PCON
      000000BCH   SFRSYM    DATA     BYTE      ADC_CONTR
      000000E7H   SFRSYM    DATA     BYTE      CMPCR2
      000000E6H   SFRSYM    DATA     BYTE      CMPCR1
      000000B8H   SFRSYM    DATA     BYTE      IP
      0000008FH   SFRSYM    DATA     BYTE      INTCLKO
      000000EEH   SFRSYM    DATA     BYTE      IP3H
      000000B6H   SFRSYM    DATA     BYTE      IP2H
      000000A8H   SFRSYM    DATA     BYTE      IE
      000000BBH   SFRSYM    DATA     BYTE      P_SW3
      000000BAH   SFRSYM    DATA     BYTE      P_SW2
      000000A2H   SFRSYM    DATA     BYTE      P_SW1
      000000CEH   SFRSYM    DATA     BYTE      SPCTL
      000000F8H   SFRSYM    DATA     BYTE      P7
      000000E8H   SFRSYM    DATA     BYTE      P6
      000000C8H   SFRSYM    DATA     BYTE      P5
      000000C0H   SFRSYM    DATA     BYTE      P4
      000000B0H   SFRSYM    DATA     BYTE      P3
      000000A0H   SFRSYM    DATA     BYTE      P2
      00000090H   SFRSYM    DATA     BYTE      P1
      00000080H   SFRSYM    DATA     BYTE      P0

      00FF52A2H   BLOCK     CODE     ---       LVL=0
      00FF52A2H   LINE      CODE     ---       #12
      00FF52A2H   LINE      CODE     ---       #15
      00FF52B3H   LINE      CODE     ---       #16
      00FF52C4H   LINE      CODE     ---       #18
      00FF52D5H   LINE      CODE     ---       #19
      00FF52E6H   LINE      CODE     ---       #21
      00FF52EBH   LINE      CODE     ---       #22
      ---         BLOCKEND  ---      ---       LVL=0

      00FF4C59H   BLOCK     CODE     ---       LVL=0
      0000073EH   SYMBOL    EDATA    LONG      left_duty
      DR12        REGSYM    ---      LONG      right_duty
      00FF4C59H   LINE      CODE     ---       #31
      00FF4C61H   LINE      CODE     ---       #34
      00FF4C6FH   LINE      CODE     ---       #35
      00FF4C81H   LINE      CODE     ---       #36
      00FF4C8BH   LINE      CODE     ---       #37
      00FF4C95H   LINE      CODE     ---       #39
      00FF4C9FH   LINE      CODE     ---       #41
      00FF4CA8H   LINE      CODE     ---       #42
      00FF4CB0H   LINE      CODE     ---       #43
      00FF4CB2H   LINE      CODE     ---       #46
      00FF4CC7H   LINE      CODE     ---       #47
      00FF4CD0H   LINE      CODE     ---       #48
      00FF4CD0H   LINE      CODE     ---       #50
      00FF4CD6H   LINE      CODE     ---       #52
      00FF4CDFH   LINE      CODE     ---       #53
      00FF4CE5H   LINE      CODE     ---       #54
      00FF4CE7H   LINE      CODE     ---       #57
      00FF4CF2H   LINE      CODE     ---       #58
      00FF4CFBH   LINE      CODE     ---       #59
      00FF4CFBH   LINE      CODE     ---       #60
      ---         BLOCKEND  ---      ---       LVL=0

L251 LINKER/LOCATER V4.66.93.0                                                        03/26/2023  21:30:35  PAGE 82


      00FF5423H   BLOCK     CODE     ---       LVL=0
      00FF5423H   LINE      CODE     ---       #76
      00FF5423H   LINE      CODE     ---       #78
      00FF542AH   LINE      CODE     ---       #79
      00FF5431H   LINE      CODE     ---       #81
      00FF5440H   LINE      CODE     ---       #83
      00FF5447H   LINE      CODE     ---       #84
      00FF5450H   LINE      CODE     ---       #86
      00FF5461H   LINE      CODE     ---       #87
      00FF546BH   LINE      CODE     ---       #88
      ---         BLOCKEND  ---      ---       LVL=0

      00FF5D18H   BLOCK     CODE     ---       LVL=0
      00FF5D18H   LINE      CODE     ---       #93
      00FF5D18H   LINE      CODE     ---       #95
      00FF5D1DH   LINE      CODE     ---       #96
      ---         BLOCKEND  ---      ---       LVL=0

      ---         MODULE    ---      ---       steer
      00FF5541H   PUBLIC    CODE     ---       Steer_Spin
      00FF5C69H   PUBLIC    CODE     ---       Steer_Init
      000000D0H   SFRSYM    DATA     BYTE      PSW
      0000009DH   SFRSYM    DATA     BYTE      IRCBAND
      00000097H   SFRSYM    DATA     BYTE      AUXR2
      000000EFH   SFRSYM    DATA     BYTE      AUXINTIF
      000000FDH   SFRSYM    DATA     BYTE      S4CON
      000000ACH   SFRSYM    DATA     BYTE      S3CON
      0000009AH   SFRSYM    DATA     BYTE      S2CON
      000000B7H   SFRSYM    DATA     BYTE      IPH
      000000CDH   SFRSYM    DATA     BYTE      SPSTAT
      000000DDH   SFRSYM    DATA     BYTE      T4T3M
      000000C1H   SFRSYM    DATA     BYTE      WDT_CONTR
      000000DFH   SFRSYM    DATA     BYTE      IP3
      000000F4H   SFRSYM    DATA     BYTE      USBCON
      000000B5H   SFRSYM    DATA     BYTE      IP2
      000000FFH   SFRSYM    DATA     BYTE      RSTCFG
      000000F9H   SFRSYM    DATA     BYTE      LINICR
      0000008EH   SFRSYM    DATA     BYTE      AUXR
      000000AFH   SFRSYM    DATA     BYTE      IE2
      00000088H   SFRSYM    DATA     BYTE      TCON
      00000098H   SFRSYM    DATA     BYTE      SCON
      000000F1H   SFRSYM    DATA     BYTE      CANICR
      00000087H   SFRSYM    DATA     BYTE      PCON
      000000BCH   SFRSYM    DATA     BYTE      ADC_CONTR
      000000E7H   SFRSYM    DATA     BYTE      CMPCR2
      000000E6H   SFRSYM    DATA     BYTE      CMPCR1
      000000B8H   SFRSYM    DATA     BYTE      IP
      0000008FH   SFRSYM    DATA     BYTE      INTCLKO
      000000EEH   SFRSYM    DATA     BYTE      IP3H
      000000B6H   SFRSYM    DATA     BYTE      IP2H
      000000A8H   SFRSYM    DATA     BYTE      IE
      000000BBH   SFRSYM    DATA     BYTE      P_SW3
      000000BAH   SFRSYM    DATA     BYTE      P_SW2
      000000A2H   SFRSYM    DATA     BYTE      P_SW1
      000000CEH   SFRSYM    DATA     BYTE      SPCTL
      000000F8H   SFRSYM    DATA     BYTE      P7
      000000E8H   SFRSYM    DATA     BYTE      P6
      000000C8H   SFRSYM    DATA     BYTE      P5
      000000C0H   SFRSYM    DATA     BYTE      P4
      000000B0H   SFRSYM    DATA     BYTE      P3
      000000A0H   SFRSYM    DATA     BYTE      P2
      00000090H   SFRSYM    DATA     BYTE      P1
      00000080H   SFRSYM    DATA     BYTE      P0

      00FF5C69H   BLOCK     CODE     ---       LVL=0
L251 LINKER/LOCATER V4.66.93.0                                                        03/26/2023  21:30:35  PAGE 83


      00FF5C69H   LINE      CODE     ---       #8
      00FF5C69H   LINE      CODE     ---       #10
      ---         BLOCKEND  ---      ---       LVL=0

      00FF5541H   BLOCK     CODE     ---       LVL=0
      DR28        REGSYM    ---      FLOAT     target_angle
      00FF5543H   BLOCK     CODE     NEAR LAB  LVL=1
      DR0         REGSYM    ---      DWORD     duty
      ---         BLOCKEND  ---      ---       LVL=1
      00FF5541H   LINE      CODE     ---       #18
      00FF5543H   LINE      CODE     ---       #19
      00FF5543H   LINE      CODE     ---       #23
      00FF5552H   LINE      CODE     ---       #24
      00FF5563H   LINE      CODE     ---       #26
      00FF557EH   LINE      CODE     ---       #27
      ---         BLOCKEND  ---      ---       LVL=0

      ---         MODULE    ---      ---       timer
      00FF5D39H   PUBLIC    CODE     ---       Timer4_Init
      000000D0H   SFRSYM    DATA     BYTE      PSW
      0000009DH   SFRSYM    DATA     BYTE      IRCBAND
      00000097H   SFRSYM    DATA     BYTE      AUXR2
      000000EFH   SFRSYM    DATA     BYTE      AUXINTIF
      000000FDH   SFRSYM    DATA     BYTE      S4CON
      000000ACH   SFRSYM    DATA     BYTE      S3CON
      0000009AH   SFRSYM    DATA     BYTE      S2CON
      000000B7H   SFRSYM    DATA     BYTE      IPH
      000000CDH   SFRSYM    DATA     BYTE      SPSTAT
      000000DDH   SFRSYM    DATA     BYTE      T4T3M
      000000C1H   SFRSYM    DATA     BYTE      WDT_CONTR
      000000DFH   SFRSYM    DATA     BYTE      IP3
      000000F4H   SFRSYM    DATA     BYTE      USBCON
      000000B5H   SFRSYM    DATA     BYTE      IP2
      000000FFH   SFRSYM    DATA     BYTE      RSTCFG
      000000F9H   SFRSYM    DATA     BYTE      LINICR
      0000008EH   SFRSYM    DATA     BYTE      AUXR
      000000AFH   SFRSYM    DATA     BYTE      IE2
      00000088H   SFRSYM    DATA     BYTE      TCON
      00000098H   SFRSYM    DATA     BYTE      SCON
      000000F1H   SFRSYM    DATA     BYTE      CANICR
      00000087H   SFRSYM    DATA     BYTE      PCON
      000000BCH   SFRSYM    DATA     BYTE      ADC_CONTR
      000000E7H   SFRSYM    DATA     BYTE      CMPCR2
      000000E6H   SFRSYM    DATA     BYTE      CMPCR1
      000000B8H   SFRSYM    DATA     BYTE      IP
      0000008FH   SFRSYM    DATA     BYTE      INTCLKO
      000000EEH   SFRSYM    DATA     BYTE      IP3H
      000000B6H   SFRSYM    DATA     BYTE      IP2H
      000000A8H   SFRSYM    DATA     BYTE      IE
      000000BBH   SFRSYM    DATA     BYTE      P_SW3
      000000BAH   SFRSYM    DATA     BYTE      P_SW2
      000000A2H   SFRSYM    DATA     BYTE      P_SW1
      000000CEH   SFRSYM    DATA     BYTE      SPCTL
      000000F8H   SFRSYM    DATA     BYTE      P7
      000000E8H   SFRSYM    DATA     BYTE      P6
      000000C8H   SFRSYM    DATA     BYTE      P5
      000000C0H   SFRSYM    DATA     BYTE      P4
      000000B0H   SFRSYM    DATA     BYTE      P3
      000000A0H   SFRSYM    DATA     BYTE      P2
      00000090H   SFRSYM    DATA     BYTE      P1
      00000080H   SFRSYM    DATA     BYTE      P0

      00FF5D39H   BLOCK     CODE     ---       LVL=0
      WR4         REGSYM    ---      WORD      time_ms
      00FF5D39H   LINE      CODE     ---       #9
L251 LINKER/LOCATER V4.66.93.0                                                        03/26/2023  21:30:35  PAGE 84


      00FF5D3BH   LINE      CODE     ---       #11
      ---         BLOCKEND  ---      ---       LVL=0

      ---         MODULE    ---      ---       oled
      00FF4BABH   PUBLIC    CODE     ---       OLED_Init
      00FF50A5H   PUBLIC    CODE     ---       OLED_WR_Byte
      00FF59D4H   PUBLIC    CODE     ---       OLED_Set_Pos
      00FF5891H   PUBLIC    CODE     ---       OLED_Clear
      00FF5D79H   PUBLIC    HCONST   ---       F6x8
      00FF5FA1H   PUBLIC    HCONST   ---       F8X16
      00000008H   PUBLIC    EDATA    ---       Hzk
      000003C8H   PUBLIC    EDATA    BYTE      show_mode
      000000D0H   SFRSYM    DATA     BYTE      PSW
      0000009DH   SFRSYM    DATA     BYTE      IRCBAND
      00000097H   SFRSYM    DATA     BYTE      AUXR2
      000000EFH   SFRSYM    DATA     BYTE      AUXINTIF
      000000FDH   SFRSYM    DATA     BYTE      S4CON
      000000B0H.7 SFRSYM    DATA     BIT       OLED_SCL
      000000ACH   SFRSYM    DATA     BYTE      S3CON
      0000009AH   SFRSYM    DATA     BYTE      S2CON
      000000B7H   SFRSYM    DATA     BYTE      IPH
      000000CDH   SFRSYM    DATA     BYTE      SPSTAT
      000000DDH   SFRSYM    DATA     BYTE      T4T3M
      000000C1H   SFRSYM    DATA     BYTE      WDT_CONTR
      000000DFH   SFRSYM    DATA     BYTE      IP3
      000000F4H   SFRSYM    DATA     BYTE      USBCON
      000000B5H   SFRSYM    DATA     BYTE      IP2
      000000FFH   SFRSYM    DATA     BYTE      RSTCFG
      000000F9H   SFRSYM    DATA     BYTE      LINICR
      0000008EH   SFRSYM    DATA     BYTE      AUXR
      000000AFH   SFRSYM    DATA     BYTE      IE2
      00000088H   SFRSYM    DATA     BYTE      TCON
      000000B0H.6 SFRSYM    DATA     BIT       OLED_SDIN
      00000098H   SFRSYM    DATA     BYTE      SCON
      000000F1H   SFRSYM    DATA     BYTE      CANICR
      00000087H   SFRSYM    DATA     BYTE      PCON
      000000BCH   SFRSYM    DATA     BYTE      ADC_CONTR
      000000E7H   SFRSYM    DATA     BYTE      CMPCR2
      000000E6H   SFRSYM    DATA     BYTE      CMPCR1
      00000080H.2 SFRSYM    DATA     BIT       OLED_CS
      000000B8H   SFRSYM    DATA     BYTE      IP
      0000008FH   SFRSYM    DATA     BYTE      INTCLKO
      000000EEH   SFRSYM    DATA     BYTE      IP3H
      000000B6H   SFRSYM    DATA     BYTE      IP2H
      000000A8H   SFRSYM    DATA     BYTE      IE
      000000BBH   SFRSYM    DATA     BYTE      P_SW3
      000000BAH   SFRSYM    DATA     BYTE      P_SW2
      000000C8H.2 SFRSYM    DATA     BIT       OLED_DC
      000000A2H   SFRSYM    DATA     BYTE      P_SW1
      000000CEH   SFRSYM    DATA     BYTE      SPCTL
      000000F8H   SFRSYM    DATA     BYTE      P7
      000000E8H   SFRSYM    DATA     BYTE      P6
      000000C8H   SFRSYM    DATA     BYTE      P5
      000000C0H   SFRSYM    DATA     BYTE      P4
      000000B0H   SFRSYM    DATA     BYTE      P3
      000000A0H   SFRSYM    DATA     BYTE      P2
      00000090H   SFRSYM    DATA     BYTE      P1
      00000080H   SFRSYM    DATA     BYTE      P0
      000000C8H.1 SFRSYM    DATA     BIT       OLED_RST

      00FF50A5H   BLOCK     CODE     ---       LVL=0
      R10         REGSYM    ---      BYTE      dat
      R7          REGSYM    ---      BYTE      cmd
      00FF50A7H   BLOCK     CODE     NEAR LAB  LVL=1
      R6          REGSYM    ---      BYTE      i
L251 LINKER/LOCATER V4.66.93.0                                                        03/26/2023  21:30:35  PAGE 85


      ---         BLOCKEND  ---      ---       LVL=1
      00FF50A5H   LINE      CODE     ---       #83
      00FF50A7H   LINE      CODE     ---       #84
      00FF50A7H   LINE      CODE     ---       #86
      00FF50ABH   LINE      CODE     ---       #88
      00FF50ADH   LINE      CODE     ---       #89
      00FF50AFH   LINE      CODE     ---       #90
      00FF50B1H   LINE      CODE     ---       #92
      00FF50B3H   LINE      CODE     ---       #93
      00FF50B9H   LINE      CODE     ---       #95
      00FF50BEH   LINE      CODE     ---       #97
      00FF50C0H   LINE      CODE     ---       #98
      00FF50C2H   LINE      CODE     ---       #100
      00FF50C4H   LINE      CODE     ---       #101
      00FF50C6H   LINE      CODE     ---       #104
      00FF50CBH   LINE      CODE     ---       #106
      00FF50CDH   LINE      CODE     ---       #107
      00FF50CFH   LINE      CODE     ---       #109
      00FF50D1H   LINE      CODE     ---       #110
      00FF50D1H   LINE      CODE     ---       #112
      00FF50D3H   LINE      CODE     ---       #113
      00FF50D5H   LINE      CODE     ---       #114
      00FF50DBH   LINE      CODE     ---       #115
      00FF50DDH   LINE      CODE     ---       #119
      00FF50DFH   LINE      CODE     ---       #120
      00FF50E1H   LINE      CODE     ---       #122
      00FF50E3H   LINE      CODE     ---       #124
      00FF50E5H   LINE      CODE     ---       #125
      00FF50EAH   LINE      CODE     ---       #127
      00FF50ECH   LINE      CODE     ---       #128
      00FF50EEH   LINE      CODE     ---       #130
      00FF50F0H   LINE      CODE     ---       #131
      00FF50F2H   LINE      CODE     ---       #132
      00FF50F4H   LINE      CODE     ---       #133
      00FF50FAH   LINE      CODE     ---       #135
      00FF50FAH   LINE      CODE     ---       #138
      00FF50FCH   LINE      CODE     ---       #139
      00FF50FEH   LINE      CODE     ---       #140
      ---         BLOCKEND  ---      ---       LVL=0

      00FF59D4H   BLOCK     CODE     ---       LVL=0
      R15         REGSYM    ---      BYTE      x
      R10         REGSYM    ---      BYTE      y
      00FF59D4H   LINE      CODE     ---       #142
      00FF59D8H   LINE      CODE     ---       #144
      00FF59E3H   LINE      CODE     ---       #145
      00FF59EFH   LINE      CODE     ---       #146
      00FF59F8H   LINE      CODE     ---       #147
      ---         BLOCKEND  ---      ---       LVL=0

      00FF5891H   BLOCK     CODE     ---       LVL=0
      00FF5893H   BLOCK     CODE     NEAR LAB  LVL=1
      R15         REGSYM    ---      BYTE      i
      R14         REGSYM    ---      BYTE      n
      ---         BLOCKEND  ---      ---       LVL=1
      00FF5891H   LINE      CODE     ---       #163
      00FF5893H   LINE      CODE     ---       #164
      00FF5893H   LINE      CODE     ---       #166
      00FF5895H   LINE      CODE     ---       #168
      00FF58A0H   LINE      CODE     ---       #169
      00FF58A4H   LINE      CODE     ---       #170
      00FF58A9H   LINE      CODE     ---       #171
      00FF58B9H   LINE      CODE     ---       #172
      00FF58C0H   LINE      CODE     ---       #173
      ---         BLOCKEND  ---      ---       LVL=0
L251 LINKER/LOCATER V4.66.93.0                                                        03/26/2023  21:30:35  PAGE 86


      R14         REGSYM    ---      BYTE      x
      R15         REGSYM    ---      BYTE      y
      R6          REGSYM    ---      BYTE      chr
      R12         REGSYM    ---      BYTE      c
      R13         REGSYM    ---      BYTE      i
      R3          REGSYM    ---      BYTE      m
      R10         REGSYM    ---      BYTE      n
      WR6         REGSYM    ---      WORD      result
      WR14        REGSYM    ---      WORD      num
      R13         REGSYM    ---      BYTE      len
      R12         REGSYM    ---      BYTE      size2
      REG=3       REGSYM    ---      ---       chr
      R13         REGSYM    ---      BYTE      x
      R14         REGSYM    ---      BYTE      y
      R15         REGSYM    ---      BYTE      no
      R12         REGSYM    ---      BYTE      t
      R10         REGSYM    ---      BYTE      y0
      REG=3       REGSYM    ---      ---       BMP

      00FF4BABH   BLOCK     CODE     ---       LVL=0
      00FF4BABH   LINE      CODE     ---       #282
      00FF4BABH   LINE      CODE     ---       #287
      00FF4BADH   LINE      CODE     ---       #288
      00FF4BB4H   LINE      CODE     ---       #289
      00FF4BB6H   LINE      CODE     ---       #290
      00FF4BBDH   LINE      CODE     ---       #291
      00FF4BBFH   LINE      CODE     ---       #323
      00FF4BC6H   LINE      CODE     ---       #324
      00FF4BCAH   LINE      CODE     ---       #325
      00FF4BCFH   LINE      CODE     ---       #326
      00FF4BD4H   LINE      CODE     ---       #327
      00FF4BD9H   LINE      CODE     ---       #328
      00FF4BDEH   LINE      CODE     ---       #329
      00FF4BE3H   LINE      CODE     ---       #330
      00FF4BE8H   LINE      CODE     ---       #331
      00FF4BEDH   LINE      CODE     ---       #332
      00FF4BF2H   LINE      CODE     ---       #333
      00FF4BF7H   LINE      CODE     ---       #334
      00FF4BFCH   LINE      CODE     ---       #335
      00FF4C00H   LINE      CODE     ---       #336
      00FF4C05H   LINE      CODE     ---       #337
      00FF4C0AH   LINE      CODE     ---       #338
      00FF4C0FH   LINE      CODE     ---       #339
      00FF4C14H   LINE      CODE     ---       #340
      00FF4C19H   LINE      CODE     ---       #341
      00FF4C1EH   LINE      CODE     ---       #342
      00FF4C23H   LINE      CODE     ---       #343
      00FF4C28H   LINE      CODE     ---       #344
      00FF4C2DH   LINE      CODE     ---       #345
      00FF4C32H   LINE      CODE     ---       #346
      00FF4C37H   LINE      CODE     ---       #347
      00FF4C3CH   LINE      CODE     ---       #348
      00FF4C41H   LINE      CODE     ---       #349
      00FF4C46H   LINE      CODE     ---       #350
      00FF4C4BH   LINE      CODE     ---       #352
      00FF4C50H   LINE      CODE     ---       #353
      00FF4C53H   LINE      CODE     ---       #354
      ---         BLOCKEND  ---      ---       LVL=0

      ---         MODULE    ---      ---       brushless
      00FF5A20H   PUBLIC    CODE     ---       Brushless_Init
      000000D0H   SFRSYM    DATA     BYTE      PSW
      0000009DH   SFRSYM    DATA     BYTE      IRCBAND
      00000097H   SFRSYM    DATA     BYTE      AUXR2
      000000EFH   SFRSYM    DATA     BYTE      AUXINTIF
L251 LINKER/LOCATER V4.66.93.0                                                        03/26/2023  21:30:35  PAGE 87


      000000FDH   SFRSYM    DATA     BYTE      S4CON
      000000ACH   SFRSYM    DATA     BYTE      S3CON
      0000009AH   SFRSYM    DATA     BYTE      S2CON
      000000B7H   SFRSYM    DATA     BYTE      IPH
      000000CDH   SFRSYM    DATA     BYTE      SPSTAT
      000000DDH   SFRSYM    DATA     BYTE      T4T3M
      000000C1H   SFRSYM    DATA     BYTE      WDT_CONTR
      000000DFH   SFRSYM    DATA     BYTE      IP3
      000000F4H   SFRSYM    DATA     BYTE      USBCON
      000000B5H   SFRSYM    DATA     BYTE      IP2
      000000FFH   SFRSYM    DATA     BYTE      RSTCFG
      000000F9H   SFRSYM    DATA     BYTE      LINICR
      0000008EH   SFRSYM    DATA     BYTE      AUXR
      000000AFH   SFRSYM    DATA     BYTE      IE2
      00000088H   SFRSYM    DATA     BYTE      TCON
      00000098H   SFRSYM    DATA     BYTE      SCON
      000000F1H   SFRSYM    DATA     BYTE      CANICR
      00000087H   SFRSYM    DATA     BYTE      PCON
      000000BCH   SFRSYM    DATA     BYTE      ADC_CONTR
      000000E7H   SFRSYM    DATA     BYTE      CMPCR2
      000000E6H   SFRSYM    DATA     BYTE      CMPCR1
      000000B8H   SFRSYM    DATA     BYTE      IP
      0000008FH   SFRSYM    DATA     BYTE      INTCLKO
      000000EEH   SFRSYM    DATA     BYTE      IP3H
      000000B6H   SFRSYM    DATA     BYTE      IP2H
      000000A8H   SFRSYM    DATA     BYTE      IE
      000000BBH   SFRSYM    DATA     BYTE      P_SW3
      000000BAH   SFRSYM    DATA     BYTE      P_SW2
      000000A2H   SFRSYM    DATA     BYTE      P_SW1
      000000CEH   SFRSYM    DATA     BYTE      SPCTL
      000000F8H   SFRSYM    DATA     BYTE      P7
      000000E8H   SFRSYM    DATA     BYTE      P6
      000000C8H   SFRSYM    DATA     BYTE      P5
      000000C0H   SFRSYM    DATA     BYTE      P4
      000000B0H   SFRSYM    DATA     BYTE      P3
      000000A0H   SFRSYM    DATA     BYTE      P2
      00000090H   SFRSYM    DATA     BYTE      P1
      00000080H   SFRSYM    DATA     BYTE      P0

      00FF5A20H   BLOCK     CODE     ---       LVL=0
      00FF5A20H   LINE      CODE     ---       #13
      00FF5A20H   LINE      CODE     ---       #16
      00FF5A31H   LINE      CODE     ---       #17
      ---         BLOCKEND  ---      ---       LVL=0
      WR14        REGSYM    ---      WORD      value

      ---         MODULE    ---      ---       pid
      00FF4FE8H   PUBLIC    CODE     ---       PID_struct_init
      00FF435FH   PUBLIC    CODE     ---       pid_calc
      00FF585DH   PUBLIC    CODE     ---       abs_limit
      00000597H   PUBLIC    EDATA    ---       pid_right_
      000005DFH   PUBLIC    EDATA    ---       pid_left_
      00000736H   PUBLIC    EDATA    BYTE      ?pid_calc?BYTE
      0000073AH   PUBLIC    EDATA    BYTE      ?PID_struct_init?BYTE
      000000D0H   SFRSYM    DATA     BYTE      PSW
      0000009DH   SFRSYM    DATA     BYTE      IRCBAND
      00000097H   SFRSYM    DATA     BYTE      AUXR2
      000000EFH   SFRSYM    DATA     BYTE      AUXINTIF
      000000FDH   SFRSYM    DATA     BYTE      S4CON
      000000ACH   SFRSYM    DATA     BYTE      S3CON
      0000009AH   SFRSYM    DATA     BYTE      S2CON
      000000B7H   SFRSYM    DATA     BYTE      IPH
      000000CDH   SFRSYM    DATA     BYTE      SPSTAT
      000000DDH   SFRSYM    DATA     BYTE      T4T3M
      000000C1H   SFRSYM    DATA     BYTE      WDT_CONTR
L251 LINKER/LOCATER V4.66.93.0                                                        03/26/2023  21:30:35  PAGE 88


      000000DFH   SFRSYM    DATA     BYTE      IP3
      000000F4H   SFRSYM    DATA     BYTE      USBCON
      000000B5H   SFRSYM    DATA     BYTE      IP2
      000000FFH   SFRSYM    DATA     BYTE      RSTCFG
      000000F9H   SFRSYM    DATA     BYTE      LINICR
      0000008EH   SFRSYM    DATA     BYTE      AUXR
      000000AFH   SFRSYM    DATA     BYTE      IE2
      00000088H   SFRSYM    DATA     BYTE      TCON
      00000098H   SFRSYM    DATA     BYTE      SCON
      000000F1H   SFRSYM    DATA     BYTE      CANICR
      00000087H   SFRSYM    DATA     BYTE      PCON
      000000BCH   SFRSYM    DATA     BYTE      ADC_CONTR
      000000E7H   SFRSYM    DATA     BYTE      CMPCR2
      000000E6H   SFRSYM    DATA     BYTE      CMPCR1
      000000B8H   SFRSYM    DATA     BYTE      IP
      0000008FH   SFRSYM    DATA     BYTE      INTCLKO
      000000EEH   SFRSYM    DATA     BYTE      IP3H
      000000B6H   SFRSYM    DATA     BYTE      IP2H
      000000A8H   SFRSYM    DATA     BYTE      IE
      000000BBH   SFRSYM    DATA     BYTE      P_SW3
      000000BAH   SFRSYM    DATA     BYTE      P_SW2
      000000A2H   SFRSYM    DATA     BYTE      P_SW1
      000000CEH   SFRSYM    DATA     BYTE      SPCTL
      000000F8H   SFRSYM    DATA     BYTE      P7
      000000E8H   SFRSYM    DATA     BYTE      P6
      000000C8H   SFRSYM    DATA     BYTE      P5
      000000C0H   SFRSYM    DATA     BYTE      P4
      000000B0H   SFRSYM    DATA     BYTE      P3
      000000A0H   SFRSYM    DATA     BYTE      P2
      00000090H   SFRSYM    DATA     BYTE      P1
      00000080H   SFRSYM    DATA     BYTE      P0
      00FF5585H   SYMBOL    CODE     ---       pid_reset
      00FF54B4H   SYMBOL    CODE     ---       pid_param_init

      00FF585DH   BLOCK     CODE     ---       LVL=0
      REG=6       REGSYM    ---      ---       a
      DR28        REGSYM    ---      FLOAT     ABS_MAX
      00FF585DH   LINE      CODE     ---       #17
      00FF5861H   LINE      CODE     ---       #19
      00FF586FH   LINE      CODE     ---       #20
      00FF5876H   LINE      CODE     ---       #21
      00FF5889H   LINE      CODE     ---       #22
      00FF5890H   LINE      CODE     ---       #23
      ---         BLOCKEND  ---      ---       LVL=0

      00FF54B4H   BLOCK     CODE     ---       LVL=0
      REG=2       REGSYM    ---      ---       pid
      DR28        REGSYM    ---      DWORD     mode
      00000756H   SYMBOL    EDATA    DWORD     maxout
      0000075AH   SYMBOL    EDATA    DWORD     intergral_limit
      0000075EH   SYMBOL    EDATA    FLOAT     kp
      00000762H   SYMBOL    EDATA    FLOAT     ki
      00000766H   SYMBOL    EDATA    FLOAT     kd
      00FF54B4H   LINE      CODE     ---       #25
      00FF54B8H   LINE      CODE     ---       #35
      00FF54C4H   LINE      CODE     ---       #36
      00FF54D0H   LINE      CODE     ---       #37
      00FF54D8H   LINE      CODE     ---       #39
      00FF54E3H   LINE      CODE     ---       #40
      00FF54EFH   LINE      CODE     ---       #41
      00FF54FBH   LINE      CODE     ---       #42
      ---         BLOCKEND  ---      ---       LVL=0

      00FF5585H   BLOCK     CODE     ---       LVL=0
      REG=2       REGSYM    ---      ---       pid
L251 LINKER/LOCATER V4.66.93.0                                                        03/26/2023  21:30:35  PAGE 89


      DR4         REGSYM    ---      FLOAT     kp
      00000756H   SYMBOL    EDATA    FLOAT     ki
      0000075AH   SYMBOL    EDATA    FLOAT     kd
      00FF5585H   LINE      CODE     ---       #49
      00FF5587H   LINE      CODE     ---       #51
      00FF558EH   LINE      CODE     ---       #52
      00FF559AH   LINE      CODE     ---       #53
      00FF55A6H   LINE      CODE     ---       #55
      00FF55B0H   LINE      CODE     ---       #56
      00FF55B8H   LINE      CODE     ---       #57
      00FF55C0H   LINE      CODE     ---       #58
      00FF55C8H   LINE      CODE     ---       #59
      ---         BLOCKEND  ---      ---       LVL=0

      00FF435FH   BLOCK     CODE     ---       LVL=0
      REG=3       REGSYM    ---      ---       pid
      DR28        REGSYM    ---      FLOAT     get
      0000073EH   SYMBOL    EDATA    FLOAT     set
      00FF435FH   LINE      CODE     ---       #68
      00FF4365H   LINE      CODE     ---       #70
      00FF436DH   LINE      CODE     ---       #71
      00FF4379H   LINE      CODE     ---       #72
      00FF438AH   LINE      CODE     ---       #74
      00FF43AEH   LINE      CODE     ---       #75
      00FF43B3H   LINE      CODE     ---       #77
      00FF43C4H   LINE      CODE     ---       #79
      00FF43DEH   LINE      CODE     ---       #80
      00FF4408H   LINE      CODE     ---       #81
      00FF442EH   LINE      CODE     ---       #83
      00FF4443H   LINE      CODE     ---       #84
      00FF4469H   LINE      CODE     ---       #85
      00FF4469H   LINE      CODE     ---       #86
      00FF446CH   LINE      CODE     ---       #87
      00FF447DH   LINE      CODE     ---       #89
      00FF44A2H   LINE      CODE     ---       #90
      00FF44BDH   LINE      CODE     ---       #91
      00FF44F9H   LINE      CODE     ---       #93
      00FF452EH   LINE      CODE     ---       #94
      00FF4543H   LINE      CODE     ---       #95
      00FF4543H   LINE      CODE     ---       #97
      00FF4553H   LINE      CODE     ---       #98
      00FF4563H   LINE      CODE     ---       #100
      00FF4587H   LINE      CODE     ---       #101
      00FF458BH   LINE      CODE     ---       #103
      00FF4593H   LINE      CODE     ---       #104
      ---         BLOCKEND  ---      ---       LVL=0

      00FF4FE8H   BLOCK     CODE     ---       LVL=0
      REG=3       REGSYM    ---      ---       pid
      DR8         REGSYM    ---      DWORD     mode
      00000742H   SYMBOL    EDATA    DWORD     maxout
      00000746H   SYMBOL    EDATA    DWORD     intergral_limit
      0000074AH   SYMBOL    EDATA    FLOAT     kp
      0000074EH   SYMBOL    EDATA    FLOAT     ki
      00000752H   SYMBOL    EDATA    FLOAT     kd
      00FF4FE8H   LINE      CODE     ---       #109
      00FF4FEEH   LINE      CODE     ---       #119
      00FF4FF6H   LINE      CODE     ---       #120
      00FF4FFEH   LINE      CODE     ---       #122
      00FF5028H   LINE      CODE     ---       #123
      00FF5044H   LINE      CODE     ---       #124
      ---         BLOCKEND  ---      ---       LVL=0
      REG=3       REGSYM    ---      ---       pid
      DR28        REGSYM    ---      FLOAT     get
      REG=2       REGSYM    ---      ---       pid
L251 LINKER/LOCATER V4.66.93.0                                                        03/26/2023  21:30:35  PAGE 90



      ---         MODULE    ---      ---       SEEKFREE_CONFIG
      00FF00A6H   PUBLIC    CODE     ---       imu660ra_config_file

      ---         MODULE    ---      ---       ?C?FPADD
      00FF2EB4H   PUBLIC    CODE     ---       ?C?FPADD
      00FF2EB1H   PUBLIC    CODE     ---       ?C?FPSUB

      ---         MODULE    ---      ---       ?C?FPMUL
      00FF2F6CH   PUBLIC    CODE     ---       ?C?FPMUL

      ---         MODULE    ---      ---       ?C?FPDIV
      00FF300CH   PUBLIC    CODE     ---       ?C?FPDIV

      ---         MODULE    ---      ---       ?C?FPCMP
      00FF308FH   PUBLIC    CODE     ---       ?C?FPCMP
      00FF308DH   PUBLIC    CODE     ---       ?C?FPCMP3

      ---         MODULE    ---      ---       ?C?FPNEG
      00FF30D3H   PUBLIC    CODE     ---       ?C?FPNEG

      ---         MODULE    ---      ---       ?C?FCAST
      00FF30EBH   PUBLIC    CODE     NEAR LAB  ?C?FCASTC
      00FF30E6H   PUBLIC    CODE     NEAR LAB  ?C?FCASTI
      00FF30E1H   PUBLIC    CODE     NEAR LAB  ?C?FCASTL

      ---         MODULE    ---      ---       ?C?CASTF
      00FF311EH   PUBLIC    CODE     NEAR LAB  ?C?CASTF

      ---         MODULE    ---      ---       PRINTF
      00FF315BH   PUBLIC    CODE     NEAR LAB  PRINTF

      ---         MODULE    ---      ---       FABS
      00FF3187H   PUBLIC    CODE     NEAR LAB  FABS?_

      ---         MODULE    ---      ---       SIN?_
      00FF31DEH   PUBLIC    CODE     ---       COS?_
      00FF31FBH   PUBLIC    CODE     ---       SIN?_
      00FF3228H   PUBLIC    CODE     ---       TAN?_

      ---         MODULE    ---      ---       ?C?FPGETOPN
      00FF32CEH   PUBLIC    CODE     ---       ?C?FPGETOPN2
      00FF330BH   PUBLIC    CODE     ---       ?C?FPNANRESULT
      00FF3313H   PUBLIC    CODE     ---       ?C?FPOVERFLOW
      00FF32E7H   PUBLIC    CODE     ---       ?C?FPRESULT
      00FF32FDH   PUBLIC    CODE     ---       ?C?FPRESULT2
      00FF3310H   PUBLIC    CODE     ---       ?C?FPUNDERFLOW

      ---         MODULE    ---      ---       ?C?PRNFMT
      00FF334CH   PUBLIC    CODE     ---       ?C?PRNFMT

      ---         MODULE    ---      ---       ?C?FPSERIES
      00FF375BH   PUBLIC    CODE     ---       ?C?FP2SERIES
      00FF3764H   PUBLIC    CODE     ---       ?C?FPSERIES

      ---         MODULE    ---      ---       ?C?FPCONVERT
      00FF3796H   PUBLIC    CODE     ---       ?C?FPCONVERT
      00FF384EH   PUBLIC    CODE     ---       ?C?FPROUND

      ---         MODULE    ---      ---       ?C?FTNPWR
      00FF38C1H   PUBLIC    CODE     ---       ?C?FTNPWR

      ---         MODULE    ---      ---       ?C_START
      00FF0000H   PUBLIC    CODE     ---       ?C?STARTUP
      00FF0000H   PUBLIC    CODE     ---       ?C_STARTUP
L251 LINKER/LOCATER V4.66.93.0                                                        03/26/2023  21:30:35  PAGE 91



      ---         MODULE    ---      ---       ?C?INITEDATA
      00FF5660H   PUBLIC    CODE     ---       ?C?INITEDATA

      ---         MODULE    ---      ---       ?C?SIDIV
      00FF38F8H   PUBLIC    CODE     ---       ?C?SIDIV

      ---         MODULE    ---      ---       ?C?LMUL
      00FF392AH   PUBLIC    CODE     ---       ?C?LMUL

      ---         MODULE    ---      ---       ?C?LIMUL
      00FF393BH   PUBLIC    CODE     ---       ?C?LIMUL

      ---         MODULE    ---      ---       ?C?ULDIV
      00FF3946H   PUBLIC    CODE     NEAR LAB  ?C?ULDIV
      00FF3944H   PUBLIC    CODE     NEAR LAB  ?C?ULIDIV

      ---         MODULE    ---      ---       ?C?SLDIV
      00FF3997H   PUBLIC    CODE     NEAR LAB  ?C?SLDIV

      ---         MODULE    ---      ---       memcpy
      00FF59FBH   PUBLIC    CODE     ---       memcpy?_

      ---         MODULE    ---      ---       memset

      ---         MODULE    ---      ---       ?C?INITEDATA_END
      00FF6A3CH   PUBLIC    HCONST   WORD      ?C?INITEDATA_END

Program Size: data=8.0 edata+hdata=2339 xdata=0 const=3586 code=23888
L251 RUN COMPLETE.  0 WARNING(S),  0 ERROR(S)
