L251 LINKER/LOCATER V4.66.93.0                                                          05/04/2023  22:29:11  PAGE 1


L251 LINKER/LOCATER V4.66.93.0, INVOKED BY:
D:\KEIL_V5\C251\BIN\L251.EXE .\Out_File\board.obj, .\Out_File\common.obj, .\Out_File\zf_adc.obj, .\Out_File\zf_delay.obj
>> , .\Out_File\zf_eeprom.obj, .\Out_File\zf_exti.obj, .\Out_File\zf_gpio.obj, .\Out_File\zf_iic.obj, .\Out_File\zf_nvic
>> .obj, .\Out_File\zf_pwm.obj, .\Out_File\zf_spi.obj, .\Out_File\zf_tim.obj, .\Out_File\zf_uart.obj, .\Out_File\zf_fifo
>> .obj, .\Out_File\SEEKFREE_ABSOLUTE_ENCODER.obj, .\Out_File\SEEKFREE_AT24C02.obj, .\Out_File\SEEKFREE_BLUETOOTH_CH9141
>> .obj, ..\..\Libraries\seekfree_peripheral\SEEKFREE_CONFIG.LIB, .\Out_File\SEEKFREE_DL1A.obj, .\Out_File\SEEKFREE_FONT
>> .obj, .\Out_File\SEEKFREE_ICM20602.obj, .\Out_File\SEEKFREE_IMU660RA.obj, .\Out_File\SEEKFREE_IMU963RA.obj, .\Out_Fil
>> e\SEEKFREE_IPS114_SPI.obj, .\Out_File\SEEKFREE_MPU6050.obj, .\Out_File\SEEKFREE_PRINTF.obj, .\Out_File\SEEKFREE_TSL14
>> 01.obj, .\Out_File\SEEKFREE_VIRSCO.obj, .\Out_File\SEEKFREE_WIRELESS.obj, .\Out_File\SEEKFREE_WIRELESS_CH573.obj, .\O
>> ut_File\isr.obj, .\Out_File\main.obj, .\Out_File\adc.obj, .\Out_File\control.obj, .\Out_File\key.obj, .\Out_File\moto
>> r.obj, .\Out_File\steer.obj, .\Out_File\timer.obj, .\Out_File\oled.obj, .\Out_File\brushless.obj, .\Out_File\pid.obj,
>>  .\Out_File\host.obj TO .\Out_File\SEEKFREE PRINT (.\Out_File\SEEKFREE.map) CASE DISABLEWARNING (16, 57) REMOVEUNUSED
>>  CLASSES (EDATA (0X0-0XFFF), HDATA (0X0-0XFFF))


CPU MODE:     251 SOURCE MODE
INTR FRAME:   2 BYTES SAVED ON INTERRUPT
MEMORY MODEL: XSMALL WITH FLOATING POINT ARITHMETIC


INPUT MODULES INCLUDED:
  .\Out_File\board.obj (board)
         COMMENT TYPE 0: C251 V5.60.0
  .\Out_File\common.obj (common)
         COMMENT TYPE 0: C251 V5.60.0
  .\Out_File\zf_adc.obj (zf_adc)
         COMMENT TYPE 0: C251 V5.60.0
  .\Out_File\zf_delay.obj (zf_delay)
         COMMENT TYPE 0: C251 V5.60.0
  .\Out_File\zf_eeprom.obj (zf_eeprom)
         COMMENT TYPE 0: C251 V5.60.0
  .\Out_File\zf_exti.obj (zf_exti)
         COMMENT TYPE 0: C251 V5.60.0
  .\Out_File\zf_gpio.obj (zf_gpio)
         COMMENT TYPE 0: C251 V5.60.0
  .\Out_File\zf_iic.obj (zf_iic)
         COMMENT TYPE 0: C251 V5.60.0
  .\Out_File\zf_nvic.obj (zf_nvic)
         COMMENT TYPE 0: C251 V5.60.0
  .\Out_File\zf_pwm.obj (zf_pwm)
         COMMENT TYPE 0: C251 V5.60.0
  .\Out_File\zf_spi.obj (zf_spi)
         COMMENT TYPE 0: C251 V5.60.0
  .\Out_File\zf_tim.obj (zf_tim)
         COMMENT TYPE 0: C251 V5.60.0
  .\Out_File\zf_uart.obj (zf_uart)
         COMMENT TYPE 0: C251 V5.60.0
  .\Out_File\zf_fifo.obj (zf_fifo)
         COMMENT TYPE 0: C251 V5.60.0
  .\Out_File\SEEKFREE_ABSOLUTE_ENCODER.obj (SEEKFREE_ABSOLUTE_ENCODER)
         COMMENT TYPE 0: C251 V5.60.0
  .\Out_File\SEEKFREE_AT24C02.obj (SEEKFREE_AT24C02)
         COMMENT TYPE 0: C251 V5.60.0
  .\Out_File\SEEKFREE_BLUETOOTH_CH9141.obj (SEEKFREE_BLUETOOTH_CH9141)
         COMMENT TYPE 0: C251 V5.60.0
  .\Out_File\SEEKFREE_DL1A.obj (SEEKFREE_DL1A)
         COMMENT TYPE 0: C251 V5.60.0
  .\Out_File\SEEKFREE_FONT.obj (SEEKFREE_FONT)
         COMMENT TYPE 0: C251 V5.60.0
  .\Out_File\SEEKFREE_ICM20602.obj (SEEKFREE_ICM20602)
         COMMENT TYPE 0: C251 V5.60.0
  .\Out_File\SEEKFREE_IMU660RA.obj (SEEKFREE_IMU660RA)
         COMMENT TYPE 0: C251 V5.60.0
  .\Out_File\SEEKFREE_IMU963RA.obj (SEEKFREE_IMU963RA)
         COMMENT TYPE 0: C251 V5.60.0
  .\Out_File\SEEKFREE_IPS114_SPI.obj (SEEKFREE_IPS114_SPI)
L251 LINKER/LOCATER V4.66.93.0                                                        05/04/2023  22:29:11  PAGE 2


         COMMENT TYPE 0: C251 V5.60.0
  .\Out_File\SEEKFREE_MPU6050.obj (SEEKFREE_MPU6050)
         COMMENT TYPE 0: C251 V5.60.0
  .\Out_File\SEEKFREE_PRINTF.obj (SEEKFREE_PRINTF)
         COMMENT TYPE 0: C251 V5.60.0
  .\Out_File\SEEKFREE_TSL1401.obj (SEEKFREE_TSL1401)
         COMMENT TYPE 0: C251 V5.60.0
  .\Out_File\SEEKFREE_VIRSCO.obj (SEEKFREE_VIRSCO)
         COMMENT TYPE 0: C251 V5.60.0
  .\Out_File\SEEKFREE_WIRELESS.obj (SEEKFREE_WIRELESS)
         COMMENT TYPE 0: C251 V5.60.0
  .\Out_File\SEEKFREE_WIRELESS_CH573.obj (SEEKFREE_WIRELESS_CH573)
         COMMENT TYPE 0: C251 V5.60.0
  .\Out_File\isr.obj (isr)
         COMMENT TYPE 0: C251 V5.60.0
  .\Out_File\main.obj (main)
         COMMENT TYPE 0: C251 V5.60.0
  .\Out_File\adc.obj (adc)
         COMMENT TYPE 0: C251 V5.60.0
  .\Out_File\control.obj (control)
         COMMENT TYPE 0: C251 V5.60.0
  .\Out_File\key.obj (key)
         COMMENT TYPE 0: C251 V5.60.0
  .\Out_File\motor.obj (motor)
         COMMENT TYPE 0: C251 V5.60.0
  .\Out_File\steer.obj (steer)
         COMMENT TYPE 0: C251 V5.60.0
  .\Out_File\timer.obj (timer)
         COMMENT TYPE 0: C251 V5.60.0
  .\Out_File\oled.obj (oled)
         COMMENT TYPE 0: C251 V5.60.0
  .\Out_File\brushless.obj (brushless)
         COMMENT TYPE 0: C251 V5.60.0
  .\Out_File\pid.obj (pid)
         COMMENT TYPE 0: C251 V5.60.0
  .\Out_File\host.obj (host)
         COMMENT TYPE 0: C251 V5.60.0
  ..\..\Libraries\seekfree_peripheral\SEEKFREE_CONFIG.LIB (SEEKFREE_CONFIG)
         COMMENT TYPE 0: C251 V5.60.0
  D:\KEIL_V5\C251\LIB\C2SFPXS.LIB (?C?FPADD)
         COMMENT TYPE 0: A251 V4.69.6.0
  D:\KEIL_V5\C251\LIB\C2SFPXS.LIB (?C?FPMUL)
         COMMENT TYPE 0: A251 V4.69.6.0
  D:\KEIL_V5\C251\LIB\C2SFPXS.LIB (?C?FPDIV)
         COMMENT TYPE 0: A251 V4.69.6.0
  D:\KEIL_V5\C251\LIB\C2SFPXS.LIB (?C?FPCMP)
         COMMENT TYPE 0: A251 V4.69.6.0
  D:\KEIL_V5\C251\LIB\C2SFPXS.LIB (?C?FPNEG)
         COMMENT TYPE 0: A251 V4.69.6.0
  D:\KEIL_V5\C251\LIB\C2SFPXS.LIB (?C?FCAST)
         COMMENT TYPE 0: A251 V4.69.6.0
  D:\KEIL_V5\C251\LIB\C2SFPXS.LIB (?C?CASTF)
         COMMENT TYPE 0: A251 V4.69.6.0
  D:\KEIL_V5\C251\LIB\C2SFPXS.LIB (PRINTF)
         COMMENT TYPE 0: A251 V4.69.6.0
  D:\KEIL_V5\C251\LIB\C2SFPXS.LIB (FABS)
         COMMENT TYPE 0: A251 V4.69.6.0
  D:\KEIL_V5\C251\LIB\C2SFPXS.LIB (SQRT?_)
         COMMENT TYPE 0: A251 V4.69.6.0
  D:\KEIL_V5\C251\LIB\C2SFPXS.LIB (SIN?_)
         COMMENT TYPE 0: A251 V4.69.6.0
  D:\KEIL_V5\C251\LIB\C2SFPXS.LIB (?C?FPGETOPN)
         COMMENT TYPE 0: A251 V4.69.6.0
  D:\KEIL_V5\C251\LIB\C2SFPXS.LIB (?C?PRNFMT)
         COMMENT TYPE 0: A251 V4.69.6.0
L251 LINKER/LOCATER V4.66.93.0                                                        05/04/2023  22:29:11  PAGE 3


  D:\KEIL_V5\C251\LIB\C2SFPXS.LIB (?C?FPSERIES)
         COMMENT TYPE 0: A251 V4.69.6.0
  D:\KEIL_V5\C251\LIB\C2SFPXS.LIB (?C?FPCONVERT)
         COMMENT TYPE 0: A251 V4.69.6.0
  D:\KEIL_V5\C251\LIB\C2SFPXS.LIB (?C?FTNPWR)
         COMMENT TYPE 0: A251 V4.69.6.0
  D:\KEIL_V5\C251\LIB\C2SXS.LIB (?C_START)
         COMMENT TYPE 0: A251 V4.69.6.0
  D:\KEIL_V5\C251\LIB\C2SXS.LIB (?C?INITEDATA)
         COMMENT TYPE 0: A251 V4.69.6.0
  D:\KEIL_V5\C251\LIB\C2SXS.LIB (?C?SIDIV)
         COMMENT TYPE 0: A251 V4.69.6.0
  D:\KEIL_V5\C251\LIB\C2SXS.LIB (?C?LMUL)
         COMMENT TYPE 0: A251 V4.69.6.0
  D:\KEIL_V5\C251\LIB\C2SXS.LIB (?C?LIMUL)
         COMMENT TYPE 0: A251 V4.69.6.0
  D:\KEIL_V5\C251\LIB\C2SXS.LIB (?C?ULDIV)
         COMMENT TYPE 0: A251 V4.69.6.0
  D:\KEIL_V5\C251\LIB\C2SXS.LIB (?C?SLDIV)
         COMMENT TYPE 0: A251 V4.69.6.0
  D:\KEIL_V5\C251\LIB\C2SXS.LIB (memcpy)
         COMMENT TYPE 0: C251 V5.58.7
  D:\KEIL_V5\C251\LIB\C2SXS.LIB (memset)
         COMMENT TYPE 0: C251 V5.58.7
  D:\KEIL_V5\C251\LIB\C2SXS.LIB (?C?INITEDATA_END)
         COMMENT TYPE 0: A251 V4.69.6.0


ACTIVE MEMORY CLASSES OF MODULE:  .\Out_File\SEEKFREE (board)

BASE        START       END         USED      MEMORY CLASS
==========================================================
000000H     000000H     000FFFH     000993H   EDATA
000000H     000000H     000FFFH               HDATA
FF0000H     FF0000H     FFFFFFH     005ED4H   CODE
000000H     FF0000H     FFFFFFH     000EF0H   HCONST
FF0000H     FF0000H     FFFFFFH     000004H   CONST
000000H     000000H     00007FH     000008H   DATA


MEMORY MAP OF MODULE:  .\Out_File\SEEKFREE (board)


START     STOP      LENGTH    ALIGN  RELOC    MEMORY CLASS   SEGMENT NAME
=========================================================================
000000H   000007H   000008H   ---    AT..     DATA           "REG BANK 0"
000008H   0003C8H   0003C1H   BYTE   UNIT     EDATA          ?ED?OLED
0003C9H   0004C9H   000101H   BYTE   UNIT     EDATA          ?ED?SEEKFREE_TSL1401
0004CAH   000596H   0000CDH   BYTE   UNIT     EDATA          ?ED?ZF_UART
000597H   000649H   0000B3H   BYTE   UNIT     EDATA          ?ED?CONTROL
00064AH   0006D9H   000090H   BYTE   UNIT     EDATA          ?ED?PID
0006DAH   00072EH   000055H   BYTE   UNIT     EDATA          ?ED?SEEKFREE_BLUETOOTH_CH9141
00072FH   000783H   000055H   BYTE   UNIT     EDATA          ?ED?SEEKFREE_WIRELESS
000784H   0007D8H   000055H   BYTE   UNIT     EDATA          ?ED?SEEKFREE_WIRELESS_CH573
0007D9H   000812H   00003AH   BYTE   UNIT     EDATA          _EDATA_GROUP_
000813H   000824H   000012H   BYTE   UNIT     EDATA          ?ED?SEEKFREE_IMU963RA
000825H   000834H   000010H   BYTE   UNIT     EDATA          ?ED?ADC
000835H   000840H   00000CH   BYTE   UNIT     EDATA          ?ED?SEEKFREE_ICM20602
000841H   00084CH   00000CH   BYTE   UNIT     EDATA          ?ED?SEEKFREE_IMU660RA
00084DH   000858H   00000CH   BYTE   UNIT     EDATA          ?ED?SEEKFREE_MPU6050
000859H   000862H   00000AH   BYTE   UNIT     EDATA          ?ED?SEEKFREE_VIRSCO
000863H   000868H   000006H   BYTE   UNIT     EDATA          ?ED?DL1A_SIMIIC_READ_REGS?SEEKFREE_DL1A
000869H   00086EH   000006H   BYTE   UNIT     EDATA          ?ED?DL1A_GET_SEQUENCE_STEP_TIMEOUTS?SEEKFREE_DL1A
00086FH   000873H   000005H   BYTE   UNIT     EDATA          ?ED?DL1A_SIMIIC_WRITE_DATS?SEEKFREE_DL1A
000874H   000877H   000004H   BYTE   UNIT     EDATA          ?ED?BOARD
L251 LINKER/LOCATER V4.66.93.0                                                        05/04/2023  22:29:11  PAGE 4


000878H   00087BH   000004H   BYTE   UNIT     EDATA          ?ED?ZF_DELAY
00087CH   00087FH   000004H   BYTE   UNIT     EDATA          ?ED?ICM20602_SIMSPI_R_REG_BYTES?SEEKFREE_ICM20602
000880H   000883H   000004H   BYTE   UNIT     EDATA          ?ED?IMU660RA_SIMSPI_R_REG_BYTES?SEEKFREE_IMU660RA
000884H   000887H   000004H   BYTE   UNIT     EDATA          ?ED?MOTOR
000888H   00088BH   000004H   BYTE   UNIT     EDATA          ?ED?STEER
00088CH   00088EH   000003H   BYTE   UNIT     EDATA          ?ED?SEEKFREE_DL1A
00088FH   000890H   000002H   BYTE   UNIT     EDATA          ?ED?COMMON
000891H   000892H   000002H   BYTE   UNIT     EDATA          ?ED?IMU660RA_READ_REGISTER?SEEKFREE_IMU660RA
000893H   000894H   000002H   BYTE   UNIT     EDATA          ?ED?IPS114_WRITEDATA_16BIT?SEEKFREE_IPS114_SPI
000895H   000895H   000001H   BYTE   UNIT     EDATA          ?ED?DL1A_GET_SEQUENCE_STEP_ENABLES?SEEKFREE_DL1A
000896H   000896H   000001H   BYTE   UNIT     EDATA          ?ED?DL1A_GET_VCSEL_PULSE_PERIOD?SEEKFREE_DL1A
000897H   000897H   000001H   BYTE   UNIT     EDATA          ?ED?ICM20602_READ_REGISTER?SEEKFREE_ICM20602
000898H   000898H   000001H   BYTE   UNIT     EDATA          ?ED?IMU963RA_READ_ACC_GYRO_REGISTER?SEEKFREE_IMU963RA
000899H   000899H   000001H   BYTE   UNIT     EDATA          ?ED?ISR
00089AH   00089AH   000001H   BYTE   UNIT     EDATA          ?ED?KEY
00089BH   00099AH   000100H   BYTE   UNIT     EDATA          ?STACK
00099BH   FEFFFFH   FEF665H   ---    ---      **GAP**
FF0000H   FF0002H   000003H   ---    OFFS..   CODE           ?CO?start251?4
FF0003H   FF0005H   000003H   ---    OFFS..   CODE           ?PR?IV?0
FF0006H   FF000AH   000005H   BYTE   INSEG    CODE           ?PR?ENCODER_DELAY_US?SEEKFREE_ABSOLUTE_ENCODER
FF000BH   FF000DH   000003H   ---    OFFS..   CODE           ?PR?IV?1
FF000EH   FF0010H   000003H   BYTE   INSEG    CODE           ?PR?ENABLEGLOBALIRQ?BOARD
FF0011H   FF0011H   000001H   BYTE   INSEG    CODE           ?PR?INT1_ISR?ISR
FF0012H   FF0012H   000001H   BYTE   INSEG    CODE           ?PR?TM0_ISR?ISR
FF0013H   FF0015H   000003H   ---    OFFS..   CODE           ?PR?IV?2
FF0016H   FF0016H   000001H   BYTE   INSEG    CODE           ?PR?TM1_ISR?ISR
FF0017H   FF001AH   000004H   BYTE   UNIT     CONST          ?CO?PRINTF
FF001BH   FF001DH   000003H   ---    OFFS..   CODE           ?PR?IV?3
FF001EH   FF0022H   000005H   ---    ---      **GAP**
FF0023H   FF0025H   000003H   ---    OFFS..   CODE           ?PR?IV?4
FF0026H   FF0041H   00001CH   BYTE   INSEG    CODE           ?PR?DL1A_SCCB_WAITACK?SEEKFREE_DL1A
FF0042H   FF0042H   000001H   ---    ---      **GAP**
FF0043H   FF0045H   000003H   ---    OFFS..   CODE           ?PR?IV?8
FF0046H   FF0052H   00000DH   BYTE   INSEG    CODE           ?PR?AT24C02_SIMIIC_DELAY?SEEKFREE_AT24C02
FF0053H   FF0055H   000003H   ---    OFFS..   CODE           ?PR?IV?10
FF0056H   FF005AH   000005H   ---    ---      **GAP**
FF005BH   FF005DH   000003H   ---    OFFS..   CODE           ?PR?IV?11
FF005EH   FF0062H   000005H   ---    ---      **GAP**
FF0063H   FF0065H   000003H   ---    OFFS..   CODE           ?PR?IV?12
FF0066H   FF0081H   00001CH   BYTE   INSEG    CODE           ?PR?IMU963RA_SIMSPI_R_REG_BYTE?SEEKFREE_IMU963RA
FF0082H   FF0082H   000001H   ---    ---      **GAP**
FF0083H   FF0085H   000003H   ---    OFFS..   CODE           ?PR?IV?16
FF0086H   FF008AH   000005H   ---    ---      **GAP**
FF008BH   FF008DH   000003H   ---    OFFS..   CODE           ?PR?IV?17
FF008EH   FF0092H   000005H   ---    ---      **GAP**
FF0093H   FF0095H   000003H   ---    OFFS..   CODE           ?PR?IV?18
FF0096H   FF009AH   000005H   ---    ---      **GAP**
FF009BH   FF009DH   000003H   ---    OFFS..   CODE           ?PR?IV?19
FF009EH   FF00A2H   000005H   ---    ---      **GAP**
FF00A3H   FF00A5H   000003H   ---    OFFS..   CODE           ?PR?IV?20
FF00A6H   FF20A5H   002000H   BYTE   UNIT     CODE           ?CO?SEEKFREE_CONFIG
FF20A6H   FF2EADH   000E08H   BYTE   UNIT     CODE           ?CO?SEEKFREE_FONT
FF2EAEH   FF3A5AH   000BADH   BYTE   UNIT     CODE           ?C?LIB_CODE
FF3A5BH   FF3E51H   0003F7H   BYTE   INSEG    CODE           ?PR?GPIO_MODE?ZF_GPIO
FF3E52H   FF414DH   0002FCH   BYTE   INSEG    CODE           ?PR?PWM_INIT?ZF_PWM
FF414EH   FF43EEH   0002A1H   BYTE   INSEG    CODE           ?PR?PWM_SET_GPIO?ZF_PWM
FF43EFH   FF45ADH   0001BFH   BYTE   INSEG    CODE           ?PR?UART_INIT?ZF_UART
FF45AEH   FF4704H   000157H   BYTE   INSEG    CODE           ?PR?TM4_ISR?ISR
FF4705H   FF4826H   000122H   BYTE   INSEG    CODE           ?PR?SET_CLK?BOARD
FF4827H   FF491EH   0000F8H   BYTE   INSEG    CODE           ?PR?MAIN?MAIN
FF491FH   FF49FEH   0000E0H   BYTE   INSEG    CODE           ?PR?FIFO_WRITE_BUFFER?ZF_FIFO
FF49FFH   FF4AD9H   0000DBH   BYTE   INSEG    CODE           ?PR?DL1A_GET_SEQUENCE_STEP_TIMEOUTS?SEEKFREE_DL1A
FF4ADAH   FF4BA1H   0000C8H   BYTE   INSEG    CODE           ?PR?PWM_DUTY?ZF_PWM
FF4BA2H   FF4C5CH   0000BBH   BYTE   INSEG    CODE           ?PR?DIRECT_JUDGE?CONTROL
FF4C5DH   FF4D0AH   0000AEH   BYTE   INSEG    CODE           ?PR?OLED_INIT?OLED
L251 LINKER/LOCATER V4.66.93.0                                                        05/04/2023  22:29:11  PAGE 5


FF4D0BH   FF4DAFH   0000A5H   BYTE   INSEG    CODE           ?PR?MOTOR_CONTROL?MOTOR
FF4DB0H   FF4E49H   00009AH   BYTE   INSEG    CODE           ?PR?STEER_SPIN?STEER
FF4E4AH   FF4EDDH   000094H   BYTE   INSEG    CODE           ?PR?BOARD_INIT?BOARD
FF4EDEH   FF4F71H   000094H   BYTE   INSEG    CODE           ?PR?PIT_TIMER_MS?ZF_TIM
FF4F72H   FF5004H   000093H   BYTE   INSEG    CODE           ?PR?SEND_FIVE_DATA?HOST
FF5005H   FF5096H   000092H   BYTE   INSEG    CODE           ?PR?LOST_LINE_JUDGE?CONTROL
FF5097H   FF510FH   000079H   BYTE   INSEG    CODE           ?PR?READ_ADC_VALUE?ADC
FF5110H   FF517FH   000070H   BYTE   INSEG    CODE           ?PR?ADC_ERROR_PROCESSING?CONTROL
FF5180H   FF51E8H   000069H   BYTE   INSEG    CODE           ?PR?UART4_ISR?ISR
FF51E9H   FF524FH   000067H   BYTE   INSEG    CODE           ?PR?CORRECT_ANGLE?CONTROL
FF5250H   FF52AEH   00005FH   BYTE   INSEG    CODE           ?PR?PID_STRUCT_INIT?PID
FF52AFH   FF530CH   00005EH   BYTE   INSEG    CODE           ?PR?ADC_INIT?ZF_ADC
FF530DH   FF5369H   00005DH   BYTE   INSEG    CODE           ?PR?LOSTLINE_DEAL?CONTROL
FF536AH   FF53C4H   00005BH   BYTE   INSEG    CODE           ?PR?ADC_ERROR_WINDOW_FILTERING?CONTROL
FF53C5H   FF541EH   00005AH   BYTE   INSEG    CODE           ?PR?OLED_WR_BYTE?OLED
FF541FH   FF5476H   000058H   BYTE   INSEG    CODE           ?PR?DL1A_GET_SEQUENCE_STEP_ENABLES?SEEKFREE_DL1A
FF5477H   FF54CAH   000054H   BYTE   INSEG    CODE           ?PR?UART_PUTCHAR?ZF_UART
FF54CBH   FF551EH   000054H   BYTE   INSEG    CODE           ?PR?DL1A_SIMIIC_READ_REGS?SEEKFREE_DL1A
FF551FH   FF5570H   000052H   BYTE   INSEG    CODE           ?PR?IMU963RA_READ_MAG_REGISTER?SEEKFREE_IMU963RA
FF5571H   FF55C0H   000050H   BYTE   INSEG    CODE           ?PR?MOTOR_INIT?MOTOR
FF55C1H   FF560DH   00004DH   BYTE   INSEG    CODE           ?PR?DL1A_GET_VCSEL_PULSE_PERIOD?SEEKFREE_DL1A
FF560EH   FF565AH   00004DH   BYTE   INSEG    CODE           ?PR?ADC_MEAN_FILTER?ADC
FF565BH   FF56A4H   00004AH   BYTE   INSEG    CODE           ?PR?CTIMER_COUNT_INIT?ZF_TIM
FF56A5H   FF56ECH   000048H   BYTE   INSEG    CODE           ?PR?MY_ADC_INIT?ADC
FF56EDH   FF5734H   000048H   BYTE   INSEG    CODE           ?PR?PID_PARAM_INIT?PID
FF5735H   FF5779H   000045H   BYTE   INSEG    CODE           ?PR?WAIT?ZF_IIC
FF577AH   FF57BDH   000044H   BYTE   INSEG    CODE           ?PR?PID_RESET?PID
FF57BEH   FF57FFH   000042H   BYTE   INSEG    CODE           ?PR?FIFO_HEAD_OFFSET?ZF_FIFO
FF5800H   FF5812H   000013H   BYTE   UNIT     CODE           ?C_C51STARTUP
FF5813H   FF583BH   000029H   BYTE   UNIT     CODE           ?C_C51STARTUP?2
FF583CH   FF583EH   000003H   BYTE   UNIT     CODE           ?C_C51STARTUP?3
FF583FH   FF587CH   00003EH   BYTE   INSEG    CODE           ?PR?DL1A_TIMEOUT_MCLKS_TO_MICROSECONDS?SEEKFREE_DL1A
FF587DH   FF58B9H   00003DH   BYTE   INSEG    CODE           ?PR?UART1_ISR?ISR
FF58BAH   FF58F5H   00003CH   BYTE   INSEG    CODE           ?PR?DL1A_TIMEOUT_MICROSECONDS_TO_MCLKS?SEEKFREE_DL1A
FF58F6H   FF5930H   00003BH   BYTE   INSEG    CODE           ?PR?DL1A_READ_CH?SEEKFREE_DL1A
FF5931H   FF5969H   000039H   BYTE   INSEG    CODE           ?PR?DELAY_INIT?ZF_DELAY
FF596AH   FF599EH   000035H   BYTE   INSEG    CODE           ?PR?DL1A_SIMIIC_WRITE_DATS?SEEKFREE_DL1A
FF599FH   FF59D2H   000034H   BYTE   INSEG    CODE           ?PR?DL1A_ENCODE_TIMEOUT?SEEKFREE_DL1A
FF59D3H   FF5A04H   000032H   BYTE   INSEG    CODE           ?PR?OLED_CLEAR?OLED
FF5A05H   FF5A34H   000030H   BYTE   INSEG    CODE           ?PR?ICM20602_SIMSPI_R_REG_BYTES?SEEKFREE_ICM20602
FF5A35H   FF5A64H   000030H   BYTE   INSEG    CODE           ?PR?IMU660RA_SIMSPI_R_REG_BYTES?SEEKFREE_IMU660RA
FF5A65H   FF5A92H   00002EH   BYTE   INSEG    CODE           ?PR?ADC_ONCE?ZF_ADC
FF5A93H   FF5AC0H   00002EH   BYTE   INSEG    CODE           ?PR?DL1A_SEND_CH?SEEKFREE_DL1A
FF5AC1H   FF5AEEH   00002EH   BYTE   INSEG    CODE           ?PR?ADC_ERROR_WEIGHT_FILTERING?CONTROL
FF5AEFH   FF5B1AH   00002CH   BYTE   INSEG    CODE           ?PR?IPS114_WRITEDATAI_16BIT_SIMSPI?SEEKFREE_IPS114_SPI
FF5B1BH   FF5B43H   000029H   BYTE   INSEG    CODE           ?PR?IPS114_WRITEINDEX_SIMSPI?SEEKFREE_IPS114_SPI
FF5B44H   FF5B6AH   000027H   BYTE   INSEG    CODE           ?PR?OLED_SET_POS?OLED
FF5B6BH   FF5B8FH   000025H   BYTE   INSEG    CODE           ?PR?MEMCPY?_?MEMCPY
FF5B90H   FF5BB3H   000024H   BYTE   INSEG    CODE           ?PR?BRUSHLESS_INIT?BRUSHLESS
FF5BB4H   FF5BD6H   000023H   BYTE   INSEG    CODE           ?PR?ICM20602_SIMSPI_WR_BYTE?SEEKFREE_ICM20602
FF5BD7H   FF5BF9H   000023H   BYTE   INSEG    CODE           ?PR?IMU660RA_SIMSPI_WR_BYTE?SEEKFREE_IMU660RA
FF5BFAH   FF5C1CH   000023H   BYTE   INSEG    CODE           ?PR?IMU963RA_SIMSPI_WR_BYTE?SEEKFREE_IMU963RA
FF5C1DH   FF5C3CH   000020H   BYTE   INSEG    CODE           ?PR?AT24C02_SIMIIC_SENDACK?SEEKFREE_AT24C02
FF5C3DH   FF5C5CH   000020H   BYTE   INSEG    CODE           ?PR?DL1A_SIMIIC_SENDACK?SEEKFREE_DL1A
FF5C5DH   FF5C7CH   000020H   BYTE   INSEG    CODE           ?PR?MPU6050_SIMIIC_SENDACK?SEEKFREE_MPU6050
FF5C7DH   FF5C9CH   000020H   BYTE   INSEG    CODE           ?PR?STEER_SPIN_LIMIT?STEER
FF5C9DH   FF5CBBH   00001FH   BYTE   INSEG    CODE           ?PR?IPS114_WRITEDATA_16BIT?SEEKFREE_IPS114_SPI
FF5CBCH   FF5CD9H   00001EH   BYTE   INSEG    CODE           ?PR?UART2_ISR?ISR
FF5CDAH   FF5CF7H   00001EH   BYTE   INSEG    CODE           ?PR?UART3_ISR?ISR
FF5CF8H   FF5D12H   00001BH   BYTE   INSEG    CODE           ?PR?IMU963RA_READ_ACC_GYRO_REGISTER?SEEKFREE_IMU963RA
FF5D13H   FF5D2BH   000019H   BYTE   INSEG    CODE           ?PR?DELAY_US?ZF_DELAY
FF5D2CH   FF5D44H   000019H   BYTE   INSEG    CODE           ?PR?BLUETOOTH_CH9141_UART_CALLBACK?SEEKFREE_BLUETOOTH_CH91
                                                             -41
FF5D45H   FF5D5DH   000019H   BYTE   INSEG    CODE           ?PR?WIRELESS_UART_CALLBACK?SEEKFREE_WIRELESS
FF5D5EH   FF5D76H   000019H   BYTE   INSEG    CODE           ?PR?WIRELESS_CH573_CALLBACK?SEEKFREE_WIRELESS_CH573
L251 LINKER/LOCATER V4.66.93.0                                                        05/04/2023  22:29:11  PAGE 6


FF5D77H   FF5D8EH   000018H   BYTE   INSEG    CODE           ?PR?ICM20602_SIMSPI_R_REG_BYTE?SEEKFREE_ICM20602
FF5D8FH   FF5DA5H   000017H   BYTE   INSEG    CODE           ?PR?DELAY_MS?ZF_DELAY
FF5DA6H   FF5DBBH   000016H   BYTE   INSEG    CODE           ?PR?IMU660RA_READ_REGISTER?SEEKFREE_IMU660RA
FF5DBCH   FF5DD0H   000015H   BYTE   INSEG    CODE           ?PR?EEPROM_TRIG?ZF_EEPROM
FF5DD1H   FF5DE5H   000015H   BYTE   INSEG    CODE           ?PR?IIC_DELAY_US?ZF_IIC
FF5DE6H   FF5DF8H   000013H   BYTE   INSEG    CODE           ?PR?IMU963RA_SIMSPI_W_REG_BYTE?SEEKFREE_IMU963RA
FF5DF9H   FF5E0BH   000013H   BYTE   INSEG    CODE           ?PR?STEER_INIT?STEER
FF5E0CH   FF5E1DH   000012H   BYTE   INSEG    CODE           ?PR?ICM20602_READ_REGISTER?SEEKFREE_ICM20602
FF5E1EH   FF5E2EH   000011H   BYTE   INSEG    CODE           ?PR?AT24C02_SIMIIC_STOP?SEEKFREE_AT24C02
FF5E2FH   FF5E3FH   000011H   BYTE   INSEG    CODE           ?PR?DL1A_SIMIIC_STOP?SEEKFREE_DL1A
FF5E40H   FF5E50H   000011H   BYTE   INSEG    CODE           ?PR?MPU6050_SIMIIC_STOP?SEEKFREE_MPU6050
FF5E51H   FF5E60H   000010H   BYTE   INSEG    CODE           ?PR?DL1A_DECODE_TIMEOUT?SEEKFREE_DL1A
FF5E61H   FF5E6FH   00000FH   BYTE   INSEG    CODE           ?PR?DL1A_SIMIIC_START?SEEKFREE_DL1A
FF5E70H   FF5E7EH   00000FH   BYTE   INSEG    CODE           ?PR?MPU6050_SIMIIC_START?SEEKFREE_MPU6050
FF5E7FH   FF5E8CH   00000EH   BYTE   INSEG    CODE           ?PR?PUTCHAR?BOARD
FF5E8DH   FF5E9AH   00000EH   BYTE   INSEG    CODE           ?PR?SPI_MOSI?ZF_SPI
FF5E9BH   FF5EA7H   00000DH   BYTE   INSEG    CODE           ?PR?DL1A_SIMIIC_DELAY?SEEKFREE_DL1A
FF5EA8H   FF5EB2H   00000BH   BYTE   INSEG    CODE           ?PR?MPU6050_SIMIIC_DELAY?SEEKFREE_MPU6050
FF5EB3H   FF5EBCH   00000AH   BYTE   INSEG    CODE           ?PR?IPS114_WRITEINDEX?SEEKFREE_IPS114_SPI
FF5EBDH   FF5EC5H   000009H   BYTE   INSEG    CODE           ?PR?TIMER4_INIT?TIMER
FF5EC6H   FF5ECDH   000008H   BYTE   INSEG    CODE           ?PR?IMU963RA_WRITE_ACC_GYRO_REGISTER?SEEKFREE_IMU963RA
FF5ECEH   FF5ED5H   000008H   BYTE   INSEG    CODE           ?PR?INT2_ISR?ISR
FF5ED6H   FF5EDDH   000008H   BYTE   INSEG    CODE           ?PR?INT3_ISR?ISR
FF5EDEH   FF5EE5H   000008H   BYTE   INSEG    CODE           ?PR?INT4_ISR?ISR
FF5EE6H   FF5EEDH   000008H   BYTE   INSEG    CODE           ?PR?TM2_ISR?ISR
FF5EEEH   FF5EF5H   000008H   BYTE   INSEG    CODE           ?PR?TM3_ISR?ISR
FF5EF6H   FF5EFCH   000007H   BYTE   INSEG    CODE           ?PR?INT0_ISR?ISR
FF5EFDH   FF6714H   000818H   BYTE   UNIT     HCONST         ?HC?OLED
FF6715H   FF6C69H   000555H   BYTE   UNIT     HCONST         ?C_INITEDATA
FF6C6AH   FF6CC1H   000058H   BYTE   UNIT     HCONST         ?HC?ZF_PWM
FF6CC2H   FF6D0CH   00004BH   BYTE   UNIT     HCONST         ?HC?SEEKFREE_IMU963RA
FF6D0DH   FF6D56H   00004AH   BYTE   UNIT     HCONST         ?HC?MAIN
FF6D57H   FF6D8AH   000034H   BYTE   UNIT     HCONST         ?HC?SEEKFREE_IMU660RA
FF6D8BH   FF6DBDH   000033H   BYTE   UNIT     HCONST         ?HC?SEEKFREE_ICM20602
FF6DBEH   FF6DD3H   000016H   BYTE   UNIT     HCONST         ?HC?SEEKFREE_MPU6050
FF6DD4H   FF6DE6H   000013H   BYTE   UNIT     HCONST         ?HC?SEEKFREE_DL1A
FF6DE7H   FF6DECH   000006H   BYTE   UNIT     HCONST         ?HC?SEEKFREE_IPS114_SPI

* * * * * * * * *   R E M O V E D     S E G M E N T S   * * * * * * * *
   *DEL*:           000003H   BYTE   INSEG    CODE           ?PR?DISABLEGLOBALIRQ?BOARD
   *DEL*:           000016H   BYTE   INSEG    CODE           ?PR?IAP_SET_TPS?ZF_EEPROM
   *DEL*:           00000EH   BYTE   INSEG    CODE           ?PR?IAP_ERASE_PAGE?ZF_EEPROM
   *DEL*:           000004H   BYTE   INSEG    CODE           ?PR?IAP_IDLE?ZF_EEPROM
   *DEL*:           000047H   BYTE   INSEG    CODE           ?PR?IAP_READ_BYTES?ZF_EEPROM
   *DEL*:           00006DH   BYTE   INSEG    CODE           ?PR?EXTERN_IAP_WRITE_BYTES?ZF_EEPROM
   *DEL*:           000006H   BYTE   INSEG    CODE           ?PR?IAP_INIT?ZF_EEPROM
   *DEL*:           000047H   BYTE   INSEG    CODE           ?PR?IAP_WRITE_BYTES?ZF_EEPROM
   *DEL*:           00000CH   BYTE   INSEG    CODE           ?PR?IAP_GET_CMD_STATE?ZF_EEPROM
   *DEL*:           000004H   BYTE   UNIT     EDATA          ?ED?IAP_READ_BYTES?ZF_EEPROM
   *DEL*:           000004H   BYTE   UNIT     EDATA          ?ED?IAP_WRITE_BYTES?ZF_EEPROM
   *DEL*:           000204H   BYTE   UNIT     EDATA          ?ED?EXTERN_IAP_WRITE_BYTES?ZF_EEPROM
   *DEL*:           00003EH   BYTE   INSEG    CODE           ?PR?EXIT_INIT?ZF_EXTI
   *DEL*:           00006EH   BYTE   INSEG    CODE           ?PR?GPIO_PULL_SET?ZF_GPIO
   *DEL*:           000017H   BYTE   INSEG    CODE           ?PR?SEND_DATA?ZF_IIC
   *DEL*:           00002FH   BYTE   INSEG    CODE           ?PR?IIC_CHANGE_PIN?ZF_IIC
   *DEL*:           00001CH   BYTE   INSEG    CODE           ?PR?RECV_DATA?ZF_IIC
   *DEL*:           000010H   BYTE   INSEG    CODE           ?PR?START?ZF_IIC
   *DEL*:           000018H   BYTE   INSEG    CODE           ?PR?SEND_ACK?ZF_IIC
   *DEL*:           000010H   BYTE   INSEG    CODE           ?PR?RECV_ACK?ZF_IIC
   *DEL*:           000010H   BYTE   INSEG    CODE           ?PR?STOP?ZF_IIC
   *DEL*:           000019H   BYTE   INSEG    CODE           ?PR?SEND_NAK?ZF_IIC
   *DEL*:           00005EH   BYTE   INSEG    CODE           ?PR?IIC_INIT?ZF_IIC
   *DEL*:           000075H   BYTE   INSEG    CODE           ?PR?IIC_READ_REG?ZF_IIC
   *DEL*:           00009CH   BYTE   INSEG    CODE           ?PR?IIC_READ_REG_BYTES?ZF_IIC
   *DEL*:           000060H   BYTE   INSEG    CODE           ?PR?IIC_WRITE_REG?ZF_IIC
L251 LINKER/LOCATER V4.66.93.0                                                        05/04/2023  22:29:11  PAGE 7


   *DEL*:           000004H   BYTE   UNIT     EDATA          ?ED?IIC_INIT?ZF_IIC
   *DEL*:           000004H   BYTE   UNIT     EDATA          ?ED?IIC_READ_REG?ZF_IIC
   *DEL*:           000003H   BYTE   UNIT     EDATA          ?ED?IIC_READ_REG_BYTES?ZF_IIC
   *DEL*:           00006CH   BYTE   INSEG    CODE           ?PR?NVIC_SETPRIORITY?ZF_NVIC
   *DEL*:           000131H   BYTE   INSEG    CODE           ?PR?PWM_FREQ?ZF_PWM
   *DEL*:           000004H   BYTE   UNIT     EDATA          ?ED?PWM_FREQ?ZF_PWM
   *DEL*:           00001DH   BYTE   INSEG    CODE           ?PR?SPI_CHANGE_MODE?ZF_SPI
   *DEL*:           0000AEH   BYTE   INSEG    CODE           ?PR?SPI_CHANGE_PIN?ZF_SPI
   *DEL*:           0000DFH   BYTE   INSEG    CODE           ?PR?SPI_INIT?ZF_SPI
   *DEL*:           000004H   BYTE   UNIT     EDATA          ?ED?SPI_INIT?ZF_SPI
   *DEL*:           00004DH   BYTE   INSEG    CODE           ?PR?CTIMER_COUNT_READ?ZF_TIM
   *DEL*:           000051H   BYTE   INSEG    CODE           ?PR?CTIMER_COUNT_CLEAN?ZF_TIM
   *DEL*:           00002DH   BYTE   INSEG    CODE           ?PR?UART_PUTBUFF?ZF_UART
   *DEL*:           00001EH   BYTE   INSEG    CODE           ?PR?UART_PUTSTR?ZF_UART
   *DEL*:           000004H   BYTE   UNIT     EDATA          ?ED?UART_PUTBUFF?ZF_UART
   *DEL*:           000002H   BYTE   UNIT     EDATA          ?ED?UART_PUTSTR?ZF_UART
   *DEL*:           000113H   BYTE   INSEG    CODE           ?PR?FIFO_READ_BUFFER?ZF_FIFO
   *DEL*:           000025H   BYTE   INSEG    CODE           ?PR?FIFO_CLEAR?ZF_FIFO
   *DEL*:           000046H   BYTE   INSEG    CODE           ?PR?FIFO_END_OFFSET?ZF_FIFO
   *DEL*:           000015H   BYTE   INSEG    CODE           ?PR?FIFO_USED?ZF_FIFO
   *DEL*:           000043H   BYTE   INSEG    CODE           ?PR?FIFO_INIT?ZF_FIFO
   *DEL*:           000004H   BYTE   UNIT     EDATA          ?ED?FIFO_INIT?ZF_FIFO
   *DEL*:           00000FH   BYTE   UNIT     EDATA          ?ED?FIFO_READ_BUFFER?ZF_FIFO
   *DEL*:           000011H   BYTE   INSEG    CODE           ?PR?ENCODER_SELF4_CHECK?SEEKFREE_ABSOLUTE_ENCODER
   *DEL*:           000011H   BYTE   INSEG    CODE           ?PR?ENCODER_SELF5_CHECK?SEEKFREE_ABSOLUTE_ENCODER
   *DEL*:           00002FH   BYTE   INSEG    CODE           ?PR?ENCODER_SPI_R_REG_BYTE?SEEKFREE_ABSOLUTE_ENCODER
   *DEL*:           000038H   BYTE   INSEG    CODE           ?PR?ENCODER_SPI_W_REG_BYTE?SEEKFREE_ABSOLUTE_ENCODER
   *DEL*:           00001CH   BYTE   INSEG    CODE           ?PR?SIMSPI_R_REG_BYTE?SEEKFREE_ABSOLUTE_ENCODER
   *DEL*:           00001AH   BYTE   INSEG    CODE           ?PR?SIMSPI_W_REG_BYTE?SEEKFREE_ABSOLUTE_ENCODER
   *DEL*:           000029H   BYTE   INSEG    CODE           ?PR?ENCODER_INIT_SPI?SEEKFREE_ABSOLUTE_ENCODER
   *DEL*:           000004H   BYTE   INSEG    CODE           ?PR?SPI_WR_BYTE?SEEKFREE_ABSOLUTE_ENCODER
   *DEL*:           000024H   BYTE   INSEG    CODE           ?PR?SET_ZERO_POSITION_SIMSPI?SEEKFREE_ABSOLUTE_ENCODER
   *DEL*:           000023H   BYTE   INSEG    CODE           ?PR?ENCODER_ANGLE_SIMSPI?SEEKFREE_ABSOLUTE_ENCODER
   *DEL*:           00001CH   BYTE   INSEG    CODE           ?PR?SPI_R_REG_BYTE?SEEKFREE_ABSOLUTE_ENCODER
   *DEL*:           00001AH   BYTE   INSEG    CODE           ?PR?SPI_W_REG_BYTE?SEEKFREE_ABSOLUTE_ENCODER
   *DEL*:           00002FH   BYTE   INSEG    CODE           ?PR?ENCODER_SIMSPI_R_REG_BYTE?SEEKFREE_ABSOLUTE_ENCODER
   *DEL*:           000038H   BYTE   INSEG    CODE           ?PR?ENCODER_SIMSPI_W_REG_BYTE?SEEKFREE_ABSOLUTE_ENCODER
   *DEL*:           00000FH   BYTE   INSEG    CODE           ?PR?ENCODER_INIT_SIMSPI?SEEKFREE_ABSOLUTE_ENCODER
   *DEL*:           000024H   BYTE   INSEG    CODE           ?PR?SET_ZERO_POSITION_SPI?SEEKFREE_ABSOLUTE_ENCODER
   *DEL*:           00001FH   BYTE   INSEG    CODE           ?PR?SIMSPI_WR_BYTE?SEEKFREE_ABSOLUTE_ENCODER
   *DEL*:           000023H   BYTE   INSEG    CODE           ?PR?ENCODER_ANGLE_SPI?SEEKFREE_ABSOLUTE_ENCODER
   *DEL*:           000001H   BYTE   UNIT     EDATA          ?ED?ENCODER_SELF4_CHECK?SEEKFREE_ABSOLUTE_ENCODER
   *DEL*:           000001H   BYTE   UNIT     EDATA          ?ED?ENCODER_SELF5_CHECK?SEEKFREE_ABSOLUTE_ENCODER
   *DEL*:           000029H   BYTE   INSEG    CODE           ?PR?AT24C02_SIMIIC_READ_REG?SEEKFREE_AT24C02
   *DEL*:           00005EH   BYTE   INSEG    CODE           ?PR?AT24C02_READ_BYTES?SEEKFREE_AT24C02
   *DEL*:           000022H   BYTE   INSEG    CODE           ?PR?AT24C02_SIMIIC_WRITE_REG?SEEKFREE_AT24C02
   *DEL*:           000015H   BYTE   INSEG    CODE           ?PR?AT24C02_READ_BYTE?SEEKFREE_AT24C02
   *DEL*:           00005BH   BYTE   INSEG    CODE           ?PR?AT24C02_WRITE_BYTES?SEEKFREE_AT24C02
   *DEL*:           000019H   BYTE   INSEG    CODE           ?PR?AT24C02_WRITE_BYTE?SEEKFREE_AT24C02
   *DEL*:           00003BH   BYTE   INSEG    CODE           ?PR?AT24C02_READ_CH?SEEKFREE_AT24C02
   *DEL*:           00002EH   BYTE   INSEG    CODE           ?PR?AT24C02_SEND_CH?SEEKFREE_AT24C02
   *DEL*:           00001CH   BYTE   INSEG    CODE           ?PR?AT24C02_SCCB_WAITACK?SEEKFREE_AT24C02
   *DEL*:           00000FH   BYTE   INSEG    CODE           ?PR?AT24C02_SIMIIC_START?SEEKFREE_AT24C02
   *DEL*:           000002H   BYTE   UNIT     EDATA          ?ED?AT24C02_WRITE_BYTES?SEEKFREE_AT24C02
   *DEL*:           000002H   BYTE   UNIT     EDATA          ?ED?AT24C02_READ_BYTES?SEEKFREE_AT24C02
   *DEL*:           000022H   BYTE   INSEG    CODE           ?PR?BLUETOOTH_CH9141_READ_BUFF?SEEKFREE_BLUETOOTH_CH9141
   *DEL*:           0000ABH   BYTE   INSEG    CODE           ?PR?BLUETOOTH_CH9141_SEND_BUFF?SEEKFREE_BLUETOOTH_CH9141
   *DEL*:           00003CH   BYTE   INSEG    CODE           ?PR?BLUETOOTH_CH9141_INIT?SEEKFREE_BLUETOOTH_CH9141
   *DEL*:           000006H   BYTE   UNIT     EDATA          ?ED?BLUETOOTH_CH9141_SEND_BUFF?SEEKFREE_BLUETOOTH_CH9141
   *DEL*:           000004H   BYTE   UNIT     EDATA          ?ED?BLUETOOTH_CH9141_READ_BUFF?SEEKFREE_BLUETOOTH_CH9141
   *DEL*:           000027H   BYTE   INSEG    CODE           ?PR?DL1A_SET_SIGNAL_RATE_LIMIT?SEEKFREE_DL1A
   *DEL*:           00017CH   BYTE   INSEG    CODE           ?PR?DL1A_GET_SPAD_INFO?SEEKFREE_DL1A
   *DEL*:           00005DH   BYTE   INSEG    CODE           ?PR?DL1A_GET_DISTANCE?SEEKFREE_DL1A
   *DEL*:           000077H   BYTE   INSEG    CODE           ?PR?DL1A_PERFORM_SINGLE_REF_CALIBRATION?SEEKFREE_DL1A
   *DEL*:           000073H   BYTE   INSEG    CODE           ?PR?DL1A_GET_MEASUREMENT_TIMING_BUDGET?SEEKFREE_DL1A
L251 LINKER/LOCATER V4.66.93.0                                                        05/04/2023  22:29:11  PAGE 8


   *DEL*:           000029H   BYTE   INSEG    CODE           ?PR?DL1A_SIMIIC_READ_REG?SEEKFREE_DL1A
   *DEL*:           000054H   BYTE   INSEG    CODE           ?PR?DL1A_SIMIIC_READ_REGS_1?SEEKFREE_DL1A
   *DEL*:           0000E4H   BYTE   INSEG    CODE           ?PR?DL1A_SET_MEASUREMENT_TIMING_BUDGET?SEEKFREE_DL1A
   *DEL*:           000022H   BYTE   INSEG    CODE           ?PR?DL1A_SIMIIC_WRITE_REG?SEEKFREE_DL1A
   *DEL*:           00061BH   BYTE   INSEG    CODE           ?PR?DL1A_INIT?SEEKFREE_DL1A
   *DEL*:           000006H   BYTE   UNIT     EDATA          ?ED?DL1A_SIMIIC_READ_REGS_1?SEEKFREE_DL1A
   *DEL*:           000008H   BYTE   UNIT     EDATA          ?ED?DL1A_GET_SPAD_INFO?SEEKFREE_DL1A
   *DEL*:           000003H   BYTE   UNIT     EDATA          ?ED?DL1A_PERFORM_SINGLE_REF_CALIBRATION?SEEKFREE_DL1A
   *DEL*:           000023H   BYTE   UNIT     EDATA          ?ED?DL1A_SET_MEASUREMENT_TIMING_BUDGET?SEEKFREE_DL1A
   *DEL*:           00001BH   BYTE   UNIT     EDATA          ?ED?DL1A_GET_MEASUREMENT_TIMING_BUDGET?SEEKFREE_DL1A
   *DEL*:           000003H   BYTE   UNIT     EDATA          ?ED?DL1A_SET_SIGNAL_RATE_LIMIT?SEEKFREE_DL1A
   *DEL*:           000003H   BYTE   UNIT     EDATA          ?ED?DL1A_GET_DISTANCE?SEEKFREE_DL1A
   *DEL*:           000012H   BYTE   UNIT     EDATA          ?ED?DL1A_INIT?SEEKFREE_DL1A
   *DEL*:           000012H   BYTE   INSEG    CODE           ?PR?ICM20602_GYRO_TRANSITION?SEEKFREE_ICM20602
   *DEL*:           000008H   BYTE   INSEG    CODE           ?PR?ICM20602_WRITE_REGISTER?SEEKFREE_ICM20602
   *DEL*:           00002DH   BYTE   INSEG    CODE           ?PR?ICM20602_SELF_CHECK?SEEKFREE_ICM20602
   *DEL*:           00000FH   BYTE   INSEG    CODE           ?PR?ICM20602_SIMSPI_W_REG_BYTE?SEEKFREE_ICM20602
   *DEL*:           000098H   BYTE   INSEG    CODE           ?PR?ICM20602_INIT?SEEKFREE_ICM20602
   *DEL*:           000040H   BYTE   INSEG    CODE           ?PR?ICM20602_GET_ACC?SEEKFREE_ICM20602
   *DEL*:           000010H   BYTE   INSEG    CODE           ?PR?ICM20602_ACC_TRANSITION?SEEKFREE_ICM20602
   *DEL*:           000010H   BYTE   INSEG    CODE           ?PR?ICM20602_READ_REGISTERS?SEEKFREE_ICM20602
   *DEL*:           000040H   BYTE   INSEG    CODE           ?PR?ICM20602_GET_GYRO?SEEKFREE_ICM20602
   *DEL*:           000006H   BYTE   UNIT     EDATA          ?ED?ICM20602_GET_ACC?SEEKFREE_ICM20602
   *DEL*:           000006H   BYTE   UNIT     EDATA          ?ED?ICM20602_GET_GYRO?SEEKFREE_ICM20602
   *DEL*:           000040H   BYTE   INSEG    CODE           ?PR?IMU660RA_GET_GYRO?SEEKFREE_IMU660RA
   *DEL*:           00000EH   BYTE   INSEG    CODE           ?PR?IMU660RA_WRITE_REGISTERS?SEEKFREE_IMU660RA
   *DEL*:           000012H   BYTE   INSEG    CODE           ?PR?IMU660RA_GYRO_TRANSITION?SEEKFREE_IMU660RA
   *DEL*:           000008H   BYTE   INSEG    CODE           ?PR?IMU660RA_WRITE_REGISTER?SEEKFREE_IMU660RA
   *DEL*:           00002CH   BYTE   INSEG    CODE           ?PR?IMU660RA_SELF_CHECK?SEEKFREE_IMU660RA
   *DEL*:           000025H   BYTE   INSEG    CODE           ?PR?IMU660RA_SIMSPI_W_REG_BYTES?SEEKFREE_IMU660RA
   *DEL*:           00000FH   BYTE   INSEG    CODE           ?PR?IMU660RA_SIMSPI_W_REG_BYTE?SEEKFREE_IMU660RA
   *DEL*:           00009AH   BYTE   INSEG    CODE           ?PR?IMU660RA_INIT?SEEKFREE_IMU660RA
   *DEL*:           000040H   BYTE   INSEG    CODE           ?PR?IMU660RA_GET_ACC?SEEKFREE_IMU660RA
   *DEL*:           000010H   BYTE   INSEG    CODE           ?PR?IMU660RA_ACC_TRANSITION?SEEKFREE_IMU660RA
   *DEL*:           000010H   BYTE   INSEG    CODE           ?PR?IMU660RA_READ_REGISTERS?SEEKFREE_IMU660RA
   *DEL*:           000004H   BYTE   UNIT     EDATA          ?ED?IMU660RA_SIMSPI_W_REG_BYTES?SEEKFREE_IMU660RA
   *DEL*:           000007H   BYTE   UNIT     EDATA          ?ED?IMU660RA_GET_ACC?SEEKFREE_IMU660RA
   *DEL*:           000007H   BYTE   UNIT     EDATA          ?ED?IMU660RA_GET_GYRO?SEEKFREE_IMU660RA
   *DEL*:           000003H   BYTE   INSEG    CODE           ?PR?IMU963RA_ACC_TRANSITION?SEEKFREE_IMU963RA
   *DEL*:           000040H   BYTE   INSEG    CODE           ?PR?IMU963RA_GET_GYRO?SEEKFREE_IMU963RA
   *DEL*:           000012H   BYTE   INSEG    CODE           ?PR?IMU963RA_MAG_TRANSITION?SEEKFREE_IMU963RA
   *DEL*:           000003H   BYTE   INSEG    CODE           ?PR?IMU963RA_GYRO_TRANSITION?SEEKFREE_IMU963RA
   *DEL*:           00002CH   BYTE   INSEG    CODE           ?PR?IMU963RA_CONNECT_MAG?SEEKFREE_IMU963RA
   *DEL*:           000010H   BYTE   INSEG    CODE           ?PR?IMU963RA_READ_ACC_GYRO_REGISTERS?SEEKFREE_IMU963RA
   *DEL*:           000061H   BYTE   INSEG    CODE           ?PR?IMU963RA_WRITE_MAG_REGISTER?SEEKFREE_IMU963RA
   *DEL*:           000030H   BYTE   INSEG    CODE           ?PR?IMU963RA_SIMSPI_R_REG_BYTES?SEEKFREE_IMU963RA
   *DEL*:           000030H   BYTE   INSEG    CODE           ?PR?IMU963RA_MAG_SELF_CHECK?SEEKFREE_IMU963RA
   *DEL*:           00010AH   BYTE   INSEG    CODE           ?PR?IMU963RA_INIT?SEEKFREE_IMU963RA
   *DEL*:           00002DH   BYTE   INSEG    CODE           ?PR?IMU963RA_ACC_GYRO_SELF_CHECK?SEEKFREE_IMU963RA
   *DEL*:           000040H   BYTE   INSEG    CODE           ?PR?IMU963RA_GET_ACC?SEEKFREE_IMU963RA
   *DEL*:           000056H   BYTE   INSEG    CODE           ?PR?IMU963RA_GET_MAG?SEEKFREE_IMU963RA
   *DEL*:           000004H   BYTE   UNIT     EDATA          ?ED?IMU963RA_SIMSPI_R_REG_BYTES?SEEKFREE_IMU963RA
   *DEL*:           000002H   BYTE   UNIT     EDATA          ?ED?IMU963RA_WRITE_MAG_REGISTER?SEEKFREE_IMU963RA
   *DEL*:           000006H   BYTE   UNIT     EDATA          ?ED?IMU963RA_GET_ACC?SEEKFREE_IMU963RA
   *DEL*:           000006H   BYTE   UNIT     EDATA          ?ED?IMU963RA_GET_GYRO?SEEKFREE_IMU963RA
   *DEL*:           000006H   BYTE   UNIT     EDATA          ?ED?IMU963RA_GET_MAG?SEEKFREE_IMU963RA
   *DEL*:           00007BH   BYTE   INSEG    CODE           ?PR?IPS114_SHOWUINT8_SIMSPI?SEEKFREE_IPS114_SPI
   *DEL*:           000077H   BYTE   INSEG    CODE           ?PR?IPS114_SHOWUINT8?SEEKFREE_IPS114_SPI
   *DEL*:           0000B9H   BYTE   INSEG    CODE           ?PR?IPS114_SHOWINT8_SIMSPI?SEEKFREE_IPS114_SPI
   *DEL*:           0000B5H   BYTE   INSEG    CODE           ?PR?IPS114_SHOWINT8?SEEKFREE_IPS114_SPI
   *DEL*:           0000F8H   BYTE   INSEG    CODE           ?PR?IPS114_SHOWFLOAT_SIMSPI?SEEKFREE_IPS114_SPI
   *DEL*:           000013H   BYTE   INSEG    CODE           ?PR?IPS114_DRAWPOINT_SIMSPI?SEEKFREE_IPS114_SPI
   *DEL*:           0000F8H   BYTE   INSEG    CODE           ?PR?IPS114_SHOWFLOAT?SEEKFREE_IPS114_SPI
   *DEL*:           000013H   BYTE   INSEG    CODE           ?PR?IPS114_DRAWPOINT?SEEKFREE_IPS114_SPI
   *DEL*:           00008EH   BYTE   INSEG    CODE           ?PR?IPS114_SHOWCHAR_SIMSPI?SEEKFREE_IPS114_SPI
L251 LINKER/LOCATER V4.66.93.0                                                        05/04/2023  22:29:11  PAGE 9


   *DEL*:           00008EH   BYTE   INSEG    CODE           ?PR?IPS114_SHOWCHAR?SEEKFREE_IPS114_SPI
   *DEL*:           00008BH   BYTE   INSEG    CODE           ?PR?IPS114_SHOWUINT16_SIMSPI?SEEKFREE_IPS114_SPI
   *DEL*:           00008BH   BYTE   INSEG    CODE           ?PR?IPS114_SHOWUINT16?SEEKFREE_IPS114_SPI
   *DEL*:           000082H   BYTE   INSEG    CODE           ?PR?IPS114_SHOWINT32_SIMSPI?SEEKFREE_IPS114_SPI
   *DEL*:           0000DDH   BYTE   INSEG    CODE           ?PR?IPS114_SHOWINT16_SIMSPI?SEEKFREE_IPS114_SPI
   *DEL*:           000082H   BYTE   INSEG    CODE           ?PR?IPS114_SHOWINT32?SEEKFREE_IPS114_SPI
   *DEL*:           0000D9H   BYTE   INSEG    CODE           ?PR?IPS114_SHOWINT16?SEEKFREE_IPS114_SPI
   *DEL*:           00003CH   BYTE   INSEG    CODE           ?PR?IPS114_CLEAR_SIMSPI?SEEKFREE_IPS114_SPI
   *DEL*:           00003CH   BYTE   INSEG    CODE           ?PR?IPS114_CLEAR?SEEKFREE_IPS114_SPI
   *DEL*:           00004EH   BYTE   INSEG    CODE           ?PR?IPS114_SHOWSTR_SIMSPI?SEEKFREE_IPS114_SPI
   *DEL*:           00004EH   BYTE   INSEG    CODE           ?PR?IPS114_SHOWSTR?SEEKFREE_IPS114_SPI
   *DEL*:           000029H   BYTE   INSEG    CODE           ?PR?IPS114_WRITEDATA_SIMSPI?SEEKFREE_IPS114_SPI
   *DEL*:           00000AH   BYTE   INSEG    CODE           ?PR?IPS114_WRITEDATA?SEEKFREE_IPS114_SPI
   *DEL*:           000044H   BYTE   INSEG    CODE           ?PR?IPS114_SET_REGION_SIMSPI?SEEKFREE_IPS114_SPI
   *DEL*:           00014FH   BYTE   INSEG    CODE           ?PR?IPS114_INIT_SIMSPI?SEEKFREE_IPS114_SPI
   *DEL*:           000048H   BYTE   INSEG    CODE           ?PR?IPS114_SET_REGION?SEEKFREE_IPS114_SPI
   *DEL*:           00016DH   BYTE   INSEG    CODE           ?PR?IPS114_INIT?SEEKFREE_IPS114_SPI
   *DEL*:           000004H   BYTE   UNIT     EDATA          ?ED?IPS114_SET_REGION_SIMSPI?SEEKFREE_IPS114_SPI
   *DEL*:           000002H   BYTE   UNIT     EDATA          ?ED?IPS114_CLEAR_SIMSPI?SEEKFREE_IPS114_SPI
   *DEL*:           000004H   BYTE   UNIT     EDATA          ?ED?IPS114_SHOWCHAR_SIMSPI?SEEKFREE_IPS114_SPI
   *DEL*:           000006H   BYTE   UNIT     EDATA          ?ED?IPS114_SHOWSTR_SIMSPI?SEEKFREE_IPS114_SPI
   *DEL*:           000005H   BYTE   UNIT     EDATA          ?ED?IPS114_SHOWINT8_SIMSPI?SEEKFREE_IPS114_SPI
   *DEL*:           000004H   BYTE   UNIT     EDATA          ?ED?IPS114_SHOWUINT8_SIMSPI?SEEKFREE_IPS114_SPI
   *DEL*:           000008H   BYTE   UNIT     EDATA          ?ED?IPS114_SHOWINT16_SIMSPI?SEEKFREE_IPS114_SPI
   *DEL*:           000006H   BYTE   UNIT     EDATA          ?ED?IPS114_SHOWUINT16_SIMSPI?SEEKFREE_IPS114_SPI
   *DEL*:           000028H   BYTE   UNIT     EDATA          ?ED?IPS114_SHOWINT32_SIMSPI?SEEKFREE_IPS114_SPI
   *DEL*:           00002BH   BYTE   UNIT     EDATA          ?ED?IPS114_SHOWFLOAT_SIMSPI?SEEKFREE_IPS114_SPI
   *DEL*:           000004H   BYTE   UNIT     EDATA          ?ED?IPS114_SET_REGION?SEEKFREE_IPS114_SPI
   *DEL*:           000002H   BYTE   UNIT     EDATA          ?ED?IPS114_CLEAR?SEEKFREE_IPS114_SPI
   *DEL*:           000004H   BYTE   UNIT     EDATA          ?ED?IPS114_SHOWCHAR?SEEKFREE_IPS114_SPI
   *DEL*:           000006H   BYTE   UNIT     EDATA          ?ED?IPS114_SHOWSTR?SEEKFREE_IPS114_SPI
   *DEL*:           000005H   BYTE   UNIT     EDATA          ?ED?IPS114_SHOWINT8?SEEKFREE_IPS114_SPI
   *DEL*:           000004H   BYTE   UNIT     EDATA          ?ED?IPS114_SHOWUINT8?SEEKFREE_IPS114_SPI
   *DEL*:           000008H   BYTE   UNIT     EDATA          ?ED?IPS114_SHOWINT16?SEEKFREE_IPS114_SPI
   *DEL*:           000006H   BYTE   UNIT     EDATA          ?ED?IPS114_SHOWUINT16?SEEKFREE_IPS114_SPI
   *DEL*:           000028H   BYTE   UNIT     EDATA          ?ED?IPS114_SHOWINT32?SEEKFREE_IPS114_SPI
   *DEL*:           00002BH   BYTE   UNIT     EDATA          ?ED?IPS114_SHOWFLOAT?SEEKFREE_IPS114_SPI
   *DEL*:           000055H   BYTE   INSEG    CODE           ?PR?MPU6050_SIMIIC_READ_REGS?SEEKFREE_MPU6050
   *DEL*:           000029H   BYTE   INSEG    CODE           ?PR?MPU6050_SIMIIC_READ_REG?SEEKFREE_MPU6050
   *DEL*:           000022H   BYTE   INSEG    CODE           ?PR?MPU6050_SIMIIC_WRITE_REG?SEEKFREE_MPU6050
   *DEL*:           00005CH   BYTE   INSEG    CODE           ?PR?MPU6050_INIT?SEEKFREE_MPU6050
   *DEL*:           000032H   BYTE   INSEG    CODE           ?PR?MPU6050_SELF1_CHECK?SEEKFREE_MPU6050
   *DEL*:           00003BH   BYTE   INSEG    CODE           ?PR?MPU6050_READ_CH?SEEKFREE_MPU6050
   *DEL*:           00002EH   BYTE   INSEG    CODE           ?PR?MPU6050_SEND_CH?SEEKFREE_MPU6050
   *DEL*:           000040H   BYTE   INSEG    CODE           ?PR?MPU6050_GET_GYRO?SEEKFREE_MPU6050
   *DEL*:           00001CH   BYTE   INSEG    CODE           ?PR?MPU6050_SCCB_WAITACK?SEEKFREE_MPU6050
   *DEL*:           000040H   BYTE   INSEG    CODE           ?PR?MPU6050_GET_ACCDATA?SEEKFREE_MPU6050
   *DEL*:           000003H   BYTE   UNIT     EDATA          ?ED?MPU6050_SIMIIC_READ_REGS?SEEKFREE_MPU6050
   *DEL*:           000006H   BYTE   UNIT     EDATA          ?ED?MPU6050_GET_ACCDATA?SEEKFREE_MPU6050
   *DEL*:           000006H   BYTE   UNIT     EDATA          ?ED?MPU6050_GET_GYRO?SEEKFREE_MPU6050
   *DEL*:           000092H   BYTE   INSEG    CODE           ?PR?NUMBER_CONVERSION_ASCII?SEEKFREE_PRINTF
   *DEL*:           0004FAH   BYTE   INSEG    CODE           ?PR?ZF_SPRINTF?SEEKFREE_PRINTF
   *DEL*:           00003EH   BYTE   INSEG    CODE           ?PR?PRINTF_REVERSE_ORDER?SEEKFREE_PRINTF
   *DEL*:           000001H   BYTE   UNIT     EDATA          ?ED?NUMBER_CONVERSION_ASCII?SEEKFREE_PRINTF
   *DEL*:           00005FH   BYTE   UNIT     EDATA          ?ED?ZF_SPRINTF?SEEKFREE_PRINTF
   *DEL*:           000070H   BYTE   INSEG    CODE           ?PR?CCD_SEND_DATA?SEEKFREE_TSL1401
   *DEL*:           000016H   BYTE   INSEG    CODE           ?PR?CCD_INIT?SEEKFREE_TSL1401
   *DEL*:           000035H   BYTE   INSEG    CODE           ?PR?CCD_COLLECT?SEEKFREE_TSL1401
   *DEL*:           000003H   BYTE   UNIT     EDATA          ?ED?CCD_SEND_DATA?SEEKFREE_TSL1401
   *DEL*:           00003AH   BYTE   INSEG    CODE           ?PR?CRC_CHECK?SEEKFREE_VIRSCO
   *DEL*:           000069H   BYTE   INSEG    CODE           ?PR?DATA_CONVERSION?SEEKFREE_VIRSCO
   *DEL*:           000004H   BYTE   UNIT     EDATA          ?ED?DATA_CONVERSION?SEEKFREE_VIRSCO
   *DEL*:           000022H   BYTE   INSEG    CODE           ?PR?WIRELESS_UART_READ_BUFF?SEEKFREE_WIRELESS
   *DEL*:           00005DH   BYTE   INSEG    CODE           ?PR?WIRELESS_UART_SEND_BUFF?SEEKFREE_WIRELESS
   *DEL*:           00003CH   BYTE   INSEG    CODE           ?PR?WIRELESS_UART_INIT?SEEKFREE_WIRELESS
L251 LINKER/LOCATER V4.66.93.0                                                        05/04/2023  22:29:11  PAGE 10


   *DEL*:           000002H   BYTE   UNIT     EDATA          ?ED?WIRELESS_UART_SEND_BUFF?SEEKFREE_WIRELESS
   *DEL*:           000004H   BYTE   UNIT     EDATA          ?ED?WIRELESS_UART_READ_BUFF?SEEKFREE_WIRELESS
   *DEL*:           000022H   BYTE   INSEG    CODE           ?PR?WIRELESS_CH573_READ_BUFF?SEEKFREE_WIRELESS_CH573
   *DEL*:           00005DH   BYTE   INSEG    CODE           ?PR?WIRELESS_CH573_SEND_BUFF?SEEKFREE_WIRELESS_CH573
   *DEL*:           00003CH   BYTE   INSEG    CODE           ?PR?WIRELESS_CH573_INIT?SEEKFREE_WIRELESS_CH573
   *DEL*:           000002H   BYTE   UNIT     EDATA          ?ED?WIRELESS_CH573_SEND_BUFF?SEEKFREE_WIRELESS_CH573
   *DEL*:           000004H   BYTE   UNIT     EDATA          ?ED?WIRELESS_CH573_READ_BUFF?SEEKFREE_WIRELESS_CH573
   *DEL*:           0000B1H   BYTE   INSEG    CODE           ?PR?AKEMAN_CONTROL?CONTROL
   *DEL*:           00003DH   BYTE   INSEG    CODE           ?PR?MOTOR_PID_CONTROL?CONTROL
   *DEL*:           000007H   BYTE   INSEG    CODE           ?PR?PID_ON?CONTROL
   *DEL*:           000077H   BYTE   INSEG    CODE           ?PR?DEV_ERR_WINDOW_FILTER_2?CONTROL
   *DEL*:           0002A6H   BYTE   INSEG    CODE           ?PR?ADC_ERR_TRENDENCY?CONTROL
   *DEL*:           000132H   BYTE   INSEG    CODE           ?PR?DIRECT_JUDGE_ACCELE?CONTROL
   *DEL*:           000006H   BYTE   INSEG    CODE           ?PR?PID_OFF?CONTROL
   *DEL*:           000004H   BYTE   UNIT     EDATA          ?ED?AKEMAN_CONTROL?CONTROL
   *DEL*:           000008H   BYTE   UNIT     EDATA          ?ED?MOTOR_PID_CONTROL?CONTROL
   *DEL*:           000022H   BYTE   UNIT     EDATA          ?ED?ADC_ERR_TRENDENCY?CONTROL
   *DEL*:           00007DH   BYTE   INSEG    CODE           ?PR?KEY_SCAN?KEY
   *DEL*:           00000CH   BYTE   INSEG    CODE           ?PR?ENCODER_CLEAR?MOTOR
   *DEL*:           000024H   BYTE   INSEG    CODE           ?PR?MOTOR_SHUT?MOTOR
   *DEL*:           000049H   BYTE   INSEG    CODE           ?PR?ENCODER_READ?MOTOR
   *DEL*:           000011H   BYTE   INSEG    CODE           ?PR?OLED_DISPLAY_ON?OLED
   *DEL*:           000064H   BYTE   INSEG    CODE           ?PR?OLED_SHOWSTRING?OLED
   *DEL*:           0000AFH   BYTE   INSEG    CODE           ?PR?OLED_SHOWCHAR?OLED
   *DEL*:           00007CH   BYTE   INSEG    CODE           ?PR?OLED_SHOWCHINESE?OLED
   *DEL*:           0000AAH   BYTE   INSEG    CODE           ?PR?OLED_SHOWNUM?OLED
   *DEL*:           000011H   BYTE   INSEG    CODE           ?PR?OLED_DISPLAY_OFF?OLED
   *DEL*:           000017H   BYTE   INSEG    CODE           ?PR?OLED_POW?OLED
   *DEL*:           00009DH   BYTE   INSEG    CODE           ?PR?OLED_DRAWBMP?OLED
   *DEL*:           000005H   BYTE   UNIT     EDATA          ?ED?OLED_SHOWNUM?OLED
   *DEL*:           000003H   BYTE   UNIT     EDATA          ?ED?OLED_SHOWSTRING?OLED
   *DEL*:           000001H   BYTE   UNIT     EDATA          ?ED?OLED_SHOWCHINESE?OLED
   *DEL*:           000007H   BYTE   UNIT     EDATA          ?ED?OLED_DRAWBMP?OLED
   *DEL*:           000044H   BYTE   INSEG    CODE           ?PR?SET_BRUSHLESS_OUTPUT?BRUSHLESS
   *DEL*:           000110H   BYTE   INSEG    CODE           ?PR?POSITION_PID_CALC?PID
   *DEL*:           000237H   BYTE   INSEG    CODE           ?PR?PID_CALC?PID
   *DEL*:           000034H   BYTE   INSEG    CODE           ?PR?ABS_LIMIT?PID
   *DEL*:           00000DH   BYTE   INSEG    CODE           ?PR?PID_CLEAR_INTEGRAL?PID
   *DEL*:           000004H   BYTE   UNIT     EDATA          ?ED?PID_CALC?PID
   *DEL*:           000004H   BYTE   UNIT     EDATA          ?ED?POSITION_PID_CALC?PID
   *DEL*:           00001AH   BYTE   INSEG    CODE           ?PR?MEMSET?_?MEMSET



OVERLAY MAP OF MODULE:   .\Out_File\SEEKFREE (board)


FUNCTION/MODULE                               EDATA_GROUP
--> CALLED FUNCTION/MODULE                    START  STOP
=========================================================
UART1_Isr/isr                                 ----- -----

*** NEW ROOT ********************************

UART2_Isr/isr                                 ----- -----

*** NEW ROOT ********************************

UART3_Isr/isr                                 ----- -----

*** NEW ROOT ********************************

UART4_Isr/isr                                 ----- -----
  +--> wireless_uart_callback/SEEKFREE_WIRELESS
  +--> bluetooth_ch9141_uart_callback/SEEKFREE_BLUETOOTH_CH9141
L251 LINKER/LOCATER V4.66.93.0                                                        05/04/2023  22:29:11  PAGE 11


  +--> wireless_ch573_callback/SEEKFREE_WIRELESS_CH573

wireless_uart_callback/SEEKFREE_WIRELESS      ----- -----
  +--> fifo_write_buffer/zf_fifo

fifo_write_buffer/zf_fifo                     07D9H 07E4H
  +--> memcpy?_/memcpy
  +--> fifo_head_offset/zf_fifo

memcpy?_/memcpy                               ----- -----

fifo_head_offset/zf_fifo                      ----- -----

bluetooth_ch9141_uart_callback/SEEKFREE_+     ----- -----
... BLUETOOTH_CH9141
  +--> fifo_write_buffer/zf_fifo

wireless_ch573_callback/SEEKFREE_WIRELES+     ----- -----
... S_CH573
  +--> fifo_write_buffer/zf_fifo

*** NEW ROOT ********************************

INT0_Isr/isr                                  ----- -----

*** NEW ROOT ********************************

INT1_Isr/isr                                  ----- -----

*** NEW ROOT ********************************

INT2_Isr/isr                                  ----- -----

*** NEW ROOT ********************************

INT3_Isr/isr                                  ----- -----

*** NEW ROOT ********************************

INT4_Isr/isr                                  ----- -----

*** NEW ROOT ********************************

TM0_Isr/isr                                   ----- -----

*** NEW ROOT ********************************

TM1_Isr/isr                                   ----- -----

*** NEW ROOT ********************************

TM2_Isr/isr                                   ----- -----

*** NEW ROOT ********************************

TM3_Isr/isr                                   ----- -----

*** NEW ROOT ********************************

TM4_Isr/isr                                   ----- -----
  +--> Motor_Control/motor
  +--> Read_Adc_Value/adc
  +--> ADC_error_processing/control
  +--> ADC_error_window_filtering/control
  +--> ADC_error_weight_filtering/control
L251 LINKER/LOCATER V4.66.93.0                                                        05/04/2023  22:29:11  PAGE 12


  +--> Direct_judge/control
  +--> Correct_Angle/control
  +--> lost_line_judge/control
  +--> lostline_deal/control
  +--> Steer_Spin_limit/steer

Motor_Control/motor                           07E5H 07E8H
  +--> pwm_duty/zf_pwm

pwm_duty/zf_pwm                               ----- -----

Read_Adc_Value/adc                            ----- -----
  +--> adc_mean_filter/adc

adc_mean_filter/adc                           07E5H 07EAH
  +--> adc_once/zf_adc
  +--> ?C?ULIDIV/?C?ULDIV

adc_once/zf_adc                               ----- -----

?C?ULIDIV/?C?ULDIV                            ----- -----

ADC_error_processing/control                  07E5H 07E8H

ADC_error_window_filtering/control            ----- -----

ADC_error_weight_filtering/control            ----- -----

Direct_judge/control                          ----- -----

Correct_Angle/control                         07E5H 07E8H

lost_line_judge/control                       ----- -----

lostline_deal/control                         ----- -----

Steer_Spin_limit/steer                        ----- -----
  +--> Steer_Spin/steer

Steer_Spin/steer                              ----- -----
  +--> pwm_duty/zf_pwm

*** NEW ROOT ********************************

?C_C51STARTUP                                 ----- -----

*** NEW ROOT ********************************

?C_C51STARTUP?3                               ----- -----
  +--> main/main

main/main                                     ----- -----
  +--> board_init/board
  +--> PID_struct_init/pid
  +--> My_Adc_Init/adc
  +--> Motor_Init/motor
  +--> Steer_Init/steer
  +--> Brushless_Init/brushless
  +--> OLED_Init/oled
  +--> Timer4_Init/timer
  +--> PRINTF/PRINTF
  +--> send_five_data/host
  +--> delay_ms/zf_delay

board_init/board                              ----- -----
L251 LINKER/LOCATER V4.66.93.0                                                        05/04/2023  22:29:11  PAGE 13


  +--> set_clk/board
  +--> delay_init/zf_delay
  +--> uart_init/zf_uart
  +--> EnableGlobalIRQ/board

set_clk/board                                 ----- -----

delay_init/zf_delay                           ----- -----
  +--> ?C?SLDIV/?C?SLDIV

?C?SLDIV/?C?SLDIV                             ----- -----
  +--> ?C?ULIDIV/?C?ULDIV

uart_init/zf_uart                             07EBH 07F0H
  +--> ?C?ULIDIV/?C?ULDIV

EnableGlobalIRQ/board                         ----- -----

PID_struct_init/pid                           07EBH 07FEH
  +--> pid_param_init/pid
  +--> pid_reset/pid

pid_param_init/pid                            07FFH 0812H

pid_reset/pid                                 07FFH 0806H

My_Adc_Init/adc                               ----- -----
  +--> adc_init/zf_adc

adc_init/zf_adc                               ----- -----

Motor_Init/motor                              ----- -----
  +--> pwm_init/zf_pwm
  +--> ctimer_count_init/zf_tim

pwm_init/zf_pwm                               07EBH 07F6H
  +--> pwm_set_gpio/zf_pwm
  +--> ?C?ULIDIV/?C?ULDIV

pwm_set_gpio/zf_pwm                           ----- -----
  +--> gpio_mode/zf_gpio

gpio_mode/zf_gpio                             ----- -----

ctimer_count_init/zf_tim                      ----- -----

Steer_Init/steer                              ----- -----
  +--> pwm_init/zf_pwm

Brushless_Init/brushless                      ----- -----
  +--> pwm_init/zf_pwm

OLED_Init/oled                                ----- -----
  +--> delay_ms/zf_delay
  +--> OLED_WR_Byte/oled
  +--> OLED_Clear/oled
  +--> OLED_Set_Pos/oled

delay_ms/zf_delay                             ----- -----

OLED_WR_Byte/oled                             ----- -----

OLED_Clear/oled                               ----- -----
  +--> OLED_WR_Byte/oled

L251 LINKER/LOCATER V4.66.93.0                                                        05/04/2023  22:29:11  PAGE 14


OLED_Set_Pos/oled                             ----- -----
  +--> OLED_WR_Byte/oled

Timer4_Init/timer                             ----- -----
  +--> pit_timer_ms/zf_tim

pit_timer_ms/zf_tim                           ----- -----
  +--> ?C?SLDIV/?C?SLDIV

PRINTF/PRINTF                                 07EBH 0812H
  +--> OUT/PRINTF

OUT/PRINTF                                    ----- -----
  +--> PUTCH/PRINTF

PUTCH/PRINTF                                  ----- -----
  +--> putchar/board
  +--> OUT/PRINTF

putchar/board                                 ----- -----
  +--> uart_putchar/zf_uart

uart_putchar/zf_uart                          ----- -----

send_five_data/host                           07EBH 0800H
  +--> uart_putchar/zf_uart

*** NEW ROOT ********************************

?C_C51STARTUP?2                               ----- -----



PUBLIC SYMBOLS OF MODULE:  .\Out_File\SEEKFREE (board)


      VALUE       CLASS    TYPE      PUBLIC SYMBOL NAME
      =================================================
      000007DDH   EDATA    BYTE      ?ADC_error_processing?BYTE
      00FF311EH   CODE     NEAR LAB  ?C?CASTF
      000000FFH   NUMBER   ---       ?C?CODESEG
      00FF30EBH   CODE     NEAR LAB  ?C?FCASTC
      00FF30E6H   CODE     NEAR LAB  ?C?FCASTI
      00FF30E1H   CODE     NEAR LAB  ?C?FCASTL
      00FF37EBH   CODE     ---       ?C?FP2SERIES
      00FF2EB4H   CODE     ---       ?C?FPADD
      00FF308FH   CODE     ---       ?C?FPCMP
      00FF308DH   CODE     ---       ?C?FPCMP3
      00FF3826H   CODE     ---       ?C?FPCONVERT
      00FF300CH   CODE     ---       ?C?FPDIV
      00FF335EH   CODE     ---       ?C?FPGETOPN2
      00FF2F6CH   CODE     ---       ?C?FPMUL
      00FF339BH   CODE     ---       ?C?FPNANRESULT
      00FF30D3H   CODE     ---       ?C?FPNEG
      00FF33A3H   CODE     ---       ?C?FPOVERFLOW
      00FF3377H   CODE     ---       ?C?FPRESULT
      00FF338DH   CODE     ---       ?C?FPRESULT2
      00FF38DEH   CODE     ---       ?C?FPROUND
      00FF37F4H   CODE     ---       ?C?FPSERIES
      00FF2EB1H   CODE     ---       ?C?FPSUB
      00FF33A0H   CODE     ---       ?C?FPUNDERFLOW
      00FF3951H   CODE     ---       ?C?FTNPWR
      00FF5813H   CODE     ---       ?C?INITEDATA
      00FF6C68H   HCONST   WORD      ?C?INITEDATA_END
      00FF39CBH   CODE     ---       ?C?LIMUL
L251 LINKER/LOCATER V4.66.93.0                                                        05/04/2023  22:29:11  PAGE 15


      00FF39BAH   CODE     ---       ?C?LMUL
      00FF33DCH   CODE     ---       ?C?PRNFMT
      00FF3988H   CODE     ---       ?C?SIDIV
      00FF3A27H   CODE     NEAR LAB  ?C?SLDIV
      00FF0000H   CODE     ---       ?C?STARTUP
      00FF39D6H   CODE     NEAR LAB  ?C?ULDIV
      00FF39D4H   CODE     NEAR LAB  ?C?ULIDIV
      00000001H   NUMBER   ---       ?C?XDATASEG
      00FF0000H   CODE     ---       ?C_STARTUP
      000007DDH   EDATA    BYTE      ?Correct_Angle?BYTE
*DEL*:1FFFFFF8H   EDATA    BYTE      ?data_conversion?BYTE
*DEL*:1FFFFFF8H   EDATA    BYTE      ?fifo_init?BYTE
*DEL*:1FFFFFFCH   EDATA    BYTE      ?fifo_read_buffer?BYTE
      000007D5H   EDATA    BYTE      ?fifo_write_buffer?BYTE
*DEL*:1FFFFFFAH   EDATA    BYTE      ?iic_init?BYTE
*DEL*:1FFFFFFCH   EDATA    BYTE      ?ips114_showfloat?BYTE
*DEL*:1FFFFFFCH   EDATA    BYTE      ?ips114_showfloat_simspi?BYTE
*DEL*:1FFFFFF8H   EDATA    BYTE      ?Motor_PID_Control?BYTE
*DEL*:1FFFFFF7H   EDATA    BYTE      ?number_conversion_ascii?BYTE
*DEL*:1FFFFFF8H   EDATA    BYTE      ?pid_calc?BYTE
      000007E3H   EDATA    BYTE      ?PID_struct_init?BYTE
*DEL*:1FFFFFF8H   EDATA    BYTE      ?position_pid_calc?BYTE
      00000813H   EDATA    ---       ?printf?BYTE
*DEL*:1FFFFFFAH   EDATA    BYTE      ?pwm_freq?BYTE
      000007E9H   EDATA    BYTE      ?pwm_init?BYTE
      000007E2H   EDATA    BYTE      ?send_five_data?BYTE
*DEL*:1FFFFFF7H   EDATA    BYTE      ?spi_init?BYTE
      000007E5H   EDATA    BYTE      ?uart_init?BYTE
*DEL*:00000028H   EDATA    BYTE      ?zf_sprintf?BYTE
*DEL*:00000000H   CODE     ---       abs_limit
      00000825H   EDATA    INT       adc1
      00000827H   EDATA    INT       adc2
      00000829H   EDATA    INT       adc3
      0000082BH   EDATA    INT       adc4
      0000082DH   EDATA    INT       adc5
      0000082FH   EDATA    INT       adc6
      00000831H   EDATA    INT       adc7
      00000833H   EDATA    INT       adc8
*SFR* 000000BCH   DATA     BYTE      ADC_CONTR
      000005EEH   EDATA    FLOAT     adc_err
      000005F2H   EDATA    ---       adc_err_array
*DEL*:00000000H   CODE     ---       ADC_Err_Trendency
      000005C3H   EDATA    FLOAT     ADC_error_a
      00FF5110H   CODE     ---       ADC_error_processing
      00FF5AC1H   CODE     ---       ADC_error_weight_filtering
      00FF536AH   CODE     ---       ADC_error_window_filtering
      0000062EH   EDATA    FLOAT     Adc_Five_Del_1
      00000597H   EDATA    FLOAT     Adc_Five_Del_2
      000005AFH   EDATA    FLOAT     Adc_Five_Del_3
      000005B3H   EDATA    FLOAT     Adc_Five_Del_4
      00000606H   EDATA    FLOAT     Adc_Five_Mean_1_Las
      0000060CH   EDATA    FLOAT     Adc_Five_Mean_2_Las
      00000610H   EDATA    FLOAT     Adc_Five_Mean_3_Las
      00000614H   EDATA    FLOAT     Adc_Five_Mean_4_Las
      00FF52AFH   CODE     ---       adc_init
      00FF560EH   CODE     ---       adc_mean_filter
      00FF5A65H   CODE     ---       adc_once
*SFR* 000000BDH   DATA     BYTE      ADC_RES
*SFR* 000000BEH   DATA     BYTE      ADC_RESL
*SFR* 000000DEH   DATA     BYTE      ADCCFG
*DEL*:00000000H   CODE     ---       Akeman_Control
      0000059BH   EDATA    ---       akeman_left
      00000618H   EDATA    ---       akeman_right
      00000888H   EDATA    FLOAT     angle_limit
*DEL*:00000000H   CODE     ---       at24c02_read_byte
L251 LINKER/LOCATER V4.66.93.0                                                        05/04/2023  22:29:11  PAGE 16


*DEL*:00000000H   CODE     ---       at24c02_read_bytes
*DEL*:00000000H   CODE     ---       at24c02_write_byte
*DEL*:00000000H   CODE     ---       at24c02_write_bytes
*SFR* 000000EFH   DATA     BYTE      AUXINTIF
*SFR* 0000008EH   DATA     BYTE      AUXR
*SFR* 00000097H   DATA     BYTE      AUXR2
*DEL*:00000000H   CODE     ---       bluetooth_ch9141_init
*DEL*:00000000H   CODE     ---       bluetooth_ch9141_read_buff
*DEL*:00000000H   CODE     ---       bluetooth_ch9141_send_buff
      00FF5D2CH   CODE     ---       bluetooth_ch9141_uart_callback
      00FF4E4AH   CODE     ---       board_init
      00FF5B90H   CODE     ---       Brushless_Init
      00000592H   EDATA    ---       busy
*SFR* 000000F1H   DATA     BYTE      CANICR
*DEL*:00000000H   CODE     ---       ccd_collect
      000003CAH   EDATA    ---       ccd_data
*DEL*:00000000H   CODE     ---       ccd_init
*DEL*:00000000H   CODE     ---       ccd_send_data
*SFR* 000000EAH   DATA     BYTE      CKCON
*SFR* 000000E6H   DATA     BYTE      CMPCR1
*SFR* 000000E7H   DATA     BYTE      CMPCR2
      00FF51E9H   CODE     ---       Correct_Angle
      00FF326EH   CODE     ---       COS?_
      0000062CH   EDATA    INT       countADC
*DEL*:00000000H   CODE     ---       CRC_CHECK
*DEL*:00000000H   CODE     ---       ctimer_count_clean
      00FF565BH   CODE     ---       ctimer_count_init
*DEL*:00000000H   CODE     ---       ctimer_count_read
*DEL*:00000000H   CODE     ---       data_conversion
      00FF5931H   CODE     ---       delay_init
      00FF5D8FH   CODE     ---       delay_ms
      00FF5D13H   CODE     ---       delay_us
*DEL*:00000000H   CODE     ---       Dev_Err_Window_Filter_2
      000005CEH   EDATA    ---       Dev_errs
      000005CCH   EDATA    INT       dev_flag
      000005BBH   EDATA    INT       Dir_judge_flag
      00FF4BA2H   CODE     ---       Direct_judge
*DEL*:00000000H   CODE     ---       Direct_judge_Accele
*DEL*:00000000H   CODE     ---       DisableGlobalIRQ
      0000088CH   EDATA    WORD      dl1a_distance_mm
      0000088EH   EDATA    BYTE      dl1a_finsh_flag
*DEL*:00000000H   CODE     ---       dl1a_get_distance
*DEL*:00000000H   CODE     ---       dl1a_init
*SFR* 000000A8H.7 DATA     BIT       EA
*SFR* 000000BAH.7 DATA     BIT       EAXFR
      00FF5DBCH   CODE     ---       eeprom_trig
      00FF000EH   CODE     ---       EnableGlobalIRQ
*DEL*:00000000H   CODE     ---       encoder_angle_simspi
*DEL*:00000000H   CODE     ---       encoder_angle_spi
*DEL*:00000000H   CODE     ---       Encoder_Clear
      00FF0006H   CODE     ---       encoder_delay_us
*DEL*:00000000H   CODE     ---       encoder_init_simspi
*DEL*:00000000H   CODE     ---       encoder_init_spi
*DEL*:00000000H   CODE     ---       Encoder_Read
*DEL*:00000000H   CODE     ---       encoder_self4_check
*DEL*:00000000H   CODE     ---       encoder_self5_check
*DEL*:00000000H   CODE     ---       encoder_simspi_r_reg_byte
*DEL*:00000000H   CODE     ---       encoder_simspi_w_reg_byte
*DEL*:00000000H   CODE     ---       encoder_spi_r_reg_byte
*DEL*:00000000H   CODE     ---       encoder_spi_w_reg_byte
*SFR* 000000A8H.4 DATA     BIT       ES
*SFR* 000000A8H.1 DATA     BIT       ET0
*SFR* 000000A8H.3 DATA     BIT       ET1
*SFR* 000000A8H.0 DATA     BIT       EX0
*SFR* 000000A8H.2 DATA     BIT       EX1
L251 LINKER/LOCATER V4.66.93.0                                                        05/04/2023  22:29:11  PAGE 17


*DEL*:00000000H   CODE     ---       exit_init
*DEL*:00000000H   CODE     ---       extern_iap_write_bytes
*SFR* 000000D0H.5 DATA     BIT       F0
      00FF5EFDH   HCONST   ---       F6x8
      00FF6125H   HCONST   ---       F8X16
      00FF3187H   CODE     NEAR LAB  fabs?_
*DEL*:00000000H   CODE     ---       fifo_clear
*DEL*:00000000H   CODE     ---       fifo_end_offset
      00FF57BEH   CODE     ---       fifo_head_offset
*DEL*:00000000H   CODE     ---       fifo_init
*DEL*:00000000H   CODE     ---       fifo_read_buffer
*DEL*:00000000H   CODE     ---       fifo_used
      00FF491FH   CODE     ---       fifo_write_buffer
      00FF3A5BH   CODE     ---       gpio_mode
*DEL*:00000000H   CODE     ---       gpio_pull_set
      00000008H   EDATA    ---       Hzk
*SFR* 000000F6H   DATA     BYTE      IAP_ADDRE
*SFR* 000000C3H   DATA     BYTE      IAP_ADDRH
*SFR* 000000C4H   DATA     BYTE      IAP_ADDRL
*SFR* 000000C5H   DATA     BYTE      IAP_CMD
*SFR* 000000C7H   DATA     BYTE      IAP_CONTR
*SFR* 000000C2H   DATA     BYTE      IAP_DATA
*DEL*:00000000H   CODE     ---       iap_erase_page
*DEL*:00000000H   CODE     ---       iap_get_cmd_state
*DEL*:00000000H   CODE     ---       iap_idle
*DEL*:00000000H   CODE     ---       iap_init
*DEL*:00000000H   CODE     ---       iap_read_bytes
*DEL*:00000000H   CODE     ---       iap_set_tps
*SFR* 000000F5H   DATA     BYTE      IAP_TPS
*SFR* 000000C6H   DATA     BYTE      IAP_TRIG
*DEL*:00000000H   CODE     ---       iap_write_bytes
*DEL*:00000000H   CODE     ---       icm20602_acc_transition
      00000835H   EDATA    INT       icm20602_acc_x
      00000837H   EDATA    INT       icm20602_acc_y
      00000839H   EDATA    INT       icm20602_acc_z
*DEL*:00000000H   CODE     ---       icm20602_get_acc
*DEL*:00000000H   CODE     ---       icm20602_get_gyro
*DEL*:00000000H   CODE     ---       icm20602_gyro_transition
      0000083BH   EDATA    INT       icm20602_gyro_x
      0000083DH   EDATA    INT       icm20602_gyro_y
      0000083FH   EDATA    INT       icm20602_gyro_z
*DEL*:00000000H   CODE     ---       icm20602_init
*SFR* 000000A8H   DATA     BYTE      IE
*SFR* 000000AFH   DATA     BYTE      IE2
*DEL*:00000000H   CODE     ---       iic_change_pin
      00FF5DD1H   CODE     ---       iic_delay_us
*DEL*:00000000H   CODE     ---       iic_init
*DEL*:00000000H   CODE     ---       iic_read_reg
*DEL*:00000000H   CODE     ---       iic_read_reg_bytes
*DEL*:00000000H   CODE     ---       iic_write_reg
*DEL*:00000000H   CODE     ---       imu660ra_acc_transition
      00000841H   EDATA    INT       imu660ra_acc_x
      00000843H   EDATA    INT       imu660ra_acc_y
      00000845H   EDATA    INT       imu660ra_acc_z
      00FF00A6H   CODE     ---       imu660ra_config_file
*DEL*:00000000H   CODE     ---       imu660ra_get_acc
*DEL*:00000000H   CODE     ---       imu660ra_get_gyro
*DEL*:00000000H   CODE     ---       imu660ra_gyro_transition
      00000847H   EDATA    INT       imu660ra_gyro_x
      00000849H   EDATA    INT       imu660ra_gyro_y
      0000084BH   EDATA    INT       imu660ra_gyro_z
*DEL*:00000000H   CODE     ---       imu660ra_init
*DEL*:00000000H   CODE     ---       imu963ra_acc_transition
      00000813H   EDATA    INT       imu963ra_acc_x
      00000815H   EDATA    INT       imu963ra_acc_y
L251 LINKER/LOCATER V4.66.93.0                                                        05/04/2023  22:29:11  PAGE 18


      00000817H   EDATA    INT       imu963ra_acc_z
*DEL*:00000000H   CODE     ---       imu963ra_get_acc
*DEL*:00000000H   CODE     ---       imu963ra_get_gyro
*DEL*:00000000H   CODE     ---       imu963ra_get_mag
*DEL*:00000000H   CODE     ---       imu963ra_gyro_transition
      0000081FH   EDATA    INT       imu963ra_gyro_x
      00000821H   EDATA    INT       imu963ra_gyro_y
      00000823H   EDATA    INT       imu963ra_gyro_z
*DEL*:00000000H   CODE     ---       imu963ra_init
*DEL*:00000000H   CODE     ---       imu963ra_mag_transition
      00000819H   EDATA    INT       imu963ra_mag_x
      0000081BH   EDATA    INT       imu963ra_mag_y
      0000081DH   EDATA    INT       imu963ra_mag_z
      00FF5EF6H   CODE     ---       INT0_Isr
      00FF0011H   CODE     ---       INT1_Isr
      00FF5ECEH   CODE     ---       INT2_Isr
      00FF5ED6H   CODE     ---       INT3_Isr
      00FF5EDEH   CODE     ---       INT4_Isr
*SFR* 0000008FH   DATA     BYTE      INTCLKO
*SFR* 000000B8H   DATA     BYTE      IP
*SFR* 000000B5H   DATA     BYTE      IP2
*SFR* 000000B6H   DATA     BYTE      IP2H
*SFR* 000000DFH   DATA     BYTE      IP3
*SFR* 000000EEH   DATA     BYTE      IP3H
*SFR* 000000B7H   DATA     BYTE      IPH
*DEL*:00000000H   CODE     ---       ips114_clear
*DEL*:00000000H   CODE     ---       ips114_clear_simspi
*DEL*:00000000H   CODE     ---       ips114_drawpoint
*DEL*:00000000H   CODE     ---       ips114_drawpoint_simspi
*DEL*:00000000H   CODE     ---       ips114_init
*DEL*:00000000H   CODE     ---       ips114_init_simspi
*DEL*:00000000H   CODE     ---       ips114_set_region
*DEL*:00000000H   CODE     ---       ips114_set_region_simspi
*DEL*:00000000H   CODE     ---       ips114_showchar
*DEL*:00000000H   CODE     ---       ips114_showchar_simspi
*DEL*:00000000H   CODE     ---       ips114_showfloat
*DEL*:00000000H   CODE     ---       ips114_showfloat_simspi
*DEL*:00000000H   CODE     ---       ips114_showint16
*DEL*:00000000H   CODE     ---       ips114_showint16_simspi
*DEL*:00000000H   CODE     ---       ips114_showint32
*DEL*:00000000H   CODE     ---       ips114_showint32_simspi
*DEL*:00000000H   CODE     ---       ips114_showint8
*DEL*:00000000H   CODE     ---       ips114_showint8_simspi
*DEL*:00000000H   CODE     ---       ips114_showstr
*DEL*:00000000H   CODE     ---       ips114_showstr_simspi
*DEL*:00000000H   CODE     ---       ips114_showuint16
*DEL*:00000000H   CODE     ---       ips114_showuint16_simspi
*DEL*:00000000H   CODE     ---       ips114_showuint8
*DEL*:00000000H   CODE     ---       ips114_showuint8_simspi
*DEL*:00000000H   CODE     ---       ips114_writeData
      00FF5C9DH   CODE     ---       ips114_writedata_16bit
*DEL*:00000000H   CODE     ---       ips114_writeData_simspi
      00FF5AEFH   CODE     ---       ips114_writeDatai_16bit_simspi
      00FF5EB3H   CODE     ---       ips114_writeIndex
      00FF5B1BH   CODE     ---       ips114_writeIndex_simspi
*SFR* 0000009DH   DATA     BYTE      IRCBAND
*SFR* 0000009FH   DATA     BYTE      IRTRIM
*SFR* 00000088H.0 DATA     BIT       IT0
*SFR* 00000088H.2 DATA     BIT       IT1
*DEL*:00000000H   CODE     ---       Key_Scan
*SFR* 000000F9H   DATA     BYTE      LINICR
      00FF5005H   CODE     ---       lost_line_judge
      00FF530DH   CODE     ---       lostline_deal
      000005BDH   EDATA    INT       lostline_dir
      0000060AH   EDATA    INT       lostline_flag
L251 LINKER/LOCATER V4.66.93.0                                                        05/04/2023  22:29:11  PAGE 19


      00FF4827H   CODE     ---       main
      00FF5B6BH   CODE     ---       memcpy?_
*DEL*:00000000H   CODE     ---       memset?_
      00FF4D0BH   CODE     ---       Motor_Control
      00FF5571H   CODE     ---       Motor_Init
*DEL*:00000000H   CODE     ---       Motor_PID_Control
*DEL*:00000000H   CODE     ---       Motor_Shut
      0000084DH   EDATA    INT       mpu6050_acc_x
      0000084FH   EDATA    INT       mpu6050_acc_y
      00000851H   EDATA    INT       mpu6050_acc_z
*DEL*:00000000H   CODE     ---       mpu6050_get_accdata
*DEL*:00000000H   CODE     ---       mpu6050_get_gyro
      00000853H   EDATA    INT       mpu6050_gyro_x
      00000855H   EDATA    INT       mpu6050_gyro_y
      00000857H   EDATA    INT       mpu6050_gyro_z
*DEL*:00000000H   CODE     ---       mpu6050_init
*DEL*:00000000H   CODE     ---       mpu6050_simiic_read_reg
*DEL*:00000000H   CODE     ---       mpu6050_simiic_read_regs
      00FF56A5H   CODE     ---       My_Adc_Init
*DEL*:00000000H   CODE     ---       number_conversion_ascii
*DEL*:00000000H   CODE     ---       NVIC_SetPriority
      00FF2C86H   CODE     ---       oled_6x8
      00FF20A6H   CODE     ---       oled_8x16
      00FF59D3H   CODE     ---       OLED_Clear
*SFR* 00000080H.2 DATA     BIT       OLED_CS
*SFR* 000000C8H.2 DATA     BIT       OLED_DC
*DEL*:00000000H   CODE     ---       OLED_Display_Off
*DEL*:00000000H   CODE     ---       OLED_Display_On
*DEL*:00000000H   CODE     ---       OLED_DrawBMP
      00FF4C5DH   CODE     ---       OLED_Init
*DEL*:00000000H   CODE     ---       oled_pow
*SFR* 000000C8H.1 DATA     BIT       OLED_RST
*SFR* 000000B0H.7 DATA     BIT       OLED_SCL
*SFR* 000000B0H.6 DATA     BIT       OLED_SDIN
      00FF5B44H   CODE     ---       OLED_Set_Pos
*DEL*:00000000H   CODE     ---       OLED_ShowChar
*DEL*:00000000H   CODE     ---       OLED_ShowCHinese
*DEL*:00000000H   CODE     ---       OLED_ShowNum
*DEL*:00000000H   CODE     ---       OLED_ShowString
      00FF53C5H   CODE     ---       OLED_WR_Byte
      000005B7H   EDATA    FLOAT     order_angle
      000005BFH   EDATA    FLOAT     order_speed
*SFR* 00000080H   DATA     BYTE      P0
*SFR* 00000080H.7 DATA     BIT       P07
*SFR* 00000094H   DATA     BYTE      P0M0
*SFR* 00000093H   DATA     BYTE      P0M1
*SFR* 00000090H   DATA     BYTE      P1
*SFR* 00000092H   DATA     BYTE      P1M0
*SFR* 00000091H   DATA     BYTE      P1M1
*SFR* 000000A0H   DATA     BYTE      P2
*SFR* 000000A0H.0 DATA     BIT       P20
*SFR* 000000A0H.1 DATA     BIT       P21
*SFR* 000000A0H.2 DATA     BIT       P22
*SFR* 000000A0H.3 DATA     BIT       P23
*SFR* 000000A0H.4 DATA     BIT       P24
*SFR* 000000A0H.5 DATA     BIT       P25
*SFR* 000000A0H.6 DATA     BIT       P26
*SFR* 000000A0H.7 DATA     BIT       P27
*SFR* 00000096H   DATA     BYTE      P2M0
*SFR* 00000095H   DATA     BYTE      P2M1
*SFR* 000000B0H   DATA     BYTE      P3
*SFR* 000000B0H.2 DATA     BIT       P32
*SFR* 000000B0H.3 DATA     BIT       P33
*SFR* 000000B0H.5 DATA     BIT       P35
*SFR* 000000B2H   DATA     BYTE      P3M0
L251 LINKER/LOCATER V4.66.93.0                                                        05/04/2023  22:29:11  PAGE 20


*SFR* 000000B1H   DATA     BYTE      P3M1
*SFR* 000000C0H   DATA     BYTE      P4
*SFR* 000000C0H.0 DATA     BIT       P40
*SFR* 000000C0H.1 DATA     BIT       P41
*SFR* 000000C0H.2 DATA     BIT       P42
*SFR* 000000C0H.3 DATA     BIT       P43
*SFR* 000000C0H.4 DATA     BIT       P44
*SFR* 000000C0H.5 DATA     BIT       P45
*SFR* 000000B4H   DATA     BYTE      P4M0
*SFR* 000000B3H   DATA     BYTE      P4M1
*SFR* 000000C8H   DATA     BYTE      P5
*SFR* 000000C8H.0 DATA     BIT       P50
*SFR* 000000C8H.3 DATA     BIT       P53
*SFR* 000000CAH   DATA     BYTE      P5M0
*SFR* 000000C9H   DATA     BYTE      P5M1
*SFR* 000000E8H   DATA     BYTE      P6
*SFR* 000000CCH   DATA     BYTE      P6M0
*SFR* 000000CBH   DATA     BYTE      P6M1
*SFR* 000000F8H   DATA     BYTE      P7
*SFR* 000000F8H.0 DATA     BIT       P70
*SFR* 000000F8H.1 DATA     BIT       P71
*SFR* 000000F8H.2 DATA     BIT       P72
*SFR* 000000F8H.3 DATA     BIT       P73
*SFR* 000000E2H   DATA     BYTE      P7M0
*SFR* 000000E1H   DATA     BYTE      P7M1
*SFR* 000000A2H   DATA     BYTE      P_SW1
*SFR* 000000BAH   DATA     BYTE      P_SW2
*SFR* 000000BBH   DATA     BYTE      P_SW3
*SFR* 00000087H   DATA     BYTE      PCON
*DEL*:00000000H   CODE     ---       pid_calc
*DEL*:00000000H   CODE     ---       pid_clear_integral
      000005CBH   EDATA    BYTE      pid_flag
      00000692H   EDATA    ---       pid_left_
*DEL*:00000000H   CODE     ---       PID_off
*DEL*:00000000H   CODE     ---       PID_on
      0000064AH   EDATA    ---       pid_right_
      00FF5250H   CODE     ---       PID_struct_init
      00FF4EDEH   CODE     ---       pit_timer_ms
*DEL*:00000000H   CODE     ---       position_pid_calc
      00FF315BH   CODE     NEAR LAB  printf
*DEL*:00000000H   CODE     ---       printf_reverse_order
*SFR* 000000D0H   DATA     BYTE      PSW
      00000886H   EDATA    INT       pulse_left
      00000884H   EDATA    INT       pulse_right
      00FF5E7FH   CODE     ---       putchar
      00FF6C8AH   HCONST   ---       PWM_ARR_ADDR
      00FF6C92H   HCONST   ---       PWM_CCER_ADDR
      00FF6CA2H   HCONST   ---       PWM_CCMR_ADDR
      00FF6C6AH   HCONST   ---       PWM_CCR_ADDR
      00FF4ADAH   CODE     ---       pwm_duty
*DEL*:00000000H   CODE     ---       pwm_freq
      00FF3E52H   CODE     ---       pwm_init
      00FF414EH   CODE     ---       pwm_set_gpio
      00FF5097H   CODE     ---       Read_Adc_Value
*DEL*:00000000H   CODE     ---       recv_ack
*DEL*:00000000H   CODE     ---       recv_data
      000005C9H   EDATA    INT       Roundabout_flag
*SFR* 000000FFH   DATA     BYTE      RSTCFG
*SFR* 0000009BH   DATA     BYTE      S2BUF
*SFR* 0000009AH   DATA     BYTE      S2CON
*SFR* 000000ADH   DATA     BYTE      S3BUF
*SFR* 000000ACH   DATA     BYTE      S3CON
*SFR* 000000FEH   DATA     BYTE      S4BUF
*SFR* 000000FDH   DATA     BYTE      S4CON
*SFR* 00000099H   DATA     BYTE      SBUF
L251 LINKER/LOCATER V4.66.93.0                                                        05/04/2023  22:29:11  PAGE 21


*SFR* 00000098H   DATA     BYTE      SCON
*DEL*:00000000H   CODE     ---       send_ack
*DEL*:00000000H   CODE     ---       send_data
      00FF4F72H   CODE     ---       send_five_data
*DEL*:00000000H   CODE     ---       send_nak
*DEL*:00000000H   CODE     ---       Set_Brushless_Output
      00FF4705H   CODE     ---       set_clk
*DEL*:00000000H   CODE     ---       set_zero_position_simspi
*DEL*:00000000H   CODE     ---       set_zero_position_spi
      000003C8H   EDATA    BYTE      show_mode
*DEL*:00000000H   CODE     ---       simspi_r_reg_byte
*DEL*:00000000H   CODE     ---       simspi_w_reg_byte
*DEL*:00000000H   CODE     ---       simspi_wr_byte
      00FF328BH   CODE     ---       SIN?_
*SFR* 000000CEH   DATA     BYTE      SPCTL
*SFR* 000000CFH   DATA     BYTE      SPDAT
*DEL*:00000000H   CODE     ---       spi_change_mode
*DEL*:00000000H   CODE     ---       spi_change_pin
*DEL*:00000000H   CODE     ---       spi_init
      00FF5E8DH   CODE     ---       spi_mosi
*DEL*:00000000H   CODE     ---       spi_r_reg_byte
*DEL*:00000000H   CODE     ---       spi_w_reg_byte
*DEL*:00000000H   CODE     ---       spi_wr_byte
*SFR* 000000CDH   DATA     BYTE      SPSTAT
      00FF3196H   CODE     ---       sqrt?_
*DEL*:00000000H   CODE     ---       start
      00FF5DF9H   CODE     ---       Steer_Init
      00FF4DB0H   CODE     ---       Steer_Spin
      00FF5C7DH   CODE     ---       Steer_Spin_limit
*DEL*:00000000H   CODE     ---       stop
      00000874H   EDATA    LONG      sys_clk
*SFR* 000000D6H   DATA     BYTE      T2H
*SFR* 000000D7H   DATA     BYTE      T2L
*SFR* 000000D4H   DATA     BYTE      T3H
*SFR* 000000D5H   DATA     BYTE      T3L
*SFR* 000000D2H   DATA     BYTE      T4H
*SFR* 000000D3H   DATA     BYTE      T4L
*SFR* 000000DDH   DATA     BYTE      T4T3M
      00FF32B8H   CODE     ---       tan?_
*SFR* 00000088H   DATA     BYTE      TCON
      00FF2696H   CODE     ---       tft_ascii
*SFR* 0000008CH   DATA     BYTE      TH0
*SFR* 0000008DH   DATA     BYTE      TH1
      00FF5EBDH   CODE     ---       Timer4_Init
*SFR* 0000008AH   DATA     BYTE      TL0
*SFR* 0000008BH   DATA     BYTE      TL1
      00FF0012H   CODE     ---       TM0_Isr
      00FF0016H   CODE     ---       TM1_Isr
      00FF5EE6H   CODE     ---       TM2_Isr
      00FF5EEEH   CODE     ---       TM3_Isr
      00FF45AEH   CODE     ---       TM4_Isr
*SFR* 00000089H   DATA     BYTE      TMOD
*SFR* 00000088H.4 DATA     BIT       TR0
*SFR* 00000088H.6 DATA     BIT       TR1
      000003C9H   EDATA    BYTE      tsl1401_finish_flag
      00FF587DH   CODE     ---       UART1_Isr
      000004CAH   EDATA    ---       uart1_rx_buff
      0000052EH   EDATA    ---       uart1_tx_buff
      00FF5CBCH   CODE     ---       UART2_Isr
      00FF5CDAH   CODE     ---       UART3_Isr
      00FF5180H   CODE     ---       UART4_Isr
      00FF43EFH   CODE     ---       uart_init
*DEL*:00000000H   CODE     ---       uart_putbuff
      00FF5477H   CODE     ---       uart_putchar
*DEL*:00000000H   CODE     ---       uart_putstr
L251 LINKER/LOCATER V4.66.93.0                                                        05/04/2023  22:29:11  PAGE 22


*SFR* 000000F4H   DATA     BYTE      USBCON
      00000859H   EDATA    ---       virtual_scope_data
*SFR* 000000A6H   DATA     BYTE      VRTRIM
      00FF5735H   CODE     ---       wait
*SFR* 000000C1H   DATA     BYTE      WDT_CONTR
      000005C7H   EDATA    INT       window_flag
      00FF5D5EH   CODE     ---       wireless_ch573_callback
*DEL*:00000000H   CODE     ---       wireless_ch573_init
*DEL*:00000000H   CODE     ---       wireless_ch573_read_buff
*DEL*:00000000H   CODE     ---       wireless_ch573_send_buff
      0000088FH   EDATA    INT       wireless_type
      00FF5D45H   CODE     ---       wireless_uart_callback
*DEL*:00000000H   CODE     ---       wireless_uart_init
*DEL*:00000000H   CODE     ---       wireless_uart_read_buff
*DEL*:00000000H   CODE     ---       wireless_uart_send_buff
*SFR* 000000E9H   DATA     BYTE      WTST
      00000878H   EDATA    WORD      zf_delay_ms
      0000087AH   EDATA    WORD      zf_delay_us
*DEL*:00000000H   CODE     ---       zf_sprintf



SYMBOL TABLE OF MODULE:  .\Out_File\SEEKFREE (board)

      VALUE       REP       CLASS    TYPE      SYMBOL NAME
      ====================================================
      ---         MODULE    ---      ---       board
      00FF000EH   PUBLIC    CODE     ---       EnableGlobalIRQ
      00FF4E4AH   PUBLIC    CODE     ---       board_init
      00FF4705H   PUBLIC    CODE     ---       set_clk
      00FF5E7FH   PUBLIC    CODE     ---       putchar
      00000874H   PUBLIC    EDATA    LONG      sys_clk
      00000094H   SFRSYM    DATA     BYTE      P0M0
      000000D0H   SFRSYM    DATA     BYTE      PSW
      000000BAH.7 SFRSYM    DATA     BIT       EAXFR
      0000009DH   SFRSYM    DATA     BYTE      IRCBAND
      00000097H   SFRSYM    DATA     BYTE      AUXR2
      000000EAH   SFRSYM    DATA     BYTE      CKCON
      000000EFH   SFRSYM    DATA     BYTE      AUXINTIF
      000000FDH   SFRSYM    DATA     BYTE      S4CON
      000000ACH   SFRSYM    DATA     BYTE      S3CON
      0000009AH   SFRSYM    DATA     BYTE      S2CON
      000000A6H   SFRSYM    DATA     BYTE      VRTRIM
      000000B7H   SFRSYM    DATA     BYTE      IPH
      000000CDH   SFRSYM    DATA     BYTE      SPSTAT
      000000DDH   SFRSYM    DATA     BYTE      T4T3M
      0000009FH   SFRSYM    DATA     BYTE      IRTRIM
      000000C1H   SFRSYM    DATA     BYTE      WDT_CONTR
      000000E9H   SFRSYM    DATA     BYTE      WTST
      000000DFH   SFRSYM    DATA     BYTE      IP3
      000000F4H   SFRSYM    DATA     BYTE      USBCON
      000000B5H   SFRSYM    DATA     BYTE      IP2
      000000FFH   SFRSYM    DATA     BYTE      RSTCFG
      000000F9H   SFRSYM    DATA     BYTE      LINICR
      0000008EH   SFRSYM    DATA     BYTE      AUXR
      000000AFH   SFRSYM    DATA     BYTE      IE2
      00000088H   SFRSYM    DATA     BYTE      TCON
      00000089H   SFRSYM    DATA     BYTE      TMOD
      00000098H   SFRSYM    DATA     BYTE      SCON
      000000F1H   SFRSYM    DATA     BYTE      CANICR
      00000087H   SFRSYM    DATA     BYTE      PCON
      000000BCH   SFRSYM    DATA     BYTE      ADC_CONTR
      000000E7H   SFRSYM    DATA     BYTE      CMPCR2
      000000E6H   SFRSYM    DATA     BYTE      CMPCR1
      000000DEH   SFRSYM    DATA     BYTE      ADCCFG
L251 LINKER/LOCATER V4.66.93.0                                                        05/04/2023  22:29:11  PAGE 23


      000000B8H   SFRSYM    DATA     BYTE      IP
      0000008FH   SFRSYM    DATA     BYTE      INTCLKO
      000000EEH   SFRSYM    DATA     BYTE      IP3H
      000000B6H   SFRSYM    DATA     BYTE      IP2H
      000000A8H   SFRSYM    DATA     BYTE      IE
      000000BBH   SFRSYM    DATA     BYTE      P_SW3
      000000BAH   SFRSYM    DATA     BYTE      P_SW2
      000000A2H   SFRSYM    DATA     BYTE      P_SW1
      000000CEH   SFRSYM    DATA     BYTE      SPCTL
      000000F8H   SFRSYM    DATA     BYTE      P7
      000000A8H.7 SFRSYM    DATA     BIT       EA
      000000E1H   SFRSYM    DATA     BYTE      P7M1
      000000E8H   SFRSYM    DATA     BYTE      P6
      000000C8H   SFRSYM    DATA     BYTE      P5
      000000CBH   SFRSYM    DATA     BYTE      P6M1
      000000E2H   SFRSYM    DATA     BYTE      P7M0
      000000C0H   SFRSYM    DATA     BYTE      P4
      000000C9H   SFRSYM    DATA     BYTE      P5M1
      000000CCH   SFRSYM    DATA     BYTE      P6M0
      000000B0H   SFRSYM    DATA     BYTE      P3
      000000B3H   SFRSYM    DATA     BYTE      P4M1
      000000CAH   SFRSYM    DATA     BYTE      P5M0
      000000A0H   SFRSYM    DATA     BYTE      P2
      000000B1H   SFRSYM    DATA     BYTE      P3M1
      000000B4H   SFRSYM    DATA     BYTE      P4M0
      00000090H   SFRSYM    DATA     BYTE      P1
      00000095H   SFRSYM    DATA     BYTE      P2M1
      000000B2H   SFRSYM    DATA     BYTE      P3M0
      00000080H   SFRSYM    DATA     BYTE      P0
      00000091H   SFRSYM    DATA     BYTE      P1M1
      00000096H   SFRSYM    DATA     BYTE      P2M0
      00000092H   SFRSYM    DATA     BYTE      P1M0
      00000093H   SFRSYM    DATA     BYTE      P0M1

      00FF4705H   BLOCK     CODE     ---       LVL=0
      00FF4705H   LINE      CODE     ---       #43
      00FF4705H   LINE      CODE     ---       #46
      00FF4708H   LINE      CODE     ---       #48
      00FF4718H   LINE      CODE     ---       #51
      00FF4725H   LINE      CODE     ---       #52
      00FF4729H   LINE      CODE     ---       #53
      00FF4729H   LINE      CODE     ---       #54
      00FF4729H   LINE      CODE     ---       #55
      00FF4729H   LINE      CODE     ---       #56
      00FF472BH   LINE      CODE     ---       #57
      00FF4737H   LINE      CODE     ---       #60
      00FF4744H   LINE      CODE     ---       #61
      00FF4748H   LINE      CODE     ---       #62
      00FF4748H   LINE      CODE     ---       #63
      00FF4748H   LINE      CODE     ---       #64
      00FF4748H   LINE      CODE     ---       #65
      00FF474AH   LINE      CODE     ---       #66
      00FF4756H   LINE      CODE     ---       #69
      00FF4763H   LINE      CODE     ---       #70
      00FF4767H   LINE      CODE     ---       #71
      00FF4767H   LINE      CODE     ---       #72
      00FF4767H   LINE      CODE     ---       #73
      00FF4767H   LINE      CODE     ---       #74
      00FF4769H   LINE      CODE     ---       #75
      00FF4775H   LINE      CODE     ---       #79
      00FF4782H   LINE      CODE     ---       #80
      00FF4786H   LINE      CODE     ---       #81
      00FF4786H   LINE      CODE     ---       #82
      00FF4786H   LINE      CODE     ---       #83
      00FF4786H   LINE      CODE     ---       #84
L251 LINKER/LOCATER V4.66.93.0                                                        05/04/2023  22:29:11  PAGE 24


      00FF4788H   LINE      CODE     ---       #85
      00FF4794H   LINE      CODE     ---       #88
      00FF47A1H   LINE      CODE     ---       #89
      00FF47AEH   LINE      CODE     ---       #90
      00FF47B7H   LINE      CODE     ---       #91
      00FF47BAH   LINE      CODE     ---       #92
      00FF47BAH   LINE      CODE     ---       #93
      00FF47BCH   LINE      CODE     ---       #94
      00FF47C8H   LINE      CODE     ---       #97
      00FF47D5H   LINE      CODE     ---       #98
      00FF47E2H   LINE      CODE     ---       #99
      00FF47EBH   LINE      CODE     ---       #100
      00FF47EEH   LINE      CODE     ---       #101
      00FF47F2H   LINE      CODE     ---       #102
      00FF47F4H   LINE      CODE     ---       #105
      00FF47F8H   LINE      CODE     ---       #107
      00FF4805H   LINE      CODE     ---       #108
      00FF4812H   LINE      CODE     ---       #109
      00FF481BH   LINE      CODE     ---       #110
      00FF481EH   LINE      CODE     ---       #111
      00FF4822H   LINE      CODE     ---       #112
      00FF4822H   LINE      CODE     ---       #114
      00FF4826H   LINE      CODE     ---       #115
      ---         BLOCKEND  ---      ---       LVL=0

      00FF4E4AH   BLOCK     CODE     ---       LVL=0
      00FF4E4AH   LINE      CODE     ---       #121
      00FF4E4AH   LINE      CODE     ---       #123
      00FF4E4DH   LINE      CODE     ---       #124
      00FF4E50H   LINE      CODE     ---       #125
      00FF4E53H   LINE      CODE     ---       #126
      00FF4E56H   LINE      CODE     ---       #127
      00FF4E59H   LINE      CODE     ---       #137
      00FF4E60H   LINE      CODE     ---       #143
      00FF4E63H   LINE      CODE     ---       #145
      00FF4E66H   LINE      CODE     ---       #146
      00FF4E69H   LINE      CODE     ---       #147
      00FF4E75H   LINE      CODE     ---       #149
      00FF4E78H   LINE      CODE     ---       #150
      00FF4E7BH   LINE      CODE     ---       #151
      00FF4E7EH   LINE      CODE     ---       #152
      00FF4E81H   LINE      CODE     ---       #153
      00FF4E84H   LINE      CODE     ---       #154
      00FF4E87H   LINE      CODE     ---       #155
      00FF4E8AH   LINE      CODE     ---       #156
      00FF4E8DH   LINE      CODE     ---       #157
      00FF4E90H   LINE      CODE     ---       #158
      00FF4E93H   LINE      CODE     ---       #159
      00FF4E96H   LINE      CODE     ---       #160
      00FF4E99H   LINE      CODE     ---       #161
      00FF4E9CH   LINE      CODE     ---       #162
      00FF4E9FH   LINE      CODE     ---       #163
      00FF4EA2H   LINE      CODE     ---       #164
      00FF4EA5H   LINE      CODE     ---       #166
      00FF4EA8H   LINE      CODE     ---       #167
      00FF4EABH   LINE      CODE     ---       #168
      00FF4EAEH   LINE      CODE     ---       #169
      00FF4EB1H   LINE      CODE     ---       #170
      00FF4EB4H   LINE      CODE     ---       #171
      00FF4EB7H   LINE      CODE     ---       #172
      00FF4EBAH   LINE      CODE     ---       #173
      00FF4EBDH   LINE      CODE     ---       #174
      00FF4EC0H   LINE      CODE     ---       #176
      00FF4EDBH   LINE      CODE     ---       #177
      ---         BLOCKEND  ---      ---       LVL=0
L251 LINKER/LOCATER V4.66.93.0                                                        05/04/2023  22:29:11  PAGE 25



      00FF5E7FH   BLOCK     CODE     ---       LVL=0
      R15         REGSYM    ---      CHAR      c
      00FF5E7FH   LINE      CODE     ---       #183
      00FF5E83H   LINE      CODE     ---       #185
      00FF5E88H   LINE      CODE     ---       #187
      00FF5E8AH   LINE      CODE     ---       #188
      ---         BLOCKEND  ---      ---       LVL=0

      00FF000EH   BLOCK     CODE     ---       LVL=0
      00FF000EH   LINE      CODE     ---       #197
      00FF000EH   LINE      CODE     ---       #199
      00FF0010H   LINE      CODE     ---       #200
      ---         BLOCKEND  ---      ---       LVL=0

      ---         MODULE    ---      ---       common
      0000088FH   PUBLIC    EDATA    INT       wireless_type
      000000D0H   SFRSYM    DATA     BYTE      PSW
      0000009DH   SFRSYM    DATA     BYTE      IRCBAND
      00000097H   SFRSYM    DATA     BYTE      AUXR2
      000000EFH   SFRSYM    DATA     BYTE      AUXINTIF
      000000FDH   SFRSYM    DATA     BYTE      S4CON
      000000ACH   SFRSYM    DATA     BYTE      S3CON
      0000009AH   SFRSYM    DATA     BYTE      S2CON
      000000B7H   SFRSYM    DATA     BYTE      IPH
      000000CDH   SFRSYM    DATA     BYTE      SPSTAT
      000000DDH   SFRSYM    DATA     BYTE      T4T3M
      000000C1H   SFRSYM    DATA     BYTE      WDT_CONTR
      000000DFH   SFRSYM    DATA     BYTE      IP3
      000000F4H   SFRSYM    DATA     BYTE      USBCON
      000000B5H   SFRSYM    DATA     BYTE      IP2
      000000FFH   SFRSYM    DATA     BYTE      RSTCFG
      000000F9H   SFRSYM    DATA     BYTE      LINICR
      0000008EH   SFRSYM    DATA     BYTE      AUXR
      000000AFH   SFRSYM    DATA     BYTE      IE2
      00000088H   SFRSYM    DATA     BYTE      TCON
      00000098H   SFRSYM    DATA     BYTE      SCON
      000000F1H   SFRSYM    DATA     BYTE      CANICR
      00000087H   SFRSYM    DATA     BYTE      PCON
      000000BCH   SFRSYM    DATA     BYTE      ADC_CONTR
      000000E7H   SFRSYM    DATA     BYTE      CMPCR2
      000000E6H   SFRSYM    DATA     BYTE      CMPCR1
      000000B8H   SFRSYM    DATA     BYTE      IP
      0000008FH   SFRSYM    DATA     BYTE      INTCLKO
      000000EEH   SFRSYM    DATA     BYTE      IP3H
      000000B6H   SFRSYM    DATA     BYTE      IP2H
      000000A8H   SFRSYM    DATA     BYTE      IE
      000000BBH   SFRSYM    DATA     BYTE      P_SW3
      000000BAH   SFRSYM    DATA     BYTE      P_SW2
      000000A2H   SFRSYM    DATA     BYTE      P_SW1
      000000CEH   SFRSYM    DATA     BYTE      SPCTL
      000000F8H   SFRSYM    DATA     BYTE      P7
      000000E8H   SFRSYM    DATA     BYTE      P6
      000000C8H   SFRSYM    DATA     BYTE      P5
      000000C0H   SFRSYM    DATA     BYTE      P4
      000000B0H   SFRSYM    DATA     BYTE      P3
      000000A0H   SFRSYM    DATA     BYTE      P2
      00000090H   SFRSYM    DATA     BYTE      P1
      00000080H   SFRSYM    DATA     BYTE      P0

      ---         MODULE    ---      ---       zf_adc
      00FF5A65H   PUBLIC    CODE     ---       adc_once
      00FF52AFH   PUBLIC    CODE     ---       adc_init
      00000094H   SFRSYM    DATA     BYTE      P0M0
      000000D0H   SFRSYM    DATA     BYTE      PSW
L251 LINKER/LOCATER V4.66.93.0                                                        05/04/2023  22:29:11  PAGE 26


      0000009DH   SFRSYM    DATA     BYTE      IRCBAND
      00000097H   SFRSYM    DATA     BYTE      AUXR2
      000000EFH   SFRSYM    DATA     BYTE      AUXINTIF
      000000FDH   SFRSYM    DATA     BYTE      S4CON
      000000ACH   SFRSYM    DATA     BYTE      S3CON
      0000009AH   SFRSYM    DATA     BYTE      S2CON
      000000B7H   SFRSYM    DATA     BYTE      IPH
      000000CDH   SFRSYM    DATA     BYTE      SPSTAT
      000000BEH   SFRSYM    DATA     BYTE      ADC_RESL
      000000DDH   SFRSYM    DATA     BYTE      T4T3M
      000000C1H   SFRSYM    DATA     BYTE      WDT_CONTR
      000000DFH   SFRSYM    DATA     BYTE      IP3
      000000F4H   SFRSYM    DATA     BYTE      USBCON
      000000B5H   SFRSYM    DATA     BYTE      IP2
      000000FFH   SFRSYM    DATA     BYTE      RSTCFG
      000000F9H   SFRSYM    DATA     BYTE      LINICR
      0000008EH   SFRSYM    DATA     BYTE      AUXR
      000000AFH   SFRSYM    DATA     BYTE      IE2
      00000088H   SFRSYM    DATA     BYTE      TCON
      00000098H   SFRSYM    DATA     BYTE      SCON
      000000F1H   SFRSYM    DATA     BYTE      CANICR
      00000087H   SFRSYM    DATA     BYTE      PCON
      000000BCH   SFRSYM    DATA     BYTE      ADC_CONTR
      000000E7H   SFRSYM    DATA     BYTE      CMPCR2
      000000E6H   SFRSYM    DATA     BYTE      CMPCR1
      000000DEH   SFRSYM    DATA     BYTE      ADCCFG
      000000B8H   SFRSYM    DATA     BYTE      IP
      0000008FH   SFRSYM    DATA     BYTE      INTCLKO
      000000EEH   SFRSYM    DATA     BYTE      IP3H
      000000B6H   SFRSYM    DATA     BYTE      IP2H
      000000BDH   SFRSYM    DATA     BYTE      ADC_RES
      000000A8H   SFRSYM    DATA     BYTE      IE
      000000BBH   SFRSYM    DATA     BYTE      P_SW3
      000000BAH   SFRSYM    DATA     BYTE      P_SW2
      000000A2H   SFRSYM    DATA     BYTE      P_SW1
      000000CEH   SFRSYM    DATA     BYTE      SPCTL
      000000F8H   SFRSYM    DATA     BYTE      P7
      000000E8H   SFRSYM    DATA     BYTE      P6
      000000C8H   SFRSYM    DATA     BYTE      P5
      000000C0H   SFRSYM    DATA     BYTE      P4
      000000B0H   SFRSYM    DATA     BYTE      P3
      000000A0H   SFRSYM    DATA     BYTE      P2
      00000090H   SFRSYM    DATA     BYTE      P1
      00000080H   SFRSYM    DATA     BYTE      P0
      00000091H   SFRSYM    DATA     BYTE      P1M1
      00000092H   SFRSYM    DATA     BYTE      P1M0
      00000093H   SFRSYM    DATA     BYTE      P0M1

      00FF52AFH   BLOCK     CODE     ---       LVL=0
      WR4         REGSYM    ---      INT       adcn
      WR2         REGSYM    ---      INT       speed
      00FF52AFH   LINE      CODE     ---       #32
      00FF52B3H   LINE      CODE     ---       #34
      00FF52B6H   LINE      CODE     ---       #36
      00FF52B9H   LINE      CODE     ---       #37
      00FF52BFH   LINE      CODE     ---       #39
      00FF52CBH   LINE      CODE     ---       #42
      00FF52E0H   LINE      CODE     ---       #43
      00FF52E4H   LINE      CODE     ---       #44
      00FF52E6H   LINE      CODE     ---       #45
      00FF52EAH   LINE      CODE     ---       #48
      00FF52FFH   LINE      CODE     ---       #49
      00FF5303H   LINE      CODE     ---       #50
      00FF5303H   LINE      CODE     ---       #52
      00FF5309H   LINE      CODE     ---       #54
L251 LINKER/LOCATER V4.66.93.0                                                        05/04/2023  22:29:11  PAGE 27


      00FF530CH   LINE      CODE     ---       #55
      ---         BLOCKEND  ---      ---       LVL=0

      00FF5A65H   BLOCK     CODE     ---       LVL=0
      WR6         REGSYM    ---      INT       adcn
      WR4         REGSYM    ---      INT       resolution
      WR6         REGSYM    ---      WORD      adc_value
      00FF5A65H   LINE      CODE     ---       #66
      00FF5A65H   LINE      CODE     ---       #67
      00FF5A65H   LINE      CODE     ---       #70
      00FF5A68H   LINE      CODE     ---       #71
      00FF5A6CH   LINE      CODE     ---       #73
      00FF5A6FH   LINE      CODE     ---       #74
      00FF5A74H   LINE      CODE     ---       #75
      00FF5A77H   LINE      CODE     ---       #77
      00FF5A79H   LINE      CODE     ---       #78
      00FF5A7DH   LINE      CODE     ---       #79
      00FF5A83H   LINE      CODE     ---       #81
      00FF5A86H   LINE      CODE     ---       #82
      00FF5A89H   LINE      CODE     ---       #84
      00FF5A92H   LINE      CODE     ---       #87
      00FF5A92H   LINE      CODE     ---       #88
      ---         BLOCKEND  ---      ---       LVL=0

      ---         MODULE    ---      ---       zf_delay
      00FF5931H   PUBLIC    CODE     ---       delay_init
      00FF5D8FH   PUBLIC    CODE     ---       delay_ms
      00FF5D13H   PUBLIC    CODE     ---       delay_us
      00000878H   PUBLIC    EDATA    WORD      zf_delay_ms
      0000087AH   PUBLIC    EDATA    WORD      zf_delay_us
      000000D0H   SFRSYM    DATA     BYTE      PSW
      0000009DH   SFRSYM    DATA     BYTE      IRCBAND
      00000097H   SFRSYM    DATA     BYTE      AUXR2
      000000EFH   SFRSYM    DATA     BYTE      AUXINTIF
      000000FDH   SFRSYM    DATA     BYTE      S4CON
      000000ACH   SFRSYM    DATA     BYTE      S3CON
      0000009AH   SFRSYM    DATA     BYTE      S2CON
      000000B7H   SFRSYM    DATA     BYTE      IPH
      000000CDH   SFRSYM    DATA     BYTE      SPSTAT
      000000DDH   SFRSYM    DATA     BYTE      T4T3M
      000000C1H   SFRSYM    DATA     BYTE      WDT_CONTR
      000000DFH   SFRSYM    DATA     BYTE      IP3
      000000F4H   SFRSYM    DATA     BYTE      USBCON
      000000B5H   SFRSYM    DATA     BYTE      IP2
      000000FFH   SFRSYM    DATA     BYTE      RSTCFG
      000000F9H   SFRSYM    DATA     BYTE      LINICR
      0000008EH   SFRSYM    DATA     BYTE      AUXR
      000000AFH   SFRSYM    DATA     BYTE      IE2
      00000088H   SFRSYM    DATA     BYTE      TCON
      00000098H   SFRSYM    DATA     BYTE      SCON
      000000F1H   SFRSYM    DATA     BYTE      CANICR
      00000087H   SFRSYM    DATA     BYTE      PCON
      000000BCH   SFRSYM    DATA     BYTE      ADC_CONTR
      000000E7H   SFRSYM    DATA     BYTE      CMPCR2
      000000E6H   SFRSYM    DATA     BYTE      CMPCR1
      000000B8H   SFRSYM    DATA     BYTE      IP
      0000008FH   SFRSYM    DATA     BYTE      INTCLKO
      000000EEH   SFRSYM    DATA     BYTE      IP3H
      000000B6H   SFRSYM    DATA     BYTE      IP2H
      000000A8H   SFRSYM    DATA     BYTE      IE
      000000BBH   SFRSYM    DATA     BYTE      P_SW3
      000000BAH   SFRSYM    DATA     BYTE      P_SW2
      000000A2H   SFRSYM    DATA     BYTE      P_SW1
      000000CEH   SFRSYM    DATA     BYTE      SPCTL
      000000F8H   SFRSYM    DATA     BYTE      P7
L251 LINKER/LOCATER V4.66.93.0                                                        05/04/2023  22:29:11  PAGE 28


      000000E8H   SFRSYM    DATA     BYTE      P6
      000000C8H   SFRSYM    DATA     BYTE      P5
      000000C0H   SFRSYM    DATA     BYTE      P4
      000000B0H   SFRSYM    DATA     BYTE      P3
      000000A0H   SFRSYM    DATA     BYTE      P2
      00000090H   SFRSYM    DATA     BYTE      P1
      00000080H   SFRSYM    DATA     BYTE      P0

      00FF5931H   BLOCK     CODE     ---       LVL=0
      00FF5931H   LINE      CODE     ---       #34
      00FF5931H   LINE      CODE     ---       #36
      00FF5942H   LINE      CODE     ---       #37
      00FF5953H   LINE      CODE     ---       #38
      00FF5969H   LINE      CODE     ---       #40
      ---         BLOCKEND  ---      ---       LVL=0

      00FF5D8FH   BLOCK     CODE     ---       LVL=0
      WR4         REGSYM    ---      WORD      ms
      00FF5D91H   BLOCK     CODE     NEAR LAB  LVL=1
      WR6         REGSYM    ---      WORD      i
      ---         BLOCKEND  ---      ---       LVL=1
      00FF5D8FH   LINE      CODE     ---       #48
      00FF5D91H   LINE      CODE     ---       #49
      00FF5D91H   LINE      CODE     ---       #51
      00FF5D91H   LINE      CODE     ---       #52
      00FF5D95H   LINE      CODE     ---       #54
      00FF5D9DH   LINE      CODE     ---       #55
      00FF5DA5H   LINE      CODE     ---       #56
      ---         BLOCKEND  ---      ---       LVL=0

      00FF5D13H   BLOCK     CODE     ---       LVL=0
      DR0         REGSYM    ---      DWORD     us
      00FF5D15H   BLOCK     CODE     NEAR LAB  LVL=1
      WR6         REGSYM    ---      WORD      i
      ---         BLOCKEND  ---      ---       LVL=1
      00FF5D13H   LINE      CODE     ---       #64
      00FF5D15H   LINE      CODE     ---       #65
      00FF5D15H   LINE      CODE     ---       #67
      00FF5D15H   LINE      CODE     ---       #68
      00FF5D19H   LINE      CODE     ---       #70
      00FF5D21H   LINE      CODE     ---       #71
      00FF5D2BH   LINE      CODE     ---       #72
      ---         BLOCKEND  ---      ---       LVL=0

      ---         MODULE    ---      ---       zf_eeprom
      00FF5DBCH   PUBLIC    CODE     ---       eeprom_trig
      000000D0H   SFRSYM    DATA     BYTE      PSW
      0000009DH   SFRSYM    DATA     BYTE      IRCBAND
      000000D0H.5 SFRSYM    DATA     BIT       F0
      00000097H   SFRSYM    DATA     BYTE      AUXR2
      000000C6H   SFRSYM    DATA     BYTE      IAP_TRIG
      000000EFH   SFRSYM    DATA     BYTE      AUXINTIF
      000000FDH   SFRSYM    DATA     BYTE      S4CON
      000000ACH   SFRSYM    DATA     BYTE      S3CON
      0000009AH   SFRSYM    DATA     BYTE      S2CON
      000000B7H   SFRSYM    DATA     BYTE      IPH
      000000CDH   SFRSYM    DATA     BYTE      SPSTAT
      000000DDH   SFRSYM    DATA     BYTE      T4T3M
      000000C1H   SFRSYM    DATA     BYTE      WDT_CONTR
      000000C2H   SFRSYM    DATA     BYTE      IAP_DATA
      000000DFH   SFRSYM    DATA     BYTE      IP3
      000000F4H   SFRSYM    DATA     BYTE      USBCON
      000000B5H   SFRSYM    DATA     BYTE      IP2
      000000FFH   SFRSYM    DATA     BYTE      RSTCFG
      000000C7H   SFRSYM    DATA     BYTE      IAP_CONTR
L251 LINKER/LOCATER V4.66.93.0                                                        05/04/2023  22:29:11  PAGE 29


      000000F9H   SFRSYM    DATA     BYTE      LINICR
      0000008EH   SFRSYM    DATA     BYTE      AUXR
      000000AFH   SFRSYM    DATA     BYTE      IE2
      00000088H   SFRSYM    DATA     BYTE      TCON
      00000098H   SFRSYM    DATA     BYTE      SCON
      000000F5H   SFRSYM    DATA     BYTE      IAP_TPS
      000000F1H   SFRSYM    DATA     BYTE      CANICR
      00000087H   SFRSYM    DATA     BYTE      PCON
      000000BCH   SFRSYM    DATA     BYTE      ADC_CONTR
      000000E7H   SFRSYM    DATA     BYTE      CMPCR2
      000000E6H   SFRSYM    DATA     BYTE      CMPCR1
      000000C4H   SFRSYM    DATA     BYTE      IAP_ADDRL
      000000C3H   SFRSYM    DATA     BYTE      IAP_ADDRH
      000000F6H   SFRSYM    DATA     BYTE      IAP_ADDRE
      000000B8H   SFRSYM    DATA     BYTE      IP
      0000008FH   SFRSYM    DATA     BYTE      INTCLKO
      000000EEH   SFRSYM    DATA     BYTE      IP3H
      000000B6H   SFRSYM    DATA     BYTE      IP2H
      000000C5H   SFRSYM    DATA     BYTE      IAP_CMD
      000000A8H   SFRSYM    DATA     BYTE      IE
      000000BBH   SFRSYM    DATA     BYTE      P_SW3
      000000BAH   SFRSYM    DATA     BYTE      P_SW2
      000000A2H   SFRSYM    DATA     BYTE      P_SW1
      000000CEH   SFRSYM    DATA     BYTE      SPCTL
      000000F8H   SFRSYM    DATA     BYTE      P7
      000000A8H.7 SFRSYM    DATA     BIT       EA
      000000E8H   SFRSYM    DATA     BYTE      P6
      000000C8H   SFRSYM    DATA     BYTE      P5
      000000C0H   SFRSYM    DATA     BYTE      P4
      000000B0H   SFRSYM    DATA     BYTE      P3
      000000A0H   SFRSYM    DATA     BYTE      P2
      00000090H   SFRSYM    DATA     BYTE      P1
      00000080H   SFRSYM    DATA     BYTE      P0

      00FF5DBCH   BLOCK     CODE     ---       LVL=0
      00FF5DBCH   LINE      CODE     ---       #30
      00FF5DBCH   LINE      CODE     ---       #32
      00FF5DC0H   LINE      CODE     ---       #33
      00FF5DC2H   LINE      CODE     ---       #34
      00FF5DC5H   LINE      CODE     ---       #35
      00FF5DC8H   LINE      CODE     ---       #38
      00FF5DC9H   LINE      CODE     ---       #39
      00FF5DCAH   LINE      CODE     ---       #40
      00FF5DCBH   LINE      CODE     ---       #41
      00FF5DCCH   LINE      CODE     ---       #42
      00FF5DD0H   LINE      CODE     ---       #43
      ---         BLOCKEND  ---      ---       LVL=0
      R11         REGSYM    ---      BYTE      write_time
      REG=3       REGSYM    ---      ---       buf
      REG=3       REGSYM    ---      ---       buf
      WR6         REGSYM    ---      WORD      addr
      REG=3       REGSYM    ---      ---       buf
      WR6         REGSYM    ---      WORD      i

      ---         MODULE    ---      ---       zf_exti
      000000D0H   SFRSYM    DATA     BYTE      PSW
      0000009DH   SFRSYM    DATA     BYTE      IRCBAND
      00000097H   SFRSYM    DATA     BYTE      AUXR2
      000000EFH   SFRSYM    DATA     BYTE      AUXINTIF
      000000FDH   SFRSYM    DATA     BYTE      S4CON
      000000ACH   SFRSYM    DATA     BYTE      S3CON
      0000009AH   SFRSYM    DATA     BYTE      S2CON
      000000B7H   SFRSYM    DATA     BYTE      IPH
      000000CDH   SFRSYM    DATA     BYTE      SPSTAT
      000000DDH   SFRSYM    DATA     BYTE      T4T3M
L251 LINKER/LOCATER V4.66.93.0                                                        05/04/2023  22:29:11  PAGE 30


      000000C1H   SFRSYM    DATA     BYTE      WDT_CONTR
      00000088H.2 SFRSYM    DATA     BIT       IT1
      000000A8H.2 SFRSYM    DATA     BIT       EX1
      00000088H.0 SFRSYM    DATA     BIT       IT0
      000000A8H.0 SFRSYM    DATA     BIT       EX0
      000000DFH   SFRSYM    DATA     BYTE      IP3
      000000F4H   SFRSYM    DATA     BYTE      USBCON
      000000B5H   SFRSYM    DATA     BYTE      IP2
      000000FFH   SFRSYM    DATA     BYTE      RSTCFG
      000000F9H   SFRSYM    DATA     BYTE      LINICR
      0000008EH   SFRSYM    DATA     BYTE      AUXR
      000000AFH   SFRSYM    DATA     BYTE      IE2
      00000088H   SFRSYM    DATA     BYTE      TCON
      00000098H   SFRSYM    DATA     BYTE      SCON
      000000F1H   SFRSYM    DATA     BYTE      CANICR
      00000087H   SFRSYM    DATA     BYTE      PCON
      000000BCH   SFRSYM    DATA     BYTE      ADC_CONTR
      000000E7H   SFRSYM    DATA     BYTE      CMPCR2
      000000E6H   SFRSYM    DATA     BYTE      CMPCR1
      000000B8H   SFRSYM    DATA     BYTE      IP
      0000008FH   SFRSYM    DATA     BYTE      INTCLKO
      000000EEH   SFRSYM    DATA     BYTE      IP3H
      000000B6H   SFRSYM    DATA     BYTE      IP2H
      000000A8H   SFRSYM    DATA     BYTE      IE
      000000BBH   SFRSYM    DATA     BYTE      P_SW3
      000000BAH   SFRSYM    DATA     BYTE      P_SW2
      000000A2H   SFRSYM    DATA     BYTE      P_SW1
      000000CEH   SFRSYM    DATA     BYTE      SPCTL
      000000F8H   SFRSYM    DATA     BYTE      P7
      000000E8H   SFRSYM    DATA     BYTE      P6
      000000C8H   SFRSYM    DATA     BYTE      P5
      000000C0H   SFRSYM    DATA     BYTE      P4
      000000B0H   SFRSYM    DATA     BYTE      P3
      000000A0H   SFRSYM    DATA     BYTE      P2
      00000090H   SFRSYM    DATA     BYTE      P1
      00000080H   SFRSYM    DATA     BYTE      P0
      WR4         REGSYM    ---      INT       int_n
      WR2         REGSYM    ---      INT       mode

      ---         MODULE    ---      ---       zf_gpio
      00FF3A5BH   PUBLIC    CODE     ---       gpio_mode
      00000094H   SFRSYM    DATA     BYTE      P0M0
      000000D0H   SFRSYM    DATA     BYTE      PSW
      0000009DH   SFRSYM    DATA     BYTE      IRCBAND
      00000097H   SFRSYM    DATA     BYTE      AUXR2
      000000EFH   SFRSYM    DATA     BYTE      AUXINTIF
      000000FDH   SFRSYM    DATA     BYTE      S4CON
      000000ACH   SFRSYM    DATA     BYTE      S3CON
      0000009AH   SFRSYM    DATA     BYTE      S2CON
      000000B7H   SFRSYM    DATA     BYTE      IPH
      000000CDH   SFRSYM    DATA     BYTE      SPSTAT
      000000DDH   SFRSYM    DATA     BYTE      T4T3M
      000000C1H   SFRSYM    DATA     BYTE      WDT_CONTR
      000000DFH   SFRSYM    DATA     BYTE      IP3
      000000F4H   SFRSYM    DATA     BYTE      USBCON
      000000B5H   SFRSYM    DATA     BYTE      IP2
      000000FFH   SFRSYM    DATA     BYTE      RSTCFG
      000000F9H   SFRSYM    DATA     BYTE      LINICR
      0000008EH   SFRSYM    DATA     BYTE      AUXR
      000000AFH   SFRSYM    DATA     BYTE      IE2
      00000088H   SFRSYM    DATA     BYTE      TCON
      00000098H   SFRSYM    DATA     BYTE      SCON
      000000F1H   SFRSYM    DATA     BYTE      CANICR
      00000087H   SFRSYM    DATA     BYTE      PCON
      000000BCH   SFRSYM    DATA     BYTE      ADC_CONTR
L251 LINKER/LOCATER V4.66.93.0                                                        05/04/2023  22:29:11  PAGE 31


      000000E7H   SFRSYM    DATA     BYTE      CMPCR2
      000000E6H   SFRSYM    DATA     BYTE      CMPCR1
      000000B8H   SFRSYM    DATA     BYTE      IP
      0000008FH   SFRSYM    DATA     BYTE      INTCLKO
      000000EEH   SFRSYM    DATA     BYTE      IP3H
      000000B6H   SFRSYM    DATA     BYTE      IP2H
      000000A8H   SFRSYM    DATA     BYTE      IE
      000000BBH   SFRSYM    DATA     BYTE      P_SW3
      000000BAH   SFRSYM    DATA     BYTE      P_SW2
      000000A2H   SFRSYM    DATA     BYTE      P_SW1
      000000CEH   SFRSYM    DATA     BYTE      SPCTL
      000000F8H   SFRSYM    DATA     BYTE      P7
      000000E1H   SFRSYM    DATA     BYTE      P7M1
      000000E8H   SFRSYM    DATA     BYTE      P6
      000000C8H   SFRSYM    DATA     BYTE      P5
      000000CBH   SFRSYM    DATA     BYTE      P6M1
      000000E2H   SFRSYM    DATA     BYTE      P7M0
      000000C0H   SFRSYM    DATA     BYTE      P4
      000000C9H   SFRSYM    DATA     BYTE      P5M1
      000000CCH   SFRSYM    DATA     BYTE      P6M0
      000000B0H   SFRSYM    DATA     BYTE      P3
      000000B3H   SFRSYM    DATA     BYTE      P4M1
      000000CAH   SFRSYM    DATA     BYTE      P5M0
      000000A0H   SFRSYM    DATA     BYTE      P2
      000000B1H   SFRSYM    DATA     BYTE      P3M1
      000000B4H   SFRSYM    DATA     BYTE      P4M0
      00000090H   SFRSYM    DATA     BYTE      P1
      00000095H   SFRSYM    DATA     BYTE      P2M1
      000000B2H   SFRSYM    DATA     BYTE      P3M0
      00000080H   SFRSYM    DATA     BYTE      P0
      00000091H   SFRSYM    DATA     BYTE      P1M1
      00000096H   SFRSYM    DATA     BYTE      P2M0
      00000092H   SFRSYM    DATA     BYTE      P1M0
      00000093H   SFRSYM    DATA     BYTE      P0M1
      WR4         REGSYM    ---      INT       pin
      WR2         REGSYM    ---      INT       pull

      00FF3A5BH   BLOCK     CODE     ---       LVL=0
      WR4         REGSYM    ---      INT       pin
      WR2         REGSYM    ---      INT       mode
      00FF3A5BH   LINE      CODE     ---       #54
      00FF3A5FH   LINE      CODE     ---       #56
      00FF3A66H   LINE      CODE     ---       #58
      00FF3A6EH   LINE      CODE     ---       #60
      00FF3A86H   LINE      CODE     ---       #61
      00FF3A88H   LINE      CODE     ---       #62
      00FF3A88H   LINE      CODE     ---       #63
      00FF3A8EH   LINE      CODE     ---       #65
      00FF3AA6H   LINE      CODE     ---       #66
      00FF3AA8H   LINE      CODE     ---       #67
      00FF3AA8H   LINE      CODE     ---       #68
      00FF3AAEH   LINE      CODE     ---       #70
      00FF3AC6H   LINE      CODE     ---       #71
      00FF3AC8H   LINE      CODE     ---       #72
      00FF3AC8H   LINE      CODE     ---       #74
      00FF3ACEH   LINE      CODE     ---       #76
      00FF3AE6H   LINE      CODE     ---       #77
      00FF3AE8H   LINE      CODE     ---       #78
      00FF3AE8H   LINE      CODE     ---       #79
      00FF3AEEH   LINE      CODE     ---       #81
      00FF3B06H   LINE      CODE     ---       #82
      00FF3B08H   LINE      CODE     ---       #83
      00FF3B08H   LINE      CODE     ---       #84
      00FF3B0EH   LINE      CODE     ---       #86
      00FF3B26H   LINE      CODE     ---       #87
L251 LINKER/LOCATER V4.66.93.0                                                        05/04/2023  22:29:11  PAGE 32


      00FF3B28H   LINE      CODE     ---       #88
      00FF3B28H   LINE      CODE     ---       #89
      00FF3B2EH   LINE      CODE     ---       #91
      00FF3B46H   LINE      CODE     ---       #92
      00FF3B48H   LINE      CODE     ---       #93
      00FF3B48H   LINE      CODE     ---       #94
      00FF3B51H   LINE      CODE     ---       #96
      00FF3B69H   LINE      CODE     ---       #97
      00FF3B6BH   LINE      CODE     ---       #98
      00FF3B6CH   LINE      CODE     ---       #100
      00FF3B75H   LINE      CODE     ---       #102
      00FF3B7DH   LINE      CODE     ---       #104
      00FF3B92H   LINE      CODE     ---       #105
      00FF3B96H   LINE      CODE     ---       #106
      00FF3B96H   LINE      CODE     ---       #107
      00FF3B9CH   LINE      CODE     ---       #109
      00FF3BB1H   LINE      CODE     ---       #110
      00FF3BB5H   LINE      CODE     ---       #111
      00FF3BB5H   LINE      CODE     ---       #112
      00FF3BBBH   LINE      CODE     ---       #114
      00FF3BD0H   LINE      CODE     ---       #115
      00FF3BD4H   LINE      CODE     ---       #116
      00FF3BD4H   LINE      CODE     ---       #118
      00FF3BDAH   LINE      CODE     ---       #120
      00FF3BEFH   LINE      CODE     ---       #121
      00FF3BF3H   LINE      CODE     ---       #122
      00FF3BF3H   LINE      CODE     ---       #123
      00FF3BF9H   LINE      CODE     ---       #125
      00FF3C0EH   LINE      CODE     ---       #126
      00FF3C12H   LINE      CODE     ---       #127
      00FF3C12H   LINE      CODE     ---       #128
      00FF3C18H   LINE      CODE     ---       #130
      00FF3C2DH   LINE      CODE     ---       #131
      00FF3C31H   LINE      CODE     ---       #132
      00FF3C31H   LINE      CODE     ---       #133
      00FF3C37H   LINE      CODE     ---       #135
      00FF3C4CH   LINE      CODE     ---       #136
      00FF3C50H   LINE      CODE     ---       #137
      00FF3C50H   LINE      CODE     ---       #138
      00FF3C59H   LINE      CODE     ---       #140
      00FF3C70H   LINE      CODE     ---       #141
      00FF3C70H   LINE      CODE     ---       #142
      00FF3C73H   LINE      CODE     ---       #145
      00FF3C7CH   LINE      CODE     ---       #147
      00FF3C84H   LINE      CODE     ---       #149
      00FF3C97H   LINE      CODE     ---       #150
      00FF3C9BH   LINE      CODE     ---       #151
      00FF3C9BH   LINE      CODE     ---       #152
      00FF3CA1H   LINE      CODE     ---       #154
      00FF3CB4H   LINE      CODE     ---       #155
      00FF3CB8H   LINE      CODE     ---       #156
      00FF3CB8H   LINE      CODE     ---       #157
      00FF3CBEH   LINE      CODE     ---       #159
      00FF3CD1H   LINE      CODE     ---       #160
      00FF3CD5H   LINE      CODE     ---       #161
      00FF3CD5H   LINE      CODE     ---       #163
      00FF3CDBH   LINE      CODE     ---       #165
      00FF3CEEH   LINE      CODE     ---       #166
      00FF3CF2H   LINE      CODE     ---       #167
      00FF3CF2H   LINE      CODE     ---       #168
      00FF3CF8H   LINE      CODE     ---       #170
      00FF3D0BH   LINE      CODE     ---       #171
      00FF3D0FH   LINE      CODE     ---       #172
      00FF3D0FH   LINE      CODE     ---       #173
      00FF3D15H   LINE      CODE     ---       #175
L251 LINKER/LOCATER V4.66.93.0                                                        05/04/2023  22:29:11  PAGE 33


      00FF3D28H   LINE      CODE     ---       #176
      00FF3D2CH   LINE      CODE     ---       #177
      00FF3D2CH   LINE      CODE     ---       #178
      00FF3D32H   LINE      CODE     ---       #180
      00FF3D45H   LINE      CODE     ---       #181
      00FF3D49H   LINE      CODE     ---       #182
      00FF3D49H   LINE      CODE     ---       #183
      00FF3D52H   LINE      CODE     ---       #185
      00FF3D65H   LINE      CODE     ---       #186
      00FF3D69H   LINE      CODE     ---       #187
      00FF3D6AH   LINE      CODE     ---       #189
      00FF3D73H   LINE      CODE     ---       #191
      00FF3D7BH   LINE      CODE     ---       #193
      00FF3D8EH   LINE      CODE     ---       #194
      00FF3D90H   LINE      CODE     ---       #195
      00FF3D90H   LINE      CODE     ---       #196
      00FF3D96H   LINE      CODE     ---       #198
      00FF3DA9H   LINE      CODE     ---       #199
      00FF3DABH   LINE      CODE     ---       #200
      00FF3DABH   LINE      CODE     ---       #201
      00FF3DB1H   LINE      CODE     ---       #203
      00FF3DC4H   LINE      CODE     ---       #204
      00FF3DC6H   LINE      CODE     ---       #205
      00FF3DC6H   LINE      CODE     ---       #207
      00FF3DCCH   LINE      CODE     ---       #209
      00FF3DDFH   LINE      CODE     ---       #210
      00FF3DE1H   LINE      CODE     ---       #211
      00FF3DE1H   LINE      CODE     ---       #212
      00FF3DE7H   LINE      CODE     ---       #214
      00FF3DFAH   LINE      CODE     ---       #215
      00FF3DFCH   LINE      CODE     ---       #216
      00FF3DFCH   LINE      CODE     ---       #217
      00FF3E02H   LINE      CODE     ---       #219
      00FF3E15H   LINE      CODE     ---       #220
      00FF3E17H   LINE      CODE     ---       #221
      00FF3E17H   LINE      CODE     ---       #222
      00FF3E1DH   LINE      CODE     ---       #224
      00FF3E30H   LINE      CODE     ---       #225
      00FF3E32H   LINE      CODE     ---       #226
      00FF3E32H   LINE      CODE     ---       #227
      00FF3E38H   LINE      CODE     ---       #229
      00FF3E4DH   LINE      CODE     ---       #230
      00FF3E51H   LINE      CODE     ---       #231
      00FF3E51H   LINE      CODE     ---       #233
      ---         BLOCKEND  ---      ---       LVL=0

      ---         MODULE    ---      ---       zf_iic
      00FF5735H   PUBLIC    CODE     ---       wait
      00FF5DD1H   PUBLIC    CODE     ---       iic_delay_us
      000000D0H   SFRSYM    DATA     BYTE      PSW
      0000009DH   SFRSYM    DATA     BYTE      IRCBAND
      00000097H   SFRSYM    DATA     BYTE      AUXR2
      000000EFH   SFRSYM    DATA     BYTE      AUXINTIF
      000000FDH   SFRSYM    DATA     BYTE      S4CON
      000000ACH   SFRSYM    DATA     BYTE      S3CON
      0000009AH   SFRSYM    DATA     BYTE      S2CON
      000000B7H   SFRSYM    DATA     BYTE      IPH
      000000CDH   SFRSYM    DATA     BYTE      SPSTAT
      000000DDH   SFRSYM    DATA     BYTE      T4T3M
      000000C1H   SFRSYM    DATA     BYTE      WDT_CONTR
      000000DFH   SFRSYM    DATA     BYTE      IP3
      000000F4H   SFRSYM    DATA     BYTE      USBCON
      000000B5H   SFRSYM    DATA     BYTE      IP2
      000000FFH   SFRSYM    DATA     BYTE      RSTCFG
      000000F9H   SFRSYM    DATA     BYTE      LINICR
L251 LINKER/LOCATER V4.66.93.0                                                        05/04/2023  22:29:11  PAGE 34


      0000008EH   SFRSYM    DATA     BYTE      AUXR
      000000AFH   SFRSYM    DATA     BYTE      IE2
      00000088H   SFRSYM    DATA     BYTE      TCON
      00000098H   SFRSYM    DATA     BYTE      SCON
      000000F1H   SFRSYM    DATA     BYTE      CANICR
      00000087H   SFRSYM    DATA     BYTE      PCON
      000000BCH   SFRSYM    DATA     BYTE      ADC_CONTR
      000000E7H   SFRSYM    DATA     BYTE      CMPCR2
      000000E6H   SFRSYM    DATA     BYTE      CMPCR1
      000000B8H   SFRSYM    DATA     BYTE      IP
      0000008FH   SFRSYM    DATA     BYTE      INTCLKO
      000000EEH   SFRSYM    DATA     BYTE      IP3H
      000000B6H   SFRSYM    DATA     BYTE      IP2H
      000000A8H   SFRSYM    DATA     BYTE      IE
      000000BBH   SFRSYM    DATA     BYTE      P_SW3
      000000BAH   SFRSYM    DATA     BYTE      P_SW2
      000000A2H   SFRSYM    DATA     BYTE      P_SW1
      000000CEH   SFRSYM    DATA     BYTE      SPCTL
      000000F8H   SFRSYM    DATA     BYTE      P7
      000000E8H   SFRSYM    DATA     BYTE      P6
      000000C8H   SFRSYM    DATA     BYTE      P5
      000000C0H   SFRSYM    DATA     BYTE      P4
      000000B0H   SFRSYM    DATA     BYTE      P3
      000000A0H   SFRSYM    DATA     BYTE      P2
      00000090H   SFRSYM    DATA     BYTE      P1
      00000080H   SFRSYM    DATA     BYTE      P0

      00FF5DD1H   BLOCK     CODE     ---       LVL=0
      WR6         REGSYM    ---      WORD      x
      R10         REGSYM    ---      BYTE      i
      00FF5DD1H   LINE      CODE     ---       #30
      00FF5DD1H   LINE      CODE     ---       #31
      00FF5DD1H   LINE      CODE     ---       #33
      00FF5DD3H   LINE      CODE     ---       #35
      00FF5DD6H   LINE      CODE     ---       #36
      00FF5DDDH   LINE      CODE     ---       #37
      00FF5DE5H   LINE      CODE     ---       #38
      ---         BLOCKEND  ---      ---       LVL=0

      00FF5735H   BLOCK     CODE     ---       LVL=0
      00FF5739H   BLOCK     CODE     NEAR LAB  LVL=1
      WR12        REGSYM    ---      WORD      count
      R15         REGSYM    ---      BYTE      ret
      ---         BLOCKEND  ---      ---       LVL=1
      00FF5735H   LINE      CODE     ---       #47
      00FF5739H   LINE      CODE     ---       #48
      00FF5739H   LINE      CODE     ---       #49
      00FF573BH   LINE      CODE     ---       #50
      00FF573DH   LINE      CODE     ---       #51
      00FF573FH   LINE      CODE     ---       #53
      00FF5746H   LINE      CODE     ---       #54
      00FF5750H   LINE      CODE     ---       #56
      00FF5753H   LINE      CODE     ---       #57
      00FF5755H   LINE      CODE     ---       #58
      00FF5763H   LINE      CODE     ---       #60
      00FF5773H   LINE      CODE     ---       #61
      00FF5775H   LINE      CODE     ---       #62
      ---         BLOCKEND  ---      ---       LVL=0
      R11         REGSYM    ---      BYTE      ret
      R11         REGSYM    ---      CHAR      dat
      R11         REGSYM    ---      BYTE      ret
      R11         REGSYM    ---      BYTE      ret
      R11         REGSYM    ---      BYTE      ret
      R11         REGSYM    ---      BYTE      ret
      WR6         REGSYM    ---      INT       iic_n
L251 LINKER/LOCATER V4.66.93.0                                                        05/04/2023  22:29:11  PAGE 35


      R13         REGSYM    ---      BYTE      dev_add
      R14         REGSYM    ---      BYTE      reg
      R15         REGSYM    ---      BYTE      dat
      R15         REGSYM    ---      BYTE      dev_add
      R14         REGSYM    ---      BYTE      reg
      REG=3       REGSYM    ---      ---       dat
      WR6         REGSYM    ---      INT       iic_n

      ---         MODULE    ---      ---       zf_nvic
      000000D0H   SFRSYM    DATA     BYTE      PSW
      0000009DH   SFRSYM    DATA     BYTE      IRCBAND
      00000097H   SFRSYM    DATA     BYTE      AUXR2
      000000EFH   SFRSYM    DATA     BYTE      AUXINTIF
      000000FDH   SFRSYM    DATA     BYTE      S4CON
      000000ACH   SFRSYM    DATA     BYTE      S3CON
      0000009AH   SFRSYM    DATA     BYTE      S2CON
      000000B7H   SFRSYM    DATA     BYTE      IPH
      000000CDH   SFRSYM    DATA     BYTE      SPSTAT
      000000DDH   SFRSYM    DATA     BYTE      T4T3M
      000000C1H   SFRSYM    DATA     BYTE      WDT_CONTR
      000000DFH   SFRSYM    DATA     BYTE      IP3
      000000F4H   SFRSYM    DATA     BYTE      USBCON
      000000B5H   SFRSYM    DATA     BYTE      IP2
      000000FFH   SFRSYM    DATA     BYTE      RSTCFG
      000000F9H   SFRSYM    DATA     BYTE      LINICR
      0000008EH   SFRSYM    DATA     BYTE      AUXR
      000000AFH   SFRSYM    DATA     BYTE      IE2
      00000088H   SFRSYM    DATA     BYTE      TCON
      00000098H   SFRSYM    DATA     BYTE      SCON
      000000F1H   SFRSYM    DATA     BYTE      CANICR
      00000087H   SFRSYM    DATA     BYTE      PCON
      000000BCH   SFRSYM    DATA     BYTE      ADC_CONTR
      000000E7H   SFRSYM    DATA     BYTE      CMPCR2
      000000E6H   SFRSYM    DATA     BYTE      CMPCR1
      000000B8H   SFRSYM    DATA     BYTE      IP
      0000008FH   SFRSYM    DATA     BYTE      INTCLKO
      000000EEH   SFRSYM    DATA     BYTE      IP3H
      000000B6H   SFRSYM    DATA     BYTE      IP2H
      000000A8H   SFRSYM    DATA     BYTE      IE
      000000BBH   SFRSYM    DATA     BYTE      P_SW3
      000000BAH   SFRSYM    DATA     BYTE      P_SW2
      000000A2H   SFRSYM    DATA     BYTE      P_SW1
      000000CEH   SFRSYM    DATA     BYTE      SPCTL
      000000F8H   SFRSYM    DATA     BYTE      P7
      000000E8H   SFRSYM    DATA     BYTE      P6
      000000C8H   SFRSYM    DATA     BYTE      P5
      000000C0H   SFRSYM    DATA     BYTE      P4
      000000B0H   SFRSYM    DATA     BYTE      P3
      000000A0H   SFRSYM    DATA     BYTE      P2
      00000090H   SFRSYM    DATA     BYTE      P1
      00000080H   SFRSYM    DATA     BYTE      P0
      WR4         REGSYM    ---      INT       irqn
      R3          REGSYM    ---      BYTE      priority

      ---         MODULE    ---      ---       zf_pwm
      00FF4ADAH   PUBLIC    CODE     ---       pwm_duty
      00FF414EH   PUBLIC    CODE     ---       pwm_set_gpio
      00FF3E52H   PUBLIC    CODE     ---       pwm_init
      00FF6C6AH   PUBLIC    HCONST   ---       PWM_CCR_ADDR
      00FF6C8AH   PUBLIC    HCONST   ---       PWM_ARR_ADDR
      00FF6C92H   PUBLIC    HCONST   ---       PWM_CCER_ADDR
      00FF6CA2H   PUBLIC    HCONST   ---       PWM_CCMR_ADDR
      000007E9H   PUBLIC    EDATA    BYTE      ?pwm_init?BYTE
      000000D0H   SFRSYM    DATA     BYTE      PSW
      0000009DH   SFRSYM    DATA     BYTE      IRCBAND
L251 LINKER/LOCATER V4.66.93.0                                                        05/04/2023  22:29:11  PAGE 36


      00000097H   SFRSYM    DATA     BYTE      AUXR2
      000000EFH   SFRSYM    DATA     BYTE      AUXINTIF
      000000FDH   SFRSYM    DATA     BYTE      S4CON
      000000ACH   SFRSYM    DATA     BYTE      S3CON
      0000009AH   SFRSYM    DATA     BYTE      S2CON
      000000B7H   SFRSYM    DATA     BYTE      IPH
      000000CDH   SFRSYM    DATA     BYTE      SPSTAT
      000000DDH   SFRSYM    DATA     BYTE      T4T3M
      000000C1H   SFRSYM    DATA     BYTE      WDT_CONTR
      000000DFH   SFRSYM    DATA     BYTE      IP3
      000000F4H   SFRSYM    DATA     BYTE      USBCON
      000000B5H   SFRSYM    DATA     BYTE      IP2
      000000FFH   SFRSYM    DATA     BYTE      RSTCFG
      000000F9H   SFRSYM    DATA     BYTE      LINICR
      0000008EH   SFRSYM    DATA     BYTE      AUXR
      000000AFH   SFRSYM    DATA     BYTE      IE2
      00000088H   SFRSYM    DATA     BYTE      TCON
      00000098H   SFRSYM    DATA     BYTE      SCON
      000000F1H   SFRSYM    DATA     BYTE      CANICR
      00000087H   SFRSYM    DATA     BYTE      PCON
      000000BCH   SFRSYM    DATA     BYTE      ADC_CONTR
      000000E7H   SFRSYM    DATA     BYTE      CMPCR2
      000000E6H   SFRSYM    DATA     BYTE      CMPCR1
      000000B8H   SFRSYM    DATA     BYTE      IP
      0000008FH   SFRSYM    DATA     BYTE      INTCLKO
      000000EEH   SFRSYM    DATA     BYTE      IP3H
      000000B6H   SFRSYM    DATA     BYTE      IP2H
      000000A8H   SFRSYM    DATA     BYTE      IE
      000000BBH   SFRSYM    DATA     BYTE      P_SW3
      000000BAH   SFRSYM    DATA     BYTE      P_SW2
      000000A2H   SFRSYM    DATA     BYTE      P_SW1
      000000CEH   SFRSYM    DATA     BYTE      SPCTL
      000000F8H   SFRSYM    DATA     BYTE      P7
      000000E8H   SFRSYM    DATA     BYTE      P6
      000000C8H   SFRSYM    DATA     BYTE      P5
      000000C0H   SFRSYM    DATA     BYTE      P4
      000000B0H   SFRSYM    DATA     BYTE      P3
      000000A0H   SFRSYM    DATA     BYTE      P2
      00000090H   SFRSYM    DATA     BYTE      P1
      00000080H   SFRSYM    DATA     BYTE      P0

      00FF414EH   BLOCK     CODE     ---       LVL=0
      WR6         REGSYM    ---      INT       pwmch
      00FF414EH   LINE      CODE     ---       #49
      00FF414EH   LINE      CODE     ---       #51
      00FF42C1H   LINE      CODE     ---       #53
      00FF42C1H   LINE      CODE     ---       #55
      00FF42C5H   LINE      CODE     ---       #56
      00FF42C8H   LINE      CODE     ---       #58
      00FF42C8H   LINE      CODE     ---       #60
      00FF42CCH   LINE      CODE     ---       #61
      00FF42CFH   LINE      CODE     ---       #63
      00FF42CFH   LINE      CODE     ---       #65
      00FF42D3H   LINE      CODE     ---       #66
      00FF42D6H   LINE      CODE     ---       #68
      00FF42D6H   LINE      CODE     ---       #70
      00FF42DAH   LINE      CODE     ---       #71
      00FF42DDH   LINE      CODE     ---       #73
      00FF42DDH   LINE      CODE     ---       #75
      00FF42E1H   LINE      CODE     ---       #76
      00FF42E4H   LINE      CODE     ---       #78
      00FF42E4H   LINE      CODE     ---       #80
      00FF42E8H   LINE      CODE     ---       #81
      00FF42EBH   LINE      CODE     ---       #84
      00FF42EBH   LINE      CODE     ---       #86
L251 LINKER/LOCATER V4.66.93.0                                                        05/04/2023  22:29:11  PAGE 37


      00FF42EFH   LINE      CODE     ---       #87
      00FF42F2H   LINE      CODE     ---       #89
      00FF42F2H   LINE      CODE     ---       #91
      00FF42F6H   LINE      CODE     ---       #92
      00FF42F9H   LINE      CODE     ---       #94
      00FF42F9H   LINE      CODE     ---       #96
      00FF42FDH   LINE      CODE     ---       #97
      00FF4300H   LINE      CODE     ---       #99
      00FF4300H   LINE      CODE     ---       #101
      00FF4304H   LINE      CODE     ---       #102
      00FF4307H   LINE      CODE     ---       #104
      00FF4307H   LINE      CODE     ---       #106
      00FF430BH   LINE      CODE     ---       #107
      00FF430EH   LINE      CODE     ---       #109
      00FF430EH   LINE      CODE     ---       #111
      00FF4312H   LINE      CODE     ---       #112
      00FF4315H   LINE      CODE     ---       #115
      00FF4315H   LINE      CODE     ---       #117
      00FF4319H   LINE      CODE     ---       #118
      00FF431BH   LINE      CODE     ---       #120
      00FF431BH   LINE      CODE     ---       #122
      00FF431FH   LINE      CODE     ---       #123
      00FF4321H   LINE      CODE     ---       #125
      00FF4321H   LINE      CODE     ---       #127
      00FF4325H   LINE      CODE     ---       #128
      00FF4327H   LINE      CODE     ---       #130
      00FF4327H   LINE      CODE     ---       #132
      00FF432BH   LINE      CODE     ---       #133
      00FF432DH   LINE      CODE     ---       #135
      00FF432DH   LINE      CODE     ---       #137
      00FF4331H   LINE      CODE     ---       #138
      00FF4333H   LINE      CODE     ---       #140
      00FF4333H   LINE      CODE     ---       #142
      00FF4337H   LINE      CODE     ---       #143
      00FF4339H   LINE      CODE     ---       #147
      00FF4339H   LINE      CODE     ---       #149
      00FF433DH   LINE      CODE     ---       #150
      00FF433FH   LINE      CODE     ---       #152
      00FF433FH   LINE      CODE     ---       #154
      00FF4343H   LINE      CODE     ---       #155
      00FF4345H   LINE      CODE     ---       #157
      00FF4345H   LINE      CODE     ---       #159
      00FF4349H   LINE      CODE     ---       #160
      00FF434BH   LINE      CODE     ---       #162
      00FF434BH   LINE      CODE     ---       #164
      00FF434FH   LINE      CODE     ---       #165
      00FF4351H   LINE      CODE     ---       #167
      00FF4351H   LINE      CODE     ---       #169
      00FF4355H   LINE      CODE     ---       #170
      00FF4357H   LINE      CODE     ---       #172
      00FF4357H   LINE      CODE     ---       #174
      00FF435BH   LINE      CODE     ---       #175
      00FF435DH   LINE      CODE     ---       #177
      00FF435DH   LINE      CODE     ---       #179
      00FF4361H   LINE      CODE     ---       #180
      00FF4363H   LINE      CODE     ---       #182
      00FF4363H   LINE      CODE     ---       #184
      00FF4367H   LINE      CODE     ---       #185
      00FF4369H   LINE      CODE     ---       #189
      00FF4369H   LINE      CODE     ---       #191
      00FF436DH   LINE      CODE     ---       #192
      00FF436FH   LINE      CODE     ---       #194
      00FF436FH   LINE      CODE     ---       #196
      00FF4373H   LINE      CODE     ---       #197
      00FF4375H   LINE      CODE     ---       #199
L251 LINKER/LOCATER V4.66.93.0                                                        05/04/2023  22:29:11  PAGE 38


      00FF4375H   LINE      CODE     ---       #201
      00FF4377H   LINE      CODE     ---       #202
      00FF4379H   LINE      CODE     ---       #204
      00FF4379H   LINE      CODE     ---       #206
      00FF437DH   LINE      CODE     ---       #207
      00FF437FH   LINE      CODE     ---       #210
      00FF437FH   LINE      CODE     ---       #212
      00FF4383H   LINE      CODE     ---       #213
      00FF4385H   LINE      CODE     ---       #215
      00FF4385H   LINE      CODE     ---       #217
      00FF4389H   LINE      CODE     ---       #218
      00FF438BH   LINE      CODE     ---       #220
      00FF438BH   LINE      CODE     ---       #222
      00FF4391H   LINE      CODE     ---       #223
      00FF4393H   LINE      CODE     ---       #225
      00FF4393H   LINE      CODE     ---       #227
      00FF439BH   LINE      CODE     ---       #228
      00FF439DH   LINE      CODE     ---       #232
      00FF439DH   LINE      CODE     ---       #234
      00FF43A5H   LINE      CODE     ---       #235
      00FF43A7H   LINE      CODE     ---       #237
      00FF43A7H   LINE      CODE     ---       #239
      00FF43AFH   LINE      CODE     ---       #240
      00FF43B1H   LINE      CODE     ---       #242
      00FF43B1H   LINE      CODE     ---       #244
      00FF43B9H   LINE      CODE     ---       #245
      00FF43BBH   LINE      CODE     ---       #247
      00FF43BBH   LINE      CODE     ---       #249
      00FF43C3H   LINE      CODE     ---       #250
      00FF43C5H   LINE      CODE     ---       #254
      00FF43C5H   LINE      CODE     ---       #256
      00FF43CDH   LINE      CODE     ---       #257
      00FF43CFH   LINE      CODE     ---       #259
      00FF43CFH   LINE      CODE     ---       #261
      00FF43D7H   LINE      CODE     ---       #262
      00FF43D9H   LINE      CODE     ---       #264
      00FF43D9H   LINE      CODE     ---       #266
      00FF43E1H   LINE      CODE     ---       #267
      00FF43E3H   LINE      CODE     ---       #269
      00FF43E3H   LINE      CODE     ---       #271
      00FF43EEH   LINE      CODE     ---       #272
      00FF43EEH   LINE      CODE     ---       #275
      00FF43EEH   LINE      CODE     ---       #277
      ---         BLOCKEND  ---      ---       LVL=0

      00FF3E52H   BLOCK     CODE     ---       LVL=0
      WR14        REGSYM    ---      INT       pwmch
      000007EBH   SYMBOL    EDATA    DWORD     freq
      000007EFH   SYMBOL    EDATA    DWORD     duty
      00FF3E5AH   BLOCK     CODE     NEAR LAB  LVL=1
      000007F3H   SYMBOL    EDATA    DWORD     match_temp
      DR28        REGSYM    ---      DWORD     period_temp
      WR26        REGSYM    ---      WORD      freq_div
      ---         BLOCKEND  ---      ---       LVL=1
      00FF3E52H   LINE      CODE     ---       #290
      00FF3E5AH   LINE      CODE     ---       #291
      00FF3E5AH   LINE      CODE     ---       #295
      00FF3E5AH   LINE      CODE     ---       #298
      00FF3E5DH   LINE      CODE     ---       #301
      00FF3E60H   LINE      CODE     ---       #305
      00FF3E71H   LINE      CODE     ---       #306
      00FF3E71H   LINE      CODE     ---       #307
      00FF3E7AH   LINE      CODE     ---       #309
      00FF3E84H   LINE      CODE     ---       #311
      00FF3EA1H   LINE      CODE     ---       #312
L251 LINKER/LOCATER V4.66.93.0                                                        05/04/2023  22:29:11  PAGE 39


      00FF3EA3H   LINE      CODE     ---       #315
      00FF3EABH   LINE      CODE     ---       #316
      00FF3EABH   LINE      CODE     ---       #319
      00FF3EB4H   LINE      CODE     ---       #322
      00FF3EDFH   LINE      CODE     ---       #323
      00FF3F00H   LINE      CODE     ---       #326
      00FF3F4CH   LINE      CODE     ---       #329
      00FF3F5BH   LINE      CODE     ---       #330
      00FF3F66H   LINE      CODE     ---       #332
      00FF3F6FH   LINE      CODE     ---       #333
      00FF3F75H   LINE      CODE     ---       #334
      00FF3F78H   LINE      CODE     ---       #337
      00FF3FB0H   LINE      CODE     ---       #338
      00FF3FD3H   LINE      CODE     ---       #341
      00FF4025H   LINE      CODE     ---       #345
      00FF4034H   LINE      CODE     ---       #346
      00FF403FH   LINE      CODE     ---       #348
      00FF4048H   LINE      CODE     ---       #349
      00FF4055H   LINE      CODE     ---       #350
      00FF4055H   LINE      CODE     ---       #353
      00FF4081H   LINE      CODE     ---       #354
      00FF40AFH   LINE      CODE     ---       #357
      00FF40DBH   LINE      CODE     ---       #358
      00FF4109H   LINE      CODE     ---       #361
      00FF4120H   LINE      CODE     ---       #362
      00FF414BH   LINE      CODE     ---       #367
      ---         BLOCKEND  ---      ---       LVL=0

      00FF4ADAH   BLOCK     CODE     ---       LVL=0
      WR30        REGSYM    ---      INT       pwmch
      DR24        REGSYM    ---      DWORD     duty
      00FF4ADEH   BLOCK     CODE     NEAR LAB  LVL=1
      DR20        REGSYM    ---      DWORD     match_temp
      DR16        REGSYM    ---      DWORD     arr
      ---         BLOCKEND  ---      ---       LVL=1
      00FF4ADAH   LINE      CODE     ---       #377
      00FF4ADEH   LINE      CODE     ---       #378
      00FF4ADEH   LINE      CODE     ---       #380
      00FF4B22H   LINE      CODE     ---       #384
      00FF4B28H   LINE      CODE     ---       #386
      00FF4B49H   LINE      CODE     ---       #387
      00FF4B4BH   LINE      CODE     ---       #390
      00FF4B4FH   LINE      CODE     ---       #391
      00FF4B4FH   LINE      CODE     ---       #396
      00FF4B77H   LINE      CODE     ---       #397
      00FF4BA1H   LINE      CODE     ---       #401
      ---         BLOCKEND  ---      ---       LVL=0
      WR30        REGSYM    ---      INT       pwmch
      DR24        REGSYM    ---      DWORD     freq
      DR20        REGSYM    ---      DWORD     match_temp
      DR24        REGSYM    ---      DWORD     period_temp
      WR28        REGSYM    ---      WORD      freq_div

      ---         MODULE    ---      ---       zf_spi
      00FF5E8DH   PUBLIC    CODE     ---       spi_mosi
      000000CFH   SFRSYM    DATA     BYTE      SPDAT
      000000D0H   SFRSYM    DATA     BYTE      PSW
      0000009DH   SFRSYM    DATA     BYTE      IRCBAND
      00000097H   SFRSYM    DATA     BYTE      AUXR2
      000000EFH   SFRSYM    DATA     BYTE      AUXINTIF
      000000FDH   SFRSYM    DATA     BYTE      S4CON
      000000ACH   SFRSYM    DATA     BYTE      S3CON
      0000009AH   SFRSYM    DATA     BYTE      S2CON
      000000B7H   SFRSYM    DATA     BYTE      IPH
      000000CDH   SFRSYM    DATA     BYTE      SPSTAT
L251 LINKER/LOCATER V4.66.93.0                                                        05/04/2023  22:29:11  PAGE 40


      000000DDH   SFRSYM    DATA     BYTE      T4T3M
      000000C1H   SFRSYM    DATA     BYTE      WDT_CONTR
      000000DFH   SFRSYM    DATA     BYTE      IP3
      000000F4H   SFRSYM    DATA     BYTE      USBCON
      000000B5H   SFRSYM    DATA     BYTE      IP2
      000000FFH   SFRSYM    DATA     BYTE      RSTCFG
      000000F9H   SFRSYM    DATA     BYTE      LINICR
      0000008EH   SFRSYM    DATA     BYTE      AUXR
      000000AFH   SFRSYM    DATA     BYTE      IE2
      00000088H   SFRSYM    DATA     BYTE      TCON
      00000098H   SFRSYM    DATA     BYTE      SCON
      000000F1H   SFRSYM    DATA     BYTE      CANICR
      00000087H   SFRSYM    DATA     BYTE      PCON
      000000BCH   SFRSYM    DATA     BYTE      ADC_CONTR
      000000E7H   SFRSYM    DATA     BYTE      CMPCR2
      000000E6H   SFRSYM    DATA     BYTE      CMPCR1
      000000B8H   SFRSYM    DATA     BYTE      IP
      0000008FH   SFRSYM    DATA     BYTE      INTCLKO
      000000EEH   SFRSYM    DATA     BYTE      IP3H
      000000B6H   SFRSYM    DATA     BYTE      IP2H
      000000A8H   SFRSYM    DATA     BYTE      IE
      000000BBH   SFRSYM    DATA     BYTE      P_SW3
      000000BAH   SFRSYM    DATA     BYTE      P_SW2
      000000A2H   SFRSYM    DATA     BYTE      P_SW1
      000000CEH   SFRSYM    DATA     BYTE      SPCTL
      000000F8H   SFRSYM    DATA     BYTE      P7
      000000E8H   SFRSYM    DATA     BYTE      P6
      000000C8H   SFRSYM    DATA     BYTE      P5
      000000C0H   SFRSYM    DATA     BYTE      P4
      000000B0H   SFRSYM    DATA     BYTE      P3
      000000A0H   SFRSYM    DATA     BYTE      P2
      00000090H   SFRSYM    DATA     BYTE      P1
      00000080H   SFRSYM    DATA     BYTE      P0
      WR14        REGSYM    ---      INT       spi_n
      R13         REGSYM    ---      BYTE      mode

      00FF5E8DH   BLOCK     CODE     ---       LVL=0
      R11         REGSYM    ---      BYTE      dat
      00FF5E8DH   LINE      CODE     ---       #129
      00FF5E8DH   LINE      CODE     ---       #131
      00FF5E90H   LINE      CODE     ---       #132
      00FF5E95H   LINE      CODE     ---       #133
      00FF5E98H   LINE      CODE     ---       #134
      00FF5E9AH   LINE      CODE     ---       #135
      ---         BLOCKEND  ---      ---       LVL=0
      WR14        REGSYM    ---      INT       spi_n
      R7          REGSYM    ---      BYTE      mode

      ---         MODULE    ---      ---       zf_tim
      00FF4EDEH   PUBLIC    CODE     ---       pit_timer_ms
      00FF565BH   PUBLIC    CODE     ---       ctimer_count_init
      000000D0H   SFRSYM    DATA     BYTE      PSW
      0000009DH   SFRSYM    DATA     BYTE      IRCBAND
      00000097H   SFRSYM    DATA     BYTE      AUXR2
      000000EFH   SFRSYM    DATA     BYTE      AUXINTIF
      000000FDH   SFRSYM    DATA     BYTE      S4CON
      000000ACH   SFRSYM    DATA     BYTE      S3CON
      0000009AH   SFRSYM    DATA     BYTE      S2CON
      000000B7H   SFRSYM    DATA     BYTE      IPH
      000000CDH   SFRSYM    DATA     BYTE      SPSTAT
      000000DDH   SFRSYM    DATA     BYTE      T4T3M
      000000C1H   SFRSYM    DATA     BYTE      WDT_CONTR
      00000088H.6 SFRSYM    DATA     BIT       TR1
      00000088H.4 SFRSYM    DATA     BIT       TR0
      000000D3H   SFRSYM    DATA     BYTE      T4L
L251 LINKER/LOCATER V4.66.93.0                                                        05/04/2023  22:29:11  PAGE 41


      000000D5H   SFRSYM    DATA     BYTE      T3L
      000000D7H   SFRSYM    DATA     BYTE      T2L
      0000008BH   SFRSYM    DATA     BYTE      TL1
      0000008AH   SFRSYM    DATA     BYTE      TL0
      000000D2H   SFRSYM    DATA     BYTE      T4H
      000000D4H   SFRSYM    DATA     BYTE      T3H
      000000D6H   SFRSYM    DATA     BYTE      T2H
      0000008DH   SFRSYM    DATA     BYTE      TH1
      0000008CH   SFRSYM    DATA     BYTE      TH0
      000000DFH   SFRSYM    DATA     BYTE      IP3
      000000F4H   SFRSYM    DATA     BYTE      USBCON
      000000B5H   SFRSYM    DATA     BYTE      IP2
      000000FFH   SFRSYM    DATA     BYTE      RSTCFG
      000000A8H.3 SFRSYM    DATA     BIT       ET1
      000000A8H.1 SFRSYM    DATA     BIT       ET0
      000000F9H   SFRSYM    DATA     BYTE      LINICR
      0000008EH   SFRSYM    DATA     BYTE      AUXR
      000000AFH   SFRSYM    DATA     BYTE      IE2
      00000088H   SFRSYM    DATA     BYTE      TCON
      00000089H   SFRSYM    DATA     BYTE      TMOD
      00000098H   SFRSYM    DATA     BYTE      SCON
      000000F1H   SFRSYM    DATA     BYTE      CANICR
      00000087H   SFRSYM    DATA     BYTE      PCON
      000000BCH   SFRSYM    DATA     BYTE      ADC_CONTR
      000000E7H   SFRSYM    DATA     BYTE      CMPCR2
      000000E6H   SFRSYM    DATA     BYTE      CMPCR1
      000000B8H   SFRSYM    DATA     BYTE      IP
      0000008FH   SFRSYM    DATA     BYTE      INTCLKO
      000000EEH   SFRSYM    DATA     BYTE      IP3H
      000000B6H   SFRSYM    DATA     BYTE      IP2H
      000000A8H   SFRSYM    DATA     BYTE      IE
      000000BBH   SFRSYM    DATA     BYTE      P_SW3
      000000BAH   SFRSYM    DATA     BYTE      P_SW2
      000000A2H   SFRSYM    DATA     BYTE      P_SW1
      000000CEH   SFRSYM    DATA     BYTE      SPCTL
      000000F8H   SFRSYM    DATA     BYTE      P7
      000000E8H   SFRSYM    DATA     BYTE      P6
      000000C8H   SFRSYM    DATA     BYTE      P5
      000000C0H   SFRSYM    DATA     BYTE      P4
      000000B0H   SFRSYM    DATA     BYTE      P3
      000000A0H   SFRSYM    DATA     BYTE      P2
      00000090H   SFRSYM    DATA     BYTE      P1
      00000080H   SFRSYM    DATA     BYTE      P0

      00FF565BH   BLOCK     CODE     ---       LVL=0
      WR6         REGSYM    ---      INT       tim_n
      00FF565BH   LINE      CODE     ---       #39
      00FF565BH   LINE      CODE     ---       #42
      00FF566FH   LINE      CODE     ---       #44
      00FF566FH   LINE      CODE     ---       #46
      00FF5672H   LINE      CODE     ---       #47
      00FF5675H   LINE      CODE     ---       #48
      00FF5678H   LINE      CODE     ---       #49
      00FF567AH   LINE      CODE     ---       #50
      00FF567BH   LINE      CODE     ---       #53
      00FF567BH   LINE      CODE     ---       #55
      00FF567EH   LINE      CODE     ---       #56
      00FF5681H   LINE      CODE     ---       #57
      00FF5684H   LINE      CODE     ---       #58
      00FF5686H   LINE      CODE     ---       #59
      00FF5687H   LINE      CODE     ---       #62
      00FF5687H   LINE      CODE     ---       #64
      00FF568AH   LINE      CODE     ---       #65
      00FF568DH   LINE      CODE     ---       #66
      00FF5690H   LINE      CODE     ---       #67
L251 LINKER/LOCATER V4.66.93.0                                                        05/04/2023  22:29:11  PAGE 42


      00FF5691H   LINE      CODE     ---       #70
      00FF5691H   LINE      CODE     ---       #72
      00FF5694H   LINE      CODE     ---       #73
      00FF5697H   LINE      CODE     ---       #74
      00FF569AH   LINE      CODE     ---       #75
      00FF569BH   LINE      CODE     ---       #78
      00FF569BH   LINE      CODE     ---       #80
      00FF569EH   LINE      CODE     ---       #81
      00FF56A1H   LINE      CODE     ---       #82
      00FF56A4H   LINE      CODE     ---       #83
      00FF56A4H   LINE      CODE     ---       #86
      00FF56A4H   LINE      CODE     ---       #87
      ---         BLOCKEND  ---      ---       LVL=0
      WR4         REGSYM    ---      INT       tim_n
      WR6         REGSYM    ---      WORD      dat
      WR6         REGSYM    ---      INT       tim_n

      00FF4EDEH   BLOCK     CODE     ---       LVL=0
      WR30        REGSYM    ---      INT       tim_n
      WR28        REGSYM    ---      WORD      time_ms
      00FF4EE0H   BLOCK     CODE     NEAR LAB  LVL=1
      WR28        REGSYM    ---      WORD      temp
      ---         BLOCKEND  ---      ---       LVL=1
      00FF4EDEH   LINE      CODE     ---       #198
      00FF4EE0H   LINE      CODE     ---       #199
      00FF4EE0H   LINE      CODE     ---       #201
      00FF4EFDH   LINE      CODE     ---       #203
      00FF4F01H   LINE      CODE     ---       #205
      00FF4F05H   LINE      CODE     ---       #206
      00FF4F0BH   LINE      CODE     ---       #207
      00FF4F0FH   LINE      CODE     ---       #208
      00FF4F11H   LINE      CODE     ---       #209
      00FF4F13H   LINE      CODE     ---       #210
      00FF4F14H   LINE      CODE     ---       #211
      00FF4F1AH   LINE      CODE     ---       #213
      00FF4F1EH   LINE      CODE     ---       #214
      00FF4F24H   LINE      CODE     ---       #215
      00FF4F28H   LINE      CODE     ---       #216
      00FF4F2AH   LINE      CODE     ---       #217
      00FF4F2CH   LINE      CODE     ---       #218
      00FF4F2DH   LINE      CODE     ---       #219
      00FF4F33H   LINE      CODE     ---       #221
      00FF4F39H   LINE      CODE     ---       #222
      00FF4F3DH   LINE      CODE     ---       #223
      00FF4F40H   LINE      CODE     ---       #224
      00FF4F43H   LINE      CODE     ---       #225
      00FF4F44H   LINE      CODE     ---       #226
      00FF4F4AH   LINE      CODE     ---       #228
      00FF4F50H   LINE      CODE     ---       #229
      00FF4F54H   LINE      CODE     ---       #230
      00FF4F57H   LINE      CODE     ---       #231
      00FF4F5AH   LINE      CODE     ---       #232
      00FF4F5BH   LINE      CODE     ---       #233
      00FF4F61H   LINE      CODE     ---       #235
      00FF4F67H   LINE      CODE     ---       #236
      00FF4F6BH   LINE      CODE     ---       #237
      00FF4F6EH   LINE      CODE     ---       #238
      00FF4F71H   LINE      CODE     ---       #239
      ---         BLOCKEND  ---      ---       LVL=0

      ---         MODULE    ---      ---       zf_uart
      00FF5477H   PUBLIC    CODE     ---       uart_putchar
      00FF43EFH   PUBLIC    CODE     ---       uart_init
      000004CAH   PUBLIC    EDATA    ---       uart1_rx_buff
      0000052EH   PUBLIC    EDATA    ---       uart1_tx_buff
L251 LINKER/LOCATER V4.66.93.0                                                        05/04/2023  22:29:11  PAGE 43


      00000592H   PUBLIC    EDATA    ---       busy
      000007E5H   PUBLIC    EDATA    BYTE      ?uart_init?BYTE
      000000D0H   SFRSYM    DATA     BYTE      PSW
      0000009DH   SFRSYM    DATA     BYTE      IRCBAND
      00000097H   SFRSYM    DATA     BYTE      AUXR2
      000000EFH   SFRSYM    DATA     BYTE      AUXINTIF
      000000FDH   SFRSYM    DATA     BYTE      S4CON
      000000ACH   SFRSYM    DATA     BYTE      S3CON
      0000009AH   SFRSYM    DATA     BYTE      S2CON
      000000FEH   SFRSYM    DATA     BYTE      S4BUF
      000000ADH   SFRSYM    DATA     BYTE      S3BUF
      0000009BH   SFRSYM    DATA     BYTE      S2BUF
      000000B7H   SFRSYM    DATA     BYTE      IPH
      000000CDH   SFRSYM    DATA     BYTE      SPSTAT
      000000DDH   SFRSYM    DATA     BYTE      T4T3M
      000000C1H   SFRSYM    DATA     BYTE      WDT_CONTR
      00000088H.6 SFRSYM    DATA     BIT       TR1
      000000D3H   SFRSYM    DATA     BYTE      T4L
      000000D5H   SFRSYM    DATA     BYTE      T3L
      000000D7H   SFRSYM    DATA     BYTE      T2L
      0000008BH   SFRSYM    DATA     BYTE      TL1
      000000D2H   SFRSYM    DATA     BYTE      T4H
      000000D4H   SFRSYM    DATA     BYTE      T3H
      000000D6H   SFRSYM    DATA     BYTE      T2H
      0000008DH   SFRSYM    DATA     BYTE      TH1
      000000DFH   SFRSYM    DATA     BYTE      IP3
      000000F4H   SFRSYM    DATA     BYTE      USBCON
      000000B5H   SFRSYM    DATA     BYTE      IP2
      000000FFH   SFRSYM    DATA     BYTE      RSTCFG
      000000F9H   SFRSYM    DATA     BYTE      LINICR
      0000008EH   SFRSYM    DATA     BYTE      AUXR
      000000AFH   SFRSYM    DATA     BYTE      IE2
      00000088H   SFRSYM    DATA     BYTE      TCON
      00000089H   SFRSYM    DATA     BYTE      TMOD
      00000098H   SFRSYM    DATA     BYTE      SCON
      000000F1H   SFRSYM    DATA     BYTE      CANICR
      00000087H   SFRSYM    DATA     BYTE      PCON
      00000099H   SFRSYM    DATA     BYTE      SBUF
      000000BCH   SFRSYM    DATA     BYTE      ADC_CONTR
      000000E7H   SFRSYM    DATA     BYTE      CMPCR2
      000000E6H   SFRSYM    DATA     BYTE      CMPCR1
      000000B8H   SFRSYM    DATA     BYTE      IP
      000000A8H.4 SFRSYM    DATA     BIT       ES
      0000008FH   SFRSYM    DATA     BYTE      INTCLKO
      000000EEH   SFRSYM    DATA     BYTE      IP3H
      000000B6H   SFRSYM    DATA     BYTE      IP2H
      000000A8H   SFRSYM    DATA     BYTE      IE
      000000BBH   SFRSYM    DATA     BYTE      P_SW3
      000000BAH   SFRSYM    DATA     BYTE      P_SW2
      000000A2H   SFRSYM    DATA     BYTE      P_SW1
      000000CEH   SFRSYM    DATA     BYTE      SPCTL
      000000F8H   SFRSYM    DATA     BYTE      P7
      000000E8H   SFRSYM    DATA     BYTE      P6
      000000C8H   SFRSYM    DATA     BYTE      P5
      000000C0H   SFRSYM    DATA     BYTE      P4
      000000C9H   SFRSYM    DATA     BYTE      P5M1
      000000B0H   SFRSYM    DATA     BYTE      P3
      000000CAH   SFRSYM    DATA     BYTE      P5M0
      000000A0H   SFRSYM    DATA     BYTE      P2
      00000090H   SFRSYM    DATA     BYTE      P1
      00000080H   SFRSYM    DATA     BYTE      P0

      00FF43EFH   BLOCK     CODE     ---       LVL=0
      WR24        REGSYM    ---      INT       uart_n
      WR28        REGSYM    ---      INT       uart_rx_pin
L251 LINKER/LOCATER V4.66.93.0                                                        05/04/2023  22:29:11  PAGE 44


      WR30        REGSYM    ---      INT       uart_tx_pin
      000007EBH   SYMBOL    EDATA    DWORD     baud
      WR26        REGSYM    ---      INT       tim_n
      00FF43F7H   BLOCK     CODE     NEAR LAB  LVL=1
      WR6         REGSYM    ---      WORD      brt
      ---         BLOCKEND  ---      ---       LVL=1
      00FF43EFH   LINE      CODE     ---       #48
      00FF43F7H   LINE      CODE     ---       #49
      00FF43F7H   LINE      CODE     ---       #52
      00FF441AH   LINE      CODE     ---       #55
      00FF4438H   LINE      CODE     ---       #57
      00FF4438H   LINE      CODE     ---       #59
      00FF443EH   LINE      CODE     ---       #61
      00FF4441H   LINE      CODE     ---       #62
      00FF4445H   LINE      CODE     ---       #63
      00FF4449H   LINE      CODE     ---       #64
      00FF444DH   LINE      CODE     ---       #65
      00FF4450H   LINE      CODE     ---       #66
      00FF4452H   LINE      CODE     ---       #67
      00FF4457H   LINE      CODE     ---       #68
      00FF4459H   LINE      CODE     ---       #69
      00FF445FH   LINE      CODE     ---       #71
      00FF4462H   LINE      CODE     ---       #72
      00FF4466H   LINE      CODE     ---       #73
      00FF446AH   LINE      CODE     ---       #74
      00FF446DH   LINE      CODE     ---       #75
      00FF446DH   LINE      CODE     ---       #76
      00FF4470H   LINE      CODE     ---       #77
      00FF447AH   LINE      CODE     ---       #79
      00FF447EH   LINE      CODE     ---       #80
      00FF4480H   LINE      CODE     ---       #81
      00FF448CH   LINE      CODE     ---       #83
      00FF448FH   LINE      CODE     ---       #84
      00FF4491H   LINE      CODE     ---       #85
      00FF449DH   LINE      CODE     ---       #87
      00FF44A0H   LINE      CODE     ---       #88
      00FF44A2H   LINE      CODE     ---       #89
      00FF44AEH   LINE      CODE     ---       #91
      00FF44B1H   LINE      CODE     ---       #92
      00FF44B1H   LINE      CODE     ---       #93
      00FF44B6H   LINE      CODE     ---       #94
      00FF44B8H   LINE      CODE     ---       #95
      00FF44B9H   LINE      CODE     ---       #98
      00FF44B9H   LINE      CODE     ---       #100
      00FF44BFH   LINE      CODE     ---       #102
      00FF44C2H   LINE      CODE     ---       #103
      00FF44C6H   LINE      CODE     ---       #104
      00FF44CAH   LINE      CODE     ---       #105
      00FF44CDH   LINE      CODE     ---       #106
      00FF44CDH   LINE      CODE     ---       #108
      00FF44D0H   LINE      CODE     ---       #109
      00FF44DCH   LINE      CODE     ---       #111
      00FF44E0H   LINE      CODE     ---       #112
      00FF44E2H   LINE      CODE     ---       #113
      00FF44EEH   LINE      CODE     ---       #115
      00FF44F1H   LINE      CODE     ---       #116
      00FF44F1H   LINE      CODE     ---       #118
      00FF44F4H   LINE      CODE     ---       #119
      00FF44F9H   LINE      CODE     ---       #120
      00FF44FAH   LINE      CODE     ---       #123
      00FF44FAH   LINE      CODE     ---       #125
      00FF4500H   LINE      CODE     ---       #127
      00FF4503H   LINE      CODE     ---       #128
      00FF4507H   LINE      CODE     ---       #129
      00FF450BH   LINE      CODE     ---       #130
L251 LINKER/LOCATER V4.66.93.0                                                        05/04/2023  22:29:11  PAGE 45


      00FF450EH   LINE      CODE     ---       #131
      00FF4510H   LINE      CODE     ---       #132
      00FF4516H   LINE      CODE     ---       #134
      00FF4519H   LINE      CODE     ---       #135
      00FF451DH   LINE      CODE     ---       #136
      00FF4521H   LINE      CODE     ---       #137
      00FF4524H   LINE      CODE     ---       #138
      00FF4524H   LINE      CODE     ---       #140
      00FF4527H   LINE      CODE     ---       #141
      00FF4533H   LINE      CODE     ---       #143
      00FF4537H   LINE      CODE     ---       #144
      00FF4539H   LINE      CODE     ---       #145
      00FF4545H   LINE      CODE     ---       #147
      00FF4548H   LINE      CODE     ---       #148
      00FF4548H   LINE      CODE     ---       #150
      00FF454BH   LINE      CODE     ---       #151
      00FF4550H   LINE      CODE     ---       #152
      00FF4551H   LINE      CODE     ---       #155
      00FF4551H   LINE      CODE     ---       #157
      00FF4557H   LINE      CODE     ---       #159
      00FF455AH   LINE      CODE     ---       #160
      00FF455EH   LINE      CODE     ---       #161
      00FF4562H   LINE      CODE     ---       #162
      00FF4565H   LINE      CODE     ---       #163
      00FF4567H   LINE      CODE     ---       #164
      00FF456DH   LINE      CODE     ---       #166
      00FF4570H   LINE      CODE     ---       #167
      00FF4574H   LINE      CODE     ---       #168
      00FF4578H   LINE      CODE     ---       #169
      00FF457BH   LINE      CODE     ---       #170
      00FF457BH   LINE      CODE     ---       #172
      00FF457EH   LINE      CODE     ---       #173
      00FF458AH   LINE      CODE     ---       #175
      00FF458EH   LINE      CODE     ---       #176
      00FF4590H   LINE      CODE     ---       #177
      00FF459CH   LINE      CODE     ---       #179
      00FF459FH   LINE      CODE     ---       #180
      00FF45A2H   LINE      CODE     ---       #181
      00FF45A5H   LINE      CODE     ---       #182
      00FF45A5H   LINE      CODE     ---       #183
      00FF45A8H   LINE      CODE     ---       #184
      00FF45ADH   LINE      CODE     ---       #185
      00FF45ADH   LINE      CODE     ---       #188
      00FF45ADH   LINE      CODE     ---       #190
      ---         BLOCKEND  ---      ---       LVL=0

      00FF5477H   BLOCK     CODE     ---       LVL=0
      WR6         REGSYM    ---      INT       uart_n
      R10         REGSYM    ---      BYTE      dat
      00FF5477H   LINE      CODE     ---       #199
      00FF5479H   LINE      CODE     ---       #201
      00FF548BH   LINE      CODE     ---       #203
      00FF548BH   LINE      CODE     ---       #204
      00FF5491H   LINE      CODE     ---       #205
      00FF5497H   LINE      CODE     ---       #206
      00FF549AH   LINE      CODE     ---       #207
      00FF549BH   LINE      CODE     ---       #208
      00FF549BH   LINE      CODE     ---       #209
      00FF54A1H   LINE      CODE     ---       #210
      00FF54A7H   LINE      CODE     ---       #211
      00FF54AAH   LINE      CODE     ---       #212
      00FF54ABH   LINE      CODE     ---       #213
      00FF54ABH   LINE      CODE     ---       #214
      00FF54B1H   LINE      CODE     ---       #215
      00FF54B7H   LINE      CODE     ---       #216
L251 LINKER/LOCATER V4.66.93.0                                                        05/04/2023  22:29:11  PAGE 46


      00FF54BAH   LINE      CODE     ---       #217
      00FF54BBH   LINE      CODE     ---       #218
      00FF54BBH   LINE      CODE     ---       #219
      00FF54C1H   LINE      CODE     ---       #220
      00FF54C7H   LINE      CODE     ---       #221
      00FF54CAH   LINE      CODE     ---       #222
      00FF54CAH   LINE      CODE     ---       #223
      00FF54CAH   LINE      CODE     ---       #224
      ---         BLOCKEND  ---      ---       LVL=0
      REG=3       REGSYM    ---      ---       p
      REG=3       REGSYM    ---      ---       str

      ---         MODULE    ---      ---       zf_fifo
      00FF57BEH   PUBLIC    CODE     ---       fifo_head_offset
      00FF491FH   PUBLIC    CODE     ---       fifo_write_buffer
      000007D5H   PUBLIC    EDATA    BYTE      ?fifo_write_buffer?BYTE
      000000D0H   SFRSYM    DATA     BYTE      PSW
      0000009DH   SFRSYM    DATA     BYTE      IRCBAND
      00000097H   SFRSYM    DATA     BYTE      AUXR2
      000000EFH   SFRSYM    DATA     BYTE      AUXINTIF
      000000FDH   SFRSYM    DATA     BYTE      S4CON
      000000ACH   SFRSYM    DATA     BYTE      S3CON
      0000009AH   SFRSYM    DATA     BYTE      S2CON
      000000B7H   SFRSYM    DATA     BYTE      IPH
      000000CDH   SFRSYM    DATA     BYTE      SPSTAT
      000000DDH   SFRSYM    DATA     BYTE      T4T3M
      000000C1H   SFRSYM    DATA     BYTE      WDT_CONTR
      000000DFH   SFRSYM    DATA     BYTE      IP3
      000000F4H   SFRSYM    DATA     BYTE      USBCON
      000000B5H   SFRSYM    DATA     BYTE      IP2
      000000FFH   SFRSYM    DATA     BYTE      RSTCFG
      000000F9H   SFRSYM    DATA     BYTE      LINICR
      0000008EH   SFRSYM    DATA     BYTE      AUXR
      000000AFH   SFRSYM    DATA     BYTE      IE2
      00000088H   SFRSYM    DATA     BYTE      TCON
      00000098H   SFRSYM    DATA     BYTE      SCON
      000000F1H   SFRSYM    DATA     BYTE      CANICR
      00000087H   SFRSYM    DATA     BYTE      PCON
      000000BCH   SFRSYM    DATA     BYTE      ADC_CONTR
      000000E7H   SFRSYM    DATA     BYTE      CMPCR2
      000000E6H   SFRSYM    DATA     BYTE      CMPCR1
      000000B8H   SFRSYM    DATA     BYTE      IP
      0000008FH   SFRSYM    DATA     BYTE      INTCLKO
      000000EEH   SFRSYM    DATA     BYTE      IP3H
      000000B6H   SFRSYM    DATA     BYTE      IP2H
      000000A8H   SFRSYM    DATA     BYTE      IE
      000000BBH   SFRSYM    DATA     BYTE      P_SW3
      000000BAH   SFRSYM    DATA     BYTE      P_SW2
      000000A2H   SFRSYM    DATA     BYTE      P_SW1
      000000CEH   SFRSYM    DATA     BYTE      SPCTL
      000000F8H   SFRSYM    DATA     BYTE      P7
      000000E8H   SFRSYM    DATA     BYTE      P6
      000000C8H   SFRSYM    DATA     BYTE      P5
      000000C0H   SFRSYM    DATA     BYTE      P4
      000000B0H   SFRSYM    DATA     BYTE      P3
      000000A0H   SFRSYM    DATA     BYTE      P2
      00000090H   SFRSYM    DATA     BYTE      P1
      00000080H   SFRSYM    DATA     BYTE      P0
      REG=2       REGSYM    ---      ---       fifo
      REG=7       REGSYM    ---      ---       buffer_addr

      00FF57BEH   BLOCK     CODE     ---       LVL=0
      REG=7       REGSYM    ---      ---       fifo
      DR24        REGSYM    ---      DWORD     offset
      00FF57BEH   LINE      CODE     ---       #61
L251 LINKER/LOCATER V4.66.93.0                                                        05/04/2023  22:29:11  PAGE 47


      00FF57C2H   LINE      CODE     ---       #63
      00FF57CDH   LINE      CODE     ---       #65
      00FF57CFH   LINE      CODE     ---       #67
      00FF57EBH   LINE      CODE     ---       #68
      00FF57FFH   LINE      CODE     ---       #69
      ---         BLOCKEND  ---      ---       LVL=0
      REG=7       REGSYM    ---      ---       fifo
      DR24        REGSYM    ---      DWORD     offset
      REG=2       REGSYM    ---      ---       fifo
      REG=7       REGSYM    ---      ---       fifo

      00FF491FH   BLOCK     CODE     ---       LVL=0
      REG=3       REGSYM    ---      ---       fifo
      000007D9H   SYMBOL    EDATA    ---       dat
      000007DDH   SYMBOL    EDATA    DWORD     length
      00FF4927H   BLOCK     CODE     NEAR LAB  LVL=1
      000007E1H   SYMBOL    EDATA    DWORD     temp_length
      ---         BLOCKEND  ---      ---       LVL=1
      00FF491FH   LINE      CODE     ---       #120
      00FF4927H   LINE      CODE     ---       #121
      00FF4927H   LINE      CODE     ---       #124
      00FF493AH   LINE      CODE     ---       #126
      00FF4950H   LINE      CODE     ---       #128
      00FF4954H   LINE      CODE     ---       #130
      00FF496CH   LINE      CODE     ---       #131
      00FF4975H   LINE      CODE     ---       #132
      00FF4985H   LINE      CODE     ---       #133
      00FF49A5H   LINE      CODE     ---       #134
      00FF49B1H   LINE      CODE     ---       #135
      00FF49B3H   LINE      CODE     ---       #138
      00FF49CFH   LINE      CODE     ---       #139
      00FF49D8H   LINE      CODE     ---       #140
      00FF49D8H   LINE      CODE     ---       #142
      00FF49F2H   LINE      CODE     ---       #143
      00FF49F4H   LINE      CODE     ---       #146
      00FF49FAH   LINE      CODE     ---       #147
      00FF49FAH   LINE      CODE     ---       #149
      00FF49FCH   LINE      CODE     ---       #150
      ---         BLOCKEND  ---      ---       LVL=0
      REG=3       REGSYM    ---      ---       fifo

      ---         MODULE    ---      ---       SEEKFREE_ABSOLUTE_ENCODER
      00FF0006H   PUBLIC    CODE     ---       encoder_delay_us
      000000D0H   SFRSYM    DATA     BYTE      PSW
      0000009DH   SFRSYM    DATA     BYTE      IRCBAND
      00000097H   SFRSYM    DATA     BYTE      AUXR2
      000000EFH   SFRSYM    DATA     BYTE      AUXINTIF
      000000FDH   SFRSYM    DATA     BYTE      S4CON
      000000ACH   SFRSYM    DATA     BYTE      S3CON
      0000009AH   SFRSYM    DATA     BYTE      S2CON
      000000B7H   SFRSYM    DATA     BYTE      IPH
      000000CDH   SFRSYM    DATA     BYTE      SPSTAT
      000000DDH   SFRSYM    DATA     BYTE      T4T3M
      000000C1H   SFRSYM    DATA     BYTE      WDT_CONTR
      000000DFH   SFRSYM    DATA     BYTE      IP3
      000000F4H   SFRSYM    DATA     BYTE      USBCON
      000000B5H   SFRSYM    DATA     BYTE      IP2
      000000FFH   SFRSYM    DATA     BYTE      RSTCFG
      000000F9H   SFRSYM    DATA     BYTE      LINICR
      0000008EH   SFRSYM    DATA     BYTE      AUXR
      000000AFH   SFRSYM    DATA     BYTE      IE2
      000000A0H.7 SFRSYM    DATA     BIT       P27
      000000A0H.6 SFRSYM    DATA     BIT       P26
      000000A0H.5 SFRSYM    DATA     BIT       P25
      000000A0H.4 SFRSYM    DATA     BIT       P24
L251 LINKER/LOCATER V4.66.93.0                                                        05/04/2023  22:29:11  PAGE 48


      00000088H   SFRSYM    DATA     BYTE      TCON
      00000098H   SFRSYM    DATA     BYTE      SCON
      000000A0H.2 SFRSYM    DATA     BIT       P22
      000000F1H   SFRSYM    DATA     BYTE      CANICR
      00000087H   SFRSYM    DATA     BYTE      PCON
      000000BCH   SFRSYM    DATA     BYTE      ADC_CONTR
      000000E7H   SFRSYM    DATA     BYTE      CMPCR2
      000000E6H   SFRSYM    DATA     BYTE      CMPCR1
      000000B8H   SFRSYM    DATA     BYTE      IP
      0000008FH   SFRSYM    DATA     BYTE      INTCLKO
      000000EEH   SFRSYM    DATA     BYTE      IP3H
      000000B6H   SFRSYM    DATA     BYTE      IP2H
      000000A8H   SFRSYM    DATA     BYTE      IE
      000000BBH   SFRSYM    DATA     BYTE      P_SW3
      000000BAH   SFRSYM    DATA     BYTE      P_SW2
      000000A2H   SFRSYM    DATA     BYTE      P_SW1
      000000CEH   SFRSYM    DATA     BYTE      SPCTL
      000000F8H   SFRSYM    DATA     BYTE      P7
      000000E8H   SFRSYM    DATA     BYTE      P6
      000000C8H   SFRSYM    DATA     BYTE      P5
      000000C0H   SFRSYM    DATA     BYTE      P4
      000000B0H   SFRSYM    DATA     BYTE      P3
      000000A0H   SFRSYM    DATA     BYTE      P2
      00000090H   SFRSYM    DATA     BYTE      P1
      00000080H   SFRSYM    DATA     BYTE      P0

      00FF0006H   BLOCK     CODE     ---       LVL=0
      WR6         REGSYM    ---      WORD      x
      00FF0006H   LINE      CODE     ---       #43
      00FF0006H   LINE      CODE     ---       #45
      ---         BLOCKEND  ---      ---       LVL=0
      R6          REGSYM    ---      BYTE      byte
      R7          REGSYM    ---      BYTE      i
      R7          REGSYM    ---      BYTE      cmd
      R15         REGSYM    ---      BYTE      val
      R7          REGSYM    ---      BYTE      cmd
      REG=3       REGSYM    ---      ---       val
      R7          REGSYM    ---      BYTE      cmd
      R15         REGSYM    ---      BYTE      val
      R14         REGSYM    ---      BYTE      dat
      R7          REGSYM    ---      BYTE      cmd
      REG=3       REGSYM    ---      ---       val
      WR14        REGSYM    ---      WORD      zero_position
      WR14        REGSYM    ---      WORD      angle
      R10         REGSYM    ---      BYTE      byte
      R7          REGSYM    ---      BYTE      cmd
      R15         REGSYM    ---      BYTE      val
      R7          REGSYM    ---      BYTE      cmd
      REG=3       REGSYM    ---      ---       val
      R7          REGSYM    ---      BYTE      cmd
      R15         REGSYM    ---      BYTE      val
      R14         REGSYM    ---      BYTE      dat
      R7          REGSYM    ---      BYTE      cmd
      REG=3       REGSYM    ---      ---       val
      WR14        REGSYM    ---      WORD      zero_position
      WR14        REGSYM    ---      WORD      angle

      ---         MODULE    ---      ---       SEEKFREE_AT24C02
      000000D0H   SFRSYM    DATA     BYTE      PSW
      0000009DH   SFRSYM    DATA     BYTE      IRCBAND
      00000097H   SFRSYM    DATA     BYTE      AUXR2
      000000EFH   SFRSYM    DATA     BYTE      AUXINTIF
      000000FDH   SFRSYM    DATA     BYTE      S4CON
      000000ACH   SFRSYM    DATA     BYTE      S3CON
      0000009AH   SFRSYM    DATA     BYTE      S2CON
L251 LINKER/LOCATER V4.66.93.0                                                        05/04/2023  22:29:11  PAGE 49


      000000B7H   SFRSYM    DATA     BYTE      IPH
      000000CDH   SFRSYM    DATA     BYTE      SPSTAT
      000000DDH   SFRSYM    DATA     BYTE      T4T3M
      000000C1H   SFRSYM    DATA     BYTE      WDT_CONTR
      000000DFH   SFRSYM    DATA     BYTE      IP3
      000000F4H   SFRSYM    DATA     BYTE      USBCON
      000000B5H   SFRSYM    DATA     BYTE      IP2
      000000FFH   SFRSYM    DATA     BYTE      RSTCFG
      000000F9H   SFRSYM    DATA     BYTE      LINICR
      0000008EH   SFRSYM    DATA     BYTE      AUXR
      000000AFH   SFRSYM    DATA     BYTE      IE2
      00000088H   SFRSYM    DATA     BYTE      TCON
      000000A0H.3 SFRSYM    DATA     BIT       P23
      00000098H   SFRSYM    DATA     BYTE      SCON
      000000A0H.2 SFRSYM    DATA     BIT       P22
      000000F1H   SFRSYM    DATA     BYTE      CANICR
      00000087H   SFRSYM    DATA     BYTE      PCON
      000000BCH   SFRSYM    DATA     BYTE      ADC_CONTR
      000000E7H   SFRSYM    DATA     BYTE      CMPCR2
      000000E6H   SFRSYM    DATA     BYTE      CMPCR1
      000000B8H   SFRSYM    DATA     BYTE      IP
      0000008FH   SFRSYM    DATA     BYTE      INTCLKO
      000000EEH   SFRSYM    DATA     BYTE      IP3H
      000000B6H   SFRSYM    DATA     BYTE      IP2H
      000000A8H   SFRSYM    DATA     BYTE      IE
      000000BBH   SFRSYM    DATA     BYTE      P_SW3
      000000BAH   SFRSYM    DATA     BYTE      P_SW2
      000000A2H   SFRSYM    DATA     BYTE      P_SW1
      000000CEH   SFRSYM    DATA     BYTE      SPCTL
      000000F8H   SFRSYM    DATA     BYTE      P7
      000000E8H   SFRSYM    DATA     BYTE      P6
      000000C8H   SFRSYM    DATA     BYTE      P5
      000000C0H   SFRSYM    DATA     BYTE      P4
      000000B0H   SFRSYM    DATA     BYTE      P3
      000000A0H   SFRSYM    DATA     BYTE      P2
      00000090H   SFRSYM    DATA     BYTE      P1
      00000080H   SFRSYM    DATA     BYTE      P0
      00FF5E1EH   SYMBOL    CODE     ---       at24c02_simiic_stop
      00FF5C1DH   SYMBOL    CODE     ---       at24c02_simiic_sendack
      00FF0046H   SYMBOL    CODE     ---       at24c02_simiic_delay

      00FF0046H   BLOCK     CODE     ---       LVL=0
      WR6         REGSYM    ---      WORD      j
      00FF0046H   LINE      CODE     ---       #45
      00FF0046H   LINE      CODE     ---       #46
      00FF0046H   LINE      CODE     ---       #47
      00FF004AH   LINE      CODE     ---       #48
      00FF0052H   LINE      CODE     ---       #49
      ---         BLOCKEND  ---      ---       LVL=0

      00FF5E1EH   BLOCK     CODE     ---       LVL=0
      00FF5E1EH   LINE      CODE     ---       #63
      00FF5E1EH   LINE      CODE     ---       #65
      00FF5E20H   LINE      CODE     ---       #66
      00FF5E22H   LINE      CODE     ---       #67
      00FF5E25H   LINE      CODE     ---       #68
      00FF5E27H   LINE      CODE     ---       #69
      00FF5E2AH   LINE      CODE     ---       #70
      00FF5E2CH   LINE      CODE     ---       #71
      ---         BLOCKEND  ---      ---       LVL=0

      00FF5C1DH   BLOCK     CODE     ---       LVL=0
      R15         REGSYM    ---      BYTE      ack_dat
      00FF5C1DH   LINE      CODE     ---       #76
      00FF5C21H   LINE      CODE     ---       #78
L251 LINKER/LOCATER V4.66.93.0                                                        05/04/2023  22:29:11  PAGE 50


      00FF5C23H   LINE      CODE     ---       #79
      00FF5C26H   LINE      CODE     ---       #80
      00FF5C2EH   LINE      CODE     ---       #81
      00FF5C30H   LINE      CODE     ---       #83
      00FF5C32H   LINE      CODE     ---       #84
      00FF5C35H   LINE      CODE     ---       #85
      00FF5C37H   LINE      CODE     ---       #86
      00FF5C3AH   LINE      CODE     ---       #87
      ---         BLOCKEND  ---      ---       LVL=0
      R15         REGSYM    ---      BYTE      c
      R14         REGSYM    ---      BYTE      i
      R15         REGSYM    ---      BYTE      ack_x
      R13         REGSYM    ---      BYTE      i
      R14         REGSYM    ---      BYTE      c
      R13         REGSYM    ---      BYTE      dev_add
      R14         REGSYM    ---      BYTE      reg
      R15         REGSYM    ---      BYTE      dat
      R15         REGSYM    ---      BYTE      dev_add
      R14         REGSYM    ---      BYTE      reg
      R15         REGSYM    ---      BYTE      dat
      R14         REGSYM    ---      BYTE      byte_reg
      R15         REGSYM    ---      BYTE      dat
      R15         REGSYM    ---      BYTE      byte_reg
      REG=3       REGSYM    ---      ---       dat_add
      REG=3       REGSYM    ---      ---       dat_add

      ---         MODULE    ---      ---       SEEKFREE_BLUETOOTH_CH9141
      00FF5D2CH   PUBLIC    CODE     ---       bluetooth_ch9141_uart_callback
      000000D0H   SFRSYM    DATA     BYTE      PSW
      0000009DH   SFRSYM    DATA     BYTE      IRCBAND
      00000097H   SFRSYM    DATA     BYTE      AUXR2
      000000EFH   SFRSYM    DATA     BYTE      AUXINTIF
      000000FDH   SFRSYM    DATA     BYTE      S4CON
      000000ACH   SFRSYM    DATA     BYTE      S3CON
      0000009AH   SFRSYM    DATA     BYTE      S2CON
      000000FEH   SFRSYM    DATA     BYTE      S4BUF
      000000B7H   SFRSYM    DATA     BYTE      IPH
      000000CDH   SFRSYM    DATA     BYTE      SPSTAT
      000000DDH   SFRSYM    DATA     BYTE      T4T3M
      000000C1H   SFRSYM    DATA     BYTE      WDT_CONTR
      000000DFH   SFRSYM    DATA     BYTE      IP3
      000000F4H   SFRSYM    DATA     BYTE      USBCON
      000000B5H   SFRSYM    DATA     BYTE      IP2
      000000FFH   SFRSYM    DATA     BYTE      RSTCFG
      000000F9H   SFRSYM    DATA     BYTE      LINICR
      0000008EH   SFRSYM    DATA     BYTE      AUXR
      000000AFH   SFRSYM    DATA     BYTE      IE2
      00000080H.7 SFRSYM    DATA     BIT       P07
      00000088H   SFRSYM    DATA     BYTE      TCON
      00000098H   SFRSYM    DATA     BYTE      SCON
      000000F1H   SFRSYM    DATA     BYTE      CANICR
      00000087H   SFRSYM    DATA     BYTE      PCON
      000000BCH   SFRSYM    DATA     BYTE      ADC_CONTR
      000000E7H   SFRSYM    DATA     BYTE      CMPCR2
      000000E6H   SFRSYM    DATA     BYTE      CMPCR1
      000000B8H   SFRSYM    DATA     BYTE      IP
      0000008FH   SFRSYM    DATA     BYTE      INTCLKO
      000000EEH   SFRSYM    DATA     BYTE      IP3H
      000000B6H   SFRSYM    DATA     BYTE      IP2H
      000000A8H   SFRSYM    DATA     BYTE      IE
      000000BBH   SFRSYM    DATA     BYTE      P_SW3
      000000BAH   SFRSYM    DATA     BYTE      P_SW2
      000000A2H   SFRSYM    DATA     BYTE      P_SW1
      000000CEH   SFRSYM    DATA     BYTE      SPCTL
      000000F8H   SFRSYM    DATA     BYTE      P7
L251 LINKER/LOCATER V4.66.93.0                                                        05/04/2023  22:29:11  PAGE 51


      000000E8H   SFRSYM    DATA     BYTE      P6
      000000C8H   SFRSYM    DATA     BYTE      P5
      000000C0H   SFRSYM    DATA     BYTE      P4
      000000B0H   SFRSYM    DATA     BYTE      P3
      000000A0H   SFRSYM    DATA     BYTE      P2
      00000090H   SFRSYM    DATA     BYTE      P1
      00000080H   SFRSYM    DATA     BYTE      P0
      000006DAH   SYMBOL    EDATA    ---       bluetooth_ch9141_buffer
      0000071AH   SYMBOL    EDATA    BYTE      bluetooth_ch9141_data
      0000071BH   SYMBOL    EDATA    ---       bluetooth_ch9141_fifo

      00FF5D2CH   BLOCK     CODE     ---       LVL=0
      00FF5D2CH   LINE      CODE     ---       #67
      00FF5D2CH   LINE      CODE     ---       #70
      00FF5D32H   LINE      CODE     ---       #71
      ---         BLOCKEND  ---      ---       LVL=0
      DR12        REGSYM    ---      DWORD     len
      REG=7       REGSYM    ---      ---       buff
      DR8         REGSYM    ---      DWORD     len

      ---         MODULE    ---      ---       SEEKFREE_DL1A
      0000088CH   PUBLIC    EDATA    WORD      dl1a_distance_mm
      0000088EH   PUBLIC    EDATA    BYTE      dl1a_finsh_flag
      000000D0H   SFRSYM    DATA     BYTE      PSW
      0000009DH   SFRSYM    DATA     BYTE      IRCBAND
      00000097H   SFRSYM    DATA     BYTE      AUXR2
      000000EFH   SFRSYM    DATA     BYTE      AUXINTIF
      000000FDH   SFRSYM    DATA     BYTE      S4CON
      000000ACH   SFRSYM    DATA     BYTE      S3CON
      0000009AH   SFRSYM    DATA     BYTE      S2CON
      000000B7H   SFRSYM    DATA     BYTE      IPH
      000000CDH   SFRSYM    DATA     BYTE      SPSTAT
      000000DDH   SFRSYM    DATA     BYTE      T4T3M
      000000C1H   SFRSYM    DATA     BYTE      WDT_CONTR
      000000DFH   SFRSYM    DATA     BYTE      IP3
      000000F4H   SFRSYM    DATA     BYTE      USBCON
      000000B5H   SFRSYM    DATA     BYTE      IP2
      000000FFH   SFRSYM    DATA     BYTE      RSTCFG
      000000F9H   SFRSYM    DATA     BYTE      LINICR
      0000008EH   SFRSYM    DATA     BYTE      AUXR
      000000AFH   SFRSYM    DATA     BYTE      IE2
      000000A0H.7 SFRSYM    DATA     BIT       P27
      000000C0H.5 SFRSYM    DATA     BIT       P45
      000000A0H.6 SFRSYM    DATA     BIT       P26
      00000088H   SFRSYM    DATA     BYTE      TCON
      00000098H   SFRSYM    DATA     BYTE      SCON
      000000F1H   SFRSYM    DATA     BYTE      CANICR
      00000087H   SFRSYM    DATA     BYTE      PCON
      000000BCH   SFRSYM    DATA     BYTE      ADC_CONTR
      000000E7H   SFRSYM    DATA     BYTE      CMPCR2
      000000E6H   SFRSYM    DATA     BYTE      CMPCR1
      000000B8H   SFRSYM    DATA     BYTE      IP
      0000008FH   SFRSYM    DATA     BYTE      INTCLKO
      000000EEH   SFRSYM    DATA     BYTE      IP3H
      000000B6H   SFRSYM    DATA     BYTE      IP2H
      000000A8H   SFRSYM    DATA     BYTE      IE
      000000BBH   SFRSYM    DATA     BYTE      P_SW3
      000000BAH   SFRSYM    DATA     BYTE      P_SW2
      000000A2H   SFRSYM    DATA     BYTE      P_SW1
      000000CEH   SFRSYM    DATA     BYTE      SPCTL
      000000F8H   SFRSYM    DATA     BYTE      P7
      000000E8H   SFRSYM    DATA     BYTE      P6
      000000C8H   SFRSYM    DATA     BYTE      P5
      000000C0H   SFRSYM    DATA     BYTE      P4
      000000B0H   SFRSYM    DATA     BYTE      P3
L251 LINKER/LOCATER V4.66.93.0                                                        05/04/2023  22:29:11  PAGE 52


      000000A0H   SFRSYM    DATA     BYTE      P2
      00000090H   SFRSYM    DATA     BYTE      P1
      00000080H   SFRSYM    DATA     BYTE      P0
      00FF5C3DH   SYMBOL    CODE     ---       dl1a_simiic_sendack
      00FF58BAH   SYMBOL    CODE     ---       dl1a_timeout_microseconds_to_mclks
      00FF583FH   SYMBOL    CODE     ---       dl1a_timeout_mclks_to_microseconds
      00FF58F6H   SYMBOL    CODE     ---       dl1a_read_ch
      00FF5E51H   SYMBOL    CODE     ---       dl1a_decode_timeout
      00FF5A93H   SYMBOL    CODE     ---       dl1a_send_ch
      00FF599FH   SYMBOL    CODE     ---       dl1a_encode_timeout
      00FF541FH   SYMBOL    CODE     ---       dl1a_get_sequence_step_enables
      00FF0026H   SYMBOL    CODE     ---       dl1a_sccb_waitack
      00FF5E9BH   SYMBOL    CODE     ---       dl1a_simiic_delay
      00FF49FFH   SYMBOL    CODE     ---       dl1a_get_sequence_step_timeouts
      00FF5E61H   SYMBOL    CODE     ---       dl1a_simiic_start
      00FF54CBH   SYMBOL    CODE     ---       dl1a_simiic_read_regs
      00FF596AH   SYMBOL    CODE     ---       dl1a_simiic_write_dats
      00FF5E2FH   SYMBOL    CODE     ---       dl1a_simiic_stop
      00FF55C1H   SYMBOL    CODE     ---       dl1a_get_vcsel_pulse_period

      00FF5E9BH   BLOCK     CODE     ---       LVL=0
      WR6         REGSYM    ---      WORD      j
      00FF5E9BH   LINE      CODE     ---       #75
      00FF5E9BH   LINE      CODE     ---       #76
      00FF5E9BH   LINE      CODE     ---       #77
      00FF5E9FH   LINE      CODE     ---       #78
      00FF5EA7H   LINE      CODE     ---       #79
      ---         BLOCKEND  ---      ---       LVL=0

      00FF5E61H   BLOCK     CODE     ---       LVL=0
      00FF5E61H   LINE      CODE     ---       #82
      00FF5E61H   LINE      CODE     ---       #84
      00FF5E63H   LINE      CODE     ---       #85
      00FF5E65H   LINE      CODE     ---       #86
      00FF5E68H   LINE      CODE     ---       #87
      00FF5E6AH   LINE      CODE     ---       #88
      00FF5E6DH   LINE      CODE     ---       #89
      00FF5E6FH   LINE      CODE     ---       #90
      ---         BLOCKEND  ---      ---       LVL=0

      00FF5E2FH   BLOCK     CODE     ---       LVL=0
      00FF5E2FH   LINE      CODE     ---       #93
      00FF5E2FH   LINE      CODE     ---       #95
      00FF5E31H   LINE      CODE     ---       #96
      00FF5E33H   LINE      CODE     ---       #97
      00FF5E36H   LINE      CODE     ---       #98
      00FF5E38H   LINE      CODE     ---       #99
      00FF5E3BH   LINE      CODE     ---       #100
      00FF5E3DH   LINE      CODE     ---       #101
      ---         BLOCKEND  ---      ---       LVL=0

      00FF5C3DH   BLOCK     CODE     ---       LVL=0
      R15         REGSYM    ---      BYTE      ack_dat
      00FF5C3DH   LINE      CODE     ---       #106
      00FF5C41H   LINE      CODE     ---       #108
      00FF5C43H   LINE      CODE     ---       #109
      00FF5C46H   LINE      CODE     ---       #110
      00FF5C4EH   LINE      CODE     ---       #111
      00FF5C50H   LINE      CODE     ---       #113
      00FF5C52H   LINE      CODE     ---       #114
      00FF5C55H   LINE      CODE     ---       #115
      00FF5C57H   LINE      CODE     ---       #116
      00FF5C5AH   LINE      CODE     ---       #117
      ---         BLOCKEND  ---      ---       LVL=0

L251 LINKER/LOCATER V4.66.93.0                                                        05/04/2023  22:29:11  PAGE 53


      00FF0026H   BLOCK     CODE     ---       LVL=0
      00FF0026H   LINE      CODE     ---       #120
      00FF0026H   LINE      CODE     ---       #122
      00FF0028H   LINE      CODE     ---       #124
      00FF002BH   LINE      CODE     ---       #126
      00FF002DH   LINE      CODE     ---       #127
      00FF0030H   LINE      CODE     ---       #129
      00FF0033H   LINE      CODE     ---       #132
      00FF0035H   LINE      CODE     ---       #133
      00FF0038H   LINE      CODE     ---       #134
      00FF0038H   LINE      CODE     ---       #136
      00FF003AH   LINE      CODE     ---       #137
      00FF003DH   LINE      CODE     ---       #138
      00FF0041H   LINE      CODE     ---       #139
      ---         BLOCKEND  ---      ---       LVL=0

      00FF5A93H   BLOCK     CODE     ---       LVL=0
      R15         REGSYM    ---      BYTE      c
      00FF5A97H   BLOCK     CODE     NEAR LAB  LVL=1
      R14         REGSYM    ---      BYTE      i
      ---         BLOCKEND  ---      ---       LVL=1
      00FF5A93H   LINE      CODE     ---       #145
      00FF5A97H   LINE      CODE     ---       #146
      00FF5A97H   LINE      CODE     ---       #147
      00FF5A9AH   LINE      CODE     ---       #148
      00FF5A9CH   LINE      CODE     ---       #150
      00FF5AA5H   LINE      CODE     ---       #151
      00FF5AA7H   LINE      CODE     ---       #152
      00FF5AA9H   LINE      CODE     ---       #153
      00FF5AACH   LINE      CODE     ---       #154
      00FF5AAEH   LINE      CODE     ---       #155
      00FF5AB1H   LINE      CODE     ---       #156
      00FF5AB3H   LINE      CODE     ---       #157
      00FF5ABBH   LINE      CODE     ---       #158
      00FF5ABEH   LINE      CODE     ---       #159
      ---         BLOCKEND  ---      ---       LVL=0

      00FF58F6H   BLOCK     CODE     ---       LVL=0
      R15         REGSYM    ---      BYTE      ack_x
      00FF58FCH   BLOCK     CODE     NEAR LAB  LVL=1
      R13         REGSYM    ---      BYTE      i
      R14         REGSYM    ---      BYTE      c
      ---         BLOCKEND  ---      ---       LVL=1
      00FF58F6H   LINE      CODE     ---       #165
      00FF58FCH   LINE      CODE     ---       #166
      00FF58FCH   LINE      CODE     ---       #169
      00FF58FEH   LINE      CODE     ---       #170
      00FF5900H   LINE      CODE     ---       #171
      00FF5903H   LINE      CODE     ---       #172
      00FF5905H   LINE      CODE     ---       #174
      00FF5908H   LINE      CODE     ---       #176
      00FF590BH   LINE      CODE     ---       #177
      00FF590DH   LINE      CODE     ---       #178
      00FF5910H   LINE      CODE     ---       #179
      00FF5912H   LINE      CODE     ---       #180
      00FF5915H   LINE      CODE     ---       #181
      00FF5917H   LINE      CODE     ---       #182
      00FF591AH   LINE      CODE     ---       #184
      00FF591CH   LINE      CODE     ---       #185
      00FF5920H   LINE      CODE     ---       #188
      00FF5922H   LINE      CODE     ---       #189
      00FF5925H   LINE      CODE     ---       #190
      00FF592AH   LINE      CODE     ---       #192
      00FF592CH   LINE      CODE     ---       #193
      ---         BLOCKEND  ---      ---       LVL=0
L251 LINKER/LOCATER V4.66.93.0                                                        05/04/2023  22:29:11  PAGE 54



      00FF596AH   BLOCK     CODE     ---       LVL=0
      0000086FH   SYMBOL    EDATA    BYTE      dev_add
      00000870H   SYMBOL    EDATA    ---       dat
      DR12        REGSYM    ---      DWORD     len
      00FF596AH   LINE      CODE     ---       #205
      00FF5976H   LINE      CODE     ---       #207
      00FF5979H   LINE      CODE     ---       #208
      00FF597FH   LINE      CODE     ---       #209
      00FF5981H   LINE      CODE     ---       #211
      00FF5991H   LINE      CODE     ---       #212
      00FF5999H   LINE      CODE     ---       #215
      00FF599CH   LINE      CODE     ---       #216
      ---         BLOCKEND  ---      ---       LVL=0
      R13         REGSYM    ---      BYTE      dev_add
      R14         REGSYM    ---      BYTE      reg
      R15         REGSYM    ---      BYTE      dat
      R15         REGSYM    ---      BYTE      dev_add
      R14         REGSYM    ---      BYTE      reg
      R15         REGSYM    ---      BYTE      dat

      00FF54CBH   BLOCK     CODE     ---       LVL=0
      00000863H   SYMBOL    EDATA    BYTE      dev_add
      00000864H   SYMBOL    EDATA    BYTE      reg
      REG=3       REGSYM    ---      ---       dat_add
      00000865H   SYMBOL    EDATA    DWORD     num
      00FF54CBH   LINE      CODE     ---       #273
      00FF54D7H   LINE      CODE     ---       #275
      00FF54DAH   LINE      CODE     ---       #276
      00FF54E3H   LINE      CODE     ---       #277
      00FF54EAH   LINE      CODE     ---       #280
      00FF54EDH   LINE      CODE     ---       #281
      00FF54F8H   LINE      CODE     ---       #282
      00FF54FAH   LINE      CODE     ---       #284
      00FF5502H   LINE      CODE     ---       #285
      00FF5504H   LINE      CODE     ---       #286
      00FF5512H   LINE      CODE     ---       #287
      00FF5519H   LINE      CODE     ---       #288
      00FF551CH   LINE      CODE     ---       #289
      ---         BLOCKEND  ---      ---       LVL=0
      REG=3       REGSYM    ---      ---       dat_add
      REG=3       REGSYM    ---      ---       type_is_aperture

      00FF583FH   BLOCK     CODE     ---       LVL=0
      WR30        REGSYM    ---      WORD      timeout_period_mclks
      R5          REGSYM    ---      BYTE      vcsel_period_pclks
      00FF5841H   BLOCK     CODE     NEAR LAB  LVL=1
      DR24        REGSYM    ---      DWORD     macro_period_ns
      ---         BLOCKEND  ---      ---       LVL=1
      00FF583FH   LINE      CODE     ---       #417
      00FF5841H   LINE      CODE     ---       #418
      00FF5841H   LINE      CODE     ---       #419
      00FF5862H   LINE      CODE     ---       #421
      ---         BLOCKEND  ---      ---       LVL=0

      00FF58BAH   BLOCK     CODE     ---       LVL=0
      DR28        REGSYM    ---      DWORD     timeout_period_us
      R3          REGSYM    ---      BYTE      vcsel_period_pclks
      00FF58BCH   BLOCK     CODE     NEAR LAB  LVL=1
      DR8         REGSYM    ---      DWORD     macro_period_ns
      ---         BLOCKEND  ---      ---       LVL=1
      00FF58BAH   LINE      CODE     ---       #432
      00FF58BCH   LINE      CODE     ---       #433
      00FF58BCH   LINE      CODE     ---       #434
      00FF58DDH   LINE      CODE     ---       #436
L251 LINKER/LOCATER V4.66.93.0                                                        05/04/2023  22:29:11  PAGE 55


      ---         BLOCKEND  ---      ---       LVL=0

      00FF5E51H   BLOCK     CODE     ---       LVL=0
      WR4         REGSYM    ---      WORD      reg_val
      00FF5E51H   LINE      CODE     ---       #446
      00FF5E53H   LINE      CODE     ---       #449
      00FF5E60H   LINE      CODE     ---       #451
      ---         BLOCKEND  ---      ---       LVL=0

      00FF599FH   BLOCK     CODE     ---       LVL=0
      WR2         REGSYM    ---      WORD      timeout_mclks
      00FF59A1H   BLOCK     CODE     NEAR LAB  LVL=1
      DR8         REGSYM    ---      DWORD     ls_byte
      WR4         REGSYM    ---      WORD      ms_byte
      WR6         REGSYM    ---      WORD      return_data
      ---         BLOCKEND  ---      ---       LVL=1
      00FF599FH   LINE      CODE     ---       #460
      00FF59A1H   LINE      CODE     ---       #461
      00FF59A1H   LINE      CODE     ---       #462
      00FF59A1H   LINE      CODE     ---       #463
      00FF59A5H   LINE      CODE     ---       #464
      00FF59A5H   LINE      CODE     ---       #466
      00FF59ABH   LINE      CODE     ---       #469
      00FF59B1H   LINE      CODE     ---       #470
      00FF59B3H   LINE      CODE     ---       #472
      00FF59BCH   LINE      CODE     ---       #473
      00FF59BEH   LINE      CODE     ---       #474
      00FF59C8H   LINE      CODE     ---       #475
      00FF59D2H   LINE      CODE     ---       #476
      00FF59D2H   LINE      CODE     ---       #477
      00FF59D2H   LINE      CODE     ---       #478
      ---         BLOCKEND  ---      ---       LVL=0

      00FF541FH   BLOCK     CODE     ---       LVL=0
      REG=3       REGSYM    ---      ---       enables
      00FF5423H   BLOCK     CODE     NEAR LAB  LVL=1
      00000895H   SYMBOL    EDATA    BYTE      sequence_config
      ---         BLOCKEND  ---      ---       LVL=1
      00FF541FH   LINE      CODE     ---       #487
      00FF5423H   LINE      CODE     ---       #488
      00FF5423H   LINE      CODE     ---       #489
      00FF5428H   LINE      CODE     ---       #490
      00FF5439H   LINE      CODE     ---       #492
      00FF5443H   LINE      CODE     ---       #493
      00FF544FH   LINE      CODE     ---       #494
      00FF545DH   LINE      CODE     ---       #495
      00FF5469H   LINE      CODE     ---       #496
      00FF5474H   LINE      CODE     ---       #497
      ---         BLOCKEND  ---      ---       LVL=0

      00FF55C1H   BLOCK     CODE     ---       LVL=0
      WR6         REGSYM    ---      INT       type
      00000896H   SYMBOL    EDATA    BYTE      data_buffer
      00FF55C1H   LINE      CODE     ---       #506
      00FF55C1H   LINE      CODE     ---       #507
      00FF55C1H   LINE      CODE     ---       #508
      00FF55C6H   LINE      CODE     ---       #509
      00FF55CAH   LINE      CODE     ---       #511
      00FF55D7H   LINE      CODE     ---       #512
      00FF55D7H   LINE      CODE     ---       #513
      00FF55D9H   LINE      CODE     ---       #514
      00FF55DFH   LINE      CODE     ---       #516
      00FF55F3H   LINE      CODE     ---       #517
      00FF5601H   LINE      CODE     ---       #518
      00FF5603H   LINE      CODE     ---       #521
L251 LINKER/LOCATER V4.66.93.0                                                        05/04/2023  22:29:11  PAGE 56


      00FF5609H   LINE      CODE     ---       #522
      00FF5609H   LINE      CODE     ---       #523
      00FF560DH   LINE      CODE     ---       #524
      ---         BLOCKEND  ---      ---       LVL=0

      00FF49FFH   BLOCK     CODE     ---       LVL=0
      00000869H   SYMBOL    EDATA    ---       enables
      REG=3       REGSYM    ---      ---       timeouts
      00FF4A07H   BLOCK     CODE     NEAR LAB  LVL=1
      0000086DH   SYMBOL    EDATA    ---       reg_buffer
      WR6         REGSYM    ---      WORD      reg16_buffer
      ---         BLOCKEND  ---      ---       LVL=1
      00FF49FFH   LINE      CODE     ---       #534
      00FF4A07H   LINE      CODE     ---       #535
      00FF4A07H   LINE      CODE     ---       #537
      00FF4A07H   LINE      CODE     ---       #539
      00FF4A11H   LINE      CODE     ---       #541
      00FF4A25H   LINE      CODE     ---       #542
      00FF4A31H   LINE      CODE     ---       #543
      00FF4A3FH   LINE      CODE     ---       #545
      00FF4A53H   LINE      CODE     ---       #546
      00FF4A5FH   LINE      CODE     ---       #547
      00FF4A66H   LINE      CODE     ---       #548
      00FF4A74H   LINE      CODE     ---       #550
      00FF4A81H   LINE      CODE     ---       #552
      00FF4A95H   LINE      CODE     ---       #553
      00FF4AA1H   LINE      CODE     ---       #554
      00FF4AA8H   LINE      CODE     ---       #556
      00FF4AB2H   LINE      CODE     ---       #558
      00FF4AC4H   LINE      CODE     ---       #559
      00FF4AC4H   LINE      CODE     ---       #561
      00FF4AD7H   LINE      CODE     ---       #562
      ---         BLOCKEND  ---      ---       LVL=0
      R10         REGSYM    ---      BYTE      vhv_init_byte
      R15         REGSYM    ---      BYTE      return_state
      DR12        REGSYM    ---      DWORD     budget_us
      WR6         REGSYM    ---      WORD      dat
      DR4         REGSYM    ---      DWORD     final_range_timeout_us
      WR6         REGSYM    ---      WORD      final_range_timeout_mclks
      DR12        REGSYM    ---      DWORD     budget_us
      DR4         REGSYM    ---      FLOAT     limit_mcps
      WR6         REGSYM    ---      WORD      limit_mcps_16bit
      R15         REGSYM    ---      BYTE      return_state
      R14         REGSYM    ---      BYTE      reg_data_buffer
      R13         REGSYM    ---      BYTE      i

      ---         MODULE    ---      ---       SEEKFREE_FONT
      00FF20A6H   PUBLIC    CODE     ---       oled_8x16
      00FF2696H   PUBLIC    CODE     ---       tft_ascii
      00FF2C86H   PUBLIC    CODE     ---       oled_6x8
      000000D0H   SFRSYM    DATA     BYTE      PSW
      0000009DH   SFRSYM    DATA     BYTE      IRCBAND
      00000097H   SFRSYM    DATA     BYTE      AUXR2
      000000EFH   SFRSYM    DATA     BYTE      AUXINTIF
      000000FDH   SFRSYM    DATA     BYTE      S4CON
      000000ACH   SFRSYM    DATA     BYTE      S3CON
      0000009AH   SFRSYM    DATA     BYTE      S2CON
      000000B7H   SFRSYM    DATA     BYTE      IPH
      000000CDH   SFRSYM    DATA     BYTE      SPSTAT
      000000DDH   SFRSYM    DATA     BYTE      T4T3M
      000000C1H   SFRSYM    DATA     BYTE      WDT_CONTR
      000000DFH   SFRSYM    DATA     BYTE      IP3
      000000F4H   SFRSYM    DATA     BYTE      USBCON
      000000B5H   SFRSYM    DATA     BYTE      IP2
      000000FFH   SFRSYM    DATA     BYTE      RSTCFG
L251 LINKER/LOCATER V4.66.93.0                                                        05/04/2023  22:29:11  PAGE 57


      000000F9H   SFRSYM    DATA     BYTE      LINICR
      0000008EH   SFRSYM    DATA     BYTE      AUXR
      000000AFH   SFRSYM    DATA     BYTE      IE2
      00000088H   SFRSYM    DATA     BYTE      TCON
      00000098H   SFRSYM    DATA     BYTE      SCON
      000000F1H   SFRSYM    DATA     BYTE      CANICR
      00000087H   SFRSYM    DATA     BYTE      PCON
      000000BCH   SFRSYM    DATA     BYTE      ADC_CONTR
      000000E7H   SFRSYM    DATA     BYTE      CMPCR2
      000000E6H   SFRSYM    DATA     BYTE      CMPCR1
      000000B8H   SFRSYM    DATA     BYTE      IP
      0000008FH   SFRSYM    DATA     BYTE      INTCLKO
      000000EEH   SFRSYM    DATA     BYTE      IP3H
      000000B6H   SFRSYM    DATA     BYTE      IP2H
      000000A8H   SFRSYM    DATA     BYTE      IE
      000000BBH   SFRSYM    DATA     BYTE      P_SW3
      000000BAH   SFRSYM    DATA     BYTE      P_SW2
      000000A2H   SFRSYM    DATA     BYTE      P_SW1
      000000CEH   SFRSYM    DATA     BYTE      SPCTL
      000000F8H   SFRSYM    DATA     BYTE      P7
      000000E8H   SFRSYM    DATA     BYTE      P6
      000000C8H   SFRSYM    DATA     BYTE      P5
      000000C0H   SFRSYM    DATA     BYTE      P4
      000000B0H   SFRSYM    DATA     BYTE      P3
      000000A0H   SFRSYM    DATA     BYTE      P2
      00000090H   SFRSYM    DATA     BYTE      P1
      00000080H   SFRSYM    DATA     BYTE      P0

      ---         MODULE    ---      ---       SEEKFREE_ICM20602
      00000835H   PUBLIC    EDATA    INT       icm20602_acc_x
      00000837H   PUBLIC    EDATA    INT       icm20602_acc_y
      00000839H   PUBLIC    EDATA    INT       icm20602_acc_z
      0000083BH   PUBLIC    EDATA    INT       icm20602_gyro_x
      0000083DH   PUBLIC    EDATA    INT       icm20602_gyro_y
      0000083FH   PUBLIC    EDATA    INT       icm20602_gyro_z
      000000D0H   SFRSYM    DATA     BYTE      PSW
      0000009DH   SFRSYM    DATA     BYTE      IRCBAND
      00000097H   SFRSYM    DATA     BYTE      AUXR2
      000000EFH   SFRSYM    DATA     BYTE      AUXINTIF
      000000FDH   SFRSYM    DATA     BYTE      S4CON
      000000ACH   SFRSYM    DATA     BYTE      S3CON
      0000009AH   SFRSYM    DATA     BYTE      S2CON
      000000B7H   SFRSYM    DATA     BYTE      IPH
      000000CDH   SFRSYM    DATA     BYTE      SPSTAT
      000000DDH   SFRSYM    DATA     BYTE      T4T3M
      000000C1H   SFRSYM    DATA     BYTE      WDT_CONTR
      000000DFH   SFRSYM    DATA     BYTE      IP3
      000000F4H   SFRSYM    DATA     BYTE      USBCON
      000000B5H   SFRSYM    DATA     BYTE      IP2
      000000FFH   SFRSYM    DATA     BYTE      RSTCFG
      000000F9H   SFRSYM    DATA     BYTE      LINICR
      0000008EH   SFRSYM    DATA     BYTE      AUXR
      000000AFH   SFRSYM    DATA     BYTE      IE2
      000000C0H.3 SFRSYM    DATA     BIT       P43
      000000C0H.2 SFRSYM    DATA     BIT       P42
      00000088H   SFRSYM    DATA     BYTE      TCON
      000000C0H.1 SFRSYM    DATA     BIT       P41
      00000098H   SFRSYM    DATA     BYTE      SCON
      000000C0H.0 SFRSYM    DATA     BIT       P40
      000000F1H   SFRSYM    DATA     BYTE      CANICR
      00000087H   SFRSYM    DATA     BYTE      PCON
      000000BCH   SFRSYM    DATA     BYTE      ADC_CONTR
      000000E7H   SFRSYM    DATA     BYTE      CMPCR2
      000000E6H   SFRSYM    DATA     BYTE      CMPCR1
      000000B8H   SFRSYM    DATA     BYTE      IP
L251 LINKER/LOCATER V4.66.93.0                                                        05/04/2023  22:29:11  PAGE 58


      0000008FH   SFRSYM    DATA     BYTE      INTCLKO
      000000EEH   SFRSYM    DATA     BYTE      IP3H
      000000B6H   SFRSYM    DATA     BYTE      IP2H
      000000A8H   SFRSYM    DATA     BYTE      IE
      000000BBH   SFRSYM    DATA     BYTE      P_SW3
      000000BAH   SFRSYM    DATA     BYTE      P_SW2
      000000A2H   SFRSYM    DATA     BYTE      P_SW1
      000000CEH   SFRSYM    DATA     BYTE      SPCTL
      000000F8H   SFRSYM    DATA     BYTE      P7
      000000E8H   SFRSYM    DATA     BYTE      P6
      000000C8H   SFRSYM    DATA     BYTE      P5
      000000C0H   SFRSYM    DATA     BYTE      P4
      000000B0H   SFRSYM    DATA     BYTE      P3
      000000A0H   SFRSYM    DATA     BYTE      P2
      00000090H   SFRSYM    DATA     BYTE      P1
      00000080H   SFRSYM    DATA     BYTE      P0
      00FF5E0CH   SYMBOL    CODE     ---       icm20602_read_register
      00FF5BB4H   SYMBOL    CODE     ---       icm20602_simspi_wr_byte
      00FF5A05H   SYMBOL    CODE     ---       icm20602_simspi_r_reg_bytes
      00FF5D77H   SYMBOL    CODE     ---       icm20602_simspi_r_reg_byte

      00FF5BB4H   BLOCK     CODE     ---       LVL=0
      R6          REGSYM    ---      BYTE      byte
      00FF5BB6H   BLOCK     CODE     NEAR LAB  LVL=1
      R7          REGSYM    ---      BYTE      i
      ---         BLOCKEND  ---      ---       LVL=1
      00FF5BB4H   LINE      CODE     ---       #270
      00FF5BB6H   LINE      CODE     ---       #271
      00FF5BB6H   LINE      CODE     ---       #274
      00FF5BB8H   LINE      CODE     ---       #276
      00FF5BBDH   LINE      CODE     ---       #277
      00FF5BBFH   LINE      CODE     ---       #278
      00FF5BC1H   LINE      CODE     ---       #279
      00FF5BC3H   LINE      CODE     ---       #281
      00FF5BC5H   LINE      CODE     ---       #282
      00FF5BC7H   LINE      CODE     ---       #283
      00FF5BCDH   LINE      CODE     ---       #284
      00FF5BD4H   LINE      CODE     ---       #285
      00FF5BD6H   LINE      CODE     ---       #286
      ---         BLOCKEND  ---      ---       LVL=0
      R7          REGSYM    ---      BYTE      cmd
      R15         REGSYM    ---      BYTE      val

      00FF5D77H   BLOCK     CODE     ---       LVL=0
      R7          REGSYM    ---      BYTE      cmd
      REG=3       REGSYM    ---      ---       val
      00FF5D77H   LINE      CODE     ---       #332
      00FF5D7DH   LINE      CODE     ---       #335
      00FF5D80H   LINE      CODE     ---       #336
      00FF5D85H   LINE      CODE     ---       #337
      00FF5D8CH   LINE      CODE     ---       #339
      ---         BLOCKEND  ---      ---       LVL=0

      00FF5A05H   BLOCK     CODE     ---       LVL=0
      R7          REGSYM    ---      BYTE      cmd
      REG=3       REGSYM    ---      ---       val
      0000087CH   SYMBOL    EDATA    DWORD     num
      00FF5A0FH   BLOCK     CODE     NEAR LAB  LVL=1
      ---         BLOCKEND  ---      ---       LVL=1
      00FF5A05H   LINE      CODE     ---       #349
      00FF5A0FH   LINE      CODE     ---       #350
      00FF5A0FH   LINE      CODE     ---       #351
      00FF5A0FH   LINE      CODE     ---       #352
      00FF5A12H   LINE      CODE     ---       #353
      00FF5A17H   LINE      CODE     ---       #355
L251 LINKER/LOCATER V4.66.93.0                                                        05/04/2023  22:29:11  PAGE 59


      00FF5A19H   LINE      CODE     ---       #357
      00FF5A22H   LINE      CODE     ---       #358
      00FF5A32H   LINE      CODE     ---       #359
      ---         BLOCKEND  ---      ---       LVL=0
      R11         REGSYM    ---      BYTE      reg
      R7          REGSYM    ---      BYTE      dat

      00FF5E0CH   BLOCK     CODE     ---       LVL=0
      R7          REGSYM    ---      BYTE      reg
      00000897H   SYMBOL    EDATA    BYTE      dat
      00FF5E0CH   LINE      CODE     ---       #399
      00FF5E0CH   LINE      CODE     ---       #400
      00FF5E0CH   LINE      CODE     ---       #402
      00FF5E0EH   LINE      CODE     ---       #403
      00FF5E17H   LINE      CODE     ---       #404
      00FF5E19H   LINE      CODE     ---       #405
      00FF5E1DH   LINE      CODE     ---       #406
      ---         BLOCKEND  ---      ---       LVL=0
      R3          REGSYM    ---      BYTE      reg
      REG=1       REGSYM    ---      ---       dat
      DR28        REGSYM    ---      DWORD     len
      R14         REGSYM    ---      BYTE      dat
      R15         REGSYM    ---      BYTE      return_state
      WR12        REGSYM    ---      WORD      timeout_count
      WR8         REGSYM    ---      INT       acc_value
      DR4         REGSYM    ---      FLOAT     acc_data
      WR8         REGSYM    ---      INT       gyro_value
      DR4         REGSYM    ---      FLOAT     gyro_data
      R14         REGSYM    ---      BYTE      val
      R15         REGSYM    ---      BYTE      return_state
      WR12        REGSYM    ---      WORD      timeout_count

      ---         MODULE    ---      ---       SEEKFREE_IMU660RA
      00000841H   PUBLIC    EDATA    INT       imu660ra_acc_x
      00000843H   PUBLIC    EDATA    INT       imu660ra_acc_y
      00000845H   PUBLIC    EDATA    INT       imu660ra_acc_z
      00000847H   PUBLIC    EDATA    INT       imu660ra_gyro_x
      00000849H   PUBLIC    EDATA    INT       imu660ra_gyro_y
      0000084BH   PUBLIC    EDATA    INT       imu660ra_gyro_z
      000000D0H   SFRSYM    DATA     BYTE      PSW
      0000009DH   SFRSYM    DATA     BYTE      IRCBAND
      00000097H   SFRSYM    DATA     BYTE      AUXR2
      000000EFH   SFRSYM    DATA     BYTE      AUXINTIF
      000000FDH   SFRSYM    DATA     BYTE      S4CON
      000000ACH   SFRSYM    DATA     BYTE      S3CON
      0000009AH   SFRSYM    DATA     BYTE      S2CON
      000000B7H   SFRSYM    DATA     BYTE      IPH
      000000CDH   SFRSYM    DATA     BYTE      SPSTAT
      000000DDH   SFRSYM    DATA     BYTE      T4T3M
      000000C1H   SFRSYM    DATA     BYTE      WDT_CONTR
      000000DFH   SFRSYM    DATA     BYTE      IP3
      000000F4H   SFRSYM    DATA     BYTE      USBCON
      000000B5H   SFRSYM    DATA     BYTE      IP2
      000000FFH   SFRSYM    DATA     BYTE      RSTCFG
      000000F9H   SFRSYM    DATA     BYTE      LINICR
      0000008EH   SFRSYM    DATA     BYTE      AUXR
      000000AFH   SFRSYM    DATA     BYTE      IE2
      000000C0H.3 SFRSYM    DATA     BIT       P43
      000000C0H.2 SFRSYM    DATA     BIT       P42
      00000088H   SFRSYM    DATA     BYTE      TCON
      000000C0H.1 SFRSYM    DATA     BIT       P41
      00000098H   SFRSYM    DATA     BYTE      SCON
      000000C0H.0 SFRSYM    DATA     BIT       P40
      000000F1H   SFRSYM    DATA     BYTE      CANICR
      00000087H   SFRSYM    DATA     BYTE      PCON
L251 LINKER/LOCATER V4.66.93.0                                                        05/04/2023  22:29:11  PAGE 60


      000000BCH   SFRSYM    DATA     BYTE      ADC_CONTR
      000000E7H   SFRSYM    DATA     BYTE      CMPCR2
      000000E6H   SFRSYM    DATA     BYTE      CMPCR1
      000000B8H   SFRSYM    DATA     BYTE      IP
      0000008FH   SFRSYM    DATA     BYTE      INTCLKO
      000000EEH   SFRSYM    DATA     BYTE      IP3H
      000000B6H   SFRSYM    DATA     BYTE      IP2H
      000000A8H   SFRSYM    DATA     BYTE      IE
      000000BBH   SFRSYM    DATA     BYTE      P_SW3
      000000BAH   SFRSYM    DATA     BYTE      P_SW2
      000000A2H   SFRSYM    DATA     BYTE      P_SW1
      000000CEH   SFRSYM    DATA     BYTE      SPCTL
      000000F8H   SFRSYM    DATA     BYTE      P7
      000000E8H   SFRSYM    DATA     BYTE      P6
      000000C8H   SFRSYM    DATA     BYTE      P5
      000000C0H   SFRSYM    DATA     BYTE      P4
      000000B0H   SFRSYM    DATA     BYTE      P3
      000000A0H   SFRSYM    DATA     BYTE      P2
      00000090H   SFRSYM    DATA     BYTE      P1
      00000080H   SFRSYM    DATA     BYTE      P0
      00FF5DA6H   SYMBOL    CODE     ---       imu660ra_read_register
      00FF5BD7H   SYMBOL    CODE     ---       imu660ra_simspi_wr_byte
      00FF5A35H   SYMBOL    CODE     ---       imu660ra_simspi_r_reg_bytes

      00FF5BD7H   BLOCK     CODE     ---       LVL=0
      R6          REGSYM    ---      BYTE      byte
      00FF5BD9H   BLOCK     CODE     NEAR LAB  LVL=1
      R7          REGSYM    ---      BYTE      i
      ---         BLOCKEND  ---      ---       LVL=1
      00FF5BD7H   LINE      CODE     ---       #326
      00FF5BD9H   LINE      CODE     ---       #327
      00FF5BD9H   LINE      CODE     ---       #330
      00FF5BDBH   LINE      CODE     ---       #332
      00FF5BE0H   LINE      CODE     ---       #333
      00FF5BE2H   LINE      CODE     ---       #334
      00FF5BE4H   LINE      CODE     ---       #335
      00FF5BE6H   LINE      CODE     ---       #336
      00FF5BE8H   LINE      CODE     ---       #337
      00FF5BEAH   LINE      CODE     ---       #339
      00FF5BF0H   LINE      CODE     ---       #340
      00FF5BF7H   LINE      CODE     ---       #341
      00FF5BF9H   LINE      CODE     ---       #342
      ---         BLOCKEND  ---      ---       LVL=0
      R7          REGSYM    ---      BYTE      cmd
      R15         REGSYM    ---      BYTE      val
      R11         REGSYM    ---      BYTE      cmd
      DR12        REGSYM    ---      DWORD     len

      00FF5A35H   BLOCK     CODE     ---       LVL=0
      R7          REGSYM    ---      BYTE      cmd
      REG=3       REGSYM    ---      ---       val
      00000880H   SYMBOL    EDATA    DWORD     num
      00FF5A35H   LINE      CODE     ---       #399
      00FF5A3FH   LINE      CODE     ---       #401
      00FF5A42H   LINE      CODE     ---       #402
      00FF5A47H   LINE      CODE     ---       #404
      00FF5A49H   LINE      CODE     ---       #406
      00FF5A52H   LINE      CODE     ---       #407
      00FF5A62H   LINE      CODE     ---       #408
      ---         BLOCKEND  ---      ---       LVL=0
      R11         REGSYM    ---      BYTE      reg
      R7          REGSYM    ---      BYTE      dat
      R3          REGSYM    ---      BYTE      reg
      REG=1       REGSYM    ---      ---       dat
      DR28        REGSYM    ---      DWORD     len
L251 LINKER/LOCATER V4.66.93.0                                                        05/04/2023  22:29:11  PAGE 61



      00FF5DA6H   BLOCK     CODE     ---       LVL=0
      R7          REGSYM    ---      BYTE      reg
      00000891H   SYMBOL    EDATA    ---       dat
      00FF5DA6H   LINE      CODE     ---       #449
      00FF5DA6H   LINE      CODE     ---       #450
      00FF5DA6H   LINE      CODE     ---       #452
      00FF5DA8H   LINE      CODE     ---       #453
      00FF5DB5H   LINE      CODE     ---       #454
      00FF5DB7H   LINE      CODE     ---       #455
      00FF5DBBH   LINE      CODE     ---       #456
      ---         BLOCKEND  ---      ---       LVL=0
      R3          REGSYM    ---      BYTE      reg
      REG=1       REGSYM    ---      ---       dat
      DR28        REGSYM    ---      DWORD     len
      R14         REGSYM    ---      BYTE      dat
      R15         REGSYM    ---      BYTE      return_state
      WR12        REGSYM    ---      WORD      timeout_count
      WR8         REGSYM    ---      INT       acc_value
      DR4         REGSYM    ---      FLOAT     acc_dat
      WR8         REGSYM    ---      INT       gyro_value
      DR4         REGSYM    ---      FLOAT     gyro_dat
      R15         REGSYM    ---      BYTE      return_state

      ---         MODULE    ---      ---       SEEKFREE_IMU963RA
      00000813H   PUBLIC    EDATA    INT       imu963ra_acc_x
      00000815H   PUBLIC    EDATA    INT       imu963ra_acc_y
      00000817H   PUBLIC    EDATA    INT       imu963ra_acc_z
      00000819H   PUBLIC    EDATA    INT       imu963ra_mag_x
      0000081BH   PUBLIC    EDATA    INT       imu963ra_mag_y
      0000081DH   PUBLIC    EDATA    INT       imu963ra_mag_z
      0000081FH   PUBLIC    EDATA    INT       imu963ra_gyro_x
      00000821H   PUBLIC    EDATA    INT       imu963ra_gyro_y
      00000823H   PUBLIC    EDATA    INT       imu963ra_gyro_z
      000000D0H   SFRSYM    DATA     BYTE      PSW
      0000009DH   SFRSYM    DATA     BYTE      IRCBAND
      00000097H   SFRSYM    DATA     BYTE      AUXR2
      000000EFH   SFRSYM    DATA     BYTE      AUXINTIF
      000000FDH   SFRSYM    DATA     BYTE      S4CON
      000000ACH   SFRSYM    DATA     BYTE      S3CON
      0000009AH   SFRSYM    DATA     BYTE      S2CON
      000000B7H   SFRSYM    DATA     BYTE      IPH
      000000CDH   SFRSYM    DATA     BYTE      SPSTAT
      000000DDH   SFRSYM    DATA     BYTE      T4T3M
      000000C1H   SFRSYM    DATA     BYTE      WDT_CONTR
      000000DFH   SFRSYM    DATA     BYTE      IP3
      000000F4H   SFRSYM    DATA     BYTE      USBCON
      000000B5H   SFRSYM    DATA     BYTE      IP2
      000000FFH   SFRSYM    DATA     BYTE      RSTCFG
      000000F9H   SFRSYM    DATA     BYTE      LINICR
      0000008EH   SFRSYM    DATA     BYTE      AUXR
      000000AFH   SFRSYM    DATA     BYTE      IE2
      000000C0H.4 SFRSYM    DATA     BIT       P44
      000000C0H.3 SFRSYM    DATA     BIT       P43
      000000C0H.2 SFRSYM    DATA     BIT       P42
      00000088H   SFRSYM    DATA     BYTE      TCON
      000000C0H.1 SFRSYM    DATA     BIT       P41
      00000098H   SFRSYM    DATA     BYTE      SCON
      000000F1H   SFRSYM    DATA     BYTE      CANICR
      00000087H   SFRSYM    DATA     BYTE      PCON
      000000BCH   SFRSYM    DATA     BYTE      ADC_CONTR
      000000E7H   SFRSYM    DATA     BYTE      CMPCR2
      000000E6H   SFRSYM    DATA     BYTE      CMPCR1
      000000B8H   SFRSYM    DATA     BYTE      IP
      0000008FH   SFRSYM    DATA     BYTE      INTCLKO
L251 LINKER/LOCATER V4.66.93.0                                                        05/04/2023  22:29:11  PAGE 62


      000000EEH   SFRSYM    DATA     BYTE      IP3H
      000000B6H   SFRSYM    DATA     BYTE      IP2H
      000000A8H   SFRSYM    DATA     BYTE      IE
      000000BBH   SFRSYM    DATA     BYTE      P_SW3
      000000BAH   SFRSYM    DATA     BYTE      P_SW2
      000000A2H   SFRSYM    DATA     BYTE      P_SW1
      000000CEH   SFRSYM    DATA     BYTE      SPCTL
      000000F8H   SFRSYM    DATA     BYTE      P7
      000000E8H   SFRSYM    DATA     BYTE      P6
      000000C8H   SFRSYM    DATA     BYTE      P5
      000000C0H   SFRSYM    DATA     BYTE      P4
      000000B0H   SFRSYM    DATA     BYTE      P3
      000000A0H   SFRSYM    DATA     BYTE      P2
      00000090H   SFRSYM    DATA     BYTE      P1
      00000080H   SFRSYM    DATA     BYTE      P0
      00FF5BFAH   SYMBOL    CODE     ---       imu963ra_simspi_wr_byte
      00FF551FH   SYMBOL    CODE     ---       imu963ra_read_mag_register
      00FF5CF8H   SYMBOL    CODE     ---       imu963ra_read_acc_gyro_register
      00FF0066H   SYMBOL    CODE     ---       imu963ra_simspi_r_reg_byte
      00FF5EC6H   SYMBOL    CODE     ---       imu963ra_write_acc_gyro_register
      00FF5DE6H   SYMBOL    CODE     ---       imu963ra_simspi_w_reg_byte

      00FF5BFAH   BLOCK     CODE     ---       LVL=0
      R6          REGSYM    ---      BYTE      byte
      00FF5BFCH   BLOCK     CODE     NEAR LAB  LVL=1
      R7          REGSYM    ---      BYTE      i
      ---         BLOCKEND  ---      ---       LVL=1
      00FF5BFAH   LINE      CODE     ---       #361
      00FF5BFCH   LINE      CODE     ---       #362
      00FF5BFCH   LINE      CODE     ---       #365
      00FF5BFEH   LINE      CODE     ---       #367
      00FF5C03H   LINE      CODE     ---       #368
      00FF5C05H   LINE      CODE     ---       #369
      00FF5C07H   LINE      CODE     ---       #370
      00FF5C09H   LINE      CODE     ---       #372
      00FF5C0BH   LINE      CODE     ---       #373
      00FF5C0DH   LINE      CODE     ---       #374
      00FF5C13H   LINE      CODE     ---       #375
      00FF5C1AH   LINE      CODE     ---       #376
      00FF5C1CH   LINE      CODE     ---       #377
      ---         BLOCKEND  ---      ---       LVL=0

      00FF5DE6H   BLOCK     CODE     ---       LVL=0
      R7          REGSYM    ---      BYTE      cmd
      R15         REGSYM    ---      BYTE      val
      00FF5DE6H   LINE      CODE     ---       #385
      00FF5DEAH   LINE      CODE     ---       #387
      00FF5DECH   LINE      CODE     ---       #388
      00FF5DECH   LINE      CODE     ---       #389
      00FF5DEFH   LINE      CODE     ---       #390
      00FF5DF4H   LINE      CODE     ---       #391
      00FF5DF6H   LINE      CODE     ---       #392
      ---         BLOCKEND  ---      ---       LVL=0

      00FF0066H   BLOCK     CODE     ---       LVL=0
      R7          REGSYM    ---      BYTE      cmd
      REG=3       REGSYM    ---      ---       val
      00FF0066H   LINE      CODE     ---       #423
      00FF006CH   LINE      CODE     ---       #425
      00FF006EH   LINE      CODE     ---       #426
      00FF0071H   LINE      CODE     ---       #427
      00FF0076H   LINE      CODE     ---       #428
      00FF007DH   LINE      CODE     ---       #429
      00FF007FH   LINE      CODE     ---       #430
      ---         BLOCKEND  ---      ---       LVL=0
L251 LINKER/LOCATER V4.66.93.0                                                        05/04/2023  22:29:11  PAGE 63


      R7          REGSYM    ---      BYTE      cmd
      REG=3       REGSYM    ---      ---       val

      00FF5EC6H   BLOCK     CODE     ---       LVL=0
      R11         REGSYM    ---      BYTE      reg
      R7          REGSYM    ---      BYTE      dat
      00FF5EC6H   LINE      CODE     ---       #462
      00FF5EC6H   LINE      CODE     ---       #464
      00FF5EC8H   LINE      CODE     ---       #465
      00FF5ECBH   LINE      CODE     ---       #467
      00FF5ECDH   LINE      CODE     ---       #468
      ---         BLOCKEND  ---      ---       LVL=0

      00FF5CF8H   BLOCK     CODE     ---       LVL=0
      R10         REGSYM    ---      BYTE      reg
      00FF5CFAH   BLOCK     CODE     NEAR LAB  LVL=1
      00000898H   SYMBOL    EDATA    BYTE      dat
      ---         BLOCKEND  ---      ---       LVL=1
      00FF5CF8H   LINE      CODE     ---       #477
      00FF5CFAH   LINE      CODE     ---       #478
      00FF5CFAH   LINE      CODE     ---       #479
      00FF5CFFH   LINE      CODE     ---       #480
      00FF5D01H   LINE      CODE     ---       #481
      00FF5D0CH   LINE      CODE     ---       #482
      00FF5D0EH   LINE      CODE     ---       #483
      00FF5D12H   LINE      CODE     ---       #484
      ---         BLOCKEND  ---      ---       LVL=0
      R3          REGSYM    ---      BYTE      reg
      REG=1       REGSYM    ---      ---       dat
      DR28        REGSYM    ---      DWORD     len
      R15         REGSYM    ---      BYTE      addr
      R13         REGSYM    ---      BYTE      reg
      R14         REGSYM    ---      BYTE      dat
      R12         REGSYM    ---      BYTE      return_state

      00FF551FH   BLOCK     CODE     ---       LVL=0
      R10         REGSYM    ---      BYTE      addr
      R15         REGSYM    ---      BYTE      reg
      00FF5527H   BLOCK     CODE     NEAR LAB  LVL=1
      WR12        REGSYM    ---      WORD      timeout_count
      ---         BLOCKEND  ---      ---       LVL=1
      00FF551FH   LINE      CODE     ---       #546
      00FF5527H   LINE      CODE     ---       #547
      00FF5527H   LINE      CODE     ---       #548
      00FF5529H   LINE      CODE     ---       #550
      00FF552BH   LINE      CODE     ---       #551
      00FF5535H   LINE      CODE     ---       #552
      00FF553CH   LINE      CODE     ---       #553
      00FF5544H   LINE      CODE     ---       #554
      00FF554CH   LINE      CODE     ---       #557
      00FF554EH   LINE      CODE     ---       #559
      00FF5558H   LINE      CODE     ---       #561
      00FF5558H   LINE      CODE     ---       #562
      00FF5558H   LINE      CODE     ---       #563
      00FF555FH   LINE      CODE     ---       #564
      00FF5567H   LINE      CODE     ---       #566
      00FF556CH   LINE      CODE     ---       #567
      ---         BLOCKEND  ---      ---       LVL=0
      R10         REGSYM    ---      BYTE      addr
      R15         REGSYM    ---      BYTE      reg
      R15         REGSYM    ---      BYTE      return_state
      R14         REGSYM    ---      BYTE      dat
      WR12        REGSYM    ---      WORD      timeout_count
      R15         REGSYM    ---      BYTE      return_state
      R14         REGSYM    ---      BYTE      dat
L251 LINKER/LOCATER V4.66.93.0                                                        05/04/2023  22:29:11  PAGE 64


      WR12        REGSYM    ---      WORD      timeout_count
      R11         REGSYM    ---      BYTE      temp_status
      WR8         REGSYM    ---      INT       mag_value
      DR4         REGSYM    ---      FLOAT     mag_dat
      R15         REGSYM    ---      BYTE      return_state

      ---         MODULE    ---      ---       SEEKFREE_IPS114_SPI
      00FF5C9DH   PUBLIC    CODE     ---       ips114_writedata_16bit
      00FF5AEFH   PUBLIC    CODE     ---       ips114_writeDatai_16bit_simspi
      00FF5B1BH   PUBLIC    CODE     ---       ips114_writeIndex_simspi
      00FF5EB3H   PUBLIC    CODE     ---       ips114_writeIndex
      000000D0H   SFRSYM    DATA     BYTE      PSW
      0000009DH   SFRSYM    DATA     BYTE      IRCBAND
      00000097H   SFRSYM    DATA     BYTE      AUXR2
      000000EFH   SFRSYM    DATA     BYTE      AUXINTIF
      000000FDH   SFRSYM    DATA     BYTE      S4CON
      000000ACH   SFRSYM    DATA     BYTE      S3CON
      0000009AH   SFRSYM    DATA     BYTE      S2CON
      000000B7H   SFRSYM    DATA     BYTE      IPH
      000000CDH   SFRSYM    DATA     BYTE      SPSTAT
      000000DDH   SFRSYM    DATA     BYTE      T4T3M
      000000C1H   SFRSYM    DATA     BYTE      WDT_CONTR
      000000DFH   SFRSYM    DATA     BYTE      IP3
      000000F4H   SFRSYM    DATA     BYTE      USBCON
      000000B5H   SFRSYM    DATA     BYTE      IP2
      000000FFH   SFRSYM    DATA     BYTE      RSTCFG
      000000F9H   SFRSYM    DATA     BYTE      LINICR
      0000008EH   SFRSYM    DATA     BYTE      AUXR
      000000AFH   SFRSYM    DATA     BYTE      IE2
      000000A0H.7 SFRSYM    DATA     BIT       P27
      000000A0H.5 SFRSYM    DATA     BIT       P25
      00000088H   SFRSYM    DATA     BYTE      TCON
      000000A0H.3 SFRSYM    DATA     BIT       P23
      00000098H   SFRSYM    DATA     BYTE      SCON
      000000A0H.2 SFRSYM    DATA     BIT       P22
      000000A0H.1 SFRSYM    DATA     BIT       P21
      000000A0H.0 SFRSYM    DATA     BIT       P20
      000000F1H   SFRSYM    DATA     BYTE      CANICR
      00000087H   SFRSYM    DATA     BYTE      PCON
      000000BCH   SFRSYM    DATA     BYTE      ADC_CONTR
      000000E7H   SFRSYM    DATA     BYTE      CMPCR2
      000000E6H   SFRSYM    DATA     BYTE      CMPCR1
      000000B8H   SFRSYM    DATA     BYTE      IP
      0000008FH   SFRSYM    DATA     BYTE      INTCLKO
      000000EEH   SFRSYM    DATA     BYTE      IP3H
      000000B6H   SFRSYM    DATA     BYTE      IP2H
      000000A8H   SFRSYM    DATA     BYTE      IE
      000000BBH   SFRSYM    DATA     BYTE      P_SW3
      000000BAH   SFRSYM    DATA     BYTE      P_SW2
      000000A2H   SFRSYM    DATA     BYTE      P_SW1
      000000CEH   SFRSYM    DATA     BYTE      SPCTL
      000000F8H   SFRSYM    DATA     BYTE      P7
      000000E8H   SFRSYM    DATA     BYTE      P6
      000000C8H   SFRSYM    DATA     BYTE      P5
      000000C0H   SFRSYM    DATA     BYTE      P4
      000000B0H   SFRSYM    DATA     BYTE      P3
      000000A0H   SFRSYM    DATA     BYTE      P2
      00000090H   SFRSYM    DATA     BYTE      P1
      00000080H   SFRSYM    DATA     BYTE      P0

      00FF5B1BH   BLOCK     CODE     ---       LVL=0
      R7          REGSYM    ---      BYTE      dat
      00FF5B1DH   BLOCK     CODE     NEAR LAB  LVL=1
      R6          REGSYM    ---      BYTE      i
      ---         BLOCKEND  ---      ---       LVL=1
L251 LINKER/LOCATER V4.66.93.0                                                        05/04/2023  22:29:11  PAGE 65


      00FF5B1BH   LINE      CODE     ---       #61
      00FF5B1DH   LINE      CODE     ---       #62
      00FF5B1DH   LINE      CODE     ---       #63
      00FF5B20H   LINE      CODE     ---       #64
      00FF5B22H   LINE      CODE     ---       #65
      00FF5B24H   LINE      CODE     ---       #67
      00FF5B26H   LINE      CODE     ---       #69
      00FF5B28H   LINE      CODE     ---       #71
      00FF5B31H   LINE      CODE     ---       #72
      00FF5B33H   LINE      CODE     ---       #73
      00FF5B35H   LINE      CODE     ---       #75
      00FF5B37H   LINE      CODE     ---       #76
      00FF5B39H   LINE      CODE     ---       #77
      00FF5B41H   LINE      CODE     ---       #78
      00FF5B43H   LINE      CODE     ---       #79
      ---         BLOCKEND  ---      ---       LVL=0
      R7          REGSYM    ---      BYTE      dat
      R6          REGSYM    ---      BYTE      i

      00FF5AEFH   BLOCK     CODE     ---       LVL=0
      WR4         REGSYM    ---      WORD      dat
      00FF5AF1H   BLOCK     CODE     NEAR LAB  LVL=1
      R10         REGSYM    ---      BYTE      i
      ---         BLOCKEND  ---      ---       LVL=1
      00FF5AEFH   LINE      CODE     ---       #115
      00FF5AF1H   LINE      CODE     ---       #116
      00FF5AF1H   LINE      CODE     ---       #117
      00FF5AF4H   LINE      CODE     ---       #118
      00FF5AF6H   LINE      CODE     ---       #119
      00FF5AF8H   LINE      CODE     ---       #120
      00FF5AFAH   LINE      CODE     ---       #121
      00FF5AFCH   LINE      CODE     ---       #123
      00FF5B08H   LINE      CODE     ---       #124
      00FF5B0AH   LINE      CODE     ---       #125
      00FF5B0CH   LINE      CODE     ---       #127
      00FF5B0EH   LINE      CODE     ---       #128
      00FF5B10H   LINE      CODE     ---       #129
      00FF5B18H   LINE      CODE     ---       #130
      00FF5B1AH   LINE      CODE     ---       #131
      ---         BLOCKEND  ---      ---       LVL=0
      WR12        REGSYM    ---      WORD      x2
      WR14        REGSYM    ---      WORD      y2
      WR14        REGSYM    ---      WORD      color
      R13         REGSYM    ---      BYTE      i
      WR2         REGSYM    ---      WORD      x
      WR0         REGSYM    ---      WORD      y
      WR14        REGSYM    ---      WORD      color
      WR12        REGSYM    ---      WORD      x
      WR14        REGSYM    ---      WORD      y
      REG=3       REGSYM    ---      ---       dat
      WR12        REGSYM    ---      WORD      x
      WR14        REGSYM    ---      WORD      y
      WR12        REGSYM    ---      WORD      x
      WR14        REGSYM    ---      WORD      y
      R10         REGSYM    ---      BYTE      dat
      WR12        REGSYM    ---      WORD      x
      WR14        REGSYM    ---      WORD      y
      WR12        REGSYM    ---      WORD      x
      WR14        REGSYM    ---      WORD      y
      WR2         REGSYM    ---      WORD      dat
      WR12        REGSYM    ---      WORD      y
      R15         REGSYM    ---      BYTE      num
      R14         REGSYM    ---      BYTE      length
      DR12        REGSYM    ---      FLOAT     dat
      R7          REGSYM    ---      CHAR      point
L251 LINKER/LOCATER V4.66.93.0                                                        05/04/2023  22:29:11  PAGE 66



      00FF5EB3H   BLOCK     CODE     ---       LVL=0
      R7          REGSYM    ---      BYTE      dat
      00FF5EB3H   LINE      CODE     ---       #594
      00FF5EB3H   LINE      CODE     ---       #596
      00FF5EB5H   LINE      CODE     ---       #597
      00FF5EB7H   LINE      CODE     ---       #599
      00FF5EBAH   LINE      CODE     ---       #600
      00FF5EBCH   LINE      CODE     ---       #601
      ---         BLOCKEND  ---      ---       LVL=0
      R7          REGSYM    ---      BYTE      dat

      00FF5C9DH   BLOCK     CODE     ---       LVL=0
      WR4         REGSYM    ---      WORD      dat
      00FF5C9FH   BLOCK     CODE     NEAR LAB  LVL=1
      00000893H   SYMBOL    EDATA    ---       dat1
      ---         BLOCKEND  ---      ---       LVL=1
      00FF5C9DH   LINE      CODE     ---       #626
      00FF5C9FH   LINE      CODE     ---       #627
      00FF5C9FH   LINE      CODE     ---       #629
      00FF5CA3H   LINE      CODE     ---       #630
      00FF5CA7H   LINE      CODE     ---       #631
      00FF5CA9H   LINE      CODE     ---       #632
      00FF5CABH   LINE      CODE     ---       #633
      00FF5CB2H   LINE      CODE     ---       #634
      00FF5CB9H   LINE      CODE     ---       #635
      00FF5CBBH   LINE      CODE     ---       #636
      ---         BLOCKEND  ---      ---       LVL=0
      WR12        REGSYM    ---      WORD      x2
      WR14        REGSYM    ---      WORD      y2
      WR14        REGSYM    ---      WORD      color
      R13         REGSYM    ---      BYTE      i
      WR2         REGSYM    ---      WORD      x
      WR0         REGSYM    ---      WORD      y
      WR14        REGSYM    ---      WORD      color
      WR12        REGSYM    ---      WORD      x
      WR14        REGSYM    ---      WORD      y
      REG=3       REGSYM    ---      ---       dat
      WR12        REGSYM    ---      WORD      x
      WR14        REGSYM    ---      WORD      y
      WR12        REGSYM    ---      WORD      x
      WR14        REGSYM    ---      WORD      y
      R10         REGSYM    ---      BYTE      dat
      WR12        REGSYM    ---      WORD      x
      WR14        REGSYM    ---      WORD      y
      WR12        REGSYM    ---      WORD      x
      WR14        REGSYM    ---      WORD      y
      WR2         REGSYM    ---      WORD      dat
      WR12        REGSYM    ---      WORD      y
      R15         REGSYM    ---      BYTE      num
      R14         REGSYM    ---      BYTE      length
      DR12        REGSYM    ---      FLOAT     dat
      R7          REGSYM    ---      CHAR      point

      ---         MODULE    ---      ---       SEEKFREE_MPU6050
      0000084DH   PUBLIC    EDATA    INT       mpu6050_acc_x
      0000084FH   PUBLIC    EDATA    INT       mpu6050_acc_y
      00000851H   PUBLIC    EDATA    INT       mpu6050_acc_z
      00000853H   PUBLIC    EDATA    INT       mpu6050_gyro_x
      00000855H   PUBLIC    EDATA    INT       mpu6050_gyro_y
      00000857H   PUBLIC    EDATA    INT       mpu6050_gyro_z
      000000D0H   SFRSYM    DATA     BYTE      PSW
      0000009DH   SFRSYM    DATA     BYTE      IRCBAND
      00000097H   SFRSYM    DATA     BYTE      AUXR2
      000000EFH   SFRSYM    DATA     BYTE      AUXINTIF
L251 LINKER/LOCATER V4.66.93.0                                                        05/04/2023  22:29:11  PAGE 67


      000000FDH   SFRSYM    DATA     BYTE      S4CON
      000000ACH   SFRSYM    DATA     BYTE      S3CON
      0000009AH   SFRSYM    DATA     BYTE      S2CON
      000000B7H   SFRSYM    DATA     BYTE      IPH
      000000CDH   SFRSYM    DATA     BYTE      SPSTAT
      000000DDH   SFRSYM    DATA     BYTE      T4T3M
      000000C1H   SFRSYM    DATA     BYTE      WDT_CONTR
      000000DFH   SFRSYM    DATA     BYTE      IP3
      000000F4H   SFRSYM    DATA     BYTE      USBCON
      000000B5H   SFRSYM    DATA     BYTE      IP2
      000000FFH   SFRSYM    DATA     BYTE      RSTCFG
      000000F9H   SFRSYM    DATA     BYTE      LINICR
      0000008EH   SFRSYM    DATA     BYTE      AUXR
      000000AFH   SFRSYM    DATA     BYTE      IE2
      00000088H   SFRSYM    DATA     BYTE      TCON
      000000C0H.1 SFRSYM    DATA     BIT       P41
      00000098H   SFRSYM    DATA     BYTE      SCON
      000000C0H.0 SFRSYM    DATA     BIT       P40
      000000F1H   SFRSYM    DATA     BYTE      CANICR
      00000087H   SFRSYM    DATA     BYTE      PCON
      000000BCH   SFRSYM    DATA     BYTE      ADC_CONTR
      000000E7H   SFRSYM    DATA     BYTE      CMPCR2
      000000E6H   SFRSYM    DATA     BYTE      CMPCR1
      000000B8H   SFRSYM    DATA     BYTE      IP
      0000008FH   SFRSYM    DATA     BYTE      INTCLKO
      000000EEH   SFRSYM    DATA     BYTE      IP3H
      000000B6H   SFRSYM    DATA     BYTE      IP2H
      000000A8H   SFRSYM    DATA     BYTE      IE
      000000BBH   SFRSYM    DATA     BYTE      P_SW3
      000000BAH   SFRSYM    DATA     BYTE      P_SW2
      000000A2H   SFRSYM    DATA     BYTE      P_SW1
      000000CEH   SFRSYM    DATA     BYTE      SPCTL
      000000F8H   SFRSYM    DATA     BYTE      P7
      000000E8H   SFRSYM    DATA     BYTE      P6
      000000C8H   SFRSYM    DATA     BYTE      P5
      000000C0H   SFRSYM    DATA     BYTE      P4
      000000B0H   SFRSYM    DATA     BYTE      P3
      000000A0H   SFRSYM    DATA     BYTE      P2
      00000090H   SFRSYM    DATA     BYTE      P1
      00000080H   SFRSYM    DATA     BYTE      P0
      00FF5E70H   SYMBOL    CODE     ---       mpu6050_simiic_start
      00FF5E40H   SYMBOL    CODE     ---       mpu6050_simiic_stop
      00FF5C5DH   SYMBOL    CODE     ---       mpu6050_simiic_sendack
      00FF5EA8H   SYMBOL    CODE     ---       mpu6050_simiic_delay

      00FF5EA8H   BLOCK     CODE     ---       LVL=0
      WR6         REGSYM    ---      WORD      j
      00FF5EA8H   LINE      CODE     ---       #52
      00FF5EA8H   LINE      CODE     ---       #53
      00FF5EA8H   LINE      CODE     ---       #54
      00FF5EAAH   LINE      CODE     ---       #55
      00FF5EB2H   LINE      CODE     ---       #56
      ---         BLOCKEND  ---      ---       LVL=0

      00FF5E70H   BLOCK     CODE     ---       LVL=0
      00FF5E70H   LINE      CODE     ---       #59
      00FF5E70H   LINE      CODE     ---       #61
      00FF5E72H   LINE      CODE     ---       #62
      00FF5E74H   LINE      CODE     ---       #63
      00FF5E77H   LINE      CODE     ---       #64
      00FF5E79H   LINE      CODE     ---       #65
      00FF5E7CH   LINE      CODE     ---       #66
      00FF5E7EH   LINE      CODE     ---       #67
      ---         BLOCKEND  ---      ---       LVL=0

L251 LINKER/LOCATER V4.66.93.0                                                        05/04/2023  22:29:11  PAGE 68


      00FF5E40H   BLOCK     CODE     ---       LVL=0
      00FF5E40H   LINE      CODE     ---       #70
      00FF5E40H   LINE      CODE     ---       #72
      00FF5E42H   LINE      CODE     ---       #73
      00FF5E44H   LINE      CODE     ---       #74
      00FF5E47H   LINE      CODE     ---       #75
      00FF5E49H   LINE      CODE     ---       #76
      00FF5E4CH   LINE      CODE     ---       #77
      00FF5E4EH   LINE      CODE     ---       #78
      ---         BLOCKEND  ---      ---       LVL=0

      00FF5C5DH   BLOCK     CODE     ---       LVL=0
      R15         REGSYM    ---      BYTE      ack_dat
      00FF5C5DH   LINE      CODE     ---       #83
      00FF5C61H   LINE      CODE     ---       #85
      00FF5C63H   LINE      CODE     ---       #86
      00FF5C66H   LINE      CODE     ---       #87
      00FF5C6EH   LINE      CODE     ---       #88
      00FF5C70H   LINE      CODE     ---       #90
      00FF5C72H   LINE      CODE     ---       #91
      00FF5C75H   LINE      CODE     ---       #92
      00FF5C77H   LINE      CODE     ---       #93
      00FF5C7AH   LINE      CODE     ---       #94
      ---         BLOCKEND  ---      ---       LVL=0
      R15         REGSYM    ---      BYTE      c
      R14         REGSYM    ---      BYTE      i
      R15         REGSYM    ---      BYTE      ack_x
      R13         REGSYM    ---      BYTE      i
      R14         REGSYM    ---      BYTE      c
      R13         REGSYM    ---      BYTE      dev_add
      R14         REGSYM    ---      BYTE      reg
      R15         REGSYM    ---      BYTE      dat
      R15         REGSYM    ---      BYTE      dev_add
      R14         REGSYM    ---      BYTE      reg
      R15         REGSYM    ---      BYTE      dat
      REG=3       REGSYM    ---      ---       dat_add

      ---         MODULE    ---      ---       SEEKFREE_PRINTF
      000000D0H   SFRSYM    DATA     BYTE      PSW
      0000009DH   SFRSYM    DATA     BYTE      IRCBAND
      00000097H   SFRSYM    DATA     BYTE      AUXR2
      000000EFH   SFRSYM    DATA     BYTE      AUXINTIF
      000000FDH   SFRSYM    DATA     BYTE      S4CON
      000000ACH   SFRSYM    DATA     BYTE      S3CON
      0000009AH   SFRSYM    DATA     BYTE      S2CON
      000000B7H   SFRSYM    DATA     BYTE      IPH
      000000CDH   SFRSYM    DATA     BYTE      SPSTAT
      000000DDH   SFRSYM    DATA     BYTE      T4T3M
      000000C1H   SFRSYM    DATA     BYTE      WDT_CONTR
      000000DFH   SFRSYM    DATA     BYTE      IP3
      000000F4H   SFRSYM    DATA     BYTE      USBCON
      000000B5H   SFRSYM    DATA     BYTE      IP2
      000000FFH   SFRSYM    DATA     BYTE      RSTCFG
      000000F9H   SFRSYM    DATA     BYTE      LINICR
      0000008EH   SFRSYM    DATA     BYTE      AUXR
      000000AFH   SFRSYM    DATA     BYTE      IE2
      00000088H   SFRSYM    DATA     BYTE      TCON
      00000098H   SFRSYM    DATA     BYTE      SCON
      000000F1H   SFRSYM    DATA     BYTE      CANICR
      00000087H   SFRSYM    DATA     BYTE      PCON
      000000BCH   SFRSYM    DATA     BYTE      ADC_CONTR
      000000E7H   SFRSYM    DATA     BYTE      CMPCR2
      000000E6H   SFRSYM    DATA     BYTE      CMPCR1
      000000B8H   SFRSYM    DATA     BYTE      IP
      0000008FH   SFRSYM    DATA     BYTE      INTCLKO
L251 LINKER/LOCATER V4.66.93.0                                                        05/04/2023  22:29:11  PAGE 69


      000000EEH   SFRSYM    DATA     BYTE      IP3H
      000000B6H   SFRSYM    DATA     BYTE      IP2H
      000000A8H   SFRSYM    DATA     BYTE      IE
      000000BBH   SFRSYM    DATA     BYTE      P_SW3
      000000BAH   SFRSYM    DATA     BYTE      P_SW2
      000000A2H   SFRSYM    DATA     BYTE      P_SW1
      000000CEH   SFRSYM    DATA     BYTE      SPCTL
      000000F8H   SFRSYM    DATA     BYTE      P7
      000000E8H   SFRSYM    DATA     BYTE      P6
      000000C8H   SFRSYM    DATA     BYTE      P5
      000000C0H   SFRSYM    DATA     BYTE      P4
      000000B0H   SFRSYM    DATA     BYTE      P3
      000000A0H   SFRSYM    DATA     BYTE      P2
      00000090H   SFRSYM    DATA     BYTE      P1
      00000080H   SFRSYM    DATA     BYTE      P0
      DR24        REGSYM    ---      DWORD     dat
      REG=7       REGSYM    ---      ---       p
      R10         REGSYM    ---      BYTE      neg_type
      DR20        REGSYM    ---      LONG      neg_dat
      DR24        REGSYM    ---      DWORD     pos_dat
      R14         REGSYM    ---      BYTE      temp_data
      R15         REGSYM    ---      BYTE      valid_num
      REG=7       REGSYM    ---      ---       d_buff
      DR24        REGSYM    ---      DWORD     len
      DR4         REGSYM    ---      DWORD     i
      R3          REGSYM    ---      CHAR      temp_data
      REG=3       REGSYM    ---      ---       buff

      ---         MODULE    ---      ---       SEEKFREE_TSL1401
      000003C9H   PUBLIC    EDATA    BYTE      tsl1401_finish_flag
      000003CAH   PUBLIC    EDATA    ---       ccd_data
      000000D0H   SFRSYM    DATA     BYTE      PSW
      0000009DH   SFRSYM    DATA     BYTE      IRCBAND
      00000097H   SFRSYM    DATA     BYTE      AUXR2
      000000EFH   SFRSYM    DATA     BYTE      AUXINTIF
      000000FDH   SFRSYM    DATA     BYTE      S4CON
      000000ACH   SFRSYM    DATA     BYTE      S3CON
      0000009AH   SFRSYM    DATA     BYTE      S2CON
      000000B7H   SFRSYM    DATA     BYTE      IPH
      000000CDH   SFRSYM    DATA     BYTE      SPSTAT
      000000DDH   SFRSYM    DATA     BYTE      T4T3M
      000000C1H   SFRSYM    DATA     BYTE      WDT_CONTR
      000000DFH   SFRSYM    DATA     BYTE      IP3
      000000F4H   SFRSYM    DATA     BYTE      USBCON
      000000B5H   SFRSYM    DATA     BYTE      IP2
      000000FFH   SFRSYM    DATA     BYTE      RSTCFG
      000000F9H   SFRSYM    DATA     BYTE      LINICR
      0000008EH   SFRSYM    DATA     BYTE      AUXR
      000000AFH   SFRSYM    DATA     BYTE      IE2
      000000B0H.3 SFRSYM    DATA     BIT       P33
      00000088H   SFRSYM    DATA     BYTE      TCON
      000000B0H.2 SFRSYM    DATA     BIT       P32
      00000098H   SFRSYM    DATA     BYTE      SCON
      000000F1H   SFRSYM    DATA     BYTE      CANICR
      00000087H   SFRSYM    DATA     BYTE      PCON
      000000BCH   SFRSYM    DATA     BYTE      ADC_CONTR
      000000E7H   SFRSYM    DATA     BYTE      CMPCR2
      000000E6H   SFRSYM    DATA     BYTE      CMPCR1
      000000B8H   SFRSYM    DATA     BYTE      IP
      0000008FH   SFRSYM    DATA     BYTE      INTCLKO
      000000EEH   SFRSYM    DATA     BYTE      IP3H
      000000B6H   SFRSYM    DATA     BYTE      IP2H
      000000A8H   SFRSYM    DATA     BYTE      IE
      000000BBH   SFRSYM    DATA     BYTE      P_SW3
      000000BAH   SFRSYM    DATA     BYTE      P_SW2
L251 LINKER/LOCATER V4.66.93.0                                                        05/04/2023  22:29:11  PAGE 70


      000000A2H   SFRSYM    DATA     BYTE      P_SW1
      000000CEH   SFRSYM    DATA     BYTE      SPCTL
      000000F8H   SFRSYM    DATA     BYTE      P7
      000000E8H   SFRSYM    DATA     BYTE      P6
      000000C8H   SFRSYM    DATA     BYTE      P5
      000000C0H   SFRSYM    DATA     BYTE      P4
      000000B0H   SFRSYM    DATA     BYTE      P3
      000000A0H   SFRSYM    DATA     BYTE      P2
      00000090H   SFRSYM    DATA     BYTE      P1
      00000080H   SFRSYM    DATA     BYTE      P0
      REG=3       REGSYM    ---      ---       dat
      R15         REGSYM    ---      BYTE      i

      ---         MODULE    ---      ---       SEEKFREE_VIRSCO
      00000859H   PUBLIC    EDATA    ---       virtual_scope_data
      000000D0H   SFRSYM    DATA     BYTE      PSW
      0000009DH   SFRSYM    DATA     BYTE      IRCBAND
      00000097H   SFRSYM    DATA     BYTE      AUXR2
      000000EFH   SFRSYM    DATA     BYTE      AUXINTIF
      000000FDH   SFRSYM    DATA     BYTE      S4CON
      000000ACH   SFRSYM    DATA     BYTE      S3CON
      0000009AH   SFRSYM    DATA     BYTE      S2CON
      000000B7H   SFRSYM    DATA     BYTE      IPH
      000000CDH   SFRSYM    DATA     BYTE      SPSTAT
      000000DDH   SFRSYM    DATA     BYTE      T4T3M
      000000C1H   SFRSYM    DATA     BYTE      WDT_CONTR
      000000DFH   SFRSYM    DATA     BYTE      IP3
      000000F4H   SFRSYM    DATA     BYTE      USBCON
      000000B5H   SFRSYM    DATA     BYTE      IP2
      000000FFH   SFRSYM    DATA     BYTE      RSTCFG
      000000F9H   SFRSYM    DATA     BYTE      LINICR
      0000008EH   SFRSYM    DATA     BYTE      AUXR
      000000AFH   SFRSYM    DATA     BYTE      IE2
      00000088H   SFRSYM    DATA     BYTE      TCON
      00000098H   SFRSYM    DATA     BYTE      SCON
      000000F1H   SFRSYM    DATA     BYTE      CANICR
      00000087H   SFRSYM    DATA     BYTE      PCON
      000000BCH   SFRSYM    DATA     BYTE      ADC_CONTR
      000000E7H   SFRSYM    DATA     BYTE      CMPCR2
      000000E6H   SFRSYM    DATA     BYTE      CMPCR1
      000000B8H   SFRSYM    DATA     BYTE      IP
      0000008FH   SFRSYM    DATA     BYTE      INTCLKO
      000000EEH   SFRSYM    DATA     BYTE      IP3H
      000000B6H   SFRSYM    DATA     BYTE      IP2H
      000000A8H   SFRSYM    DATA     BYTE      IE
      000000BBH   SFRSYM    DATA     BYTE      P_SW3
      000000BAH   SFRSYM    DATA     BYTE      P_SW2
      000000A2H   SFRSYM    DATA     BYTE      P_SW1
      000000CEH   SFRSYM    DATA     BYTE      SPCTL
      000000F8H   SFRSYM    DATA     BYTE      P7
      000000E8H   SFRSYM    DATA     BYTE      P6
      000000C8H   SFRSYM    DATA     BYTE      P5
      000000C0H   SFRSYM    DATA     BYTE      P4
      000000B0H   SFRSYM    DATA     BYTE      P3
      000000A0H   SFRSYM    DATA     BYTE      P2
      00000090H   SFRSYM    DATA     BYTE      P1
      00000080H   SFRSYM    DATA     BYTE      P0
      REG=7       REGSYM    ---      ---       Buf
      R10         REGSYM    ---      BYTE      CRC_CNT
      WR6         REGSYM    ---      WORD      CRC_Temp
      R5          REGSYM    ---      BYTE      i
      R4          REGSYM    ---      BYTE      j
      WR0         REGSYM    ---      INT       data1
      WR30        REGSYM    ---      INT       data2
      WR8         REGSYM    ---      INT       data3
L251 LINKER/LOCATER V4.66.93.0                                                        05/04/2023  22:29:11  PAGE 71


      WR10        REGSYM    ---      INT       data4
      WR6         REGSYM    ---      WORD      CRC16

      ---         MODULE    ---      ---       SEEKFREE_WIRELESS
      00FF5D45H   PUBLIC    CODE     ---       wireless_uart_callback
      000000D0H   SFRSYM    DATA     BYTE      PSW
      0000009DH   SFRSYM    DATA     BYTE      IRCBAND
      00000097H   SFRSYM    DATA     BYTE      AUXR2
      000000EFH   SFRSYM    DATA     BYTE      AUXINTIF
      000000FDH   SFRSYM    DATA     BYTE      S4CON
      000000ACH   SFRSYM    DATA     BYTE      S3CON
      0000009AH   SFRSYM    DATA     BYTE      S2CON
      000000FEH   SFRSYM    DATA     BYTE      S4BUF
      000000B7H   SFRSYM    DATA     BYTE      IPH
      000000CDH   SFRSYM    DATA     BYTE      SPSTAT
      000000DDH   SFRSYM    DATA     BYTE      T4T3M
      000000C1H   SFRSYM    DATA     BYTE      WDT_CONTR
      000000DFH   SFRSYM    DATA     BYTE      IP3
      000000F4H   SFRSYM    DATA     BYTE      USBCON
      000000B5H   SFRSYM    DATA     BYTE      IP2
      000000FFH   SFRSYM    DATA     BYTE      RSTCFG
      000000F9H   SFRSYM    DATA     BYTE      LINICR
      0000008EH   SFRSYM    DATA     BYTE      AUXR
      000000AFH   SFRSYM    DATA     BYTE      IE2
      00000080H.7 SFRSYM    DATA     BIT       P07
      00000088H   SFRSYM    DATA     BYTE      TCON
      00000098H   SFRSYM    DATA     BYTE      SCON
      000000F1H   SFRSYM    DATA     BYTE      CANICR
      00000087H   SFRSYM    DATA     BYTE      PCON
      000000BCH   SFRSYM    DATA     BYTE      ADC_CONTR
      000000E7H   SFRSYM    DATA     BYTE      CMPCR2
      000000E6H   SFRSYM    DATA     BYTE      CMPCR1
      000000B8H   SFRSYM    DATA     BYTE      IP
      0000008FH   SFRSYM    DATA     BYTE      INTCLKO
      000000EEH   SFRSYM    DATA     BYTE      IP3H
      000000B6H   SFRSYM    DATA     BYTE      IP2H
      000000A8H   SFRSYM    DATA     BYTE      IE
      000000BBH   SFRSYM    DATA     BYTE      P_SW3
      000000BAH   SFRSYM    DATA     BYTE      P_SW2
      000000A2H   SFRSYM    DATA     BYTE      P_SW1
      000000CEH   SFRSYM    DATA     BYTE      SPCTL
      000000F8H   SFRSYM    DATA     BYTE      P7
      000000E8H   SFRSYM    DATA     BYTE      P6
      000000C8H   SFRSYM    DATA     BYTE      P5
      000000C0H   SFRSYM    DATA     BYTE      P4
      000000B0H   SFRSYM    DATA     BYTE      P3
      000000A0H   SFRSYM    DATA     BYTE      P2
      00000090H   SFRSYM    DATA     BYTE      P1
      00000080H   SFRSYM    DATA     BYTE      P0
      0000072FH   SYMBOL    EDATA    BYTE      wireless_uart_data
      00000730H   SYMBOL    EDATA    ---       wireless_uart_fifo
      00000744H   SYMBOL    EDATA    ---       wireless_uart_buffer

      00FF5D45H   BLOCK     CODE     ---       LVL=0
      00FF5D45H   LINE      CODE     ---       #48
      00FF5D45H   LINE      CODE     ---       #51
      00FF5D4BH   LINE      CODE     ---       #52
      ---         BLOCKEND  ---      ---       LVL=0
      REG=3       REGSYM    ---      ---       buff
      REG=7       REGSYM    ---      ---       buff
      DR8         REGSYM    ---      DWORD     len

      ---         MODULE    ---      ---       SEEKFREE_WIRELESS_CH573
      00FF5D5EH   PUBLIC    CODE     ---       wireless_ch573_callback
      000000D0H   SFRSYM    DATA     BYTE      PSW
L251 LINKER/LOCATER V4.66.93.0                                                        05/04/2023  22:29:11  PAGE 72


      0000009DH   SFRSYM    DATA     BYTE      IRCBAND
      00000097H   SFRSYM    DATA     BYTE      AUXR2
      000000EFH   SFRSYM    DATA     BYTE      AUXINTIF
      000000FDH   SFRSYM    DATA     BYTE      S4CON
      000000ACH   SFRSYM    DATA     BYTE      S3CON
      0000009AH   SFRSYM    DATA     BYTE      S2CON
      000000FEH   SFRSYM    DATA     BYTE      S4BUF
      000000B7H   SFRSYM    DATA     BYTE      IPH
      000000CDH   SFRSYM    DATA     BYTE      SPSTAT
      000000DDH   SFRSYM    DATA     BYTE      T4T3M
      000000C1H   SFRSYM    DATA     BYTE      WDT_CONTR
      000000DFH   SFRSYM    DATA     BYTE      IP3
      000000F4H   SFRSYM    DATA     BYTE      USBCON
      000000B5H   SFRSYM    DATA     BYTE      IP2
      000000FFH   SFRSYM    DATA     BYTE      RSTCFG
      000000F9H   SFRSYM    DATA     BYTE      LINICR
      0000008EH   SFRSYM    DATA     BYTE      AUXR
      000000AFH   SFRSYM    DATA     BYTE      IE2
      00000080H.7 SFRSYM    DATA     BIT       P07
      00000088H   SFRSYM    DATA     BYTE      TCON
      00000098H   SFRSYM    DATA     BYTE      SCON
      000000F1H   SFRSYM    DATA     BYTE      CANICR
      00000087H   SFRSYM    DATA     BYTE      PCON
      000000BCH   SFRSYM    DATA     BYTE      ADC_CONTR
      000000E7H   SFRSYM    DATA     BYTE      CMPCR2
      000000E6H   SFRSYM    DATA     BYTE      CMPCR1
      000000B8H   SFRSYM    DATA     BYTE      IP
      0000008FH   SFRSYM    DATA     BYTE      INTCLKO
      000000EEH   SFRSYM    DATA     BYTE      IP3H
      000000B6H   SFRSYM    DATA     BYTE      IP2H
      000000A8H   SFRSYM    DATA     BYTE      IE
      000000BBH   SFRSYM    DATA     BYTE      P_SW3
      000000BAH   SFRSYM    DATA     BYTE      P_SW2
      000000A2H   SFRSYM    DATA     BYTE      P_SW1
      000000CEH   SFRSYM    DATA     BYTE      SPCTL
      000000F8H   SFRSYM    DATA     BYTE      P7
      000000E8H   SFRSYM    DATA     BYTE      P6
      000000C8H   SFRSYM    DATA     BYTE      P5
      000000C0H   SFRSYM    DATA     BYTE      P4
      000000B0H   SFRSYM    DATA     BYTE      P3
      000000A0H   SFRSYM    DATA     BYTE      P2
      00000090H   SFRSYM    DATA     BYTE      P1
      00000080H   SFRSYM    DATA     BYTE      P0
      00000784H   SYMBOL    EDATA    ---       wireless_ch573_buffer
      000007C4H   SYMBOL    EDATA    BYTE      wireless_ch573_data
      000007C5H   SYMBOL    EDATA    ---       wireless_ch573_fifo

      00FF5D5EH   BLOCK     CODE     ---       LVL=0
      00FF5D5EH   LINE      CODE     ---       #39
      00FF5D5EH   LINE      CODE     ---       #42
      00FF5D64H   LINE      CODE     ---       #43
      ---         BLOCKEND  ---      ---       LVL=0
      REG=3       REGSYM    ---      ---       buff
      REG=7       REGSYM    ---      ---       buff
      DR8         REGSYM    ---      DWORD     len

      ---         MODULE    ---      ---       isr
      00FF587DH   PUBLIC    CODE     ---       UART1_Isr
      00FF5CBCH   PUBLIC    CODE     ---       UART2_Isr
      00FF5CDAH   PUBLIC    CODE     ---       UART3_Isr
      00FF5180H   PUBLIC    CODE     ---       UART4_Isr
      00FF5EF6H   PUBLIC    CODE     ---       INT0_Isr
      00FF0011H   PUBLIC    CODE     ---       INT1_Isr
      00FF5ECEH   PUBLIC    CODE     ---       INT2_Isr
      00FF5ED6H   PUBLIC    CODE     ---       INT3_Isr
L251 LINKER/LOCATER V4.66.93.0                                                        05/04/2023  22:29:11  PAGE 73


      00FF5EDEH   PUBLIC    CODE     ---       INT4_Isr
      00FF0012H   PUBLIC    CODE     ---       TM0_Isr
      00FF0016H   PUBLIC    CODE     ---       TM1_Isr
      00FF5EE6H   PUBLIC    CODE     ---       TM2_Isr
      00FF5EEEH   PUBLIC    CODE     ---       TM3_Isr
      00FF45AEH   PUBLIC    CODE     ---       TM4_Isr
      000000D0H   SFRSYM    DATA     BYTE      PSW
      0000009DH   SFRSYM    DATA     BYTE      IRCBAND
      00000097H   SFRSYM    DATA     BYTE      AUXR2
      000000EFH   SFRSYM    DATA     BYTE      AUXINTIF
      000000FDH   SFRSYM    DATA     BYTE      S4CON
      000000ACH   SFRSYM    DATA     BYTE      S3CON
      0000009AH   SFRSYM    DATA     BYTE      S2CON
      000000B7H   SFRSYM    DATA     BYTE      IPH
      000000CDH   SFRSYM    DATA     BYTE      SPSTAT
      000000DDH   SFRSYM    DATA     BYTE      T4T3M
      000000C1H   SFRSYM    DATA     BYTE      WDT_CONTR
      000000DFH   SFRSYM    DATA     BYTE      IP3
      000000F4H   SFRSYM    DATA     BYTE      USBCON
      000000B5H   SFRSYM    DATA     BYTE      IP2
      000000FFH   SFRSYM    DATA     BYTE      RSTCFG
      000000C7H   SFRSYM    DATA     BYTE      IAP_CONTR
      000000F9H   SFRSYM    DATA     BYTE      LINICR
      0000008EH   SFRSYM    DATA     BYTE      AUXR
      000000AFH   SFRSYM    DATA     BYTE      IE2
      00000080H.7 SFRSYM    DATA     BIT       P07
      00000088H   SFRSYM    DATA     BYTE      TCON
      00000098H   SFRSYM    DATA     BYTE      SCON
      000000F1H   SFRSYM    DATA     BYTE      CANICR
      00000087H   SFRSYM    DATA     BYTE      PCON
      00000099H   SFRSYM    DATA     BYTE      SBUF
      000000BCH   SFRSYM    DATA     BYTE      ADC_CONTR
      000000E7H   SFRSYM    DATA     BYTE      CMPCR2
      000000E6H   SFRSYM    DATA     BYTE      CMPCR1
      000000B8H   SFRSYM    DATA     BYTE      IP
      0000008FH   SFRSYM    DATA     BYTE      INTCLKO
      000000EEH   SFRSYM    DATA     BYTE      IP3H
      000000B6H   SFRSYM    DATA     BYTE      IP2H
      000000A8H   SFRSYM    DATA     BYTE      IE
      000000BBH   SFRSYM    DATA     BYTE      P_SW3
      000000BAH   SFRSYM    DATA     BYTE      P_SW2
      000000A2H   SFRSYM    DATA     BYTE      P_SW1
      000000CEH   SFRSYM    DATA     BYTE      SPCTL
      000000F8H   SFRSYM    DATA     BYTE      P7
      000000E8H   SFRSYM    DATA     BYTE      P6
      000000C8H   SFRSYM    DATA     BYTE      P5
      000000C0H   SFRSYM    DATA     BYTE      P4
      000000B0H   SFRSYM    DATA     BYTE      P3
      000000A0H   SFRSYM    DATA     BYTE      P2
      00000090H   SFRSYM    DATA     BYTE      P1
      00000080H   SFRSYM    DATA     BYTE      P0

      00FF587DH   BLOCK     CODE     ---       LVL=0
      00FF5881H   BLOCK     CODE     NEAR LAB  LVL=1
      R11         REGSYM    ---      BYTE      res
      00000899H   SYMBOL    EDATA    BYTE      dwon_count
      ---         BLOCKEND  ---      ---       LVL=1
      00FF587DH   LINE      CODE     ---       #22
      00FF5881H   LINE      CODE     ---       #23
      00FF5881H   LINE      CODE     ---       #26
      00FF5886H   LINE      CODE     ---       #28
      00FF5889H   LINE      CODE     ---       #29
      00FF588EH   LINE      CODE     ---       #30
      00FF588EH   LINE      CODE     ---       #31
      00FF5893H   LINE      CODE     ---       #33
L251 LINKER/LOCATER V4.66.93.0                                                        05/04/2023  22:29:11  PAGE 74


      00FF5896H   LINE      CODE     ---       #34
      00FF5898H   LINE      CODE     ---       #36
      00FF589BH   LINE      CODE     ---       #38
      00FF58ABH   LINE      CODE     ---       #39
      00FF58AEH   LINE      CODE     ---       #40
      00FF58B0H   LINE      CODE     ---       #43
      00FF58B5H   LINE      CODE     ---       #44
      00FF58B5H   LINE      CODE     ---       #45
      ---         BLOCKEND  ---      ---       LVL=0

      00FF5CBCH   BLOCK     CODE     ---       LVL=0
      00FF5CBCH   LINE      CODE     ---       #49
      00FF5CC0H   LINE      CODE     ---       #51
      00FF5CC5H   LINE      CODE     ---       #53
      00FF5CC8H   LINE      CODE     ---       #54
      00FF5CCDH   LINE      CODE     ---       #55
      00FF5CCDH   LINE      CODE     ---       #56
      00FF5CD2H   LINE      CODE     ---       #58
      00FF5CD5H   LINE      CODE     ---       #61
      ---         BLOCKEND  ---      ---       LVL=0

      00FF5CDAH   BLOCK     CODE     ---       LVL=0
      00FF5CDAH   LINE      CODE     ---       #66
      00FF5CDEH   LINE      CODE     ---       #68
      00FF5CE3H   LINE      CODE     ---       #70
      00FF5CE6H   LINE      CODE     ---       #71
      00FF5CEBH   LINE      CODE     ---       #72
      00FF5CEBH   LINE      CODE     ---       #73
      00FF5CF0H   LINE      CODE     ---       #75
      00FF5CF3H   LINE      CODE     ---       #78
      ---         BLOCKEND  ---      ---       LVL=0

      00FF5180H   BLOCK     CODE     ---       LVL=0
      00FF5180H   LINE      CODE     ---       #83
      00FF5198H   LINE      CODE     ---       #85
      00FF519DH   LINE      CODE     ---       #87
      00FF51A0H   LINE      CODE     ---       #88
      00FF51A5H   LINE      CODE     ---       #89
      00FF51A5H   LINE      CODE     ---       #90
      00FF51AAH   LINE      CODE     ---       #92
      00FF51ADH   LINE      CODE     ---       #95
      00FF51B7H   LINE      CODE     ---       #97
      00FF51BAH   LINE      CODE     ---       #98
      00FF51BCH   LINE      CODE     ---       #99
      00FF51C2H   LINE      CODE     ---       #101
      00FF51C5H   LINE      CODE     ---       #102
      00FF51C7H   LINE      CODE     ---       #103
      00FF51CDH   LINE      CODE     ---       #105
      00FF51D0H   LINE      CODE     ---       #106
      00FF51D0H   LINE      CODE     ---       #108
      ---         BLOCKEND  ---      ---       LVL=0

      00FF5EF6H   BLOCK     CODE     ---       LVL=0
      00FF5EF6H   LINE      CODE     ---       #111
      00FF5EF8H   LINE      CODE     ---       #113
      00FF5EFAH   LINE      CODE     ---       #114
      ---         BLOCKEND  ---      ---       LVL=0

      00FF0011H   BLOCK     CODE     ---       LVL=0
      00FF0011H   LINE      CODE     ---       #115
      00FF0011H   LINE      CODE     ---       #118
      ---         BLOCKEND  ---      ---       LVL=0

      00FF5ECEH   BLOCK     CODE     ---       LVL=0
      00FF5ECEH   LINE      CODE     ---       #119
L251 LINKER/LOCATER V4.66.93.0                                                        05/04/2023  22:29:11  PAGE 75


      00FF5ED0H   LINE      CODE     ---       #121
      00FF5ED3H   LINE      CODE     ---       #122
      ---         BLOCKEND  ---      ---       LVL=0

      00FF5ED6H   BLOCK     CODE     ---       LVL=0
      00FF5ED6H   LINE      CODE     ---       #123
      00FF5ED8H   LINE      CODE     ---       #125
      00FF5EDBH   LINE      CODE     ---       #126
      ---         BLOCKEND  ---      ---       LVL=0

      00FF5EDEH   BLOCK     CODE     ---       LVL=0
      00FF5EDEH   LINE      CODE     ---       #128
      00FF5EE0H   LINE      CODE     ---       #130
      00FF5EE3H   LINE      CODE     ---       #131
      ---         BLOCKEND  ---      ---       LVL=0

      00FF0012H   BLOCK     CODE     ---       LVL=0
      00FF0012H   LINE      CODE     ---       #133
      00FF0012H   LINE      CODE     ---       #136
      ---         BLOCKEND  ---      ---       LVL=0

      00FF0016H   BLOCK     CODE     ---       LVL=0
      00FF0016H   LINE      CODE     ---       #137
      00FF0016H   LINE      CODE     ---       #140
      ---         BLOCKEND  ---      ---       LVL=0

      00FF5EE6H   BLOCK     CODE     ---       LVL=0
      00FF5EE6H   LINE      CODE     ---       #141
      00FF5EE8H   LINE      CODE     ---       #143
      00FF5EEBH   LINE      CODE     ---       #145
      ---         BLOCKEND  ---      ---       LVL=0

      00FF5EEEH   BLOCK     CODE     ---       LVL=0
      00FF5EEEH   LINE      CODE     ---       #146
      00FF5EF0H   LINE      CODE     ---       #148
      00FF5EF3H   LINE      CODE     ---       #150
      ---         BLOCKEND  ---      ---       LVL=0

      00FF45AEH   BLOCK     CODE     ---       LVL=0
      00FF45AEH   LINE      CODE     ---       #152
      00FF45C4H   LINE      CODE     ---       #154
      00FF45C7H   LINE      CODE     ---       #156
      00FF45EFH   LINE      CODE     ---       #157
      00FF45F5H   LINE      CODE     ---       #159
      00FF4601H   LINE      CODE     ---       #161
      00FF4604H   LINE      CODE     ---       #162
      00FF4613H   LINE      CODE     ---       #163
      00FF4616H   LINE      CODE     ---       #164
      00FF4619H   LINE      CODE     ---       #166
      00FF4620H   LINE      CODE     ---       #168
      00FF463BH   LINE      CODE     ---       #170
      00FF463BH   LINE      CODE     ---       #171
      00FF464EH   LINE      CODE     ---       #172
      00FF465AH   LINE      CODE     ---       #173
      00FF4660H   LINE      CODE     ---       #174
      00FF4662H   LINE      CODE     ---       #176
      00FF4662H   LINE      CODE     ---       #177
      00FF4662H   LINE      CODE     ---       #178
      00FF4662H   LINE      CODE     ---       #179
      00FF4664H   LINE      CODE     ---       #181
      00FF4664H   LINE      CODE     ---       #182
      00FF4677H   LINE      CODE     ---       #183
      00FF4683H   LINE      CODE     ---       #184
      00FF4685H   LINE      CODE     ---       #186
      00FF4685H   LINE      CODE     ---       #187
L251 LINKER/LOCATER V4.66.93.0                                                        05/04/2023  22:29:11  PAGE 76


      00FF4698H   LINE      CODE     ---       #188
      00FF46A4H   LINE      CODE     ---       #189
      00FF46AAH   LINE      CODE     ---       #190
      00FF46ACH   LINE      CODE     ---       #192
      00FF46ACH   LINE      CODE     ---       #193
      00FF46C7H   LINE      CODE     ---       #194
      00FF46D3H   LINE      CODE     ---       #195
      00FF46DDH   LINE      CODE     ---       #196
      00FF46DDH   LINE      CODE     ---       #197
      00FF46DDH   LINE      CODE     ---       #199
      00FF46E0H   LINE      CODE     ---       #200
      00FF46E3H   LINE      CODE     ---       #202
      00FF46EEH   LINE      CODE     ---       #206
      ---         BLOCKEND  ---      ---       LVL=0

      ---         MODULE    ---      ---       main
      00FF4827H   PUBLIC    CODE     ---       main
      000000D0H   SFRSYM    DATA     BYTE      PSW
      0000009DH   SFRSYM    DATA     BYTE      IRCBAND
      00000097H   SFRSYM    DATA     BYTE      AUXR2
      000000EFH   SFRSYM    DATA     BYTE      AUXINTIF
      000000FDH   SFRSYM    DATA     BYTE      S4CON
      000000ACH   SFRSYM    DATA     BYTE      S3CON
      0000009AH   SFRSYM    DATA     BYTE      S2CON
      000000B7H   SFRSYM    DATA     BYTE      IPH
      000000CDH   SFRSYM    DATA     BYTE      SPSTAT
      000000DDH   SFRSYM    DATA     BYTE      T4T3M
      000000C1H   SFRSYM    DATA     BYTE      WDT_CONTR
      000000DFH   SFRSYM    DATA     BYTE      IP3
      000000F4H   SFRSYM    DATA     BYTE      USBCON
      000000B5H   SFRSYM    DATA     BYTE      IP2
      000000FFH   SFRSYM    DATA     BYTE      RSTCFG
      000000F9H   SFRSYM    DATA     BYTE      LINICR
      0000008EH   SFRSYM    DATA     BYTE      AUXR
      000000AFH   SFRSYM    DATA     BYTE      IE2
      00000080H.7 SFRSYM    DATA     BIT       P07
      00000088H   SFRSYM    DATA     BYTE      TCON
      000000C8H.0 SFRSYM    DATA     BIT       P50
      00000098H   SFRSYM    DATA     BYTE      SCON
      000000F1H   SFRSYM    DATA     BYTE      CANICR
      00000087H   SFRSYM    DATA     BYTE      PCON
      000000BCH   SFRSYM    DATA     BYTE      ADC_CONTR
      000000E7H   SFRSYM    DATA     BYTE      CMPCR2
      000000E6H   SFRSYM    DATA     BYTE      CMPCR1
      000000B8H   SFRSYM    DATA     BYTE      IP
      0000008FH   SFRSYM    DATA     BYTE      INTCLKO
      000000EEH   SFRSYM    DATA     BYTE      IP3H
      000000B6H   SFRSYM    DATA     BYTE      IP2H
      000000A8H   SFRSYM    DATA     BYTE      IE
      000000BBH   SFRSYM    DATA     BYTE      P_SW3
      000000BAH   SFRSYM    DATA     BYTE      P_SW2
      000000A2H   SFRSYM    DATA     BYTE      P_SW1
      000000CEH   SFRSYM    DATA     BYTE      SPCTL
      000000F8H   SFRSYM    DATA     BYTE      P7
      000000E8H   SFRSYM    DATA     BYTE      P6
      000000C8H   SFRSYM    DATA     BYTE      P5
      000000C0H   SFRSYM    DATA     BYTE      P4
      000000B0H   SFRSYM    DATA     BYTE      P3
      000000A0H   SFRSYM    DATA     BYTE      P2
      00000090H   SFRSYM    DATA     BYTE      P1
      00000080H   SFRSYM    DATA     BYTE      P0

      00FF4827H   BLOCK     CODE     ---       LVL=0
      WR6         REGSYM    ---      INT       adc_err_read
      00FF4827H   LINE      CODE     ---       #30
L251 LINKER/LOCATER V4.66.93.0                                                        05/04/2023  22:29:11  PAGE 77


      00FF4827H   LINE      CODE     ---       #31
      00FF4827H   LINE      CODE     ---       #33
      00FF482AH   LINE      CODE     ---       #37
      00FF485FH   LINE      CODE     ---       #38
      00FF489AH   LINE      CODE     ---       #39
      00FF489DH   LINE      CODE     ---       #40
      00FF48A0H   LINE      CODE     ---       #41
      00FF48A3H   LINE      CODE     ---       #42
      00FF48A6H   LINE      CODE     ---       #43
      00FF48A9H   LINE      CODE     ---       #44
      00FF48B0H   LINE      CODE     ---       #45
      00FF48B2H   LINE      CODE     ---       #46
      00FF48B4H   LINE      CODE     ---       #50
      00FF48B4H   LINE      CODE     ---       #54
      00FF48EFH   LINE      CODE     ---       #60
      00FF48FDH   LINE      CODE     ---       #61
      00FF4916H   LINE      CODE     ---       #62
      00FF491DH   LINE      CODE     ---       #63
      ---         BLOCKEND  ---      ---       LVL=0

      ---         MODULE    ---      ---       adc
      00FF560EH   PUBLIC    CODE     ---       adc_mean_filter
      00FF56A5H   PUBLIC    CODE     ---       My_Adc_Init
      00FF5097H   PUBLIC    CODE     ---       Read_Adc_Value
      00000825H   PUBLIC    EDATA    INT       adc1
      00000827H   PUBLIC    EDATA    INT       adc2
      00000829H   PUBLIC    EDATA    INT       adc3
      0000082BH   PUBLIC    EDATA    INT       adc4
      0000082DH   PUBLIC    EDATA    INT       adc5
      0000082FH   PUBLIC    EDATA    INT       adc6
      00000831H   PUBLIC    EDATA    INT       adc7
      00000833H   PUBLIC    EDATA    INT       adc8
      000000D0H   SFRSYM    DATA     BYTE      PSW
      0000009DH   SFRSYM    DATA     BYTE      IRCBAND
      00000097H   SFRSYM    DATA     BYTE      AUXR2
      000000EFH   SFRSYM    DATA     BYTE      AUXINTIF
      000000FDH   SFRSYM    DATA     BYTE      S4CON
      000000ACH   SFRSYM    DATA     BYTE      S3CON
      0000009AH   SFRSYM    DATA     BYTE      S2CON
      000000B7H   SFRSYM    DATA     BYTE      IPH
      000000CDH   SFRSYM    DATA     BYTE      SPSTAT
      000000DDH   SFRSYM    DATA     BYTE      T4T3M
      000000C1H   SFRSYM    DATA     BYTE      WDT_CONTR
      000000DFH   SFRSYM    DATA     BYTE      IP3
      000000F4H   SFRSYM    DATA     BYTE      USBCON
      000000B5H   SFRSYM    DATA     BYTE      IP2
      000000FFH   SFRSYM    DATA     BYTE      RSTCFG
      000000F9H   SFRSYM    DATA     BYTE      LINICR
      0000008EH   SFRSYM    DATA     BYTE      AUXR
      000000AFH   SFRSYM    DATA     BYTE      IE2
      00000088H   SFRSYM    DATA     BYTE      TCON
      00000098H   SFRSYM    DATA     BYTE      SCON
      000000F1H   SFRSYM    DATA     BYTE      CANICR
      00000087H   SFRSYM    DATA     BYTE      PCON
      000000BCH   SFRSYM    DATA     BYTE      ADC_CONTR
      000000E7H   SFRSYM    DATA     BYTE      CMPCR2
      000000E6H   SFRSYM    DATA     BYTE      CMPCR1
      000000B8H   SFRSYM    DATA     BYTE      IP
      0000008FH   SFRSYM    DATA     BYTE      INTCLKO
      000000EEH   SFRSYM    DATA     BYTE      IP3H
      000000B6H   SFRSYM    DATA     BYTE      IP2H
      000000A8H   SFRSYM    DATA     BYTE      IE
      000000BBH   SFRSYM    DATA     BYTE      P_SW3
      000000BAH   SFRSYM    DATA     BYTE      P_SW2
      000000A2H   SFRSYM    DATA     BYTE      P_SW1
L251 LINKER/LOCATER V4.66.93.0                                                        05/04/2023  22:29:11  PAGE 78


      000000CEH   SFRSYM    DATA     BYTE      SPCTL
      000000F8H   SFRSYM    DATA     BYTE      P7
      000000E8H   SFRSYM    DATA     BYTE      P6
      000000C8H   SFRSYM    DATA     BYTE      P5
      000000C0H   SFRSYM    DATA     BYTE      P4
      000000B0H   SFRSYM    DATA     BYTE      P3
      000000A0H   SFRSYM    DATA     BYTE      P2
      00000090H   SFRSYM    DATA     BYTE      P1
      00000080H   SFRSYM    DATA     BYTE      P0

      00FF56A5H   BLOCK     CODE     ---       LVL=0
      00FF56A5H   LINE      CODE     ---       #17
      00FF56A5H   LINE      CODE     ---       #19
      00FF56AEH   LINE      CODE     ---       #20
      00FF56B7H   LINE      CODE     ---       #21
      00FF56C0H   LINE      CODE     ---       #22
      00FF56C9H   LINE      CODE     ---       #24
      00FF56D2H   LINE      CODE     ---       #25
      00FF56DBH   LINE      CODE     ---       #26
      00FF56E4H   LINE      CODE     ---       #27
      ---         BLOCKEND  ---      ---       LVL=0

      00FF560EH   BLOCK     CODE     ---       LVL=0
      WR12        REGSYM    ---      INT       adcn
      WR14        REGSYM    ---      INT       speed
      000007E5H   SYMBOL    EDATA    BYTE      count
      00FF5618H   BLOCK     CODE     NEAR LAB  LVL=1
      000007E6H   SYMBOL    EDATA    BYTE      i
      000007E7H   SYMBOL    EDATA    DWORD     sum
      ---         BLOCKEND  ---      ---       LVL=1
      00FF560EH   LINE      CODE     ---       #34
      00FF5618H   LINE      CODE     ---       #35
      00FF5618H   LINE      CODE     ---       #39
      00FF561EH   LINE      CODE     ---       #40
      00FF5621H   LINE      CODE     ---       #42
      00FF5636H   LINE      CODE     ---       #43
      00FF5649H   LINE      CODE     ---       #45
      00FF5658H   LINE      CODE     ---       #46
      00FF5658H   LINE      CODE     ---       #47
      ---         BLOCKEND  ---      ---       LVL=0

      00FF5097H   BLOCK     CODE     ---       LVL=0
      00FF5097H   LINE      CODE     ---       #52
      00FF5097H   LINE      CODE     ---       #55
      00FF50A6H   LINE      CODE     ---       #56
      00FF50B5H   LINE      CODE     ---       #57
      00FF50C4H   LINE      CODE     ---       #58
      00FF50D3H   LINE      CODE     ---       #60
      00FF50E2H   LINE      CODE     ---       #61
      00FF50F1H   LINE      CODE     ---       #62
      00FF5100H   LINE      CODE     ---       #63
      00FF510FH   LINE      CODE     ---       #64
      ---         BLOCKEND  ---      ---       LVL=0

      ---         MODULE    ---      ---       control
      00FF536AH   PUBLIC    CODE     ---       ADC_error_window_filtering
      00FF51E9H   PUBLIC    CODE     ---       Correct_Angle
      00FF5005H   PUBLIC    CODE     ---       lost_line_judge
      00FF4BA2H   PUBLIC    CODE     ---       Direct_judge
      00FF530DH   PUBLIC    CODE     ---       lostline_deal
      00FF5AC1H   PUBLIC    CODE     ---       ADC_error_weight_filtering
      00FF5110H   PUBLIC    CODE     ---       ADC_error_processing
      00000597H   PUBLIC    EDATA    FLOAT     Adc_Five_Del_2
      0000059BH   PUBLIC    EDATA    ---       akeman_left
      000005AFH   PUBLIC    EDATA    FLOAT     Adc_Five_Del_3
L251 LINKER/LOCATER V4.66.93.0                                                        05/04/2023  22:29:11  PAGE 79


      000005B3H   PUBLIC    EDATA    FLOAT     Adc_Five_Del_4
      000005B7H   PUBLIC    EDATA    FLOAT     order_angle
      000005BBH   PUBLIC    EDATA    INT       Dir_judge_flag
      000005BDH   PUBLIC    EDATA    INT       lostline_dir
      000005BFH   PUBLIC    EDATA    FLOAT     order_speed
      000005C3H   PUBLIC    EDATA    FLOAT     ADC_error_a
      000005C7H   PUBLIC    EDATA    INT       window_flag
      000005C9H   PUBLIC    EDATA    INT       Roundabout_flag
      000005CBH   PUBLIC    EDATA    BYTE      pid_flag
      000005CCH   PUBLIC    EDATA    INT       dev_flag
      000005CEH   PUBLIC    EDATA    ---       Dev_errs
      000005EEH   PUBLIC    EDATA    FLOAT     adc_err
      000005F2H   PUBLIC    EDATA    ---       adc_err_array
      00000606H   PUBLIC    EDATA    FLOAT     Adc_Five_Mean_1_Las
      0000060AH   PUBLIC    EDATA    INT       lostline_flag
      0000060CH   PUBLIC    EDATA    FLOAT     Adc_Five_Mean_2_Las
      00000610H   PUBLIC    EDATA    FLOAT     Adc_Five_Mean_3_Las
      00000614H   PUBLIC    EDATA    FLOAT     Adc_Five_Mean_4_Las
      00000618H   PUBLIC    EDATA    ---       akeman_right
      0000062CH   PUBLIC    EDATA    INT       countADC
      0000062EH   PUBLIC    EDATA    FLOAT     Adc_Five_Del_1
      000007DDH   PUBLIC    EDATA    BYTE      ?ADC_error_processing?BYTE
      000007DDH   PUBLIC    EDATA    BYTE      ?Correct_Angle?BYTE
      000000D0H   SFRSYM    DATA     BYTE      PSW
      0000009DH   SFRSYM    DATA     BYTE      IRCBAND
      00000097H   SFRSYM    DATA     BYTE      AUXR2
      000000EFH   SFRSYM    DATA     BYTE      AUXINTIF
      000000FDH   SFRSYM    DATA     BYTE      S4CON
      000000ACH   SFRSYM    DATA     BYTE      S3CON
      0000009AH   SFRSYM    DATA     BYTE      S2CON
      000000B7H   SFRSYM    DATA     BYTE      IPH
      000000CDH   SFRSYM    DATA     BYTE      SPSTAT
      000000DDH   SFRSYM    DATA     BYTE      T4T3M
      000000C1H   SFRSYM    DATA     BYTE      WDT_CONTR
      000000DFH   SFRSYM    DATA     BYTE      IP3
      000000F4H   SFRSYM    DATA     BYTE      USBCON
      000000B5H   SFRSYM    DATA     BYTE      IP2
      000000FFH   SFRSYM    DATA     BYTE      RSTCFG
      000000F9H   SFRSYM    DATA     BYTE      LINICR
      0000008EH   SFRSYM    DATA     BYTE      AUXR
      000000AFH   SFRSYM    DATA     BYTE      IE2
      00000088H   SFRSYM    DATA     BYTE      TCON
      00000098H   SFRSYM    DATA     BYTE      SCON
      000000F1H   SFRSYM    DATA     BYTE      CANICR
      00000087H   SFRSYM    DATA     BYTE      PCON
      000000BCH   SFRSYM    DATA     BYTE      ADC_CONTR
      000000E7H   SFRSYM    DATA     BYTE      CMPCR2
      000000E6H   SFRSYM    DATA     BYTE      CMPCR1
      000000B8H   SFRSYM    DATA     BYTE      IP
      0000008FH   SFRSYM    DATA     BYTE      INTCLKO
      000000EEH   SFRSYM    DATA     BYTE      IP3H
      000000B6H   SFRSYM    DATA     BYTE      IP2H
      000000A8H   SFRSYM    DATA     BYTE      IE
      000000BBH   SFRSYM    DATA     BYTE      P_SW3
      000000BAH   SFRSYM    DATA     BYTE      P_SW2
      000000A2H   SFRSYM    DATA     BYTE      P_SW1
      000000CEH   SFRSYM    DATA     BYTE      SPCTL
      000000F8H   SFRSYM    DATA     BYTE      P7
      000000E8H   SFRSYM    DATA     BYTE      P6
      000000C8H   SFRSYM    DATA     BYTE      P5
      000000C0H   SFRSYM    DATA     BYTE      P4
      000000B0H   SFRSYM    DATA     BYTE      P3
      000000A0H   SFRSYM    DATA     BYTE      P2
      00000090H   SFRSYM    DATA     BYTE      P1
      00000080H   SFRSYM    DATA     BYTE      P0
L251 LINKER/LOCATER V4.66.93.0                                                        05/04/2023  22:29:11  PAGE 80


      DR12        REGSYM    ---      FLOAT     basic_speed
      DR28        REGSYM    ---      FLOAT     akeman_diff
      DR8         REGSYM    ---      FLOAT     current_l
      DR0         REGSYM    ---      FLOAT     target_l
      00000632H   SYMBOL    EDATA    FLOAT     pwm_l
      00000636H   SYMBOL    EDATA    FLOAT     pwm_r

      00FF5110H   BLOCK     CODE     ---       LVL=0
      DR24        REGSYM    ---      FLOAT     A
      DR28        REGSYM    ---      FLOAT     B
      000007E5H   SYMBOL    EDATA    FLOAT     compensation
      00FF5110H   LINE      CODE     ---       #120
      00FF5112H   LINE      CODE     ---       #125
      00FF517FH   LINE      CODE     ---       #126
      00FF517FH   LINE      CODE     ---       #127
      ---         BLOCKEND  ---      ---       LVL=0

      00FF5AC1H   BLOCK     CODE     ---       LVL=0
      0000063AH   SYMBOL    EDATA    FLOAT     adc_err_last
      00FF5AC1H   LINE      CODE     ---       #134
      00FF5AC1H   LINE      CODE     ---       #135
      00FF5AC1H   LINE      CODE     ---       #137
      00FF5AEAH   LINE      CODE     ---       #138
      00FF5AEEH   LINE      CODE     ---       #140
      00FF5AEEH   LINE      CODE     ---       #141
      ---         BLOCKEND  ---      ---       LVL=0

      00FF536AH   BLOCK     CODE     ---       LVL=0
      00FF536AH   LINE      CODE     ---       #148
      00FF536AH   LINE      CODE     ---       #150
      00FF5380H   LINE      CODE     ---       #152
      00FF5386H   LINE      CODE     ---       #154
      00FF538CH   LINE      CODE     ---       #155
      00FF5392H   LINE      CODE     ---       #158
      00FF539AH   LINE      CODE     ---       #159
      00FF53C0H   LINE      CODE     ---       #162
      00FF53C4H   LINE      CODE     ---       #163
      ---         BLOCKEND  ---      ---       LVL=0
      DR4         REGSYM    ---      FLOAT     sum
      WR30        REGSYM    ---      INT       i
      DR0         REGSYM    ---      FLOAT     Down1
      DR12        REGSYM    ---      FLOAT     DownY1
      DR0         REGSYM    ---      FLOAT     Down2
      DR28        REGSYM    ---      FLOAT     Y_Mean_1

      00FF4BA2H   BLOCK     CODE     ---       LVL=0
      0000063EH   SYMBOL    EDATA    INT       res
      00FF4BA2H   LINE      CODE     ---       #292
      00FF4BA2H   LINE      CODE     ---       #293
      00FF4BA2H   LINE      CODE     ---       #297
      00FF4BC1H   LINE      CODE     ---       #298
      00FF4BCBH   LINE      CODE     ---       #300
      00FF4BE6H   LINE      CODE     ---       #301
      00FF4BECH   LINE      CODE     ---       #303
      00FF4C0EH   LINE      CODE     ---       #304
      00FF4C14H   LINE      CODE     ---       #307
      00FF4C31H   LINE      CODE     ---       #308
      00FF4C37H   LINE      CODE     ---       #310
      00FF4C50H   LINE      CODE     ---       #311
      00FF4C58H   LINE      CODE     ---       #313
      00FF4C5CH   LINE      CODE     ---       #314
      ---         BLOCKEND  ---      ---       LVL=0
      00000640H   SYMBOL    EDATA    INT       state

      00FF5005H   BLOCK     CODE     ---       LVL=0
L251 LINKER/LOCATER V4.66.93.0                                                        05/04/2023  22:29:11  PAGE 81


      00FF5009H   BLOCK     CODE     NEAR LAB  LVL=1
      R13         REGSYM    ---      CHAR      i
      R14         REGSYM    ---      CHAR      L_count
      R15         REGSYM    ---      CHAR      R_count
      ---         BLOCKEND  ---      ---       LVL=1
      00FF5005H   LINE      CODE     ---       #387
      00FF5009H   LINE      CODE     ---       #388
      00FF5009H   LINE      CODE     ---       #389
      00FF500DH   LINE      CODE     ---       #390
      00FF5013H   LINE      CODE     ---       #391
      00FF501BH   LINE      CODE     ---       #393
      00FF5043H   LINE      CODE     ---       #394
      00FF504BH   LINE      CODE     ---       #396
      00FF504DH   LINE      CODE     ---       #398
      00FF5066H   LINE      CODE     ---       #399
      00FF5068H   LINE      CODE     ---       #400
      00FF5071H   LINE      CODE     ---       #401
      00FF5073H   LINE      CODE     ---       #402
      00FF507AH   LINE      CODE     ---       #403
      00FF507EH   LINE      CODE     ---       #404
      00FF5086H   LINE      CODE     ---       #405
      00FF508AH   LINE      CODE     ---       #406
      00FF5092H   LINE      CODE     ---       #408
      00FF5092H   LINE      CODE     ---       #409
      ---         BLOCKEND  ---      ---       LVL=0

      00FF530DH   BLOCK     CODE     ---       LVL=0
      00FF530DH   LINE      CODE     ---       #416
      00FF530DH   LINE      CODE     ---       #419
      00FF5317H   LINE      CODE     ---       #421
      00FF5321H   LINE      CODE     ---       #422
      00FF532BH   LINE      CODE     ---       #424
      00FF5331H   LINE      CODE     ---       #425
      00FF533BH   LINE      CODE     ---       #427
      00FF5363H   LINE      CODE     ---       #428
      00FF5369H   LINE      CODE     ---       #429
      00FF5369H   LINE      CODE     ---       #430
      ---         BLOCKEND  ---      ---       LVL=0

      00FF51E9H   BLOCK     CODE     ---       LVL=0
      DR24        REGSYM    ---      FLOAT     kp
      DR28        REGSYM    ---      FLOAT     kd
      000007E5H   SYMBOL    EDATA    FLOAT     ki
      00FF51EDH   BLOCK     CODE     NEAR LAB  LVL=1
      DR28        REGSYM    ---      FLOAT     target_angle
      DR20        REGSYM    ---      FLOAT     target_angle_last
      00000642H   SYMBOL    EDATA    FLOAT     adc_err_last
      00000646H   SYMBOL    EDATA    FLOAT     integral_err
      ---         BLOCKEND  ---      ---       LVL=1
      00FF51E9H   LINE      CODE     ---       #437
      00FF51EDH   LINE      CODE     ---       #438
      00FF51EDH   LINE      CODE     ---       #449
      00FF522AH   LINE      CODE     ---       #450
      00FF524BH   LINE      CODE     ---       #451
      00FF524BH   LINE      CODE     ---       #453
      00FF524FH   LINE      CODE     ---       #455
      00FF524FH   LINE      CODE     ---       #456
      ---         BLOCKEND  ---      ---       LVL=0

      ---         MODULE    ---      ---       key
      000000D0H   SFRSYM    DATA     BYTE      PSW
      0000009DH   SFRSYM    DATA     BYTE      IRCBAND
      00000097H   SFRSYM    DATA     BYTE      AUXR2
      000000EFH   SFRSYM    DATA     BYTE      AUXINTIF
      000000FDH   SFRSYM    DATA     BYTE      S4CON
L251 LINKER/LOCATER V4.66.93.0                                                        05/04/2023  22:29:11  PAGE 82


      000000ACH   SFRSYM    DATA     BYTE      S3CON
      0000009AH   SFRSYM    DATA     BYTE      S2CON
      000000B7H   SFRSYM    DATA     BYTE      IPH
      000000CDH   SFRSYM    DATA     BYTE      SPSTAT
      000000DDH   SFRSYM    DATA     BYTE      T4T3M
      000000C1H   SFRSYM    DATA     BYTE      WDT_CONTR
      000000DFH   SFRSYM    DATA     BYTE      IP3
      000000F4H   SFRSYM    DATA     BYTE      USBCON
      000000B5H   SFRSYM    DATA     BYTE      IP2
      000000FFH   SFRSYM    DATA     BYTE      RSTCFG
      000000F9H   SFRSYM    DATA     BYTE      LINICR
      0000008EH   SFRSYM    DATA     BYTE      AUXR
      000000AFH   SFRSYM    DATA     BYTE      IE2
      000000F8H.3 SFRSYM    DATA     BIT       P73
      000000F8H.2 SFRSYM    DATA     BIT       P72
      000000F8H.1 SFRSYM    DATA     BIT       P71
      000000F8H.0 SFRSYM    DATA     BIT       P70
      00000088H   SFRSYM    DATA     BYTE      TCON
      00000098H   SFRSYM    DATA     BYTE      SCON
      000000F1H   SFRSYM    DATA     BYTE      CANICR
      00000087H   SFRSYM    DATA     BYTE      PCON
      000000BCH   SFRSYM    DATA     BYTE      ADC_CONTR
      000000E7H   SFRSYM    DATA     BYTE      CMPCR2
      000000E6H   SFRSYM    DATA     BYTE      CMPCR1
      000000B8H   SFRSYM    DATA     BYTE      IP
      0000008FH   SFRSYM    DATA     BYTE      INTCLKO
      000000EEH   SFRSYM    DATA     BYTE      IP3H
      000000B6H   SFRSYM    DATA     BYTE      IP2H
      000000A8H   SFRSYM    DATA     BYTE      IE
      000000BBH   SFRSYM    DATA     BYTE      P_SW3
      000000BAH   SFRSYM    DATA     BYTE      P_SW2
      000000A2H   SFRSYM    DATA     BYTE      P_SW1
      000000CEH   SFRSYM    DATA     BYTE      SPCTL
      000000F8H   SFRSYM    DATA     BYTE      P7
      000000E8H   SFRSYM    DATA     BYTE      P6
      000000C8H   SFRSYM    DATA     BYTE      P5
      000000C0H   SFRSYM    DATA     BYTE      P4
      000000B0H   SFRSYM    DATA     BYTE      P3
      000000A0H   SFRSYM    DATA     BYTE      P2
      00000090H   SFRSYM    DATA     BYTE      P1
      00000080H   SFRSYM    DATA     BYTE      P0
      R7          REGSYM    ---      BYTE      mode
      0000089AH   SYMBOL    EDATA    BYTE      key_up

      ---         MODULE    ---      ---       motor
      00FF5571H   PUBLIC    CODE     ---       Motor_Init
      00FF4D0BH   PUBLIC    CODE     ---       Motor_Control
      00000884H   PUBLIC    EDATA    INT       pulse_right
      00000886H   PUBLIC    EDATA    INT       pulse_left
      000000D0H   SFRSYM    DATA     BYTE      PSW
      0000009DH   SFRSYM    DATA     BYTE      IRCBAND
      00000097H   SFRSYM    DATA     BYTE      AUXR2
      000000EFH   SFRSYM    DATA     BYTE      AUXINTIF
      000000FDH   SFRSYM    DATA     BYTE      S4CON
      000000ACH   SFRSYM    DATA     BYTE      S3CON
      0000009AH   SFRSYM    DATA     BYTE      S2CON
      000000B7H   SFRSYM    DATA     BYTE      IPH
      000000CDH   SFRSYM    DATA     BYTE      SPSTAT
      000000DDH   SFRSYM    DATA     BYTE      T4T3M
      000000C1H   SFRSYM    DATA     BYTE      WDT_CONTR
      000000DFH   SFRSYM    DATA     BYTE      IP3
      000000F4H   SFRSYM    DATA     BYTE      USBCON
      000000B5H   SFRSYM    DATA     BYTE      IP2
      000000FFH   SFRSYM    DATA     BYTE      RSTCFG
      000000F9H   SFRSYM    DATA     BYTE      LINICR
L251 LINKER/LOCATER V4.66.93.0                                                        05/04/2023  22:29:11  PAGE 83


      0000008EH   SFRSYM    DATA     BYTE      AUXR
      000000AFH   SFRSYM    DATA     BYTE      IE2
      000000B0H.5 SFRSYM    DATA     BIT       P35
      000000C8H.3 SFRSYM    DATA     BIT       P53
      00000088H   SFRSYM    DATA     BYTE      TCON
      00000098H   SFRSYM    DATA     BYTE      SCON
      000000F1H   SFRSYM    DATA     BYTE      CANICR
      00000087H   SFRSYM    DATA     BYTE      PCON
      000000BCH   SFRSYM    DATA     BYTE      ADC_CONTR
      000000E7H   SFRSYM    DATA     BYTE      CMPCR2
      000000E6H   SFRSYM    DATA     BYTE      CMPCR1
      000000B8H   SFRSYM    DATA     BYTE      IP
      0000008FH   SFRSYM    DATA     BYTE      INTCLKO
      000000EEH   SFRSYM    DATA     BYTE      IP3H
      000000B6H   SFRSYM    DATA     BYTE      IP2H
      000000A8H   SFRSYM    DATA     BYTE      IE
      000000BBH   SFRSYM    DATA     BYTE      P_SW3
      000000BAH   SFRSYM    DATA     BYTE      P_SW2
      000000A2H   SFRSYM    DATA     BYTE      P_SW1
      000000CEH   SFRSYM    DATA     BYTE      SPCTL
      000000F8H   SFRSYM    DATA     BYTE      P7
      000000E8H   SFRSYM    DATA     BYTE      P6
      000000C8H   SFRSYM    DATA     BYTE      P5
      000000C0H   SFRSYM    DATA     BYTE      P4
      000000B0H   SFRSYM    DATA     BYTE      P3
      000000A0H   SFRSYM    DATA     BYTE      P2
      00000090H   SFRSYM    DATA     BYTE      P1
      00000080H   SFRSYM    DATA     BYTE      P0

      00FF5571H   BLOCK     CODE     ---       LVL=0
      00FF5571H   LINE      CODE     ---       #12
      00FF5571H   LINE      CODE     ---       #15
      00FF5582H   LINE      CODE     ---       #16
      00FF5593H   LINE      CODE     ---       #18
      00FF55A4H   LINE      CODE     ---       #19
      00FF55B5H   LINE      CODE     ---       #21
      00FF55BAH   LINE      CODE     ---       #22
      ---         BLOCKEND  ---      ---       LVL=0

      00FF4D0BH   BLOCK     CODE     ---       LVL=0
      000007E5H   SYMBOL    EDATA    LONG      left_duty
      DR12        REGSYM    ---      LONG      right_duty
      00FF4D0BH   LINE      CODE     ---       #31
      00FF4D13H   LINE      CODE     ---       #34
      00FF4D21H   LINE      CODE     ---       #35
      00FF4D33H   LINE      CODE     ---       #36
      00FF4D3DH   LINE      CODE     ---       #37
      00FF4D47H   LINE      CODE     ---       #39
      00FF4D51H   LINE      CODE     ---       #41
      00FF4D5AH   LINE      CODE     ---       #42
      00FF4D62H   LINE      CODE     ---       #43
      00FF4D64H   LINE      CODE     ---       #46
      00FF4D79H   LINE      CODE     ---       #47
      00FF4D82H   LINE      CODE     ---       #48
      00FF4D82H   LINE      CODE     ---       #50
      00FF4D88H   LINE      CODE     ---       #52
      00FF4D91H   LINE      CODE     ---       #53
      00FF4D97H   LINE      CODE     ---       #54
      00FF4D99H   LINE      CODE     ---       #57
      00FF4DA4H   LINE      CODE     ---       #58
      00FF4DADH   LINE      CODE     ---       #59
      00FF4DADH   LINE      CODE     ---       #60
      ---         BLOCKEND  ---      ---       LVL=0

      ---         MODULE    ---      ---       steer
L251 LINKER/LOCATER V4.66.93.0                                                        05/04/2023  22:29:11  PAGE 84


      00FF4DB0H   PUBLIC    CODE     ---       Steer_Spin
      00FF5C7DH   PUBLIC    CODE     ---       Steer_Spin_limit
      00FF5DF9H   PUBLIC    CODE     ---       Steer_Init
      00000888H   PUBLIC    EDATA    FLOAT     angle_limit
      000000D0H   SFRSYM    DATA     BYTE      PSW
      0000009DH   SFRSYM    DATA     BYTE      IRCBAND
      00000097H   SFRSYM    DATA     BYTE      AUXR2
      000000EFH   SFRSYM    DATA     BYTE      AUXINTIF
      000000FDH   SFRSYM    DATA     BYTE      S4CON
      000000ACH   SFRSYM    DATA     BYTE      S3CON
      0000009AH   SFRSYM    DATA     BYTE      S2CON
      000000B7H   SFRSYM    DATA     BYTE      IPH
      000000CDH   SFRSYM    DATA     BYTE      SPSTAT
      000000DDH   SFRSYM    DATA     BYTE      T4T3M
      000000C1H   SFRSYM    DATA     BYTE      WDT_CONTR
      000000DFH   SFRSYM    DATA     BYTE      IP3
      000000F4H   SFRSYM    DATA     BYTE      USBCON
      000000B5H   SFRSYM    DATA     BYTE      IP2
      000000FFH   SFRSYM    DATA     BYTE      RSTCFG
      000000F9H   SFRSYM    DATA     BYTE      LINICR
      0000008EH   SFRSYM    DATA     BYTE      AUXR
      000000AFH   SFRSYM    DATA     BYTE      IE2
      00000088H   SFRSYM    DATA     BYTE      TCON
      00000098H   SFRSYM    DATA     BYTE      SCON
      000000F1H   SFRSYM    DATA     BYTE      CANICR
      00000087H   SFRSYM    DATA     BYTE      PCON
      000000BCH   SFRSYM    DATA     BYTE      ADC_CONTR
      000000E7H   SFRSYM    DATA     BYTE      CMPCR2
      000000E6H   SFRSYM    DATA     BYTE      CMPCR1
      000000B8H   SFRSYM    DATA     BYTE      IP
      0000008FH   SFRSYM    DATA     BYTE      INTCLKO
      000000EEH   SFRSYM    DATA     BYTE      IP3H
      000000B6H   SFRSYM    DATA     BYTE      IP2H
      000000A8H   SFRSYM    DATA     BYTE      IE
      000000BBH   SFRSYM    DATA     BYTE      P_SW3
      000000BAH   SFRSYM    DATA     BYTE      P_SW2
      000000A2H   SFRSYM    DATA     BYTE      P_SW1
      000000CEH   SFRSYM    DATA     BYTE      SPCTL
      000000F8H   SFRSYM    DATA     BYTE      P7
      000000E8H   SFRSYM    DATA     BYTE      P6
      000000C8H   SFRSYM    DATA     BYTE      P5
      000000C0H   SFRSYM    DATA     BYTE      P4
      000000B0H   SFRSYM    DATA     BYTE      P3
      000000A0H   SFRSYM    DATA     BYTE      P2
      00000090H   SFRSYM    DATA     BYTE      P1
      00000080H   SFRSYM    DATA     BYTE      P0

      00FF5DF9H   BLOCK     CODE     ---       LVL=0
      00FF5DF9H   LINE      CODE     ---       #9
      00FF5DF9H   LINE      CODE     ---       #11
      ---         BLOCKEND  ---      ---       LVL=0

      00FF4DB0H   BLOCK     CODE     ---       LVL=0
      DR28        REGSYM    ---      FLOAT     target_angle
      00FF4DB4H   BLOCK     CODE     NEAR LAB  LVL=1
      DR12        REGSYM    ---      DWORD     duty
      ---         BLOCKEND  ---      ---       LVL=1
      00FF4DB0H   LINE      CODE     ---       #19
      00FF4DB4H   LINE      CODE     ---       #20
      00FF4DB4H   LINE      CODE     ---       #24
      00FF4DC3H   LINE      CODE     ---       #25
      00FF4DD4H   LINE      CODE     ---       #26
      00FF4DE6H   LINE      CODE     ---       #28
      00FF4DF1H   LINE      CODE     ---       #30
      00FF4E13H   LINE      CODE     ---       #32
L251 LINKER/LOCATER V4.66.93.0                                                        05/04/2023  22:29:11  PAGE 85


      00FF4E13H   LINE      CODE     ---       #34
      00FF4E1CH   LINE      CODE     ---       #36
      00FF4E3EH   LINE      CODE     ---       #38
      00FF4E3EH   LINE      CODE     ---       #40
      00FF4E47H   LINE      CODE     ---       #41
      ---         BLOCKEND  ---      ---       LVL=0

      00FF5C7DH   BLOCK     CODE     ---       LVL=0
      DR28        REGSYM    ---      FLOAT     target_angle
      DR24        REGSYM    ---      FLOAT     angle_limit
      00FF5C7DH   LINE      CODE     ---       #48
      00FF5C81H   LINE      CODE     ---       #50
      00FF5C86H   LINE      CODE     ---       #51
      00FF5C88H   LINE      CODE     ---       #52
      00FF5C96H   LINE      CODE     ---       #53
      00FF5C98H   LINE      CODE     ---       #55
      ---         BLOCKEND  ---      ---       LVL=0

      ---         MODULE    ---      ---       timer
      00FF5EBDH   PUBLIC    CODE     ---       Timer4_Init
      000000D0H   SFRSYM    DATA     BYTE      PSW
      0000009DH   SFRSYM    DATA     BYTE      IRCBAND
      00000097H   SFRSYM    DATA     BYTE      AUXR2
      000000EFH   SFRSYM    DATA     BYTE      AUXINTIF
      000000FDH   SFRSYM    DATA     BYTE      S4CON
      000000ACH   SFRSYM    DATA     BYTE      S3CON
      0000009AH   SFRSYM    DATA     BYTE      S2CON
      000000B7H   SFRSYM    DATA     BYTE      IPH
      000000CDH   SFRSYM    DATA     BYTE      SPSTAT
      000000DDH   SFRSYM    DATA     BYTE      T4T3M
      000000C1H   SFRSYM    DATA     BYTE      WDT_CONTR
      000000DFH   SFRSYM    DATA     BYTE      IP3
      000000F4H   SFRSYM    DATA     BYTE      USBCON
      000000B5H   SFRSYM    DATA     BYTE      IP2
      000000FFH   SFRSYM    DATA     BYTE      RSTCFG
      000000F9H   SFRSYM    DATA     BYTE      LINICR
      0000008EH   SFRSYM    DATA     BYTE      AUXR
      000000AFH   SFRSYM    DATA     BYTE      IE2
      00000088H   SFRSYM    DATA     BYTE      TCON
      00000098H   SFRSYM    DATA     BYTE      SCON
      000000F1H   SFRSYM    DATA     BYTE      CANICR
      00000087H   SFRSYM    DATA     BYTE      PCON
      000000BCH   SFRSYM    DATA     BYTE      ADC_CONTR
      000000E7H   SFRSYM    DATA     BYTE      CMPCR2
      000000E6H   SFRSYM    DATA     BYTE      CMPCR1
      000000B8H   SFRSYM    DATA     BYTE      IP
      0000008FH   SFRSYM    DATA     BYTE      INTCLKO
      000000EEH   SFRSYM    DATA     BYTE      IP3H
      000000B6H   SFRSYM    DATA     BYTE      IP2H
      000000A8H   SFRSYM    DATA     BYTE      IE
      000000BBH   SFRSYM    DATA     BYTE      P_SW3
      000000BAH   SFRSYM    DATA     BYTE      P_SW2
      000000A2H   SFRSYM    DATA     BYTE      P_SW1
      000000CEH   SFRSYM    DATA     BYTE      SPCTL
      000000F8H   SFRSYM    DATA     BYTE      P7
      000000E8H   SFRSYM    DATA     BYTE      P6
      000000C8H   SFRSYM    DATA     BYTE      P5
      000000C0H   SFRSYM    DATA     BYTE      P4
      000000B0H   SFRSYM    DATA     BYTE      P3
      000000A0H   SFRSYM    DATA     BYTE      P2
      00000090H   SFRSYM    DATA     BYTE      P1
      00000080H   SFRSYM    DATA     BYTE      P0

      00FF5EBDH   BLOCK     CODE     ---       LVL=0
      WR4         REGSYM    ---      WORD      time_ms
L251 LINKER/LOCATER V4.66.93.0                                                        05/04/2023  22:29:11  PAGE 86


      00FF5EBDH   LINE      CODE     ---       #9
      00FF5EBFH   LINE      CODE     ---       #11
      ---         BLOCKEND  ---      ---       LVL=0

      ---         MODULE    ---      ---       oled
      00FF4C5DH   PUBLIC    CODE     ---       OLED_Init
      00FF53C5H   PUBLIC    CODE     ---       OLED_WR_Byte
      00FF5B44H   PUBLIC    CODE     ---       OLED_Set_Pos
      00FF59D3H   PUBLIC    CODE     ---       OLED_Clear
      00FF5EFDH   PUBLIC    HCONST   ---       F6x8
      00FF6125H   PUBLIC    HCONST   ---       F8X16
      00000008H   PUBLIC    EDATA    ---       Hzk
      000003C8H   PUBLIC    EDATA    BYTE      show_mode
      000000D0H   SFRSYM    DATA     BYTE      PSW
      0000009DH   SFRSYM    DATA     BYTE      IRCBAND
      00000097H   SFRSYM    DATA     BYTE      AUXR2
      000000EFH   SFRSYM    DATA     BYTE      AUXINTIF
      000000FDH   SFRSYM    DATA     BYTE      S4CON
      000000B0H.7 SFRSYM    DATA     BIT       OLED_SCL
      000000ACH   SFRSYM    DATA     BYTE      S3CON
      0000009AH   SFRSYM    DATA     BYTE      S2CON
      000000B7H   SFRSYM    DATA     BYTE      IPH
      000000CDH   SFRSYM    DATA     BYTE      SPSTAT
      000000DDH   SFRSYM    DATA     BYTE      T4T3M
      000000C1H   SFRSYM    DATA     BYTE      WDT_CONTR
      000000DFH   SFRSYM    DATA     BYTE      IP3
      000000F4H   SFRSYM    DATA     BYTE      USBCON
      000000B5H   SFRSYM    DATA     BYTE      IP2
      000000FFH   SFRSYM    DATA     BYTE      RSTCFG
      000000F9H   SFRSYM    DATA     BYTE      LINICR
      0000008EH   SFRSYM    DATA     BYTE      AUXR
      000000AFH   SFRSYM    DATA     BYTE      IE2
      00000088H   SFRSYM    DATA     BYTE      TCON
      000000B0H.6 SFRSYM    DATA     BIT       OLED_SDIN
      00000098H   SFRSYM    DATA     BYTE      SCON
      000000F1H   SFRSYM    DATA     BYTE      CANICR
      00000087H   SFRSYM    DATA     BYTE      PCON
      000000BCH   SFRSYM    DATA     BYTE      ADC_CONTR
      000000E7H   SFRSYM    DATA     BYTE      CMPCR2
      000000E6H   SFRSYM    DATA     BYTE      CMPCR1
      00000080H.2 SFRSYM    DATA     BIT       OLED_CS
      000000B8H   SFRSYM    DATA     BYTE      IP
      0000008FH   SFRSYM    DATA     BYTE      INTCLKO
      000000EEH   SFRSYM    DATA     BYTE      IP3H
      000000B6H   SFRSYM    DATA     BYTE      IP2H
      000000A8H   SFRSYM    DATA     BYTE      IE
      000000BBH   SFRSYM    DATA     BYTE      P_SW3
      000000BAH   SFRSYM    DATA     BYTE      P_SW2
      000000C8H.2 SFRSYM    DATA     BIT       OLED_DC
      000000A2H   SFRSYM    DATA     BYTE      P_SW1
      000000CEH   SFRSYM    DATA     BYTE      SPCTL
      000000F8H   SFRSYM    DATA     BYTE      P7
      000000E8H   SFRSYM    DATA     BYTE      P6
      000000C8H   SFRSYM    DATA     BYTE      P5
      000000C0H   SFRSYM    DATA     BYTE      P4
      000000B0H   SFRSYM    DATA     BYTE      P3
      000000A0H   SFRSYM    DATA     BYTE      P2
      00000090H   SFRSYM    DATA     BYTE      P1
      00000080H   SFRSYM    DATA     BYTE      P0
      000000C8H.1 SFRSYM    DATA     BIT       OLED_RST

      00FF53C5H   BLOCK     CODE     ---       LVL=0
      R10         REGSYM    ---      BYTE      dat
      R7          REGSYM    ---      BYTE      cmd
      00FF53C7H   BLOCK     CODE     NEAR LAB  LVL=1
L251 LINKER/LOCATER V4.66.93.0                                                        05/04/2023  22:29:11  PAGE 87


      R6          REGSYM    ---      BYTE      i
      ---         BLOCKEND  ---      ---       LVL=1
      00FF53C5H   LINE      CODE     ---       #83
      00FF53C7H   LINE      CODE     ---       #84
      00FF53C7H   LINE      CODE     ---       #86
      00FF53CBH   LINE      CODE     ---       #88
      00FF53CDH   LINE      CODE     ---       #89
      00FF53CFH   LINE      CODE     ---       #90
      00FF53D1H   LINE      CODE     ---       #92
      00FF53D3H   LINE      CODE     ---       #93
      00FF53D9H   LINE      CODE     ---       #95
      00FF53DEH   LINE      CODE     ---       #97
      00FF53E0H   LINE      CODE     ---       #98
      00FF53E2H   LINE      CODE     ---       #100
      00FF53E4H   LINE      CODE     ---       #101
      00FF53E6H   LINE      CODE     ---       #104
      00FF53EBH   LINE      CODE     ---       #106
      00FF53EDH   LINE      CODE     ---       #107
      00FF53EFH   LINE      CODE     ---       #109
      00FF53F1H   LINE      CODE     ---       #110
      00FF53F1H   LINE      CODE     ---       #112
      00FF53F3H   LINE      CODE     ---       #113
      00FF53F5H   LINE      CODE     ---       #114
      00FF53FBH   LINE      CODE     ---       #115
      00FF53FDH   LINE      CODE     ---       #119
      00FF53FFH   LINE      CODE     ---       #120
      00FF5401H   LINE      CODE     ---       #122
      00FF5403H   LINE      CODE     ---       #124
      00FF5405H   LINE      CODE     ---       #125
      00FF540AH   LINE      CODE     ---       #127
      00FF540CH   LINE      CODE     ---       #128
      00FF540EH   LINE      CODE     ---       #130
      00FF5410H   LINE      CODE     ---       #131
      00FF5412H   LINE      CODE     ---       #132
      00FF5414H   LINE      CODE     ---       #133
      00FF541AH   LINE      CODE     ---       #135
      00FF541AH   LINE      CODE     ---       #138
      00FF541CH   LINE      CODE     ---       #139
      00FF541EH   LINE      CODE     ---       #140
      ---         BLOCKEND  ---      ---       LVL=0

      00FF5B44H   BLOCK     CODE     ---       LVL=0
      R15         REGSYM    ---      BYTE      x
      R10         REGSYM    ---      BYTE      y
      00FF5B44H   LINE      CODE     ---       #142
      00FF5B48H   LINE      CODE     ---       #144
      00FF5B53H   LINE      CODE     ---       #145
      00FF5B5FH   LINE      CODE     ---       #146
      00FF5B68H   LINE      CODE     ---       #147
      ---         BLOCKEND  ---      ---       LVL=0

      00FF59D3H   BLOCK     CODE     ---       LVL=0
      00FF59D5H   BLOCK     CODE     NEAR LAB  LVL=1
      R15         REGSYM    ---      BYTE      i
      R14         REGSYM    ---      BYTE      n
      ---         BLOCKEND  ---      ---       LVL=1
      00FF59D3H   LINE      CODE     ---       #163
      00FF59D5H   LINE      CODE     ---       #164
      00FF59D5H   LINE      CODE     ---       #166
      00FF59D7H   LINE      CODE     ---       #168
      00FF59E2H   LINE      CODE     ---       #169
      00FF59E6H   LINE      CODE     ---       #170
      00FF59EBH   LINE      CODE     ---       #171
      00FF59FBH   LINE      CODE     ---       #172
      00FF5A02H   LINE      CODE     ---       #173
L251 LINKER/LOCATER V4.66.93.0                                                        05/04/2023  22:29:11  PAGE 88


      ---         BLOCKEND  ---      ---       LVL=0
      R14         REGSYM    ---      BYTE      x
      R15         REGSYM    ---      BYTE      y
      R6          REGSYM    ---      BYTE      chr
      R12         REGSYM    ---      BYTE      c
      R13         REGSYM    ---      BYTE      i
      R3          REGSYM    ---      BYTE      m
      R10         REGSYM    ---      BYTE      n
      WR6         REGSYM    ---      WORD      result
      WR14        REGSYM    ---      WORD      num
      R13         REGSYM    ---      BYTE      len
      R12         REGSYM    ---      BYTE      size2
      REG=3       REGSYM    ---      ---       chr
      R13         REGSYM    ---      BYTE      x
      R14         REGSYM    ---      BYTE      y
      R15         REGSYM    ---      BYTE      no
      R12         REGSYM    ---      BYTE      t
      R10         REGSYM    ---      BYTE      y0
      REG=3       REGSYM    ---      ---       BMP

      00FF4C5DH   BLOCK     CODE     ---       LVL=0
      00FF4C5DH   LINE      CODE     ---       #282
      00FF4C5DH   LINE      CODE     ---       #287
      00FF4C5FH   LINE      CODE     ---       #288
      00FF4C66H   LINE      CODE     ---       #289
      00FF4C68H   LINE      CODE     ---       #290
      00FF4C6FH   LINE      CODE     ---       #291
      00FF4C71H   LINE      CODE     ---       #323
      00FF4C78H   LINE      CODE     ---       #324
      00FF4C7CH   LINE      CODE     ---       #325
      00FF4C81H   LINE      CODE     ---       #326
      00FF4C86H   LINE      CODE     ---       #327
      00FF4C8BH   LINE      CODE     ---       #328
      00FF4C90H   LINE      CODE     ---       #329
      00FF4C95H   LINE      CODE     ---       #330
      00FF4C9AH   LINE      CODE     ---       #331
      00FF4C9FH   LINE      CODE     ---       #332
      00FF4CA4H   LINE      CODE     ---       #333
      00FF4CA9H   LINE      CODE     ---       #334
      00FF4CAEH   LINE      CODE     ---       #335
      00FF4CB2H   LINE      CODE     ---       #336
      00FF4CB7H   LINE      CODE     ---       #337
      00FF4CBCH   LINE      CODE     ---       #338
      00FF4CC1H   LINE      CODE     ---       #339
      00FF4CC6H   LINE      CODE     ---       #340
      00FF4CCBH   LINE      CODE     ---       #341
      00FF4CD0H   LINE      CODE     ---       #342
      00FF4CD5H   LINE      CODE     ---       #343
      00FF4CDAH   LINE      CODE     ---       #344
      00FF4CDFH   LINE      CODE     ---       #345
      00FF4CE4H   LINE      CODE     ---       #346
      00FF4CE9H   LINE      CODE     ---       #347
      00FF4CEEH   LINE      CODE     ---       #348
      00FF4CF3H   LINE      CODE     ---       #349
      00FF4CF8H   LINE      CODE     ---       #350
      00FF4CFDH   LINE      CODE     ---       #352
      00FF4D02H   LINE      CODE     ---       #353
      00FF4D05H   LINE      CODE     ---       #354
      ---         BLOCKEND  ---      ---       LVL=0

      ---         MODULE    ---      ---       brushless
      00FF5B90H   PUBLIC    CODE     ---       Brushless_Init
      000000D0H   SFRSYM    DATA     BYTE      PSW
      0000009DH   SFRSYM    DATA     BYTE      IRCBAND
      00000097H   SFRSYM    DATA     BYTE      AUXR2
L251 LINKER/LOCATER V4.66.93.0                                                        05/04/2023  22:29:11  PAGE 89


      000000EFH   SFRSYM    DATA     BYTE      AUXINTIF
      000000FDH   SFRSYM    DATA     BYTE      S4CON
      000000ACH   SFRSYM    DATA     BYTE      S3CON
      0000009AH   SFRSYM    DATA     BYTE      S2CON
      000000B7H   SFRSYM    DATA     BYTE      IPH
      000000CDH   SFRSYM    DATA     BYTE      SPSTAT
      000000DDH   SFRSYM    DATA     BYTE      T4T3M
      000000C1H   SFRSYM    DATA     BYTE      WDT_CONTR
      000000DFH   SFRSYM    DATA     BYTE      IP3
      000000F4H   SFRSYM    DATA     BYTE      USBCON
      000000B5H   SFRSYM    DATA     BYTE      IP2
      000000FFH   SFRSYM    DATA     BYTE      RSTCFG
      000000F9H   SFRSYM    DATA     BYTE      LINICR
      0000008EH   SFRSYM    DATA     BYTE      AUXR
      000000AFH   SFRSYM    DATA     BYTE      IE2
      00000088H   SFRSYM    DATA     BYTE      TCON
      00000098H   SFRSYM    DATA     BYTE      SCON
      000000F1H   SFRSYM    DATA     BYTE      CANICR
      00000087H   SFRSYM    DATA     BYTE      PCON
      000000BCH   SFRSYM    DATA     BYTE      ADC_CONTR
      000000E7H   SFRSYM    DATA     BYTE      CMPCR2
      000000E6H   SFRSYM    DATA     BYTE      CMPCR1
      000000B8H   SFRSYM    DATA     BYTE      IP
      0000008FH   SFRSYM    DATA     BYTE      INTCLKO
      000000EEH   SFRSYM    DATA     BYTE      IP3H
      000000B6H   SFRSYM    DATA     BYTE      IP2H
      000000A8H   SFRSYM    DATA     BYTE      IE
      000000BBH   SFRSYM    DATA     BYTE      P_SW3
      000000BAH   SFRSYM    DATA     BYTE      P_SW2
      000000A2H   SFRSYM    DATA     BYTE      P_SW1
      000000CEH   SFRSYM    DATA     BYTE      SPCTL
      000000F8H   SFRSYM    DATA     BYTE      P7
      000000E8H   SFRSYM    DATA     BYTE      P6
      000000C8H   SFRSYM    DATA     BYTE      P5
      000000C0H   SFRSYM    DATA     BYTE      P4
      000000B0H   SFRSYM    DATA     BYTE      P3
      000000A0H   SFRSYM    DATA     BYTE      P2
      00000090H   SFRSYM    DATA     BYTE      P1
      00000080H   SFRSYM    DATA     BYTE      P0

      00FF5B90H   BLOCK     CODE     ---       LVL=0
      00FF5B90H   LINE      CODE     ---       #13
      00FF5B90H   LINE      CODE     ---       #16
      00FF5BA1H   LINE      CODE     ---       #17
      ---         BLOCKEND  ---      ---       LVL=0
      WR14        REGSYM    ---      WORD      value

      ---         MODULE    ---      ---       pid
      00FF5250H   PUBLIC    CODE     ---       PID_struct_init
      0000064AH   PUBLIC    EDATA    ---       pid_right_
      00000692H   PUBLIC    EDATA    ---       pid_left_
      000007E3H   PUBLIC    EDATA    BYTE      ?PID_struct_init?BYTE
      000000D0H   SFRSYM    DATA     BYTE      PSW
      0000009DH   SFRSYM    DATA     BYTE      IRCBAND
      00000097H   SFRSYM    DATA     BYTE      AUXR2
      000000EFH   SFRSYM    DATA     BYTE      AUXINTIF
      000000FDH   SFRSYM    DATA     BYTE      S4CON
      000000ACH   SFRSYM    DATA     BYTE      S3CON
      0000009AH   SFRSYM    DATA     BYTE      S2CON
      000000B7H   SFRSYM    DATA     BYTE      IPH
      000000CDH   SFRSYM    DATA     BYTE      SPSTAT
      000000DDH   SFRSYM    DATA     BYTE      T4T3M
      000000C1H   SFRSYM    DATA     BYTE      WDT_CONTR
      000000DFH   SFRSYM    DATA     BYTE      IP3
      000000F4H   SFRSYM    DATA     BYTE      USBCON
L251 LINKER/LOCATER V4.66.93.0                                                        05/04/2023  22:29:11  PAGE 90


      000000B5H   SFRSYM    DATA     BYTE      IP2
      000000FFH   SFRSYM    DATA     BYTE      RSTCFG
      000000F9H   SFRSYM    DATA     BYTE      LINICR
      0000008EH   SFRSYM    DATA     BYTE      AUXR
      000000AFH   SFRSYM    DATA     BYTE      IE2
      00000088H   SFRSYM    DATA     BYTE      TCON
      00000098H   SFRSYM    DATA     BYTE      SCON
      000000F1H   SFRSYM    DATA     BYTE      CANICR
      00000087H   SFRSYM    DATA     BYTE      PCON
      000000BCH   SFRSYM    DATA     BYTE      ADC_CONTR
      000000E7H   SFRSYM    DATA     BYTE      CMPCR2
      000000E6H   SFRSYM    DATA     BYTE      CMPCR1
      000000B8H   SFRSYM    DATA     BYTE      IP
      0000008FH   SFRSYM    DATA     BYTE      INTCLKO
      000000EEH   SFRSYM    DATA     BYTE      IP3H
      000000B6H   SFRSYM    DATA     BYTE      IP2H
      000000A8H   SFRSYM    DATA     BYTE      IE
      000000BBH   SFRSYM    DATA     BYTE      P_SW3
      000000BAH   SFRSYM    DATA     BYTE      P_SW2
      000000A2H   SFRSYM    DATA     BYTE      P_SW1
      000000CEH   SFRSYM    DATA     BYTE      SPCTL
      000000F8H   SFRSYM    DATA     BYTE      P7
      000000E8H   SFRSYM    DATA     BYTE      P6
      000000C8H   SFRSYM    DATA     BYTE      P5
      000000C0H   SFRSYM    DATA     BYTE      P4
      000000B0H   SFRSYM    DATA     BYTE      P3
      000000A0H   SFRSYM    DATA     BYTE      P2
      00000090H   SFRSYM    DATA     BYTE      P1
      00000080H   SFRSYM    DATA     BYTE      P0
      00FF577AH   SYMBOL    CODE     ---       pid_reset
      00FF56EDH   SYMBOL    CODE     ---       pid_param_init
      REG=6       REGSYM    ---      ---       a
      DR28        REGSYM    ---      FLOAT     ABS_MAX

      00FF56EDH   BLOCK     CODE     ---       LVL=0
      REG=2       REGSYM    ---      ---       pid
      DR28        REGSYM    ---      DWORD     mode
      000007FFH   SYMBOL    EDATA    DWORD     maxout
      00000803H   SYMBOL    EDATA    DWORD     intergral_limit
      00000807H   SYMBOL    EDATA    FLOAT     kp
      0000080BH   SYMBOL    EDATA    FLOAT     ki
      0000080FH   SYMBOL    EDATA    FLOAT     kd
      00FF56EDH   LINE      CODE     ---       #25
      00FF56F1H   LINE      CODE     ---       #35
      00FF56FDH   LINE      CODE     ---       #36
      00FF5709H   LINE      CODE     ---       #37
      00FF5711H   LINE      CODE     ---       #39
      00FF571CH   LINE      CODE     ---       #40
      00FF5728H   LINE      CODE     ---       #41
      00FF5734H   LINE      CODE     ---       #42
      ---         BLOCKEND  ---      ---       LVL=0

      00FF577AH   BLOCK     CODE     ---       LVL=0
      REG=2       REGSYM    ---      ---       pid
      DR4         REGSYM    ---      FLOAT     kp
      000007FFH   SYMBOL    EDATA    FLOAT     ki
      00000803H   SYMBOL    EDATA    FLOAT     kd
      00FF577AH   LINE      CODE     ---       #49
      00FF577CH   LINE      CODE     ---       #51
      00FF5783H   LINE      CODE     ---       #52
      00FF578FH   LINE      CODE     ---       #53
      00FF579BH   LINE      CODE     ---       #55
      00FF57A5H   LINE      CODE     ---       #56
      00FF57ADH   LINE      CODE     ---       #57
      00FF57B5H   LINE      CODE     ---       #58
L251 LINKER/LOCATER V4.66.93.0                                                        05/04/2023  22:29:11  PAGE 91


      00FF57BDH   LINE      CODE     ---       #59
      ---         BLOCKEND  ---      ---       LVL=0
      REG=3       REGSYM    ---      ---       pid
      DR28        REGSYM    ---      FLOAT     get

      00FF5250H   BLOCK     CODE     ---       LVL=0
      REG=3       REGSYM    ---      ---       pid
      DR8         REGSYM    ---      DWORD     mode
      000007EBH   SYMBOL    EDATA    DWORD     maxout
      000007EFH   SYMBOL    EDATA    DWORD     intergral_limit
      000007F3H   SYMBOL    EDATA    FLOAT     kp
      000007F7H   SYMBOL    EDATA    FLOAT     ki
      000007FBH   SYMBOL    EDATA    FLOAT     kd
      00FF5250H   LINE      CODE     ---       #109
      00FF5256H   LINE      CODE     ---       #119
      00FF525EH   LINE      CODE     ---       #120
      00FF5266H   LINE      CODE     ---       #122
      00FF5290H   LINE      CODE     ---       #123
      00FF52ACH   LINE      CODE     ---       #124
      ---         BLOCKEND  ---      ---       LVL=0
      REG=3       REGSYM    ---      ---       pid
      DR28        REGSYM    ---      FLOAT     get
      REG=2       REGSYM    ---      ---       pid

      ---         MODULE    ---      ---       host
      00FF4F72H   PUBLIC    CODE     ---       send_five_data
      000007E2H   PUBLIC    EDATA    BYTE      ?send_five_data?BYTE
      000000D0H   SFRSYM    DATA     BYTE      PSW
      0000009DH   SFRSYM    DATA     BYTE      IRCBAND
      00000097H   SFRSYM    DATA     BYTE      AUXR2
      000000EFH   SFRSYM    DATA     BYTE      AUXINTIF
      000000FDH   SFRSYM    DATA     BYTE      S4CON
      000000ACH   SFRSYM    DATA     BYTE      S3CON
      0000009AH   SFRSYM    DATA     BYTE      S2CON
      000000B7H   SFRSYM    DATA     BYTE      IPH
      000000CDH   SFRSYM    DATA     BYTE      SPSTAT
      000000DDH   SFRSYM    DATA     BYTE      T4T3M
      000000C1H   SFRSYM    DATA     BYTE      WDT_CONTR
      000000DFH   SFRSYM    DATA     BYTE      IP3
      000000F4H   SFRSYM    DATA     BYTE      USBCON
      000000B5H   SFRSYM    DATA     BYTE      IP2
      000000FFH   SFRSYM    DATA     BYTE      RSTCFG
      000000F9H   SFRSYM    DATA     BYTE      LINICR
      0000008EH   SFRSYM    DATA     BYTE      AUXR
      000000AFH   SFRSYM    DATA     BYTE      IE2
      00000088H   SFRSYM    DATA     BYTE      TCON
      00000098H   SFRSYM    DATA     BYTE      SCON
      000000F1H   SFRSYM    DATA     BYTE      CANICR
      00000087H   SFRSYM    DATA     BYTE      PCON
      000000BCH   SFRSYM    DATA     BYTE      ADC_CONTR
      000000E7H   SFRSYM    DATA     BYTE      CMPCR2
      000000E6H   SFRSYM    DATA     BYTE      CMPCR1
      000000B8H   SFRSYM    DATA     BYTE      IP
      0000008FH   SFRSYM    DATA     BYTE      INTCLKO
      000000EEH   SFRSYM    DATA     BYTE      IP3H
      000000B6H   SFRSYM    DATA     BYTE      IP2H
      000000A8H   SFRSYM    DATA     BYTE      IE
      000000BBH   SFRSYM    DATA     BYTE      P_SW3
      000000BAH   SFRSYM    DATA     BYTE      P_SW2
      000000A2H   SFRSYM    DATA     BYTE      P_SW1
      000000CEH   SFRSYM    DATA     BYTE      SPCTL
      000000F8H   SFRSYM    DATA     BYTE      P7
      000000E8H   SFRSYM    DATA     BYTE      P6
      000000C8H   SFRSYM    DATA     BYTE      P5
      000000C0H   SFRSYM    DATA     BYTE      P4
L251 LINKER/LOCATER V4.66.93.0                                                        05/04/2023  22:29:11  PAGE 92


      000000B0H   SFRSYM    DATA     BYTE      P3
      000000A0H   SFRSYM    DATA     BYTE      P2
      00000090H   SFRSYM    DATA     BYTE      P1
      00000080H   SFRSYM    DATA     BYTE      P0

      00FF4F72H   BLOCK     CODE     ---       LVL=0
      R10         REGSYM    ---      BYTE      frame
      WR8         REGSYM    ---      INT       num1
      WR4         REGSYM    ---      INT       num2
      WR2         REGSYM    ---      INT       num3
      WR0         REGSYM    ---      INT       num4
      000007EBH   SYMBOL    EDATA    INT       num5
      00FF4F78H   BLOCK     CODE     NEAR LAB  LVL=1
      R15         REGSYM    ---      BYTE      i
      R6          REGSYM    ---      BYTE      sumcheck
      R7          REGSYM    ---      BYTE      addcheck
      000007EDH   SYMBOL    EDATA    ---       data_buf
      ---         BLOCKEND  ---      ---       LVL=1
      00FF4F72H   LINE      CODE     ---       #35
      00FF4F78H   LINE      CODE     ---       #36
      00FF4F78H   LINE      CODE     ---       #38
      00FF4F7AH   LINE      CODE     ---       #39
      00FF4F7CH   LINE      CODE     ---       #43
      00FF4F82H   LINE      CODE     ---       #44
      00FF4F88H   LINE      CODE     ---       #45
      00FF4F8CH   LINE      CODE     ---       #46
      00FF4F92H   LINE      CODE     ---       #49
      00FF4F96H   LINE      CODE     ---       #50
      00FF4F9AH   LINE      CODE     ---       #51
      00FF4F9EH   LINE      CODE     ---       #52
      00FF4FA2H   LINE      CODE     ---       #53
      00FF4FAAH   LINE      CODE     ---       #55
      00FF4FB0H   LINE      CODE     ---       #56
      00FF4FB6H   LINE      CODE     ---       #57
      00FF4FBCH   LINE      CODE     ---       #58
      00FF4FC2H   LINE      CODE     ---       #59
      00FF4FC8H   LINE      CODE     ---       #62
      00FF4FCCH   LINE      CODE     ---       #64
      00FF4FD4H   LINE      CODE     ---       #65
      00FF4FD6H   LINE      CODE     ---       #66
      00FF4FE6H   LINE      CODE     ---       #67
      00FF4FEAH   LINE      CODE     ---       #68
      00FF4FEEH   LINE      CODE     ---       #71
      00FF4FF0H   LINE      CODE     ---       #72
      00FF5002H   LINE      CODE     ---       #74
      ---         BLOCKEND  ---      ---       LVL=0

      ---         MODULE    ---      ---       SEEKFREE_CONFIG
      00FF00A6H   PUBLIC    CODE     ---       imu660ra_config_file

      ---         MODULE    ---      ---       ?C?FPADD
      00FF2EB4H   PUBLIC    CODE     ---       ?C?FPADD
      00FF2EB1H   PUBLIC    CODE     ---       ?C?FPSUB

      ---         MODULE    ---      ---       ?C?FPMUL
      00FF2F6CH   PUBLIC    CODE     ---       ?C?FPMUL

      ---         MODULE    ---      ---       ?C?FPDIV
      00FF300CH   PUBLIC    CODE     ---       ?C?FPDIV

      ---         MODULE    ---      ---       ?C?FPCMP
      00FF308FH   PUBLIC    CODE     ---       ?C?FPCMP
      00FF308DH   PUBLIC    CODE     ---       ?C?FPCMP3

      ---         MODULE    ---      ---       ?C?FPNEG
L251 LINKER/LOCATER V4.66.93.0                                                        05/04/2023  22:29:11  PAGE 93


      00FF30D3H   PUBLIC    CODE     ---       ?C?FPNEG

      ---         MODULE    ---      ---       ?C?FCAST
      00FF30EBH   PUBLIC    CODE     NEAR LAB  ?C?FCASTC
      00FF30E6H   PUBLIC    CODE     NEAR LAB  ?C?FCASTI
      00FF30E1H   PUBLIC    CODE     NEAR LAB  ?C?FCASTL

      ---         MODULE    ---      ---       ?C?CASTF
      00FF311EH   PUBLIC    CODE     NEAR LAB  ?C?CASTF

      ---         MODULE    ---      ---       PRINTF
      00000813H   PUBLIC    EDATA    ---       ?PRINTF?BYTE
      00FF315BH   PUBLIC    CODE     NEAR LAB  PRINTF

      ---         MODULE    ---      ---       FABS
      00FF3187H   PUBLIC    CODE     NEAR LAB  FABS?_

      ---         MODULE    ---      ---       SQRT?_
      00FF3196H   PUBLIC    CODE     ---       SQRT?_

      ---         MODULE    ---      ---       SIN?_
      00FF326EH   PUBLIC    CODE     ---       COS?_
      00FF328BH   PUBLIC    CODE     ---       SIN?_
      00FF32B8H   PUBLIC    CODE     ---       TAN?_

      ---         MODULE    ---      ---       ?C?FPGETOPN
      00FF335EH   PUBLIC    CODE     ---       ?C?FPGETOPN2
      00FF339BH   PUBLIC    CODE     ---       ?C?FPNANRESULT
      00FF33A3H   PUBLIC    CODE     ---       ?C?FPOVERFLOW
      00FF3377H   PUBLIC    CODE     ---       ?C?FPRESULT
      00FF338DH   PUBLIC    CODE     ---       ?C?FPRESULT2
      00FF33A0H   PUBLIC    CODE     ---       ?C?FPUNDERFLOW

      ---         MODULE    ---      ---       ?C?PRNFMT
      00FF33DCH   PUBLIC    CODE     ---       ?C?PRNFMT

      ---         MODULE    ---      ---       ?C?FPSERIES
      00FF37EBH   PUBLIC    CODE     ---       ?C?FP2SERIES
      00FF37F4H   PUBLIC    CODE     ---       ?C?FPSERIES

      ---         MODULE    ---      ---       ?C?FPCONVERT
      00FF3826H   PUBLIC    CODE     ---       ?C?FPCONVERT
      00FF38DEH   PUBLIC    CODE     ---       ?C?FPROUND

      ---         MODULE    ---      ---       ?C?FTNPWR
      00FF3951H   PUBLIC    CODE     ---       ?C?FTNPWR

      ---         MODULE    ---      ---       ?C_START
      00FF0000H   PUBLIC    CODE     ---       ?C?STARTUP
      00FF0000H   PUBLIC    CODE     ---       ?C_STARTUP

      ---         MODULE    ---      ---       ?C?INITEDATA
      00FF5813H   PUBLIC    CODE     ---       ?C?INITEDATA

      ---         MODULE    ---      ---       ?C?SIDIV
      00FF3988H   PUBLIC    CODE     ---       ?C?SIDIV

      ---         MODULE    ---      ---       ?C?LMUL
      00FF39BAH   PUBLIC    CODE     ---       ?C?LMUL

      ---         MODULE    ---      ---       ?C?LIMUL
      00FF39CBH   PUBLIC    CODE     ---       ?C?LIMUL

      ---         MODULE    ---      ---       ?C?ULDIV
      00FF39D6H   PUBLIC    CODE     NEAR LAB  ?C?ULDIV
L251 LINKER/LOCATER V4.66.93.0                                                        05/04/2023  22:29:11  PAGE 94


      00FF39D4H   PUBLIC    CODE     NEAR LAB  ?C?ULIDIV

      ---         MODULE    ---      ---       ?C?SLDIV
      00FF3A27H   PUBLIC    CODE     NEAR LAB  ?C?SLDIV

      ---         MODULE    ---      ---       memcpy
      00FF5B6BH   PUBLIC    CODE     ---       memcpy?_

      ---         MODULE    ---      ---       memset

      ---         MODULE    ---      ---       ?C?INITEDATA_END
      00FF6C68H   PUBLIC    HCONST   WORD      ?C?INITEDATA_END

Program Size: data=8.0 edata+hdata=2451 xdata=0 const=3828 code=24276
L251 RUN COMPLETE.  0 WARNING(S),  0 ERROR(S)
