L251 LINKER/LOCATER V4.66.93.0                                                          05/09/2023  22:12:16  PAGE 1


L251 LINKER/LOCATER V4.66.93.0, INVOKED BY:
D:\KEIL_V5\C251\BIN\L251.EXE .\Out_File\board.obj, .\Out_File\common.obj, .\Out_File\zf_adc.obj, .\Out_File\zf_delay.obj
>> , .\Out_File\zf_eeprom.obj, .\Out_File\zf_exti.obj, .\Out_File\zf_gpio.obj, .\Out_File\zf_iic.obj, .\Out_File\zf_nvic
>> .obj, .\Out_File\zf_pwm.obj, .\Out_File\zf_spi.obj, .\Out_File\zf_tim.obj, .\Out_File\zf_uart.obj, .\Out_File\zf_fifo
>> .obj, .\Out_File\SEEKFREE_ABSOLUTE_ENCODER.obj, .\Out_File\SEEKFREE_AT24C02.obj, .\Out_File\SEEKFREE_BLUETOOTH_CH9141
>> .obj, ..\..\Libraries\seekfree_peripheral\SEEKFREE_CONFIG.LIB, .\Out_File\SEEKFREE_DL1A.obj, .\Out_File\SEEKFREE_FONT
>> .obj, .\Out_File\SEEKFREE_ICM20602.obj, .\Out_File\SEEKFREE_IMU660RA.obj, .\Out_File\SEEKFREE_IMU963RA.obj, .\Out_Fil
>> e\SEEKFREE_IPS114_SPI.obj, .\Out_File\SEEKFREE_MPU6050.obj, .\Out_File\SEEKFREE_PRINTF.obj, .\Out_File\SEEKFREE_TSL14
>> 01.obj, .\Out_File\SEEKFREE_VIRSCO.obj, .\Out_File\SEEKFREE_WIRELESS.obj, .\Out_File\SEEKFREE_WIRELESS_CH573.obj, .\O
>> ut_File\isr.obj, .\Out_File\main.obj, .\Out_File\adc.obj, .\Out_File\control.obj, .\Out_File\key.obj, .\Out_File\moto
>> r.obj, .\Out_File\steer.obj, .\Out_File\timer.obj, .\Out_File\oled.obj, .\Out_File\brushless.obj, .\Out_File\pid.obj,
>>  .\Out_File\host.obj TO .\Out_File\SEEKFREE PRINT (.\Out_File\SEEKFREE.map) CASE DISABLEWARNING (16, 57) REMOVEUNUSED
>>  CLASSES (EDATA (0X0-0XFFF), HDATA (0X0-0XFFF))


CPU MODE:     251 SOURCE MODE
INTR FRAME:   2 BYTES SAVED ON INTERRUPT
MEMORY MODEL: XSMALL WITH FLOATING POINT ARITHMETIC


INPUT MODULES INCLUDED:
  .\Out_File\board.obj (board)
         COMMENT TYPE 0: C251 V5.60.0
  .\Out_File\common.obj (common)
         COMMENT TYPE 0: C251 V5.60.0
  .\Out_File\zf_adc.obj (zf_adc)
         COMMENT TYPE 0: C251 V5.60.0
  .\Out_File\zf_delay.obj (zf_delay)
         COMMENT TYPE 0: C251 V5.60.0
  .\Out_File\zf_eeprom.obj (zf_eeprom)
         COMMENT TYPE 0: C251 V5.60.0
  .\Out_File\zf_exti.obj (zf_exti)
         COMMENT TYPE 0: C251 V5.60.0
  .\Out_File\zf_gpio.obj (zf_gpio)
         COMMENT TYPE 0: C251 V5.60.0
  .\Out_File\zf_iic.obj (zf_iic)
         COMMENT TYPE 0: C251 V5.60.0
  .\Out_File\zf_nvic.obj (zf_nvic)
         COMMENT TYPE 0: C251 V5.60.0
  .\Out_File\zf_pwm.obj (zf_pwm)
         COMMENT TYPE 0: C251 V5.60.0
  .\Out_File\zf_spi.obj (zf_spi)
         COMMENT TYPE 0: C251 V5.60.0
  .\Out_File\zf_tim.obj (zf_tim)
         COMMENT TYPE 0: C251 V5.60.0
  .\Out_File\zf_uart.obj (zf_uart)
         COMMENT TYPE 0: C251 V5.60.0
  .\Out_File\zf_fifo.obj (zf_fifo)
         COMMENT TYPE 0: C251 V5.60.0
  .\Out_File\SEEKFREE_ABSOLUTE_ENCODER.obj (SEEKFREE_ABSOLUTE_ENCODER)
         COMMENT TYPE 0: C251 V5.60.0
  .\Out_File\SEEKFREE_AT24C02.obj (SEEKFREE_AT24C02)
         COMMENT TYPE 0: C251 V5.60.0
  .\Out_File\SEEKFREE_BLUETOOTH_CH9141.obj (SEEKFREE_BLUETOOTH_CH9141)
         COMMENT TYPE 0: C251 V5.60.0
  .\Out_File\SEEKFREE_DL1A.obj (SEEKFREE_DL1A)
         COMMENT TYPE 0: C251 V5.60.0
  .\Out_File\SEEKFREE_FONT.obj (SEEKFREE_FONT)
         COMMENT TYPE 0: C251 V5.60.0
  .\Out_File\SEEKFREE_ICM20602.obj (SEEKFREE_ICM20602)
         COMMENT TYPE 0: C251 V5.60.0
  .\Out_File\SEEKFREE_IMU660RA.obj (SEEKFREE_IMU660RA)
         COMMENT TYPE 0: C251 V5.60.0
  .\Out_File\SEEKFREE_IMU963RA.obj (SEEKFREE_IMU963RA)
         COMMENT TYPE 0: C251 V5.60.0
  .\Out_File\SEEKFREE_IPS114_SPI.obj (SEEKFREE_IPS114_SPI)
L251 LINKER/LOCATER V4.66.93.0                                                        05/09/2023  22:12:16  PAGE 2


         COMMENT TYPE 0: C251 V5.60.0
  .\Out_File\SEEKFREE_MPU6050.obj (SEEKFREE_MPU6050)
         COMMENT TYPE 0: C251 V5.60.0
  .\Out_File\SEEKFREE_PRINTF.obj (SEEKFREE_PRINTF)
         COMMENT TYPE 0: C251 V5.60.0
  .\Out_File\SEEKFREE_TSL1401.obj (SEEKFREE_TSL1401)
         COMMENT TYPE 0: C251 V5.60.0
  .\Out_File\SEEKFREE_VIRSCO.obj (SEEKFREE_VIRSCO)
         COMMENT TYPE 0: C251 V5.60.0
  .\Out_File\SEEKFREE_WIRELESS.obj (SEEKFREE_WIRELESS)
         COMMENT TYPE 0: C251 V5.60.0
  .\Out_File\SEEKFREE_WIRELESS_CH573.obj (SEEKFREE_WIRELESS_CH573)
         COMMENT TYPE 0: C251 V5.60.0
  .\Out_File\isr.obj (isr)
         COMMENT TYPE 0: C251 V5.60.0
  .\Out_File\main.obj (main)
         COMMENT TYPE 0: C251 V5.60.0
  .\Out_File\adc.obj (adc)
         COMMENT TYPE 0: C251 V5.60.0
  .\Out_File\control.obj (control)
         COMMENT TYPE 0: C251 V5.60.0
  .\Out_File\key.obj (key)
         COMMENT TYPE 0: C251 V5.60.0
  .\Out_File\motor.obj (motor)
         COMMENT TYPE 0: C251 V5.60.0
  .\Out_File\steer.obj (steer)
         COMMENT TYPE 0: C251 V5.60.0
  .\Out_File\timer.obj (timer)
         COMMENT TYPE 0: C251 V5.60.0
  .\Out_File\oled.obj (oled)
         COMMENT TYPE 0: C251 V5.60.0
  .\Out_File\brushless.obj (brushless)
         COMMENT TYPE 0: C251 V5.60.0
  .\Out_File\pid.obj (pid)
         COMMENT TYPE 0: C251 V5.60.0
  .\Out_File\host.obj (host)
         COMMENT TYPE 0: C251 V5.60.0
  ..\..\Libraries\seekfree_peripheral\SEEKFREE_CONFIG.LIB (SEEKFREE_CONFIG)
         COMMENT TYPE 0: C251 V5.60.0
  D:\KEIL_V5\C251\LIB\C2SFPXS.LIB (?C?FPADD)
         COMMENT TYPE 0: A251 V4.69.6.0
  D:\KEIL_V5\C251\LIB\C2SFPXS.LIB (?C?FPMUL)
         COMMENT TYPE 0: A251 V4.69.6.0
  D:\KEIL_V5\C251\LIB\C2SFPXS.LIB (?C?FPDIV)
         COMMENT TYPE 0: A251 V4.69.6.0
  D:\KEIL_V5\C251\LIB\C2SFPXS.LIB (?C?FPCMP)
         COMMENT TYPE 0: A251 V4.69.6.0
  D:\KEIL_V5\C251\LIB\C2SFPXS.LIB (?C?FPNEG)
         COMMENT TYPE 0: A251 V4.69.6.0
  D:\KEIL_V5\C251\LIB\C2SFPXS.LIB (?C?FCAST)
         COMMENT TYPE 0: A251 V4.69.6.0
  D:\KEIL_V5\C251\LIB\C2SFPXS.LIB (?C?CASTF)
         COMMENT TYPE 0: A251 V4.69.6.0
  D:\KEIL_V5\C251\LIB\C2SFPXS.LIB (PRINTF)
         COMMENT TYPE 0: A251 V4.69.6.0
  D:\KEIL_V5\C251\LIB\C2SFPXS.LIB (FABS)
         COMMENT TYPE 0: A251 V4.69.6.0
  D:\KEIL_V5\C251\LIB\C2SFPXS.LIB (SQRT?_)
         COMMENT TYPE 0: A251 V4.69.6.0
  D:\KEIL_V5\C251\LIB\C2SFPXS.LIB (SIN?_)
         COMMENT TYPE 0: A251 V4.69.6.0
  D:\KEIL_V5\C251\LIB\C2SFPXS.LIB (?C?FPGETOPN)
         COMMENT TYPE 0: A251 V4.69.6.0
  D:\KEIL_V5\C251\LIB\C2SFPXS.LIB (?C?PRNFMT)
         COMMENT TYPE 0: A251 V4.69.6.0
L251 LINKER/LOCATER V4.66.93.0                                                        05/09/2023  22:12:16  PAGE 3


  D:\KEIL_V5\C251\LIB\C2SFPXS.LIB (?C?FPSERIES)
         COMMENT TYPE 0: A251 V4.69.6.0
  D:\KEIL_V5\C251\LIB\C2SFPXS.LIB (?C?FPCONVERT)
         COMMENT TYPE 0: A251 V4.69.6.0
  D:\KEIL_V5\C251\LIB\C2SFPXS.LIB (?C?FTNPWR)
         COMMENT TYPE 0: A251 V4.69.6.0
  D:\KEIL_V5\C251\LIB\C2SXS.LIB (?C_START)
         COMMENT TYPE 0: A251 V4.69.6.0
  D:\KEIL_V5\C251\LIB\C2SXS.LIB (?C?INITEDATA)
         COMMENT TYPE 0: A251 V4.69.6.0
  D:\KEIL_V5\C251\LIB\C2SXS.LIB (?C?SIDIV)
         COMMENT TYPE 0: A251 V4.69.6.0
  D:\KEIL_V5\C251\LIB\C2SXS.LIB (?C?LMUL)
         COMMENT TYPE 0: A251 V4.69.6.0
  D:\KEIL_V5\C251\LIB\C2SXS.LIB (?C?LIMUL)
         COMMENT TYPE 0: A251 V4.69.6.0
  D:\KEIL_V5\C251\LIB\C2SXS.LIB (?C?ULDIV)
         COMMENT TYPE 0: A251 V4.69.6.0
  D:\KEIL_V5\C251\LIB\C2SXS.LIB (?C?SLDIV)
         COMMENT TYPE 0: A251 V4.69.6.0
  D:\KEIL_V5\C251\LIB\C2SXS.LIB (memcpy)
         COMMENT TYPE 0: C251 V5.58.7
  D:\KEIL_V5\C251\LIB\C2SXS.LIB (memset)
         COMMENT TYPE 0: C251 V5.58.7
  D:\KEIL_V5\C251\LIB\C2SXS.LIB (?C?INITEDATA_END)
         COMMENT TYPE 0: A251 V4.69.6.0


ACTIVE MEMORY CLASSES OF MODULE:  .\Out_File\SEEKFREE (board)

BASE        START       END         USED      MEMORY CLASS
==========================================================
000000H     000000H     000FFFH     000A81H   EDATA
000000H     000000H     000FFFH               HDATA
FF0000H     FF0000H     FFFFFFH     006264H   CODE
000000H     FF0000H     FFFFFFH     000FA4H   HCONST
FF0000H     FF0000H     FFFFFFH     000004H   CONST
000000H     000000H     00007FH     000008H   DATA


MEMORY MAP OF MODULE:  .\Out_File\SEEKFREE (board)


START     STOP      LENGTH    ALIGN  RELOC    MEMORY CLASS   SEGMENT NAME
=========================================================================
000000H   000007H   000008H   ---    AT..     DATA           "REG BANK 0"
000008H   0003C8H   0003C1H   BYTE   UNIT     EDATA          ?ED?OLED
0003C9H   0004C9H   000101H   BYTE   UNIT     EDATA          ?ED?SEEKFREE_TSL1401
0004CAH   000596H   0000CDH   BYTE   UNIT     EDATA          ?ED?ZF_UART
000597H   00065FH   0000C9H   BYTE   UNIT     EDATA          ?ED?CONTROL
000660H   00071FH   0000C0H   BYTE   UNIT     EDATA          ?ED?ADC
000720H   0007AFH   000090H   BYTE   UNIT     EDATA          ?ED?PID
0007B0H   000811H   000062H   BYTE   UNIT     EDATA          _EDATA_GROUP_
000812H   000866H   000055H   BYTE   UNIT     EDATA          ?ED?SEEKFREE_BLUETOOTH_CH9141
000867H   0008BBH   000055H   BYTE   UNIT     EDATA          ?ED?SEEKFREE_WIRELESS
0008BCH   000910H   000055H   BYTE   UNIT     EDATA          ?ED?SEEKFREE_WIRELESS_CH573
000911H   000922H   000012H   BYTE   UNIT     EDATA          ?ED?SEEKFREE_IMU963RA
000923H   00092EH   00000CH   BYTE   UNIT     EDATA          ?ED?SEEKFREE_ICM20602
00092FH   00093AH   00000CH   BYTE   UNIT     EDATA          ?ED?SEEKFREE_IMU660RA
00093BH   000946H   00000CH   BYTE   UNIT     EDATA          ?ED?SEEKFREE_MPU6050
000947H   000950H   00000AH   BYTE   UNIT     EDATA          ?ED?SEEKFREE_VIRSCO
000951H   000956H   000006H   BYTE   UNIT     EDATA          ?ED?DL1A_SIMIIC_READ_REGS?SEEKFREE_DL1A
000957H   00095CH   000006H   BYTE   UNIT     EDATA          ?ED?DL1A_GET_SEQUENCE_STEP_TIMEOUTS?SEEKFREE_DL1A
00095DH   000961H   000005H   BYTE   UNIT     EDATA          ?ED?DL1A_SIMIIC_WRITE_DATS?SEEKFREE_DL1A
000962H   000965H   000004H   BYTE   UNIT     EDATA          ?ED?BOARD
L251 LINKER/LOCATER V4.66.93.0                                                        05/09/2023  22:12:16  PAGE 4


000966H   000969H   000004H   BYTE   UNIT     EDATA          ?ED?ZF_DELAY
00096AH   00096DH   000004H   BYTE   UNIT     EDATA          ?ED?ICM20602_SIMSPI_R_REG_BYTES?SEEKFREE_ICM20602
00096EH   000971H   000004H   BYTE   UNIT     EDATA          ?ED?IMU660RA_SIMSPI_R_REG_BYTES?SEEKFREE_IMU660RA
000972H   000975H   000004H   BYTE   UNIT     EDATA          ?ED?MOTOR
000976H   000979H   000004H   BYTE   UNIT     EDATA          ?ED?STEER
00097AH   00097CH   000003H   BYTE   UNIT     EDATA          ?ED?SEEKFREE_DL1A
00097DH   00097EH   000002H   BYTE   UNIT     EDATA          ?ED?COMMON
00097FH   000980H   000002H   BYTE   UNIT     EDATA          ?ED?IMU660RA_READ_REGISTER?SEEKFREE_IMU660RA
000981H   000982H   000002H   BYTE   UNIT     EDATA          ?ED?IPS114_WRITEDATA_16BIT?SEEKFREE_IPS114_SPI
000983H   000983H   000001H   BYTE   UNIT     EDATA          ?ED?DL1A_GET_SEQUENCE_STEP_ENABLES?SEEKFREE_DL1A
000984H   000984H   000001H   BYTE   UNIT     EDATA          ?ED?DL1A_GET_VCSEL_PULSE_PERIOD?SEEKFREE_DL1A
000985H   000985H   000001H   BYTE   UNIT     EDATA          ?ED?ICM20602_READ_REGISTER?SEEKFREE_ICM20602
000986H   000986H   000001H   BYTE   UNIT     EDATA          ?ED?IMU963RA_READ_ACC_GYRO_REGISTER?SEEKFREE_IMU963RA
000987H   000987H   000001H   BYTE   UNIT     EDATA          ?ED?ISR
000988H   000988H   000001H   BYTE   UNIT     EDATA          ?ED?KEY
000989H   000A88H   000100H   BYTE   UNIT     EDATA          ?STACK
000A89H   FEFFFFH   FEF577H   ---    ---      **GAP**
FF0000H   FF0002H   000003H   ---    OFFS..   CODE           ?CO?start251?4
FF0003H   FF0005H   000003H   ---    OFFS..   CODE           ?PR?IV?0
FF0006H   FF000AH   000005H   BYTE   INSEG    CODE           ?PR?ENCODER_DELAY_US?SEEKFREE_ABSOLUTE_ENCODER
FF000BH   FF000DH   000003H   ---    OFFS..   CODE           ?PR?IV?1
FF000EH   FF0010H   000003H   BYTE   INSEG    CODE           ?PR?ENABLEGLOBALIRQ?BOARD
FF0011H   FF0011H   000001H   BYTE   INSEG    CODE           ?PR?INT1_ISR?ISR
FF0012H   FF0012H   000001H   BYTE   INSEG    CODE           ?PR?TM1_ISR?ISR
FF0013H   FF0015H   000003H   ---    OFFS..   CODE           ?PR?IV?2
FF0016H   FF0019H   000004H   BYTE   UNIT     CONST          ?CO?PRINTF
FF001AH   FF001AH   000001H   ---    ---      **GAP**
FF001BH   FF001DH   000003H   ---    OFFS..   CODE           ?PR?IV?3
FF001EH   FF0022H   000005H   ---    ---      **GAP**
FF0023H   FF0025H   000003H   ---    OFFS..   CODE           ?PR?IV?4
FF0026H   FF0041H   00001CH   BYTE   INSEG    CODE           ?PR?DL1A_SCCB_WAITACK?SEEKFREE_DL1A
FF0042H   FF0042H   000001H   ---    ---      **GAP**
FF0043H   FF0045H   000003H   ---    OFFS..   CODE           ?PR?IV?8
FF0046H   FF0052H   00000DH   BYTE   INSEG    CODE           ?PR?AT24C02_SIMIIC_DELAY?SEEKFREE_AT24C02
FF0053H   FF0055H   000003H   ---    OFFS..   CODE           ?PR?IV?10
FF0056H   FF005AH   000005H   ---    ---      **GAP**
FF005BH   FF005DH   000003H   ---    OFFS..   CODE           ?PR?IV?11
FF005EH   FF0062H   000005H   ---    ---      **GAP**
FF0063H   FF0065H   000003H   ---    OFFS..   CODE           ?PR?IV?12
FF0066H   FF0081H   00001CH   BYTE   INSEG    CODE           ?PR?IMU963RA_SIMSPI_R_REG_BYTE?SEEKFREE_IMU963RA
FF0082H   FF0082H   000001H   ---    ---      **GAP**
FF0083H   FF0085H   000003H   ---    OFFS..   CODE           ?PR?IV?16
FF0086H   FF008AH   000005H   ---    ---      **GAP**
FF008BH   FF008DH   000003H   ---    OFFS..   CODE           ?PR?IV?17
FF008EH   FF0092H   000005H   ---    ---      **GAP**
FF0093H   FF0095H   000003H   ---    OFFS..   CODE           ?PR?IV?18
FF0096H   FF009AH   000005H   ---    ---      **GAP**
FF009BH   FF009DH   000003H   ---    OFFS..   CODE           ?PR?IV?19
FF009EH   FF00A2H   000005H   ---    ---      **GAP**
FF00A3H   FF00A5H   000003H   ---    OFFS..   CODE           ?PR?IV?20
FF00A6H   FF20A5H   002000H   BYTE   UNIT     CODE           ?CO?SEEKFREE_CONFIG
FF20A6H   FF2EADH   000E08H   BYTE   UNIT     CODE           ?CO?SEEKFREE_FONT
FF2EAEH   FF3A5AH   000BADH   BYTE   UNIT     CODE           ?C?LIB_CODE
FF3A5BH   FF3E51H   0003F7H   BYTE   INSEG    CODE           ?PR?GPIO_MODE?ZF_GPIO
FF3E52H   FF414DH   0002FCH   BYTE   INSEG    CODE           ?PR?PWM_INIT?ZF_PWM
FF414EH   FF43EEH   0002A1H   BYTE   INSEG    CODE           ?PR?PWM_SET_GPIO?ZF_PWM
FF43EFH   FF460BH   00021DH   BYTE   INSEG    CODE           ?PR?TM4_ISR?ISR
FF460CH   FF47CAH   0001BFH   BYTE   INSEG    CODE           ?PR?UART_INIT?ZF_UART
FF47CBH   FF48ECH   000122H   BYTE   INSEG    CODE           ?PR?SET_CLK?BOARD
FF48EDH   FF49FBH   00010FH   BYTE   INSEG    CODE           ?PR?DIRECT_JUDGE?CONTROL
FF49FCH   FF4B05H   00010AH   BYTE   INSEG    CODE           ?PR?MAIN?MAIN
FF4B06H   FF4C0CH   000107H   BYTE   INSEG    CODE           ?PR?READ_ADC_VALUE?ADC
FF4C0DH   FF4CECH   0000E0H   BYTE   INSEG    CODE           ?PR?FIFO_WRITE_BUFFER?ZF_FIFO
FF4CEDH   FF4DC7H   0000DBH   BYTE   INSEG    CODE           ?PR?DL1A_GET_SEQUENCE_STEP_TIMEOUTS?SEEKFREE_DL1A
FF4DC8H   FF4E9EH   0000D7H   BYTE   INSEG    CODE           ?PR?DEV_TOLERANT_CORREC_ANG?CONTROL
L251 LINKER/LOCATER V4.66.93.0                                                        05/09/2023  22:12:16  PAGE 5


FF4E9FH   FF4F66H   0000C8H   BYTE   INSEG    CODE           ?PR?PWM_DUTY?ZF_PWM
FF4F67H   FF5018H   0000B2H   BYTE   INSEG    CODE           ?PR?LOSTLINE_DEAL?CONTROL
FF5019H   FF50C6H   0000AEH   BYTE   INSEG    CODE           ?PR?OLED_INIT?OLED
FF50C7H   FF516BH   0000A5H   BYTE   INSEG    CODE           ?PR?MOTOR_CONTROL?MOTOR
FF516CH   FF51FFH   000094H   BYTE   INSEG    CODE           ?PR?BOARD_INIT?BOARD
FF5200H   FF5293H   000094H   BYTE   INSEG    CODE           ?PR?PIT_TIMER_MS?ZF_TIM
FF5294H   FF5326H   000093H   BYTE   INSEG    CODE           ?PR?SEND_FIVE_DATA?HOST
FF5327H   FF53B8H   000092H   BYTE   INSEG    CODE           ?PR?LOST_LINE_JUDGE?CONTROL
FF53B9H   FF5444H   00008CH   BYTE   INSEG    CODE           ?PR?STEER_SPIN?STEER
FF5445H   FF54CEH   00008AH   BYTE   INSEG    CODE           ?PR?ROUNDABOUT_DEAL?CONTROL
FF54CFH   FF5537H   000069H   BYTE   INSEG    CODE           ?PR?UART4_ISR?ISR
FF5538H   FF559EH   000067H   BYTE   INSEG    CODE           ?PR?CORRECT_ANGLE?CONTROL
FF559FH   FF5601H   000063H   BYTE   INSEG    CODE           ?PR?ADC_ERROR_PROCESSING?CONTROL
FF5602H   FF5660H   00005FH   BYTE   INSEG    CODE           ?PR?PID_STRUCT_INIT?PID
FF5661H   FF56BEH   00005EH   BYTE   INSEG    CODE           ?PR?ADC_INIT?ZF_ADC
FF56BFH   FF5719H   00005BH   BYTE   INSEG    CODE           ?PR?ADC_ERROR_WINDOW_FILTERING?CONTROL
FF571AH   FF5773H   00005AH   BYTE   INSEG    CODE           ?PR?OLED_WR_BYTE?OLED
FF5774H   FF57CBH   000058H   BYTE   INSEG    CODE           ?PR?DL1A_GET_SEQUENCE_STEP_ENABLES?SEEKFREE_DL1A
FF57CCH   FF581FH   000054H   BYTE   INSEG    CODE           ?PR?UART_PUTCHAR?ZF_UART
FF5820H   FF5873H   000054H   BYTE   INSEG    CODE           ?PR?DL1A_SIMIIC_READ_REGS?SEEKFREE_DL1A
FF5874H   FF58C5H   000052H   BYTE   INSEG    CODE           ?PR?IMU963RA_READ_MAG_REGISTER?SEEKFREE_IMU963RA
FF58C6H   FF5915H   000050H   BYTE   INSEG    CODE           ?PR?MOTOR_INIT?MOTOR
FF5916H   FF5962H   00004DH   BYTE   INSEG    CODE           ?PR?DL1A_GET_VCSEL_PULSE_PERIOD?SEEKFREE_DL1A
FF5963H   FF59AFH   00004DH   BYTE   INSEG    CODE           ?PR?ADC_MEAN_FILTER?ADC
FF59B0H   FF59F9H   00004AH   BYTE   INSEG    CODE           ?PR?CTIMER_COUNT_INIT?ZF_TIM
FF59FAH   FF5A41H   000048H   BYTE   INSEG    CODE           ?PR?MY_ADC_INIT?ADC
FF5A42H   FF5A89H   000048H   BYTE   INSEG    CODE           ?PR?PID_PARAM_INIT?PID
FF5A8AH   FF5ACEH   000045H   BYTE   INSEG    CODE           ?PR?WAIT?ZF_IIC
FF5ACFH   FF5B13H   000045H   BYTE   INSEG    CODE           ?PR?TM0_ISR?ISR
FF5B14H   FF5B57H   000044H   BYTE   INSEG    CODE           ?PR?PID_RESET?PID
FF5B58H   FF5B99H   000042H   BYTE   INSEG    CODE           ?PR?FIFO_HEAD_OFFSET?ZF_FIFO
FF5B9AH   FF5BACH   000013H   BYTE   UNIT     CODE           ?C_C51STARTUP
FF5BADH   FF5BD5H   000029H   BYTE   UNIT     CODE           ?C_C51STARTUP?2
FF5BD6H   FF5BD8H   000003H   BYTE   UNIT     CODE           ?C_C51STARTUP?3
FF5BD9H   FF5C16H   00003EH   BYTE   INSEG    CODE           ?PR?DL1A_TIMEOUT_MCLKS_TO_MICROSECONDS?SEEKFREE_DL1A
FF5C17H   FF5C53H   00003DH   BYTE   INSEG    CODE           ?PR?UART1_ISR?ISR
FF5C54H   FF5C8FH   00003CH   BYTE   INSEG    CODE           ?PR?DL1A_TIMEOUT_MICROSECONDS_TO_MCLKS?SEEKFREE_DL1A
FF5C90H   FF5CCAH   00003BH   BYTE   INSEG    CODE           ?PR?DL1A_READ_CH?SEEKFREE_DL1A
FF5CCBH   FF5D03H   000039H   BYTE   INSEG    CODE           ?PR?DELAY_INIT?ZF_DELAY
FF5D04H   FF5D38H   000035H   BYTE   INSEG    CODE           ?PR?DL1A_SIMIIC_WRITE_DATS?SEEKFREE_DL1A
FF5D39H   FF5D6CH   000034H   BYTE   INSEG    CODE           ?PR?DL1A_ENCODE_TIMEOUT?SEEKFREE_DL1A
FF5D6DH   FF5D9EH   000032H   BYTE   INSEG    CODE           ?PR?OLED_CLEAR?OLED
FF5D9FH   FF5DCEH   000030H   BYTE   INSEG    CODE           ?PR?ICM20602_SIMSPI_R_REG_BYTES?SEEKFREE_ICM20602
FF5DCFH   FF5DFEH   000030H   BYTE   INSEG    CODE           ?PR?IMU660RA_SIMSPI_R_REG_BYTES?SEEKFREE_IMU660RA
FF5DFFH   FF5E2CH   00002EH   BYTE   INSEG    CODE           ?PR?ADC_ONCE?ZF_ADC
FF5E2DH   FF5E5AH   00002EH   BYTE   INSEG    CODE           ?PR?DL1A_SEND_CH?SEEKFREE_DL1A
FF5E5BH   FF5E88H   00002EH   BYTE   INSEG    CODE           ?PR?ADC_ERROR_WEIGHT_FILTERING?CONTROL
FF5E89H   FF5EB4H   00002CH   BYTE   INSEG    CODE           ?PR?IPS114_WRITEDATAI_16BIT_SIMSPI?SEEKFREE_IPS114_SPI
FF5EB5H   FF5EDDH   000029H   BYTE   INSEG    CODE           ?PR?IPS114_WRITEINDEX_SIMSPI?SEEKFREE_IPS114_SPI
FF5EDEH   FF5F04H   000027H   BYTE   INSEG    CODE           ?PR?OLED_SET_POS?OLED
FF5F05H   FF5F29H   000025H   BYTE   INSEG    CODE           ?PR?MEMCPY?_?MEMCPY
FF5F2AH   FF5F4DH   000024H   BYTE   INSEG    CODE           ?PR?BRUSHLESS_INIT?BRUSHLESS
FF5F4EH   FF5F70H   000023H   BYTE   INSEG    CODE           ?PR?ICM20602_SIMSPI_WR_BYTE?SEEKFREE_ICM20602
FF5F71H   FF5F93H   000023H   BYTE   INSEG    CODE           ?PR?IMU660RA_SIMSPI_WR_BYTE?SEEKFREE_IMU660RA
FF5F94H   FF5FB6H   000023H   BYTE   INSEG    CODE           ?PR?IMU963RA_SIMSPI_WR_BYTE?SEEKFREE_IMU963RA
FF5FB7H   FF5FD6H   000020H   BYTE   INSEG    CODE           ?PR?AT24C02_SIMIIC_SENDACK?SEEKFREE_AT24C02
FF5FD7H   FF5FF6H   000020H   BYTE   INSEG    CODE           ?PR?DL1A_SIMIIC_SENDACK?SEEKFREE_DL1A
FF5FF7H   FF6016H   000020H   BYTE   INSEG    CODE           ?PR?MPU6050_SIMIIC_SENDACK?SEEKFREE_MPU6050
FF6017H   FF6036H   000020H   BYTE   INSEG    CODE           ?PR?STEER_SPIN_LIMIT?STEER
FF6037H   FF6055H   00001FH   BYTE   INSEG    CODE           ?PR?IPS114_WRITEDATA_16BIT?SEEKFREE_IPS114_SPI
FF6056H   FF6073H   00001EH   BYTE   INSEG    CODE           ?PR?UART2_ISR?ISR
FF6074H   FF6091H   00001EH   BYTE   INSEG    CODE           ?PR?UART3_ISR?ISR
FF6092H   FF60ACH   00001BH   BYTE   INSEG    CODE           ?PR?IMU963RA_READ_ACC_GYRO_REGISTER?SEEKFREE_IMU963RA
FF60ADH   FF60C5H   000019H   BYTE   INSEG    CODE           ?PR?DELAY_US?ZF_DELAY
FF60C6H   FF60DEH   000019H   BYTE   INSEG    CODE           ?PR?BLUETOOTH_CH9141_UART_CALLBACK?SEEKFREE_BLUETOOTH_CH91
L251 LINKER/LOCATER V4.66.93.0                                                        05/09/2023  22:12:16  PAGE 6


                                                             -41
FF60DFH   FF60F7H   000019H   BYTE   INSEG    CODE           ?PR?WIRELESS_UART_CALLBACK?SEEKFREE_WIRELESS
FF60F8H   FF6110H   000019H   BYTE   INSEG    CODE           ?PR?WIRELESS_CH573_CALLBACK?SEEKFREE_WIRELESS_CH573
FF6111H   FF6128H   000018H   BYTE   INSEG    CODE           ?PR?ICM20602_SIMSPI_R_REG_BYTE?SEEKFREE_ICM20602
FF6129H   FF613FH   000017H   BYTE   INSEG    CODE           ?PR?DELAY_MS?ZF_DELAY
FF6140H   FF6155H   000016H   BYTE   INSEG    CODE           ?PR?IMU660RA_READ_REGISTER?SEEKFREE_IMU660RA
FF6156H   FF616AH   000015H   BYTE   INSEG    CODE           ?PR?EEPROM_TRIG?ZF_EEPROM
FF616BH   FF617FH   000015H   BYTE   INSEG    CODE           ?PR?IIC_DELAY_US?ZF_IIC
FF6180H   FF6192H   000013H   BYTE   INSEG    CODE           ?PR?IMU963RA_SIMSPI_W_REG_BYTE?SEEKFREE_IMU963RA
FF6193H   FF61A5H   000013H   BYTE   INSEG    CODE           ?PR?STEER_INIT?STEER
FF61A6H   FF61B7H   000012H   BYTE   INSEG    CODE           ?PR?ICM20602_READ_REGISTER?SEEKFREE_ICM20602
FF61B8H   FF61C8H   000011H   BYTE   INSEG    CODE           ?PR?AT24C02_SIMIIC_STOP?SEEKFREE_AT24C02
FF61C9H   FF61D9H   000011H   BYTE   INSEG    CODE           ?PR?DL1A_SIMIIC_STOP?SEEKFREE_DL1A
FF61DAH   FF61EAH   000011H   BYTE   INSEG    CODE           ?PR?MPU6050_SIMIIC_STOP?SEEKFREE_MPU6050
FF61EBH   FF61FAH   000010H   BYTE   INSEG    CODE           ?PR?DL1A_DECODE_TIMEOUT?SEEKFREE_DL1A
FF61FBH   FF6209H   00000FH   BYTE   INSEG    CODE           ?PR?DL1A_SIMIIC_START?SEEKFREE_DL1A
FF620AH   FF6218H   00000FH   BYTE   INSEG    CODE           ?PR?MPU6050_SIMIIC_START?SEEKFREE_MPU6050
FF6219H   FF6226H   00000EH   BYTE   INSEG    CODE           ?PR?PUTCHAR?BOARD
FF6227H   FF6234H   00000EH   BYTE   INSEG    CODE           ?PR?SPI_MOSI?ZF_SPI
FF6235H   FF6241H   00000DH   BYTE   INSEG    CODE           ?PR?DL1A_SIMIIC_DELAY?SEEKFREE_DL1A
FF6242H   FF624CH   00000BH   BYTE   INSEG    CODE           ?PR?MPU6050_SIMIIC_DELAY?SEEKFREE_MPU6050
FF624DH   FF6256H   00000AH   BYTE   INSEG    CODE           ?PR?IPS114_WRITEINDEX?SEEKFREE_IPS114_SPI
FF6257H   FF625EH   000008H   BYTE   INSEG    CODE           ?PR?IMU963RA_WRITE_ACC_GYRO_REGISTER?SEEKFREE_IMU963RA
FF625FH   FF6266H   000008H   BYTE   INSEG    CODE           ?PR?INT2_ISR?ISR
FF6267H   FF626EH   000008H   BYTE   INSEG    CODE           ?PR?INT3_ISR?ISR
FF626FH   FF6276H   000008H   BYTE   INSEG    CODE           ?PR?INT4_ISR?ISR
FF6277H   FF627EH   000008H   BYTE   INSEG    CODE           ?PR?TM2_ISR?ISR
FF627FH   FF6286H   000008H   BYTE   INSEG    CODE           ?PR?TM3_ISR?ISR
FF6287H   FF628DH   000007H   BYTE   INSEG    CODE           ?PR?INT0_ISR?ISR
FF628EH   FF6AA5H   000818H   BYTE   UNIT     HCONST         ?HC?OLED
FF6AA6H   FF70F8H   000653H   BYTE   UNIT     HCONST         ?C_INITEDATA
FF70F9H   FF7150H   000058H   BYTE   UNIT     HCONST         ?HC?ZF_PWM
FF7151H   FF719BH   00004BH   BYTE   UNIT     HCONST         ?HC?SEEKFREE_IMU963RA
FF719CH   FF71CFH   000034H   BYTE   UNIT     HCONST         ?HC?SEEKFREE_IMU660RA
FF71D0H   FF7202H   000033H   BYTE   UNIT     HCONST         ?HC?SEEKFREE_ICM20602
FF7203H   FF7218H   000016H   BYTE   UNIT     HCONST         ?HC?SEEKFREE_MPU6050
FF7219H   FF722BH   000013H   BYTE   UNIT     HCONST         ?HC?SEEKFREE_DL1A
FF722CH   FF7231H   000006H   BYTE   UNIT     HCONST         ?HC?SEEKFREE_IPS114_SPI

* * * * * * * * *   R E M O V E D     S E G M E N T S   * * * * * * * *
   *DEL*:           000003H   BYTE   INSEG    CODE           ?PR?DISABLEGLOBALIRQ?BOARD
   *DEL*:           000016H   BYTE   INSEG    CODE           ?PR?IAP_SET_TPS?ZF_EEPROM
   *DEL*:           00000EH   BYTE   INSEG    CODE           ?PR?IAP_ERASE_PAGE?ZF_EEPROM
   *DEL*:           000004H   BYTE   INSEG    CODE           ?PR?IAP_IDLE?ZF_EEPROM
   *DEL*:           000047H   BYTE   INSEG    CODE           ?PR?IAP_READ_BYTES?ZF_EEPROM
   *DEL*:           00006DH   BYTE   INSEG    CODE           ?PR?EXTERN_IAP_WRITE_BYTES?ZF_EEPROM
   *DEL*:           000006H   BYTE   INSEG    CODE           ?PR?IAP_INIT?ZF_EEPROM
   *DEL*:           000047H   BYTE   INSEG    CODE           ?PR?IAP_WRITE_BYTES?ZF_EEPROM
   *DEL*:           00000CH   BYTE   INSEG    CODE           ?PR?IAP_GET_CMD_STATE?ZF_EEPROM
   *DEL*:           000004H   BYTE   UNIT     EDATA          ?ED?IAP_READ_BYTES?ZF_EEPROM
   *DEL*:           000004H   BYTE   UNIT     EDATA          ?ED?IAP_WRITE_BYTES?ZF_EEPROM
   *DEL*:           000204H   BYTE   UNIT     EDATA          ?ED?EXTERN_IAP_WRITE_BYTES?ZF_EEPROM
   *DEL*:           00003EH   BYTE   INSEG    CODE           ?PR?EXIT_INIT?ZF_EXTI
   *DEL*:           00006EH   BYTE   INSEG    CODE           ?PR?GPIO_PULL_SET?ZF_GPIO
   *DEL*:           000017H   BYTE   INSEG    CODE           ?PR?SEND_DATA?ZF_IIC
   *DEL*:           00002FH   BYTE   INSEG    CODE           ?PR?IIC_CHANGE_PIN?ZF_IIC
   *DEL*:           00001CH   BYTE   INSEG    CODE           ?PR?RECV_DATA?ZF_IIC
   *DEL*:           000010H   BYTE   INSEG    CODE           ?PR?START?ZF_IIC
   *DEL*:           000018H   BYTE   INSEG    CODE           ?PR?SEND_ACK?ZF_IIC
   *DEL*:           000010H   BYTE   INSEG    CODE           ?PR?RECV_ACK?ZF_IIC
   *DEL*:           000010H   BYTE   INSEG    CODE           ?PR?STOP?ZF_IIC
   *DEL*:           000019H   BYTE   INSEG    CODE           ?PR?SEND_NAK?ZF_IIC
   *DEL*:           00005EH   BYTE   INSEG    CODE           ?PR?IIC_INIT?ZF_IIC
   *DEL*:           000075H   BYTE   INSEG    CODE           ?PR?IIC_READ_REG?ZF_IIC
   *DEL*:           00009CH   BYTE   INSEG    CODE           ?PR?IIC_READ_REG_BYTES?ZF_IIC
L251 LINKER/LOCATER V4.66.93.0                                                        05/09/2023  22:12:16  PAGE 7


   *DEL*:           000060H   BYTE   INSEG    CODE           ?PR?IIC_WRITE_REG?ZF_IIC
   *DEL*:           000004H   BYTE   UNIT     EDATA          ?ED?IIC_INIT?ZF_IIC
   *DEL*:           000004H   BYTE   UNIT     EDATA          ?ED?IIC_READ_REG?ZF_IIC
   *DEL*:           000003H   BYTE   UNIT     EDATA          ?ED?IIC_READ_REG_BYTES?ZF_IIC
   *DEL*:           00006CH   BYTE   INSEG    CODE           ?PR?NVIC_SETPRIORITY?ZF_NVIC
   *DEL*:           000131H   BYTE   INSEG    CODE           ?PR?PWM_FREQ?ZF_PWM
   *DEL*:           000004H   BYTE   UNIT     EDATA          ?ED?PWM_FREQ?ZF_PWM
   *DEL*:           00001DH   BYTE   INSEG    CODE           ?PR?SPI_CHANGE_MODE?ZF_SPI
   *DEL*:           0000AEH   BYTE   INSEG    CODE           ?PR?SPI_CHANGE_PIN?ZF_SPI
   *DEL*:           0000DFH   BYTE   INSEG    CODE           ?PR?SPI_INIT?ZF_SPI
   *DEL*:           000004H   BYTE   UNIT     EDATA          ?ED?SPI_INIT?ZF_SPI
   *DEL*:           00004DH   BYTE   INSEG    CODE           ?PR?CTIMER_COUNT_READ?ZF_TIM
   *DEL*:           000051H   BYTE   INSEG    CODE           ?PR?CTIMER_COUNT_CLEAN?ZF_TIM
   *DEL*:           00002DH   BYTE   INSEG    CODE           ?PR?UART_PUTBUFF?ZF_UART
   *DEL*:           00001EH   BYTE   INSEG    CODE           ?PR?UART_PUTSTR?ZF_UART
   *DEL*:           000004H   BYTE   UNIT     EDATA          ?ED?UART_PUTBUFF?ZF_UART
   *DEL*:           000002H   BYTE   UNIT     EDATA          ?ED?UART_PUTSTR?ZF_UART
   *DEL*:           000113H   BYTE   INSEG    CODE           ?PR?FIFO_READ_BUFFER?ZF_FIFO
   *DEL*:           000025H   BYTE   INSEG    CODE           ?PR?FIFO_CLEAR?ZF_FIFO
   *DEL*:           000046H   BYTE   INSEG    CODE           ?PR?FIFO_END_OFFSET?ZF_FIFO
   *DEL*:           000015H   BYTE   INSEG    CODE           ?PR?FIFO_USED?ZF_FIFO
   *DEL*:           000043H   BYTE   INSEG    CODE           ?PR?FIFO_INIT?ZF_FIFO
   *DEL*:           000004H   BYTE   UNIT     EDATA          ?ED?FIFO_INIT?ZF_FIFO
   *DEL*:           00000FH   BYTE   UNIT     EDATA          ?ED?FIFO_READ_BUFFER?ZF_FIFO
   *DEL*:           000011H   BYTE   INSEG    CODE           ?PR?ENCODER_SELF4_CHECK?SEEKFREE_ABSOLUTE_ENCODER
   *DEL*:           000011H   BYTE   INSEG    CODE           ?PR?ENCODER_SELF5_CHECK?SEEKFREE_ABSOLUTE_ENCODER
   *DEL*:           00002FH   BYTE   INSEG    CODE           ?PR?ENCODER_SPI_R_REG_BYTE?SEEKFREE_ABSOLUTE_ENCODER
   *DEL*:           000038H   BYTE   INSEG    CODE           ?PR?ENCODER_SPI_W_REG_BYTE?SEEKFREE_ABSOLUTE_ENCODER
   *DEL*:           00001CH   BYTE   INSEG    CODE           ?PR?SIMSPI_R_REG_BYTE?SEEKFREE_ABSOLUTE_ENCODER
   *DEL*:           00001AH   BYTE   INSEG    CODE           ?PR?SIMSPI_W_REG_BYTE?SEEKFREE_ABSOLUTE_ENCODER
   *DEL*:           000029H   BYTE   INSEG    CODE           ?PR?ENCODER_INIT_SPI?SEEKFREE_ABSOLUTE_ENCODER
   *DEL*:           000004H   BYTE   INSEG    CODE           ?PR?SPI_WR_BYTE?SEEKFREE_ABSOLUTE_ENCODER
   *DEL*:           000024H   BYTE   INSEG    CODE           ?PR?SET_ZERO_POSITION_SIMSPI?SEEKFREE_ABSOLUTE_ENCODER
   *DEL*:           000023H   BYTE   INSEG    CODE           ?PR?ENCODER_ANGLE_SIMSPI?SEEKFREE_ABSOLUTE_ENCODER
   *DEL*:           00001CH   BYTE   INSEG    CODE           ?PR?SPI_R_REG_BYTE?SEEKFREE_ABSOLUTE_ENCODER
   *DEL*:           00001AH   BYTE   INSEG    CODE           ?PR?SPI_W_REG_BYTE?SEEKFREE_ABSOLUTE_ENCODER
   *DEL*:           00002FH   BYTE   INSEG    CODE           ?PR?ENCODER_SIMSPI_R_REG_BYTE?SEEKFREE_ABSOLUTE_ENCODER
   *DEL*:           000038H   BYTE   INSEG    CODE           ?PR?ENCODER_SIMSPI_W_REG_BYTE?SEEKFREE_ABSOLUTE_ENCODER
   *DEL*:           00000FH   BYTE   INSEG    CODE           ?PR?ENCODER_INIT_SIMSPI?SEEKFREE_ABSOLUTE_ENCODER
   *DEL*:           000024H   BYTE   INSEG    CODE           ?PR?SET_ZERO_POSITION_SPI?SEEKFREE_ABSOLUTE_ENCODER
   *DEL*:           00001FH   BYTE   INSEG    CODE           ?PR?SIMSPI_WR_BYTE?SEEKFREE_ABSOLUTE_ENCODER
   *DEL*:           000023H   BYTE   INSEG    CODE           ?PR?ENCODER_ANGLE_SPI?SEEKFREE_ABSOLUTE_ENCODER
   *DEL*:           000001H   BYTE   UNIT     EDATA          ?ED?ENCODER_SELF4_CHECK?SEEKFREE_ABSOLUTE_ENCODER
   *DEL*:           000001H   BYTE   UNIT     EDATA          ?ED?ENCODER_SELF5_CHECK?SEEKFREE_ABSOLUTE_ENCODER
   *DEL*:           000029H   BYTE   INSEG    CODE           ?PR?AT24C02_SIMIIC_READ_REG?SEEKFREE_AT24C02
   *DEL*:           00005EH   BYTE   INSEG    CODE           ?PR?AT24C02_READ_BYTES?SEEKFREE_AT24C02
   *DEL*:           000022H   BYTE   INSEG    CODE           ?PR?AT24C02_SIMIIC_WRITE_REG?SEEKFREE_AT24C02
   *DEL*:           000015H   BYTE   INSEG    CODE           ?PR?AT24C02_READ_BYTE?SEEKFREE_AT24C02
   *DEL*:           00005BH   BYTE   INSEG    CODE           ?PR?AT24C02_WRITE_BYTES?SEEKFREE_AT24C02
   *DEL*:           000019H   BYTE   INSEG    CODE           ?PR?AT24C02_WRITE_BYTE?SEEKFREE_AT24C02
   *DEL*:           00003BH   BYTE   INSEG    CODE           ?PR?AT24C02_READ_CH?SEEKFREE_AT24C02
   *DEL*:           00002EH   BYTE   INSEG    CODE           ?PR?AT24C02_SEND_CH?SEEKFREE_AT24C02
   *DEL*:           00001CH   BYTE   INSEG    CODE           ?PR?AT24C02_SCCB_WAITACK?SEEKFREE_AT24C02
   *DEL*:           00000FH   BYTE   INSEG    CODE           ?PR?AT24C02_SIMIIC_START?SEEKFREE_AT24C02
   *DEL*:           000002H   BYTE   UNIT     EDATA          ?ED?AT24C02_WRITE_BYTES?SEEKFREE_AT24C02
   *DEL*:           000002H   BYTE   UNIT     EDATA          ?ED?AT24C02_READ_BYTES?SEEKFREE_AT24C02
   *DEL*:           000022H   BYTE   INSEG    CODE           ?PR?BLUETOOTH_CH9141_READ_BUFF?SEEKFREE_BLUETOOTH_CH9141
   *DEL*:           0000ABH   BYTE   INSEG    CODE           ?PR?BLUETOOTH_CH9141_SEND_BUFF?SEEKFREE_BLUETOOTH_CH9141
   *DEL*:           00003CH   BYTE   INSEG    CODE           ?PR?BLUETOOTH_CH9141_INIT?SEEKFREE_BLUETOOTH_CH9141
   *DEL*:           000006H   BYTE   UNIT     EDATA          ?ED?BLUETOOTH_CH9141_SEND_BUFF?SEEKFREE_BLUETOOTH_CH9141
   *DEL*:           000004H   BYTE   UNIT     EDATA          ?ED?BLUETOOTH_CH9141_READ_BUFF?SEEKFREE_BLUETOOTH_CH9141
   *DEL*:           000027H   BYTE   INSEG    CODE           ?PR?DL1A_SET_SIGNAL_RATE_LIMIT?SEEKFREE_DL1A
   *DEL*:           00017CH   BYTE   INSEG    CODE           ?PR?DL1A_GET_SPAD_INFO?SEEKFREE_DL1A
   *DEL*:           00005DH   BYTE   INSEG    CODE           ?PR?DL1A_GET_DISTANCE?SEEKFREE_DL1A
   *DEL*:           000077H   BYTE   INSEG    CODE           ?PR?DL1A_PERFORM_SINGLE_REF_CALIBRATION?SEEKFREE_DL1A
L251 LINKER/LOCATER V4.66.93.0                                                        05/09/2023  22:12:16  PAGE 8


   *DEL*:           000073H   BYTE   INSEG    CODE           ?PR?DL1A_GET_MEASUREMENT_TIMING_BUDGET?SEEKFREE_DL1A
   *DEL*:           000029H   BYTE   INSEG    CODE           ?PR?DL1A_SIMIIC_READ_REG?SEEKFREE_DL1A
   *DEL*:           000054H   BYTE   INSEG    CODE           ?PR?DL1A_SIMIIC_READ_REGS_1?SEEKFREE_DL1A
   *DEL*:           0000E4H   BYTE   INSEG    CODE           ?PR?DL1A_SET_MEASUREMENT_TIMING_BUDGET?SEEKFREE_DL1A
   *DEL*:           000022H   BYTE   INSEG    CODE           ?PR?DL1A_SIMIIC_WRITE_REG?SEEKFREE_DL1A
   *DEL*:           00061BH   BYTE   INSEG    CODE           ?PR?DL1A_INIT?SEEKFREE_DL1A
   *DEL*:           000006H   BYTE   UNIT     EDATA          ?ED?DL1A_SIMIIC_READ_REGS_1?SEEKFREE_DL1A
   *DEL*:           000008H   BYTE   UNIT     EDATA          ?ED?DL1A_GET_SPAD_INFO?SEEKFREE_DL1A
   *DEL*:           000003H   BYTE   UNIT     EDATA          ?ED?DL1A_PERFORM_SINGLE_REF_CALIBRATION?SEEKFREE_DL1A
   *DEL*:           000023H   BYTE   UNIT     EDATA          ?ED?DL1A_SET_MEASUREMENT_TIMING_BUDGET?SEEKFREE_DL1A
   *DEL*:           00001BH   BYTE   UNIT     EDATA          ?ED?DL1A_GET_MEASUREMENT_TIMING_BUDGET?SEEKFREE_DL1A
   *DEL*:           000003H   BYTE   UNIT     EDATA          ?ED?DL1A_SET_SIGNAL_RATE_LIMIT?SEEKFREE_DL1A
   *DEL*:           000003H   BYTE   UNIT     EDATA          ?ED?DL1A_GET_DISTANCE?SEEKFREE_DL1A
   *DEL*:           000012H   BYTE   UNIT     EDATA          ?ED?DL1A_INIT?SEEKFREE_DL1A
   *DEL*:           000012H   BYTE   INSEG    CODE           ?PR?ICM20602_GYRO_TRANSITION?SEEKFREE_ICM20602
   *DEL*:           000008H   BYTE   INSEG    CODE           ?PR?ICM20602_WRITE_REGISTER?SEEKFREE_ICM20602
   *DEL*:           00002DH   BYTE   INSEG    CODE           ?PR?ICM20602_SELF_CHECK?SEEKFREE_ICM20602
   *DEL*:           00000FH   BYTE   INSEG    CODE           ?PR?ICM20602_SIMSPI_W_REG_BYTE?SEEKFREE_ICM20602
   *DEL*:           000098H   BYTE   INSEG    CODE           ?PR?ICM20602_INIT?SEEKFREE_ICM20602
   *DEL*:           000040H   BYTE   INSEG    CODE           ?PR?ICM20602_GET_ACC?SEEKFREE_ICM20602
   *DEL*:           000010H   BYTE   INSEG    CODE           ?PR?ICM20602_ACC_TRANSITION?SEEKFREE_ICM20602
   *DEL*:           000010H   BYTE   INSEG    CODE           ?PR?ICM20602_READ_REGISTERS?SEEKFREE_ICM20602
   *DEL*:           000040H   BYTE   INSEG    CODE           ?PR?ICM20602_GET_GYRO?SEEKFREE_ICM20602
   *DEL*:           000006H   BYTE   UNIT     EDATA          ?ED?ICM20602_GET_ACC?SEEKFREE_ICM20602
   *DEL*:           000006H   BYTE   UNIT     EDATA          ?ED?ICM20602_GET_GYRO?SEEKFREE_ICM20602
   *DEL*:           000040H   BYTE   INSEG    CODE           ?PR?IMU660RA_GET_GYRO?SEEKFREE_IMU660RA
   *DEL*:           00000EH   BYTE   INSEG    CODE           ?PR?IMU660RA_WRITE_REGISTERS?SEEKFREE_IMU660RA
   *DEL*:           000012H   BYTE   INSEG    CODE           ?PR?IMU660RA_GYRO_TRANSITION?SEEKFREE_IMU660RA
   *DEL*:           000008H   BYTE   INSEG    CODE           ?PR?IMU660RA_WRITE_REGISTER?SEEKFREE_IMU660RA
   *DEL*:           00002CH   BYTE   INSEG    CODE           ?PR?IMU660RA_SELF_CHECK?SEEKFREE_IMU660RA
   *DEL*:           000025H   BYTE   INSEG    CODE           ?PR?IMU660RA_SIMSPI_W_REG_BYTES?SEEKFREE_IMU660RA
   *DEL*:           00000FH   BYTE   INSEG    CODE           ?PR?IMU660RA_SIMSPI_W_REG_BYTE?SEEKFREE_IMU660RA
   *DEL*:           00009AH   BYTE   INSEG    CODE           ?PR?IMU660RA_INIT?SEEKFREE_IMU660RA
   *DEL*:           000040H   BYTE   INSEG    CODE           ?PR?IMU660RA_GET_ACC?SEEKFREE_IMU660RA
   *DEL*:           000010H   BYTE   INSEG    CODE           ?PR?IMU660RA_ACC_TRANSITION?SEEKFREE_IMU660RA
   *DEL*:           000010H   BYTE   INSEG    CODE           ?PR?IMU660RA_READ_REGISTERS?SEEKFREE_IMU660RA
   *DEL*:           000004H   BYTE   UNIT     EDATA          ?ED?IMU660RA_SIMSPI_W_REG_BYTES?SEEKFREE_IMU660RA
   *DEL*:           000007H   BYTE   UNIT     EDATA          ?ED?IMU660RA_GET_ACC?SEEKFREE_IMU660RA
   *DEL*:           000007H   BYTE   UNIT     EDATA          ?ED?IMU660RA_GET_GYRO?SEEKFREE_IMU660RA
   *DEL*:           000003H   BYTE   INSEG    CODE           ?PR?IMU963RA_ACC_TRANSITION?SEEKFREE_IMU963RA
   *DEL*:           000040H   BYTE   INSEG    CODE           ?PR?IMU963RA_GET_GYRO?SEEKFREE_IMU963RA
   *DEL*:           000012H   BYTE   INSEG    CODE           ?PR?IMU963RA_MAG_TRANSITION?SEEKFREE_IMU963RA
   *DEL*:           000003H   BYTE   INSEG    CODE           ?PR?IMU963RA_GYRO_TRANSITION?SEEKFREE_IMU963RA
   *DEL*:           00002CH   BYTE   INSEG    CODE           ?PR?IMU963RA_CONNECT_MAG?SEEKFREE_IMU963RA
   *DEL*:           000010H   BYTE   INSEG    CODE           ?PR?IMU963RA_READ_ACC_GYRO_REGISTERS?SEEKFREE_IMU963RA
   *DEL*:           000061H   BYTE   INSEG    CODE           ?PR?IMU963RA_WRITE_MAG_REGISTER?SEEKFREE_IMU963RA
   *DEL*:           000030H   BYTE   INSEG    CODE           ?PR?IMU963RA_SIMSPI_R_REG_BYTES?SEEKFREE_IMU963RA
   *DEL*:           000030H   BYTE   INSEG    CODE           ?PR?IMU963RA_MAG_SELF_CHECK?SEEKFREE_IMU963RA
   *DEL*:           00010AH   BYTE   INSEG    CODE           ?PR?IMU963RA_INIT?SEEKFREE_IMU963RA
   *DEL*:           00002DH   BYTE   INSEG    CODE           ?PR?IMU963RA_ACC_GYRO_SELF_CHECK?SEEKFREE_IMU963RA
   *DEL*:           000040H   BYTE   INSEG    CODE           ?PR?IMU963RA_GET_ACC?SEEKFREE_IMU963RA
   *DEL*:           000056H   BYTE   INSEG    CODE           ?PR?IMU963RA_GET_MAG?SEEKFREE_IMU963RA
   *DEL*:           000004H   BYTE   UNIT     EDATA          ?ED?IMU963RA_SIMSPI_R_REG_BYTES?SEEKFREE_IMU963RA
   *DEL*:           000002H   BYTE   UNIT     EDATA          ?ED?IMU963RA_WRITE_MAG_REGISTER?SEEKFREE_IMU963RA
   *DEL*:           000006H   BYTE   UNIT     EDATA          ?ED?IMU963RA_GET_ACC?SEEKFREE_IMU963RA
   *DEL*:           000006H   BYTE   UNIT     EDATA          ?ED?IMU963RA_GET_GYRO?SEEKFREE_IMU963RA
   *DEL*:           000006H   BYTE   UNIT     EDATA          ?ED?IMU963RA_GET_MAG?SEEKFREE_IMU963RA
   *DEL*:           00007BH   BYTE   INSEG    CODE           ?PR?IPS114_SHOWUINT8_SIMSPI?SEEKFREE_IPS114_SPI
   *DEL*:           000077H   BYTE   INSEG    CODE           ?PR?IPS114_SHOWUINT8?SEEKFREE_IPS114_SPI
   *DEL*:           0000B9H   BYTE   INSEG    CODE           ?PR?IPS114_SHOWINT8_SIMSPI?SEEKFREE_IPS114_SPI
   *DEL*:           0000B5H   BYTE   INSEG    CODE           ?PR?IPS114_SHOWINT8?SEEKFREE_IPS114_SPI
   *DEL*:           0000F8H   BYTE   INSEG    CODE           ?PR?IPS114_SHOWFLOAT_SIMSPI?SEEKFREE_IPS114_SPI
   *DEL*:           000013H   BYTE   INSEG    CODE           ?PR?IPS114_DRAWPOINT_SIMSPI?SEEKFREE_IPS114_SPI
   *DEL*:           0000F8H   BYTE   INSEG    CODE           ?PR?IPS114_SHOWFLOAT?SEEKFREE_IPS114_SPI
   *DEL*:           000013H   BYTE   INSEG    CODE           ?PR?IPS114_DRAWPOINT?SEEKFREE_IPS114_SPI
L251 LINKER/LOCATER V4.66.93.0                                                        05/09/2023  22:12:16  PAGE 9


   *DEL*:           00008EH   BYTE   INSEG    CODE           ?PR?IPS114_SHOWCHAR_SIMSPI?SEEKFREE_IPS114_SPI
   *DEL*:           00008EH   BYTE   INSEG    CODE           ?PR?IPS114_SHOWCHAR?SEEKFREE_IPS114_SPI
   *DEL*:           00008BH   BYTE   INSEG    CODE           ?PR?IPS114_SHOWUINT16_SIMSPI?SEEKFREE_IPS114_SPI
   *DEL*:           00008BH   BYTE   INSEG    CODE           ?PR?IPS114_SHOWUINT16?SEEKFREE_IPS114_SPI
   *DEL*:           000082H   BYTE   INSEG    CODE           ?PR?IPS114_SHOWINT32_SIMSPI?SEEKFREE_IPS114_SPI
   *DEL*:           0000DDH   BYTE   INSEG    CODE           ?PR?IPS114_SHOWINT16_SIMSPI?SEEKFREE_IPS114_SPI
   *DEL*:           000082H   BYTE   INSEG    CODE           ?PR?IPS114_SHOWINT32?SEEKFREE_IPS114_SPI
   *DEL*:           0000D9H   BYTE   INSEG    CODE           ?PR?IPS114_SHOWINT16?SEEKFREE_IPS114_SPI
   *DEL*:           00003CH   BYTE   INSEG    CODE           ?PR?IPS114_CLEAR_SIMSPI?SEEKFREE_IPS114_SPI
   *DEL*:           00003CH   BYTE   INSEG    CODE           ?PR?IPS114_CLEAR?SEEKFREE_IPS114_SPI
   *DEL*:           00004EH   BYTE   INSEG    CODE           ?PR?IPS114_SHOWSTR_SIMSPI?SEEKFREE_IPS114_SPI
   *DEL*:           00004EH   BYTE   INSEG    CODE           ?PR?IPS114_SHOWSTR?SEEKFREE_IPS114_SPI
   *DEL*:           000029H   BYTE   INSEG    CODE           ?PR?IPS114_WRITEDATA_SIMSPI?SEEKFREE_IPS114_SPI
   *DEL*:           00000AH   BYTE   INSEG    CODE           ?PR?IPS114_WRITEDATA?SEEKFREE_IPS114_SPI
   *DEL*:           000044H   BYTE   INSEG    CODE           ?PR?IPS114_SET_REGION_SIMSPI?SEEKFREE_IPS114_SPI
   *DEL*:           00014FH   BYTE   INSEG    CODE           ?PR?IPS114_INIT_SIMSPI?SEEKFREE_IPS114_SPI
   *DEL*:           000048H   BYTE   INSEG    CODE           ?PR?IPS114_SET_REGION?SEEKFREE_IPS114_SPI
   *DEL*:           00016DH   BYTE   INSEG    CODE           ?PR?IPS114_INIT?SEEKFREE_IPS114_SPI
   *DEL*:           000004H   BYTE   UNIT     EDATA          ?ED?IPS114_SET_REGION_SIMSPI?SEEKFREE_IPS114_SPI
   *DEL*:           000002H   BYTE   UNIT     EDATA          ?ED?IPS114_CLEAR_SIMSPI?SEEKFREE_IPS114_SPI
   *DEL*:           000004H   BYTE   UNIT     EDATA          ?ED?IPS114_SHOWCHAR_SIMSPI?SEEKFREE_IPS114_SPI
   *DEL*:           000006H   BYTE   UNIT     EDATA          ?ED?IPS114_SHOWSTR_SIMSPI?SEEKFREE_IPS114_SPI
   *DEL*:           000005H   BYTE   UNIT     EDATA          ?ED?IPS114_SHOWINT8_SIMSPI?SEEKFREE_IPS114_SPI
   *DEL*:           000004H   BYTE   UNIT     EDATA          ?ED?IPS114_SHOWUINT8_SIMSPI?SEEKFREE_IPS114_SPI
   *DEL*:           000008H   BYTE   UNIT     EDATA          ?ED?IPS114_SHOWINT16_SIMSPI?SEEKFREE_IPS114_SPI
   *DEL*:           000006H   BYTE   UNIT     EDATA          ?ED?IPS114_SHOWUINT16_SIMSPI?SEEKFREE_IPS114_SPI
   *DEL*:           000028H   BYTE   UNIT     EDATA          ?ED?IPS114_SHOWINT32_SIMSPI?SEEKFREE_IPS114_SPI
   *DEL*:           00002BH   BYTE   UNIT     EDATA          ?ED?IPS114_SHOWFLOAT_SIMSPI?SEEKFREE_IPS114_SPI
   *DEL*:           000004H   BYTE   UNIT     EDATA          ?ED?IPS114_SET_REGION?SEEKFREE_IPS114_SPI
   *DEL*:           000002H   BYTE   UNIT     EDATA          ?ED?IPS114_CLEAR?SEEKFREE_IPS114_SPI
   *DEL*:           000004H   BYTE   UNIT     EDATA          ?ED?IPS114_SHOWCHAR?SEEKFREE_IPS114_SPI
   *DEL*:           000006H   BYTE   UNIT     EDATA          ?ED?IPS114_SHOWSTR?SEEKFREE_IPS114_SPI
   *DEL*:           000005H   BYTE   UNIT     EDATA          ?ED?IPS114_SHOWINT8?SEEKFREE_IPS114_SPI
   *DEL*:           000004H   BYTE   UNIT     EDATA          ?ED?IPS114_SHOWUINT8?SEEKFREE_IPS114_SPI
   *DEL*:           000008H   BYTE   UNIT     EDATA          ?ED?IPS114_SHOWINT16?SEEKFREE_IPS114_SPI
   *DEL*:           000006H   BYTE   UNIT     EDATA          ?ED?IPS114_SHOWUINT16?SEEKFREE_IPS114_SPI
   *DEL*:           000028H   BYTE   UNIT     EDATA          ?ED?IPS114_SHOWINT32?SEEKFREE_IPS114_SPI
   *DEL*:           00002BH   BYTE   UNIT     EDATA          ?ED?IPS114_SHOWFLOAT?SEEKFREE_IPS114_SPI
   *DEL*:           000055H   BYTE   INSEG    CODE           ?PR?MPU6050_SIMIIC_READ_REGS?SEEKFREE_MPU6050
   *DEL*:           000029H   BYTE   INSEG    CODE           ?PR?MPU6050_SIMIIC_READ_REG?SEEKFREE_MPU6050
   *DEL*:           000022H   BYTE   INSEG    CODE           ?PR?MPU6050_SIMIIC_WRITE_REG?SEEKFREE_MPU6050
   *DEL*:           00005CH   BYTE   INSEG    CODE           ?PR?MPU6050_INIT?SEEKFREE_MPU6050
   *DEL*:           000032H   BYTE   INSEG    CODE           ?PR?MPU6050_SELF1_CHECK?SEEKFREE_MPU6050
   *DEL*:           00003BH   BYTE   INSEG    CODE           ?PR?MPU6050_READ_CH?SEEKFREE_MPU6050
   *DEL*:           00002EH   BYTE   INSEG    CODE           ?PR?MPU6050_SEND_CH?SEEKFREE_MPU6050
   *DEL*:           000040H   BYTE   INSEG    CODE           ?PR?MPU6050_GET_GYRO?SEEKFREE_MPU6050
   *DEL*:           00001CH   BYTE   INSEG    CODE           ?PR?MPU6050_SCCB_WAITACK?SEEKFREE_MPU6050
   *DEL*:           000040H   BYTE   INSEG    CODE           ?PR?MPU6050_GET_ACCDATA?SEEKFREE_MPU6050
   *DEL*:           000003H   BYTE   UNIT     EDATA          ?ED?MPU6050_SIMIIC_READ_REGS?SEEKFREE_MPU6050
   *DEL*:           000006H   BYTE   UNIT     EDATA          ?ED?MPU6050_GET_ACCDATA?SEEKFREE_MPU6050
   *DEL*:           000006H   BYTE   UNIT     EDATA          ?ED?MPU6050_GET_GYRO?SEEKFREE_MPU6050
   *DEL*:           000092H   BYTE   INSEG    CODE           ?PR?NUMBER_CONVERSION_ASCII?SEEKFREE_PRINTF
   *DEL*:           0004FAH   BYTE   INSEG    CODE           ?PR?ZF_SPRINTF?SEEKFREE_PRINTF
   *DEL*:           00003EH   BYTE   INSEG    CODE           ?PR?PRINTF_REVERSE_ORDER?SEEKFREE_PRINTF
   *DEL*:           000001H   BYTE   UNIT     EDATA          ?ED?NUMBER_CONVERSION_ASCII?SEEKFREE_PRINTF
   *DEL*:           00005FH   BYTE   UNIT     EDATA          ?ED?ZF_SPRINTF?SEEKFREE_PRINTF
   *DEL*:           000070H   BYTE   INSEG    CODE           ?PR?CCD_SEND_DATA?SEEKFREE_TSL1401
   *DEL*:           000016H   BYTE   INSEG    CODE           ?PR?CCD_INIT?SEEKFREE_TSL1401
   *DEL*:           000035H   BYTE   INSEG    CODE           ?PR?CCD_COLLECT?SEEKFREE_TSL1401
   *DEL*:           000003H   BYTE   UNIT     EDATA          ?ED?CCD_SEND_DATA?SEEKFREE_TSL1401
   *DEL*:           00003AH   BYTE   INSEG    CODE           ?PR?CRC_CHECK?SEEKFREE_VIRSCO
   *DEL*:           000069H   BYTE   INSEG    CODE           ?PR?DATA_CONVERSION?SEEKFREE_VIRSCO
   *DEL*:           000004H   BYTE   UNIT     EDATA          ?ED?DATA_CONVERSION?SEEKFREE_VIRSCO
   *DEL*:           000022H   BYTE   INSEG    CODE           ?PR?WIRELESS_UART_READ_BUFF?SEEKFREE_WIRELESS
   *DEL*:           00005DH   BYTE   INSEG    CODE           ?PR?WIRELESS_UART_SEND_BUFF?SEEKFREE_WIRELESS
L251 LINKER/LOCATER V4.66.93.0                                                        05/09/2023  22:12:16  PAGE 10


   *DEL*:           00003CH   BYTE   INSEG    CODE           ?PR?WIRELESS_UART_INIT?SEEKFREE_WIRELESS
   *DEL*:           000002H   BYTE   UNIT     EDATA          ?ED?WIRELESS_UART_SEND_BUFF?SEEKFREE_WIRELESS
   *DEL*:           000004H   BYTE   UNIT     EDATA          ?ED?WIRELESS_UART_READ_BUFF?SEEKFREE_WIRELESS
   *DEL*:           000022H   BYTE   INSEG    CODE           ?PR?WIRELESS_CH573_READ_BUFF?SEEKFREE_WIRELESS_CH573
   *DEL*:           00005DH   BYTE   INSEG    CODE           ?PR?WIRELESS_CH573_SEND_BUFF?SEEKFREE_WIRELESS_CH573
   *DEL*:           00003CH   BYTE   INSEG    CODE           ?PR?WIRELESS_CH573_INIT?SEEKFREE_WIRELESS_CH573
   *DEL*:           000002H   BYTE   UNIT     EDATA          ?ED?WIRELESS_CH573_SEND_BUFF?SEEKFREE_WIRELESS_CH573
   *DEL*:           000004H   BYTE   UNIT     EDATA          ?ED?WIRELESS_CH573_READ_BUFF?SEEKFREE_WIRELESS_CH573
   *DEL*:           0000B1H   BYTE   INSEG    CODE           ?PR?AKEMAN_CONTROL?CONTROL
   *DEL*:           00003DH   BYTE   INSEG    CODE           ?PR?MOTOR_PID_CONTROL?CONTROL
   *DEL*:           000007H   BYTE   INSEG    CODE           ?PR?PID_ON?CONTROL
   *DEL*:           000077H   BYTE   INSEG    CODE           ?PR?DEV_ERR_WINDOW_FILTER_2?CONTROL
   *DEL*:           0002A6H   BYTE   INSEG    CODE           ?PR?ADC_ERR_TRENDENCY?CONTROL
   *DEL*:           000132H   BYTE   INSEG    CODE           ?PR?DIRECT_JUDGE_ACCELE?CONTROL
   *DEL*:           000006H   BYTE   INSEG    CODE           ?PR?PID_OFF?CONTROL
   *DEL*:           000004H   BYTE   UNIT     EDATA          ?ED?AKEMAN_CONTROL?CONTROL
   *DEL*:           000008H   BYTE   UNIT     EDATA          ?ED?MOTOR_PID_CONTROL?CONTROL
   *DEL*:           000022H   BYTE   UNIT     EDATA          ?ED?ADC_ERR_TRENDENCY?CONTROL
   *DEL*:           00007DH   BYTE   INSEG    CODE           ?PR?KEY_SCAN?KEY
   *DEL*:           00000CH   BYTE   INSEG    CODE           ?PR?ENCODER_CLEAR?MOTOR
   *DEL*:           000024H   BYTE   INSEG    CODE           ?PR?MOTOR_SHUT?MOTOR
   *DEL*:           000049H   BYTE   INSEG    CODE           ?PR?ENCODER_READ?MOTOR
   *DEL*:           000007H   BYTE   INSEG    CODE           ?PR?TIMER3_TO_TIMER4?TIMER
   *DEL*:           000007H   BYTE   INSEG    CODE           ?PR?TIMER4_TO_TIMER3?TIMER
   *DEL*:           00002EH   BYTE   INSEG    CODE           ?PR?TIMER_INIT?TIMER
   *DEL*:           000011H   BYTE   INSEG    CODE           ?PR?OLED_DISPLAY_ON?OLED
   *DEL*:           000064H   BYTE   INSEG    CODE           ?PR?OLED_SHOWSTRING?OLED
   *DEL*:           0000AFH   BYTE   INSEG    CODE           ?PR?OLED_SHOWCHAR?OLED
   *DEL*:           00007CH   BYTE   INSEG    CODE           ?PR?OLED_SHOWCHINESE?OLED
   *DEL*:           0000AAH   BYTE   INSEG    CODE           ?PR?OLED_SHOWNUM?OLED
   *DEL*:           000011H   BYTE   INSEG    CODE           ?PR?OLED_DISPLAY_OFF?OLED
   *DEL*:           000017H   BYTE   INSEG    CODE           ?PR?OLED_POW?OLED
   *DEL*:           00009DH   BYTE   INSEG    CODE           ?PR?OLED_DRAWBMP?OLED
   *DEL*:           000005H   BYTE   UNIT     EDATA          ?ED?OLED_SHOWNUM?OLED
   *DEL*:           000003H   BYTE   UNIT     EDATA          ?ED?OLED_SHOWSTRING?OLED
   *DEL*:           000001H   BYTE   UNIT     EDATA          ?ED?OLED_SHOWCHINESE?OLED
   *DEL*:           000007H   BYTE   UNIT     EDATA          ?ED?OLED_DRAWBMP?OLED
   *DEL*:           000044H   BYTE   INSEG    CODE           ?PR?SET_BRUSHLESS_OUTPUT?BRUSHLESS
   *DEL*:           000110H   BYTE   INSEG    CODE           ?PR?POSITION_PID_CALC?PID
   *DEL*:           000237H   BYTE   INSEG    CODE           ?PR?PID_CALC?PID
   *DEL*:           000034H   BYTE   INSEG    CODE           ?PR?ABS_LIMIT?PID
   *DEL*:           00000DH   BYTE   INSEG    CODE           ?PR?PID_CLEAR_INTEGRAL?PID
   *DEL*:           000004H   BYTE   UNIT     EDATA          ?ED?PID_CALC?PID
   *DEL*:           000004H   BYTE   UNIT     EDATA          ?ED?POSITION_PID_CALC?PID
   *DEL*:           000028H   BYTE   UNIT     EDATA          ?ED?PRINTF
   *DEL*:           00001AH   BYTE   INSEG    CODE           ?PR?MEMSET?_?MEMSET



OVERLAY MAP OF MODULE:   .\Out_File\SEEKFREE (board)


FUNCTION/MODULE                               EDATA_GROUP
--> CALLED FUNCTION/MODULE                    START  STOP
=========================================================
UART1_Isr/isr                                 ----- -----

*** NEW ROOT ********************************

UART2_Isr/isr                                 ----- -----

*** NEW ROOT ********************************

UART3_Isr/isr                                 ----- -----

L251 LINKER/LOCATER V4.66.93.0                                                        05/09/2023  22:12:16  PAGE 11


*** NEW ROOT ********************************

UART4_Isr/isr                                 ----- -----
  +--> wireless_uart_callback/SEEKFREE_WIRELESS
  +--> bluetooth_ch9141_uart_callback/SEEKFREE_BLUETOOTH_CH9141
  +--> wireless_ch573_callback/SEEKFREE_WIRELESS_CH573

wireless_uart_callback/SEEKFREE_WIRELESS      ----- -----
  +--> fifo_write_buffer/zf_fifo

fifo_write_buffer/zf_fifo                     07B0H 07BBH
  +--> memcpy?_/memcpy
  +--> fifo_head_offset/zf_fifo

memcpy?_/memcpy                               ----- -----

fifo_head_offset/zf_fifo                      ----- -----

bluetooth_ch9141_uart_callback/SEEKFREE_+     ----- -----
... BLUETOOTH_CH9141
  +--> fifo_write_buffer/zf_fifo

wireless_ch573_callback/SEEKFREE_WIRELES+     ----- -----
... S_CH573
  +--> fifo_write_buffer/zf_fifo

*** NEW ROOT ********************************

INT0_Isr/isr                                  ----- -----

*** NEW ROOT ********************************

INT1_Isr/isr                                  ----- -----

*** NEW ROOT ********************************

INT2_Isr/isr                                  ----- -----

*** NEW ROOT ********************************

INT3_Isr/isr                                  ----- -----

*** NEW ROOT ********************************

INT4_Isr/isr                                  ----- -----

*** NEW ROOT ********************************

TM0_Isr/isr                                   ----- -----
  +--> Read_Adc_Value/adc
  +--> ADC_error_processing/control
  +--> ADC_error_window_filtering/control
  +--> ADC_error_weight_filtering/control

Read_Adc_Value/adc                            ----- -----
  +--> adc_mean_filter/adc

adc_mean_filter/adc                           07BCH 07C1H
  +--> adc_once/zf_adc
  +--> ?C?ULIDIV/?C?ULDIV

adc_once/zf_adc                               ----- -----

?C?ULIDIV/?C?ULDIV                            ----- -----

L251 LINKER/LOCATER V4.66.93.0                                                        05/09/2023  22:12:16  PAGE 12


ADC_error_processing/control                  07BCH 07BFH

ADC_error_window_filtering/control            ----- -----

ADC_error_weight_filtering/control            ----- -----

*** NEW ROOT ********************************

TM1_Isr/isr                                   ----- -----

*** NEW ROOT ********************************

TM2_Isr/isr                                   ----- -----

*** NEW ROOT ********************************

TM3_Isr/isr                                   ----- -----

*** NEW ROOT ********************************

TM4_Isr/isr                                   ----- -----
  +--> Direct_judge/control
  +--> Dev_Tolerant_Correc_Ang/control

Direct_judge/control                          ----- -----

Dev_Tolerant_Correc_Ang/control               07C2H 07E5H
  +--> FABS?_/FABS
  +--> Correct_Angle/control

FABS?_/FABS                                   ----- -----

Correct_Angle/control                         07E6H 07E9H

*** NEW ROOT ********************************

?C_C51STARTUP                                 ----- -----

*** NEW ROOT ********************************

?C_C51STARTUP?3                               ----- -----
  +--> main/main

main/main                                     ----- -----
  +--> board_init/board
  +--> PID_struct_init/pid
  +--> My_Adc_Init/adc
  +--> Motor_Init/motor
  +--> Steer_Init/steer
  +--> Brushless_Init/brushless
  +--> OLED_Init/oled
  +--> pit_timer_ms/zf_tim
  +--> Steer_Spin_limit/steer
  +--> Motor_Control/motor
  +--> lost_line_judge/control
  +--> lostline_deal/control
  +--> Roundabout_deal/control
  +--> send_five_data/host
  +--> delay_ms/zf_delay

board_init/board                              ----- -----
  +--> set_clk/board
  +--> delay_init/zf_delay
  +--> uart_init/zf_uart
  +--> EnableGlobalIRQ/board
L251 LINKER/LOCATER V4.66.93.0                                                        05/09/2023  22:12:16  PAGE 13



set_clk/board                                 ----- -----

delay_init/zf_delay                           ----- -----
  +--> ?C?SLDIV/?C?SLDIV

?C?SLDIV/?C?SLDIV                             ----- -----
  +--> ?C?ULIDIV/?C?ULDIV

uart_init/zf_uart                             07EAH 07EFH
  +--> ?C?ULIDIV/?C?ULDIV

EnableGlobalIRQ/board                         ----- -----

PID_struct_init/pid                           07EAH 07FDH
  +--> pid_param_init/pid
  +--> pid_reset/pid

pid_param_init/pid                            07FEH 0811H

pid_reset/pid                                 07FEH 0805H

My_Adc_Init/adc                               ----- -----
  +--> adc_init/zf_adc

adc_init/zf_adc                               ----- -----

Motor_Init/motor                              ----- -----
  +--> pwm_init/zf_pwm
  +--> ctimer_count_init/zf_tim

pwm_init/zf_pwm                               07EAH 07F5H
  +--> pwm_set_gpio/zf_pwm
  +--> ?C?ULIDIV/?C?ULDIV

pwm_set_gpio/zf_pwm                           ----- -----
  +--> gpio_mode/zf_gpio

gpio_mode/zf_gpio                             ----- -----

ctimer_count_init/zf_tim                      ----- -----

Steer_Init/steer                              ----- -----
  +--> pwm_init/zf_pwm

Brushless_Init/brushless                      ----- -----
  +--> pwm_init/zf_pwm

OLED_Init/oled                                ----- -----
  +--> delay_ms/zf_delay
  +--> OLED_WR_Byte/oled
  +--> OLED_Clear/oled
  +--> OLED_Set_Pos/oled

delay_ms/zf_delay                             ----- -----

OLED_WR_Byte/oled                             ----- -----

OLED_Clear/oled                               ----- -----
  +--> OLED_WR_Byte/oled

OLED_Set_Pos/oled                             ----- -----
  +--> OLED_WR_Byte/oled

pit_timer_ms/zf_tim                           ----- -----
L251 LINKER/LOCATER V4.66.93.0                                                        05/09/2023  22:12:16  PAGE 14


  +--> ?C?SLDIV/?C?SLDIV

Steer_Spin_limit/steer                        ----- -----
  +--> Steer_Spin/steer

Steer_Spin/steer                              ----- -----
  +--> pwm_duty/zf_pwm

pwm_duty/zf_pwm                               ----- -----

Motor_Control/motor                           07EAH 07EDH
  +--> pwm_duty/zf_pwm

lost_line_judge/control                       ----- -----

lostline_deal/control                         ----- -----
  +--> Steer_Spin/steer
  +--> Motor_Control/motor
  +--> delay_ms/zf_delay

Roundabout_deal/control                       ----- -----
  +--> delay_ms/zf_delay
  +--> Steer_Spin/steer
  +--> Motor_Control/motor

send_five_data/host                           07EAH 07FFH
  +--> uart_putchar/zf_uart

uart_putchar/zf_uart                          ----- -----

*** NEW ROOT ********************************

?C_C51STARTUP?2                               ----- -----



PUBLIC SYMBOLS OF MODULE:  .\Out_File\SEEKFREE (board)


      VALUE       CLASS    TYPE      PUBLIC SYMBOL NAME
      =================================================
      000007B4H   EDATA    BYTE      ?ADC_error_processing?BYTE
      00FF311EH   CODE     NEAR LAB  ?C?CASTF
      000000FFH   NUMBER   ---       ?C?CODESEG
      00FF30EBH   CODE     NEAR LAB  ?C?FCASTC
      00FF30E6H   CODE     NEAR LAB  ?C?FCASTI
      00FF30E1H   CODE     NEAR LAB  ?C?FCASTL
      00FF37EBH   CODE     ---       ?C?FP2SERIES
      00FF2EB4H   CODE     ---       ?C?FPADD
      00FF308FH   CODE     ---       ?C?FPCMP
      00FF308DH   CODE     ---       ?C?FPCMP3
      00FF3826H   CODE     ---       ?C?FPCONVERT
      00FF300CH   CODE     ---       ?C?FPDIV
      00FF335EH   CODE     ---       ?C?FPGETOPN2
      00FF2F6CH   CODE     ---       ?C?FPMUL
      00FF339BH   CODE     ---       ?C?FPNANRESULT
      00FF30D3H   CODE     ---       ?C?FPNEG
      00FF33A3H   CODE     ---       ?C?FPOVERFLOW
      00FF3377H   CODE     ---       ?C?FPRESULT
      00FF338DH   CODE     ---       ?C?FPRESULT2
      00FF38DEH   CODE     ---       ?C?FPROUND
      00FF37F4H   CODE     ---       ?C?FPSERIES
      00FF2EB1H   CODE     ---       ?C?FPSUB
      00FF33A0H   CODE     ---       ?C?FPUNDERFLOW
      00FF3951H   CODE     ---       ?C?FTNPWR
L251 LINKER/LOCATER V4.66.93.0                                                        05/09/2023  22:12:16  PAGE 15


      00FF5BADH   CODE     ---       ?C?INITEDATA
      00FF70F7H   HCONST   WORD      ?C?INITEDATA_END
      00FF39CBH   CODE     ---       ?C?LIMUL
      00FF39BAH   CODE     ---       ?C?LMUL
      00FF33DCH   CODE     ---       ?C?PRNFMT
      00FF3988H   CODE     ---       ?C?SIDIV
      00FF3A27H   CODE     NEAR LAB  ?C?SLDIV
      00FF0000H   CODE     ---       ?C?STARTUP
      00FF39D6H   CODE     NEAR LAB  ?C?ULDIV
      00FF39D4H   CODE     NEAR LAB  ?C?ULIDIV
      00000001H   NUMBER   ---       ?C?XDATASEG
      00FF0000H   CODE     ---       ?C_STARTUP
      000007DEH   EDATA    BYTE      ?Correct_Angle?BYTE
*DEL*:1FFFFFF8H   EDATA    BYTE      ?data_conversion?BYTE
      000007BEH   EDATA    BYTE      ?Dev_Tolerant_Correc_Ang?BYTE
*DEL*:1FFFFFF8H   EDATA    BYTE      ?fifo_init?BYTE
*DEL*:1FFFFFFCH   EDATA    BYTE      ?fifo_read_buffer?BYTE
      000007ACH   EDATA    BYTE      ?fifo_write_buffer?BYTE
*DEL*:1FFFFFFAH   EDATA    BYTE      ?iic_init?BYTE
*DEL*:1FFFFFFCH   EDATA    BYTE      ?ips114_showfloat?BYTE
*DEL*:1FFFFFFCH   EDATA    BYTE      ?ips114_showfloat_simspi?BYTE
*DEL*:1FFFFFF8H   EDATA    BYTE      ?Motor_PID_Control?BYTE
*DEL*:1FFFFFF7H   EDATA    BYTE      ?number_conversion_ascii?BYTE
*DEL*:1FFFFFF8H   EDATA    BYTE      ?pid_calc?BYTE
      000007E2H   EDATA    BYTE      ?PID_struct_init?BYTE
*DEL*:1FFFFFF8H   EDATA    BYTE      ?position_pid_calc?BYTE
*DEL*:00000028H   EDATA    ---       ?printf?BYTE
*DEL*:1FFFFFFAH   EDATA    BYTE      ?pwm_freq?BYTE
      000007E8H   EDATA    BYTE      ?pwm_init?BYTE
      000007E1H   EDATA    BYTE      ?send_five_data?BYTE
*DEL*:1FFFFFF7H   EDATA    BYTE      ?spi_init?BYTE
      000007E4H   EDATA    BYTE      ?uart_init?BYTE
*DEL*:00000028H   EDATA    BYTE      ?zf_sprintf?BYTE
*DEL*:00000000H   CODE     ---       abs_limit
      00000660H   EDATA    INT       adc1
      00000666H   EDATA    ---       adc1_array
      00000662H   EDATA    INT       adc2
      0000067EH   EDATA    ---       adc2_array
      00000664H   EDATA    INT       adc3
      00000696H   EDATA    ---       adc3_array
      0000067CH   EDATA    INT       adc4
      000006AEH   EDATA    ---       adc4_array
      00000694H   EDATA    INT       adc5
      000006C6H   EDATA    ---       adc5_array
      000006ACH   EDATA    INT       adc6
      000006DEH   EDATA    ---       adc6_array
      000006C4H   EDATA    INT       adc7
      000006F4H   EDATA    ---       adc7_array
      000006DCH   EDATA    INT       adc8
      0000070AH   EDATA    ---       adc8_array
*SFR* 000000BCH   DATA     BYTE      ADC_CONTR
      000005F0H   EDATA    FLOAT     adc_err
      000005F4H   EDATA    ---       adc_err_array
*DEL*:00000000H   CODE     ---       ADC_Err_Trendency
      000005C3H   EDATA    FLOAT     ADC_error_a
      00FF559FH   CODE     ---       ADC_error_processing
      00FF5E5BH   CODE     ---       ADC_error_weight_filtering
      00FF56BFH   CODE     ---       ADC_error_window_filtering
      00000634H   EDATA    FLOAT     Adc_Five_Del_1
      00000597H   EDATA    FLOAT     Adc_Five_Del_2
      000005AFH   EDATA    FLOAT     Adc_Five_Del_3
      000005B3H   EDATA    FLOAT     Adc_Five_Del_4
      0000060AH   EDATA    FLOAT     Adc_Five_Mean_1_Las
      00000610H   EDATA    FLOAT     Adc_Five_Mean_2_Las
      00000614H   EDATA    FLOAT     Adc_Five_Mean_3_Las
L251 LINKER/LOCATER V4.66.93.0                                                        05/09/2023  22:12:16  PAGE 16


      00000618H   EDATA    FLOAT     Adc_Five_Mean_4_Las
      00FF5661H   CODE     ---       adc_init
      00FF5963H   CODE     ---       adc_mean_filter
      00FF5DFFH   CODE     ---       adc_once
*SFR* 000000BDH   DATA     BYTE      ADC_RES
*SFR* 000000BEH   DATA     BYTE      ADC_RESL
*SFR* 000000DEH   DATA     BYTE      ADCCFG
*DEL*:00000000H   CODE     ---       Akeman_Control
      0000059BH   EDATA    ---       akeman_left
      0000061CH   EDATA    ---       akeman_right
      00000976H   EDATA    FLOAT     angle_limit
*DEL*:00000000H   CODE     ---       at24c02_read_byte
*DEL*:00000000H   CODE     ---       at24c02_read_bytes
*DEL*:00000000H   CODE     ---       at24c02_write_byte
*DEL*:00000000H   CODE     ---       at24c02_write_bytes
*SFR* 000000EFH   DATA     BYTE      AUXINTIF
*SFR* 0000008EH   DATA     BYTE      AUXR
*SFR* 00000097H   DATA     BYTE      AUXR2
*DEL*:00000000H   CODE     ---       bluetooth_ch9141_init
*DEL*:00000000H   CODE     ---       bluetooth_ch9141_read_buff
*DEL*:00000000H   CODE     ---       bluetooth_ch9141_send_buff
      00FF60C6H   CODE     ---       bluetooth_ch9141_uart_callback
      00FF516CH   CODE     ---       board_init
      00FF5F2AH   CODE     ---       Brushless_Init
      00000592H   EDATA    ---       busy
*SFR* 000000F1H   DATA     BYTE      CANICR
*DEL*:00000000H   CODE     ---       ccd_collect
      000003CAH   EDATA    ---       ccd_data
*DEL*:00000000H   CODE     ---       ccd_init
*DEL*:00000000H   CODE     ---       ccd_send_data
*SFR* 000000EAH   DATA     BYTE      CKCON
*SFR* 000000E6H   DATA     BYTE      CMPCR1
*SFR* 000000E7H   DATA     BYTE      CMPCR2
      00FF5538H   CODE     ---       Correct_Angle
      00FF326EH   CODE     ---       COS?_
      00000630H   EDATA    INT       countADC
*DEL*:00000000H   CODE     ---       CRC_CHECK
*DEL*:00000000H   CODE     ---       ctimer_count_clean
      00FF59B0H   CODE     ---       ctimer_count_init
*DEL*:00000000H   CODE     ---       ctimer_count_read
*DEL*:00000000H   CODE     ---       data_conversion
      00FF5CCBH   CODE     ---       delay_init
      00FF6129H   CODE     ---       delay_ms
      00FF60ADH   CODE     ---       delay_us
*DEL*:00000000H   CODE     ---       Dev_Err_Window_Filter_2
      000005CEH   EDATA    ---       Dev_errs
      000005CCH   EDATA    INT       dev_flag
      00FF4DC8H   CODE     ---       Dev_Tolerant_Correc_Ang
      000005BBH   EDATA    INT       Dir_judge_flag
      00FF48EDH   CODE     ---       Direct_judge
*DEL*:00000000H   CODE     ---       Direct_judge_Accele
*DEL*:00000000H   CODE     ---       DisableGlobalIRQ
      0000097AH   EDATA    WORD      dl1a_distance_mm
      0000097CH   EDATA    BYTE      dl1a_finsh_flag
*DEL*:00000000H   CODE     ---       dl1a_get_distance
*DEL*:00000000H   CODE     ---       dl1a_init
*SFR* 000000A8H.7 DATA     BIT       EA
*SFR* 000000BAH.7 DATA     BIT       EAXFR
      00FF6156H   CODE     ---       eeprom_trig
      00FF000EH   CODE     ---       EnableGlobalIRQ
*DEL*:00000000H   CODE     ---       encoder_angle_simspi
*DEL*:00000000H   CODE     ---       encoder_angle_spi
*DEL*:00000000H   CODE     ---       Encoder_Clear
      00FF0006H   CODE     ---       encoder_delay_us
*DEL*:00000000H   CODE     ---       encoder_init_simspi
L251 LINKER/LOCATER V4.66.93.0                                                        05/09/2023  22:12:16  PAGE 17


*DEL*:00000000H   CODE     ---       encoder_init_spi
*DEL*:00000000H   CODE     ---       Encoder_Read
*DEL*:00000000H   CODE     ---       encoder_self4_check
*DEL*:00000000H   CODE     ---       encoder_self5_check
*DEL*:00000000H   CODE     ---       encoder_simspi_r_reg_byte
*DEL*:00000000H   CODE     ---       encoder_simspi_w_reg_byte
*DEL*:00000000H   CODE     ---       encoder_spi_r_reg_byte
*DEL*:00000000H   CODE     ---       encoder_spi_w_reg_byte
*SFR* 000000A8H.4 DATA     BIT       ES
*SFR* 000000A8H.1 DATA     BIT       ET0
*SFR* 000000A8H.3 DATA     BIT       ET1
*SFR* 000000A8H.0 DATA     BIT       EX0
*SFR* 000000A8H.2 DATA     BIT       EX1
*DEL*:00000000H   CODE     ---       exit_init
*DEL*:00000000H   CODE     ---       extern_iap_write_bytes
*SFR* 000000D0H.5 DATA     BIT       F0
      00FF628EH   HCONST   ---       F6x8
      00FF64B6H   HCONST   ---       F8X16
      00FF3187H   CODE     NEAR LAB  fabs?_
*DEL*:00000000H   CODE     ---       fifo_clear
*DEL*:00000000H   CODE     ---       fifo_end_offset
      00FF5B58H   CODE     ---       fifo_head_offset
*DEL*:00000000H   CODE     ---       fifo_init
*DEL*:00000000H   CODE     ---       fifo_read_buffer
*DEL*:00000000H   CODE     ---       fifo_used
      00FF4C0DH   CODE     ---       fifo_write_buffer
      00FF3A5BH   CODE     ---       gpio_mode
*DEL*:00000000H   CODE     ---       gpio_pull_set
      00000008H   EDATA    ---       Hzk
*SFR* 000000F6H   DATA     BYTE      IAP_ADDRE
*SFR* 000000C3H   DATA     BYTE      IAP_ADDRH
*SFR* 000000C4H   DATA     BYTE      IAP_ADDRL
*SFR* 000000C5H   DATA     BYTE      IAP_CMD
*SFR* 000000C7H   DATA     BYTE      IAP_CONTR
*SFR* 000000C2H   DATA     BYTE      IAP_DATA
*DEL*:00000000H   CODE     ---       iap_erase_page
*DEL*:00000000H   CODE     ---       iap_get_cmd_state
*DEL*:00000000H   CODE     ---       iap_idle
*DEL*:00000000H   CODE     ---       iap_init
*DEL*:00000000H   CODE     ---       iap_read_bytes
*DEL*:00000000H   CODE     ---       iap_set_tps
*SFR* 000000F5H   DATA     BYTE      IAP_TPS
*SFR* 000000C6H   DATA     BYTE      IAP_TRIG
*DEL*:00000000H   CODE     ---       iap_write_bytes
*DEL*:00000000H   CODE     ---       icm20602_acc_transition
      00000923H   EDATA    INT       icm20602_acc_x
      00000925H   EDATA    INT       icm20602_acc_y
      00000927H   EDATA    INT       icm20602_acc_z
*DEL*:00000000H   CODE     ---       icm20602_get_acc
*DEL*:00000000H   CODE     ---       icm20602_get_gyro
*DEL*:00000000H   CODE     ---       icm20602_gyro_transition
      00000929H   EDATA    INT       icm20602_gyro_x
      0000092BH   EDATA    INT       icm20602_gyro_y
      0000092DH   EDATA    INT       icm20602_gyro_z
*DEL*:00000000H   CODE     ---       icm20602_init
*SFR* 000000A8H   DATA     BYTE      IE
*SFR* 000000AFH   DATA     BYTE      IE2
*DEL*:00000000H   CODE     ---       iic_change_pin
      00FF616BH   CODE     ---       iic_delay_us
*DEL*:00000000H   CODE     ---       iic_init
*DEL*:00000000H   CODE     ---       iic_read_reg
*DEL*:00000000H   CODE     ---       iic_read_reg_bytes
*DEL*:00000000H   CODE     ---       iic_write_reg
*DEL*:00000000H   CODE     ---       imu660ra_acc_transition
      0000092FH   EDATA    INT       imu660ra_acc_x
L251 LINKER/LOCATER V4.66.93.0                                                        05/09/2023  22:12:16  PAGE 18


      00000931H   EDATA    INT       imu660ra_acc_y
      00000933H   EDATA    INT       imu660ra_acc_z
      00FF00A6H   CODE     ---       imu660ra_config_file
*DEL*:00000000H   CODE     ---       imu660ra_get_acc
*DEL*:00000000H   CODE     ---       imu660ra_get_gyro
*DEL*:00000000H   CODE     ---       imu660ra_gyro_transition
      00000935H   EDATA    INT       imu660ra_gyro_x
      00000937H   EDATA    INT       imu660ra_gyro_y
      00000939H   EDATA    INT       imu660ra_gyro_z
*DEL*:00000000H   CODE     ---       imu660ra_init
*DEL*:00000000H   CODE     ---       imu963ra_acc_transition
      00000911H   EDATA    INT       imu963ra_acc_x
      00000913H   EDATA    INT       imu963ra_acc_y
      00000915H   EDATA    INT       imu963ra_acc_z
*DEL*:00000000H   CODE     ---       imu963ra_get_acc
*DEL*:00000000H   CODE     ---       imu963ra_get_gyro
*DEL*:00000000H   CODE     ---       imu963ra_get_mag
*DEL*:00000000H   CODE     ---       imu963ra_gyro_transition
      0000091DH   EDATA    INT       imu963ra_gyro_x
      0000091FH   EDATA    INT       imu963ra_gyro_y
      00000921H   EDATA    INT       imu963ra_gyro_z
*DEL*:00000000H   CODE     ---       imu963ra_init
*DEL*:00000000H   CODE     ---       imu963ra_mag_transition
      00000917H   EDATA    INT       imu963ra_mag_x
      00000919H   EDATA    INT       imu963ra_mag_y
      0000091BH   EDATA    INT       imu963ra_mag_z
      00FF6287H   CODE     ---       INT0_Isr
      00FF0011H   CODE     ---       INT1_Isr
      00FF625FH   CODE     ---       INT2_Isr
      00FF6267H   CODE     ---       INT3_Isr
      00FF626FH   CODE     ---       INT4_Isr
*SFR* 0000008FH   DATA     BYTE      INTCLKO
*SFR* 000000B8H   DATA     BYTE      IP
*SFR* 000000B5H   DATA     BYTE      IP2
*SFR* 000000B6H   DATA     BYTE      IP2H
*SFR* 000000DFH   DATA     BYTE      IP3
*SFR* 000000EEH   DATA     BYTE      IP3H
*SFR* 000000B7H   DATA     BYTE      IPH
*DEL*:00000000H   CODE     ---       ips114_clear
*DEL*:00000000H   CODE     ---       ips114_clear_simspi
*DEL*:00000000H   CODE     ---       ips114_drawpoint
*DEL*:00000000H   CODE     ---       ips114_drawpoint_simspi
*DEL*:00000000H   CODE     ---       ips114_init
*DEL*:00000000H   CODE     ---       ips114_init_simspi
*DEL*:00000000H   CODE     ---       ips114_set_region
*DEL*:00000000H   CODE     ---       ips114_set_region_simspi
*DEL*:00000000H   CODE     ---       ips114_showchar
*DEL*:00000000H   CODE     ---       ips114_showchar_simspi
*DEL*:00000000H   CODE     ---       ips114_showfloat
*DEL*:00000000H   CODE     ---       ips114_showfloat_simspi
*DEL*:00000000H   CODE     ---       ips114_showint16
*DEL*:00000000H   CODE     ---       ips114_showint16_simspi
*DEL*:00000000H   CODE     ---       ips114_showint32
*DEL*:00000000H   CODE     ---       ips114_showint32_simspi
*DEL*:00000000H   CODE     ---       ips114_showint8
*DEL*:00000000H   CODE     ---       ips114_showint8_simspi
*DEL*:00000000H   CODE     ---       ips114_showstr
*DEL*:00000000H   CODE     ---       ips114_showstr_simspi
*DEL*:00000000H   CODE     ---       ips114_showuint16
*DEL*:00000000H   CODE     ---       ips114_showuint16_simspi
*DEL*:00000000H   CODE     ---       ips114_showuint8
*DEL*:00000000H   CODE     ---       ips114_showuint8_simspi
*DEL*:00000000H   CODE     ---       ips114_writeData
      00FF6037H   CODE     ---       ips114_writedata_16bit
*DEL*:00000000H   CODE     ---       ips114_writeData_simspi
L251 LINKER/LOCATER V4.66.93.0                                                        05/09/2023  22:12:16  PAGE 19


      00FF5E89H   CODE     ---       ips114_writeDatai_16bit_simspi
      00FF624DH   CODE     ---       ips114_writeIndex
      00FF5EB5H   CODE     ---       ips114_writeIndex_simspi
*SFR* 0000009DH   DATA     BYTE      IRCBAND
*SFR* 0000009FH   DATA     BYTE      IRTRIM
*SFR* 00000088H.0 DATA     BIT       IT0
*SFR* 00000088H.2 DATA     BIT       IT1
*DEL*:00000000H   CODE     ---       Key_Scan
*SFR* 000000F9H   DATA     BYTE      LINICR
      00FF5327H   CODE     ---       lost_line_judge
      00000632H   EDATA    INT       lostline_count
      00FF4F67H   CODE     ---       lostline_deal
      000005BDH   EDATA    INT       lostline_dir
      0000060EH   EDATA    INT       lostline_flag
      00FF49FCH   CODE     ---       main
      00FF5F05H   CODE     ---       memcpy?_
*DEL*:00000000H   CODE     ---       memset?_
      00FF50C7H   CODE     ---       Motor_Control
      00FF58C6H   CODE     ---       Motor_Init
*DEL*:00000000H   CODE     ---       Motor_PID_Control
*DEL*:00000000H   CODE     ---       Motor_Shut
      0000093BH   EDATA    INT       mpu6050_acc_x
      0000093DH   EDATA    INT       mpu6050_acc_y
      0000093FH   EDATA    INT       mpu6050_acc_z
*DEL*:00000000H   CODE     ---       mpu6050_get_accdata
*DEL*:00000000H   CODE     ---       mpu6050_get_gyro
      00000941H   EDATA    INT       mpu6050_gyro_x
      00000943H   EDATA    INT       mpu6050_gyro_y
      00000945H   EDATA    INT       mpu6050_gyro_z
*DEL*:00000000H   CODE     ---       mpu6050_init
*DEL*:00000000H   CODE     ---       mpu6050_simiic_read_reg
*DEL*:00000000H   CODE     ---       mpu6050_simiic_read_regs
      00FF59FAH   CODE     ---       My_Adc_Init
*DEL*:00000000H   CODE     ---       number_conversion_ascii
*DEL*:00000000H   CODE     ---       NVIC_SetPriority
      00FF2C86H   CODE     ---       oled_6x8
      00FF20A6H   CODE     ---       oled_8x16
      00FF5D6DH   CODE     ---       OLED_Clear
*SFR* 00000080H.2 DATA     BIT       OLED_CS
*SFR* 000000C8H.2 DATA     BIT       OLED_DC
*DEL*:00000000H   CODE     ---       OLED_Display_Off
*DEL*:00000000H   CODE     ---       OLED_Display_On
*DEL*:00000000H   CODE     ---       OLED_DrawBMP
      00FF5019H   CODE     ---       OLED_Init
*DEL*:00000000H   CODE     ---       oled_pow
*SFR* 000000C8H.1 DATA     BIT       OLED_RST
*SFR* 000000B0H.7 DATA     BIT       OLED_SCL
*SFR* 000000B0H.6 DATA     BIT       OLED_SDIN
      00FF5EDEH   CODE     ---       OLED_Set_Pos
*DEL*:00000000H   CODE     ---       OLED_ShowChar
*DEL*:00000000H   CODE     ---       OLED_ShowCHinese
*DEL*:00000000H   CODE     ---       OLED_ShowNum
*DEL*:00000000H   CODE     ---       OLED_ShowString
      00FF571AH   CODE     ---       OLED_WR_Byte
      000005B7H   EDATA    FLOAT     order_angle
      000005BFH   EDATA    FLOAT     order_speed
*SFR* 00000080H   DATA     BYTE      P0
*SFR* 00000080H.7 DATA     BIT       P07
*SFR* 00000094H   DATA     BYTE      P0M0
*SFR* 00000093H   DATA     BYTE      P0M1
*SFR* 00000090H   DATA     BYTE      P1
*SFR* 00000092H   DATA     BYTE      P1M0
*SFR* 00000091H   DATA     BYTE      P1M1
*SFR* 000000A0H   DATA     BYTE      P2
*SFR* 000000A0H.0 DATA     BIT       P20
L251 LINKER/LOCATER V4.66.93.0                                                        05/09/2023  22:12:16  PAGE 20


*SFR* 000000A0H.1 DATA     BIT       P21
*SFR* 000000A0H.2 DATA     BIT       P22
*SFR* 000000A0H.3 DATA     BIT       P23
*SFR* 000000A0H.4 DATA     BIT       P24
*SFR* 000000A0H.5 DATA     BIT       P25
*SFR* 000000A0H.6 DATA     BIT       P26
*SFR* 000000A0H.7 DATA     BIT       P27
*SFR* 00000096H   DATA     BYTE      P2M0
*SFR* 00000095H   DATA     BYTE      P2M1
*SFR* 000000B0H   DATA     BYTE      P3
*SFR* 000000B0H.2 DATA     BIT       P32
*SFR* 000000B0H.3 DATA     BIT       P33
*SFR* 000000B0H.5 DATA     BIT       P35
*SFR* 000000B2H   DATA     BYTE      P3M0
*SFR* 000000B1H   DATA     BYTE      P3M1
*SFR* 000000C0H   DATA     BYTE      P4
*SFR* 000000C0H.0 DATA     BIT       P40
*SFR* 000000C0H.1 DATA     BIT       P41
*SFR* 000000C0H.2 DATA     BIT       P42
*SFR* 000000C0H.3 DATA     BIT       P43
*SFR* 000000C0H.4 DATA     BIT       P44
*SFR* 000000C0H.5 DATA     BIT       P45
*SFR* 000000B4H   DATA     BYTE      P4M0
*SFR* 000000B3H   DATA     BYTE      P4M1
*SFR* 000000C8H   DATA     BYTE      P5
*SFR* 000000C8H.0 DATA     BIT       P50
*SFR* 000000C8H.3 DATA     BIT       P53
*SFR* 000000CAH   DATA     BYTE      P5M0
*SFR* 000000C9H   DATA     BYTE      P5M1
*SFR* 000000E8H   DATA     BYTE      P6
*SFR* 000000CCH   DATA     BYTE      P6M0
*SFR* 000000CBH   DATA     BYTE      P6M1
*SFR* 000000F8H   DATA     BYTE      P7
*SFR* 000000F8H.0 DATA     BIT       P70
*SFR* 000000F8H.1 DATA     BIT       P71
*SFR* 000000F8H.2 DATA     BIT       P72
*SFR* 000000F8H.3 DATA     BIT       P73
*SFR* 000000E2H   DATA     BYTE      P7M0
*SFR* 000000E1H   DATA     BYTE      P7M1
*SFR* 000000A2H   DATA     BYTE      P_SW1
*SFR* 000000BAH   DATA     BYTE      P_SW2
*SFR* 000000BBH   DATA     BYTE      P_SW3
*SFR* 00000087H   DATA     BYTE      PCON
*DEL*:00000000H   CODE     ---       pid_calc
*DEL*:00000000H   CODE     ---       pid_clear_integral
      000005CBH   EDATA    BYTE      pid_flag
      00000768H   EDATA    ---       pid_left_
*DEL*:00000000H   CODE     ---       PID_off
*DEL*:00000000H   CODE     ---       PID_on
      00000720H   EDATA    ---       pid_right_
      00FF5602H   CODE     ---       PID_struct_init
      00FF5200H   CODE     ---       pit_timer_ms
*DEL*:00000000H   CODE     ---       position_pid_calc
      00FF315BH   CODE     NEAR LAB  printf
*DEL*:00000000H   CODE     ---       printf_reverse_order
*SFR* 000000D0H   DATA     BYTE      PSW
      00000974H   EDATA    INT       pulse_left
      00000972H   EDATA    INT       pulse_right
      00FF6219H   CODE     ---       putchar
      00FF7119H   HCONST   ---       PWM_ARR_ADDR
      00FF7121H   HCONST   ---       PWM_CCER_ADDR
      00FF7131H   HCONST   ---       PWM_CCMR_ADDR
      00FF70F9H   HCONST   ---       PWM_CCR_ADDR
      00FF4E9FH   CODE     ---       pwm_duty
*DEL*:00000000H   CODE     ---       pwm_freq
L251 LINKER/LOCATER V4.66.93.0                                                        05/09/2023  22:12:16  PAGE 21


      00FF3E52H   CODE     ---       pwm_init
      00FF414EH   CODE     ---       pwm_set_gpio
      00FF4B06H   CODE     ---       Read_Adc_Value
*DEL*:00000000H   CODE     ---       recv_ack
*DEL*:00000000H   CODE     ---       recv_data
      000005C9H   EDATA    INT       Roundabout_count
      00FF5445H   CODE     ---       Roundabout_deal
      000005EEH   EDATA    INT       Roundabout_flag_L
      00000608H   EDATA    INT       Roundabout_flag_R
*SFR* 000000FFH   DATA     BYTE      RSTCFG
*SFR* 0000009BH   DATA     BYTE      S2BUF
*SFR* 0000009AH   DATA     BYTE      S2CON
*SFR* 000000ADH   DATA     BYTE      S3BUF
*SFR* 000000ACH   DATA     BYTE      S3CON
*SFR* 000000FEH   DATA     BYTE      S4BUF
*SFR* 000000FDH   DATA     BYTE      S4CON
*SFR* 00000099H   DATA     BYTE      SBUF
*SFR* 00000098H   DATA     BYTE      SCON
*DEL*:00000000H   CODE     ---       send_ack
*DEL*:00000000H   CODE     ---       send_data
      00FF5294H   CODE     ---       send_five_data
*DEL*:00000000H   CODE     ---       send_nak
*DEL*:00000000H   CODE     ---       Set_Brushless_Output
      00FF47CBH   CODE     ---       set_clk
*DEL*:00000000H   CODE     ---       set_zero_position_simspi
*DEL*:00000000H   CODE     ---       set_zero_position_spi
      000003C8H   EDATA    BYTE      show_mode
*DEL*:00000000H   CODE     ---       simspi_r_reg_byte
*DEL*:00000000H   CODE     ---       simspi_w_reg_byte
*DEL*:00000000H   CODE     ---       simspi_wr_byte
      00FF328BH   CODE     ---       SIN?_
*SFR* 000000CEH   DATA     BYTE      SPCTL
*SFR* 000000CFH   DATA     BYTE      SPDAT
*DEL*:00000000H   CODE     ---       spi_change_mode
*DEL*:00000000H   CODE     ---       spi_change_pin
*DEL*:00000000H   CODE     ---       spi_init
      00FF6227H   CODE     ---       spi_mosi
*DEL*:00000000H   CODE     ---       spi_r_reg_byte
*DEL*:00000000H   CODE     ---       spi_w_reg_byte
*DEL*:00000000H   CODE     ---       spi_wr_byte
*SFR* 000000CDH   DATA     BYTE      SPSTAT
      00FF3196H   CODE     ---       sqrt?_
*DEL*:00000000H   CODE     ---       start
      00FF6193H   CODE     ---       Steer_Init
      00FF53B9H   CODE     ---       Steer_Spin
      00FF6017H   CODE     ---       Steer_Spin_limit
*DEL*:00000000H   CODE     ---       stop
      00000962H   EDATA    LONG      sys_clk
*SFR* 000000D6H   DATA     BYTE      T2H
*SFR* 000000D7H   DATA     BYTE      T2L
*SFR* 000000D4H   DATA     BYTE      T3H
*SFR* 000000D5H   DATA     BYTE      T3L
*SFR* 000000D2H   DATA     BYTE      T4H
*SFR* 000000D3H   DATA     BYTE      T4L
*SFR* 000000DDH   DATA     BYTE      T4T3M
      00FF32B8H   CODE     ---       tan?_
*SFR* 00000088H   DATA     BYTE      TCON
      00FF2696H   CODE     ---       tft_ascii
*SFR* 0000008CH   DATA     BYTE      TH0
*SFR* 0000008DH   DATA     BYTE      TH1
*DEL*:00000000H   CODE     ---       Timer3_to_Timer4
*DEL*:00000000H   CODE     ---       Timer4_to_Timer3
*DEL*:00000000H   CODE     ---       Timer_Init
*SFR* 0000008AH   DATA     BYTE      TL0
*SFR* 0000008BH   DATA     BYTE      TL1
L251 LINKER/LOCATER V4.66.93.0                                                        05/09/2023  22:12:16  PAGE 22


      00FF5ACFH   CODE     ---       TM0_Isr
      00FF0012H   CODE     ---       TM1_Isr
      00FF6277H   CODE     ---       TM2_Isr
      00FF627FH   CODE     ---       TM3_Isr
      00FF43EFH   CODE     ---       TM4_Isr
*SFR* 00000089H   DATA     BYTE      TMOD
*SFR* 00000088H.4 DATA     BIT       TR0
*SFR* 00000088H.6 DATA     BIT       TR1
      000003C9H   EDATA    BYTE      tsl1401_finish_flag
      00FF5C17H   CODE     ---       UART1_Isr
      000004CAH   EDATA    ---       uart1_rx_buff
      0000052EH   EDATA    ---       uart1_tx_buff
      00FF6056H   CODE     ---       UART2_Isr
      00FF6074H   CODE     ---       UART3_Isr
      00FF54CFH   CODE     ---       UART4_Isr
      00FF460CH   CODE     ---       uart_init
*DEL*:00000000H   CODE     ---       uart_putbuff
      00FF57CCH   CODE     ---       uart_putchar
*DEL*:00000000H   CODE     ---       uart_putstr
*SFR* 000000F4H   DATA     BYTE      USBCON
      00000947H   EDATA    ---       virtual_scope_data
*SFR* 000000A6H   DATA     BYTE      VRTRIM
      00FF5A8AH   CODE     ---       wait
*SFR* 000000C1H   DATA     BYTE      WDT_CONTR
      000005C7H   EDATA    INT       window_flag
      00FF60F8H   CODE     ---       wireless_ch573_callback
*DEL*:00000000H   CODE     ---       wireless_ch573_init
*DEL*:00000000H   CODE     ---       wireless_ch573_read_buff
*DEL*:00000000H   CODE     ---       wireless_ch573_send_buff
      0000097DH   EDATA    INT       wireless_type
      00FF60DFH   CODE     ---       wireless_uart_callback
*DEL*:00000000H   CODE     ---       wireless_uart_init
*DEL*:00000000H   CODE     ---       wireless_uart_read_buff
*DEL*:00000000H   CODE     ---       wireless_uart_send_buff
*SFR* 000000E9H   DATA     BYTE      WTST
      00000966H   EDATA    WORD      zf_delay_ms
      00000968H   EDATA    WORD      zf_delay_us
*DEL*:00000000H   CODE     ---       zf_sprintf



SYMBOL TABLE OF MODULE:  .\Out_File\SEEKFREE (board)

      VALUE       REP       CLASS    TYPE      SYMBOL NAME
      ====================================================
      ---         MODULE    ---      ---       board
      00FF000EH   PUBLIC    CODE     ---       EnableGlobalIRQ
      00FF516CH   PUBLIC    CODE     ---       board_init
      00FF47CBH   PUBLIC    CODE     ---       set_clk
      00FF6219H   PUBLIC    CODE     ---       putchar
      00000962H   PUBLIC    EDATA    LONG      sys_clk
      00000094H   SFRSYM    DATA     BYTE      P0M0
      000000D0H   SFRSYM    DATA     BYTE      PSW
      000000BAH.7 SFRSYM    DATA     BIT       EAXFR
      0000009DH   SFRSYM    DATA     BYTE      IRCBAND
      00000097H   SFRSYM    DATA     BYTE      AUXR2
      000000EAH   SFRSYM    DATA     BYTE      CKCON
      000000EFH   SFRSYM    DATA     BYTE      AUXINTIF
      000000FDH   SFRSYM    DATA     BYTE      S4CON
      000000ACH   SFRSYM    DATA     BYTE      S3CON
      0000009AH   SFRSYM    DATA     BYTE      S2CON
      000000A6H   SFRSYM    DATA     BYTE      VRTRIM
      000000B7H   SFRSYM    DATA     BYTE      IPH
      000000CDH   SFRSYM    DATA     BYTE      SPSTAT
      000000DDH   SFRSYM    DATA     BYTE      T4T3M
L251 LINKER/LOCATER V4.66.93.0                                                        05/09/2023  22:12:16  PAGE 23


      0000009FH   SFRSYM    DATA     BYTE      IRTRIM
      000000C1H   SFRSYM    DATA     BYTE      WDT_CONTR
      000000E9H   SFRSYM    DATA     BYTE      WTST
      000000DFH   SFRSYM    DATA     BYTE      IP3
      000000F4H   SFRSYM    DATA     BYTE      USBCON
      000000B5H   SFRSYM    DATA     BYTE      IP2
      000000FFH   SFRSYM    DATA     BYTE      RSTCFG
      000000F9H   SFRSYM    DATA     BYTE      LINICR
      0000008EH   SFRSYM    DATA     BYTE      AUXR
      000000AFH   SFRSYM    DATA     BYTE      IE2
      00000088H   SFRSYM    DATA     BYTE      TCON
      00000089H   SFRSYM    DATA     BYTE      TMOD
      00000098H   SFRSYM    DATA     BYTE      SCON
      000000F1H   SFRSYM    DATA     BYTE      CANICR
      00000087H   SFRSYM    DATA     BYTE      PCON
      000000BCH   SFRSYM    DATA     BYTE      ADC_CONTR
      000000E7H   SFRSYM    DATA     BYTE      CMPCR2
      000000E6H   SFRSYM    DATA     BYTE      CMPCR1
      000000DEH   SFRSYM    DATA     BYTE      ADCCFG
      000000B8H   SFRSYM    DATA     BYTE      IP
      0000008FH   SFRSYM    DATA     BYTE      INTCLKO
      000000EEH   SFRSYM    DATA     BYTE      IP3H
      000000B6H   SFRSYM    DATA     BYTE      IP2H
      000000A8H   SFRSYM    DATA     BYTE      IE
      000000BBH   SFRSYM    DATA     BYTE      P_SW3
      000000BAH   SFRSYM    DATA     BYTE      P_SW2
      000000A2H   SFRSYM    DATA     BYTE      P_SW1
      000000CEH   SFRSYM    DATA     BYTE      SPCTL
      000000F8H   SFRSYM    DATA     BYTE      P7
      000000A8H.7 SFRSYM    DATA     BIT       EA
      000000E1H   SFRSYM    DATA     BYTE      P7M1
      000000E8H   SFRSYM    DATA     BYTE      P6
      000000C8H   SFRSYM    DATA     BYTE      P5
      000000CBH   SFRSYM    DATA     BYTE      P6M1
      000000E2H   SFRSYM    DATA     BYTE      P7M0
      000000C0H   SFRSYM    DATA     BYTE      P4
      000000C9H   SFRSYM    DATA     BYTE      P5M1
      000000CCH   SFRSYM    DATA     BYTE      P6M0
      000000B0H   SFRSYM    DATA     BYTE      P3
      000000B3H   SFRSYM    DATA     BYTE      P4M1
      000000CAH   SFRSYM    DATA     BYTE      P5M0
      000000A0H   SFRSYM    DATA     BYTE      P2
      000000B1H   SFRSYM    DATA     BYTE      P3M1
      000000B4H   SFRSYM    DATA     BYTE      P4M0
      00000090H   SFRSYM    DATA     BYTE      P1
      00000095H   SFRSYM    DATA     BYTE      P2M1
      000000B2H   SFRSYM    DATA     BYTE      P3M0
      00000080H   SFRSYM    DATA     BYTE      P0
      00000091H   SFRSYM    DATA     BYTE      P1M1
      00000096H   SFRSYM    DATA     BYTE      P2M0
      00000092H   SFRSYM    DATA     BYTE      P1M0
      00000093H   SFRSYM    DATA     BYTE      P0M1

      00FF47CBH   BLOCK     CODE     ---       LVL=0
      00FF47CBH   LINE      CODE     ---       #43
      00FF47CBH   LINE      CODE     ---       #46
      00FF47CEH   LINE      CODE     ---       #48
      00FF47DEH   LINE      CODE     ---       #51
      00FF47EBH   LINE      CODE     ---       #52
      00FF47EFH   LINE      CODE     ---       #53
      00FF47EFH   LINE      CODE     ---       #54
      00FF47EFH   LINE      CODE     ---       #55
      00FF47EFH   LINE      CODE     ---       #56
      00FF47F1H   LINE      CODE     ---       #57
      00FF47FDH   LINE      CODE     ---       #60
L251 LINKER/LOCATER V4.66.93.0                                                        05/09/2023  22:12:16  PAGE 24


      00FF480AH   LINE      CODE     ---       #61
      00FF480EH   LINE      CODE     ---       #62
      00FF480EH   LINE      CODE     ---       #63
      00FF480EH   LINE      CODE     ---       #64
      00FF480EH   LINE      CODE     ---       #65
      00FF4810H   LINE      CODE     ---       #66
      00FF481CH   LINE      CODE     ---       #69
      00FF4829H   LINE      CODE     ---       #70
      00FF482DH   LINE      CODE     ---       #71
      00FF482DH   LINE      CODE     ---       #72
      00FF482DH   LINE      CODE     ---       #73
      00FF482DH   LINE      CODE     ---       #74
      00FF482FH   LINE      CODE     ---       #75
      00FF483BH   LINE      CODE     ---       #79
      00FF4848H   LINE      CODE     ---       #80
      00FF484CH   LINE      CODE     ---       #81
      00FF484CH   LINE      CODE     ---       #82
      00FF484CH   LINE      CODE     ---       #83
      00FF484CH   LINE      CODE     ---       #84
      00FF484EH   LINE      CODE     ---       #85
      00FF485AH   LINE      CODE     ---       #88
      00FF4867H   LINE      CODE     ---       #89
      00FF4874H   LINE      CODE     ---       #90
      00FF487DH   LINE      CODE     ---       #91
      00FF4880H   LINE      CODE     ---       #92
      00FF4880H   LINE      CODE     ---       #93
      00FF4882H   LINE      CODE     ---       #94
      00FF488EH   LINE      CODE     ---       #97
      00FF489BH   LINE      CODE     ---       #98
      00FF48A8H   LINE      CODE     ---       #99
      00FF48B1H   LINE      CODE     ---       #100
      00FF48B4H   LINE      CODE     ---       #101
      00FF48B8H   LINE      CODE     ---       #102
      00FF48BAH   LINE      CODE     ---       #105
      00FF48BEH   LINE      CODE     ---       #107
      00FF48CBH   LINE      CODE     ---       #108
      00FF48D8H   LINE      CODE     ---       #109
      00FF48E1H   LINE      CODE     ---       #110
      00FF48E4H   LINE      CODE     ---       #111
      00FF48E8H   LINE      CODE     ---       #112
      00FF48E8H   LINE      CODE     ---       #114
      00FF48ECH   LINE      CODE     ---       #115
      ---         BLOCKEND  ---      ---       LVL=0

      00FF516CH   BLOCK     CODE     ---       LVL=0
      00FF516CH   LINE      CODE     ---       #121
      00FF516CH   LINE      CODE     ---       #123
      00FF516FH   LINE      CODE     ---       #124
      00FF5172H   LINE      CODE     ---       #125
      00FF5175H   LINE      CODE     ---       #126
      00FF5178H   LINE      CODE     ---       #127
      00FF517BH   LINE      CODE     ---       #137
      00FF5182H   LINE      CODE     ---       #143
      00FF5185H   LINE      CODE     ---       #145
      00FF5188H   LINE      CODE     ---       #146
      00FF518BH   LINE      CODE     ---       #147
      00FF5197H   LINE      CODE     ---       #149
      00FF519AH   LINE      CODE     ---       #150
      00FF519DH   LINE      CODE     ---       #151
      00FF51A0H   LINE      CODE     ---       #152
      00FF51A3H   LINE      CODE     ---       #153
      00FF51A6H   LINE      CODE     ---       #154
      00FF51A9H   LINE      CODE     ---       #155
      00FF51ACH   LINE      CODE     ---       #156
      00FF51AFH   LINE      CODE     ---       #157
L251 LINKER/LOCATER V4.66.93.0                                                        05/09/2023  22:12:16  PAGE 25


      00FF51B2H   LINE      CODE     ---       #158
      00FF51B5H   LINE      CODE     ---       #159
      00FF51B8H   LINE      CODE     ---       #160
      00FF51BBH   LINE      CODE     ---       #161
      00FF51BEH   LINE      CODE     ---       #162
      00FF51C1H   LINE      CODE     ---       #163
      00FF51C4H   LINE      CODE     ---       #164
      00FF51C7H   LINE      CODE     ---       #166
      00FF51CAH   LINE      CODE     ---       #167
      00FF51CDH   LINE      CODE     ---       #168
      00FF51D0H   LINE      CODE     ---       #169
      00FF51D3H   LINE      CODE     ---       #170
      00FF51D6H   LINE      CODE     ---       #171
      00FF51D9H   LINE      CODE     ---       #172
      00FF51DCH   LINE      CODE     ---       #173
      00FF51DFH   LINE      CODE     ---       #174
      00FF51E2H   LINE      CODE     ---       #176
      00FF51FDH   LINE      CODE     ---       #177
      ---         BLOCKEND  ---      ---       LVL=0

      00FF6219H   BLOCK     CODE     ---       LVL=0
      R15         REGSYM    ---      CHAR      c
      00FF6219H   LINE      CODE     ---       #183
      00FF621DH   LINE      CODE     ---       #185
      00FF6222H   LINE      CODE     ---       #187
      00FF6224H   LINE      CODE     ---       #188
      ---         BLOCKEND  ---      ---       LVL=0

      00FF000EH   BLOCK     CODE     ---       LVL=0
      00FF000EH   LINE      CODE     ---       #197
      00FF000EH   LINE      CODE     ---       #199
      00FF0010H   LINE      CODE     ---       #200
      ---         BLOCKEND  ---      ---       LVL=0

      ---         MODULE    ---      ---       common
      0000097DH   PUBLIC    EDATA    INT       wireless_type
      000000D0H   SFRSYM    DATA     BYTE      PSW
      0000009DH   SFRSYM    DATA     BYTE      IRCBAND
      00000097H   SFRSYM    DATA     BYTE      AUXR2
      000000EFH   SFRSYM    DATA     BYTE      AUXINTIF
      000000FDH   SFRSYM    DATA     BYTE      S4CON
      000000ACH   SFRSYM    DATA     BYTE      S3CON
      0000009AH   SFRSYM    DATA     BYTE      S2CON
      000000B7H   SFRSYM    DATA     BYTE      IPH
      000000CDH   SFRSYM    DATA     BYTE      SPSTAT
      000000DDH   SFRSYM    DATA     BYTE      T4T3M
      000000C1H   SFRSYM    DATA     BYTE      WDT_CONTR
      000000DFH   SFRSYM    DATA     BYTE      IP3
      000000F4H   SFRSYM    DATA     BYTE      USBCON
      000000B5H   SFRSYM    DATA     BYTE      IP2
      000000FFH   SFRSYM    DATA     BYTE      RSTCFG
      000000F9H   SFRSYM    DATA     BYTE      LINICR
      0000008EH   SFRSYM    DATA     BYTE      AUXR
      000000AFH   SFRSYM    DATA     BYTE      IE2
      00000088H   SFRSYM    DATA     BYTE      TCON
      00000098H   SFRSYM    DATA     BYTE      SCON
      000000F1H   SFRSYM    DATA     BYTE      CANICR
      00000087H   SFRSYM    DATA     BYTE      PCON
      000000BCH   SFRSYM    DATA     BYTE      ADC_CONTR
      000000E7H   SFRSYM    DATA     BYTE      CMPCR2
      000000E6H   SFRSYM    DATA     BYTE      CMPCR1
      000000B8H   SFRSYM    DATA     BYTE      IP
      0000008FH   SFRSYM    DATA     BYTE      INTCLKO
      000000EEH   SFRSYM    DATA     BYTE      IP3H
      000000B6H   SFRSYM    DATA     BYTE      IP2H
L251 LINKER/LOCATER V4.66.93.0                                                        05/09/2023  22:12:16  PAGE 26


      000000A8H   SFRSYM    DATA     BYTE      IE
      000000BBH   SFRSYM    DATA     BYTE      P_SW3
      000000BAH   SFRSYM    DATA     BYTE      P_SW2
      000000A2H   SFRSYM    DATA     BYTE      P_SW1
      000000CEH   SFRSYM    DATA     BYTE      SPCTL
      000000F8H   SFRSYM    DATA     BYTE      P7
      000000E8H   SFRSYM    DATA     BYTE      P6
      000000C8H   SFRSYM    DATA     BYTE      P5
      000000C0H   SFRSYM    DATA     BYTE      P4
      000000B0H   SFRSYM    DATA     BYTE      P3
      000000A0H   SFRSYM    DATA     BYTE      P2
      00000090H   SFRSYM    DATA     BYTE      P1
      00000080H   SFRSYM    DATA     BYTE      P0

      ---         MODULE    ---      ---       zf_adc
      00FF5DFFH   PUBLIC    CODE     ---       adc_once
      00FF5661H   PUBLIC    CODE     ---       adc_init
      00000094H   SFRSYM    DATA     BYTE      P0M0
      000000D0H   SFRSYM    DATA     BYTE      PSW
      0000009DH   SFRSYM    DATA     BYTE      IRCBAND
      00000097H   SFRSYM    DATA     BYTE      AUXR2
      000000EFH   SFRSYM    DATA     BYTE      AUXINTIF
      000000FDH   SFRSYM    DATA     BYTE      S4CON
      000000ACH   SFRSYM    DATA     BYTE      S3CON
      0000009AH   SFRSYM    DATA     BYTE      S2CON
      000000B7H   SFRSYM    DATA     BYTE      IPH
      000000CDH   SFRSYM    DATA     BYTE      SPSTAT
      000000BEH   SFRSYM    DATA     BYTE      ADC_RESL
      000000DDH   SFRSYM    DATA     BYTE      T4T3M
      000000C1H   SFRSYM    DATA     BYTE      WDT_CONTR
      000000DFH   SFRSYM    DATA     BYTE      IP3
      000000F4H   SFRSYM    DATA     BYTE      USBCON
      000000B5H   SFRSYM    DATA     BYTE      IP2
      000000FFH   SFRSYM    DATA     BYTE      RSTCFG
      000000F9H   SFRSYM    DATA     BYTE      LINICR
      0000008EH   SFRSYM    DATA     BYTE      AUXR
      000000AFH   SFRSYM    DATA     BYTE      IE2
      00000088H   SFRSYM    DATA     BYTE      TCON
      00000098H   SFRSYM    DATA     BYTE      SCON
      000000F1H   SFRSYM    DATA     BYTE      CANICR
      00000087H   SFRSYM    DATA     BYTE      PCON
      000000BCH   SFRSYM    DATA     BYTE      ADC_CONTR
      000000E7H   SFRSYM    DATA     BYTE      CMPCR2
      000000E6H   SFRSYM    DATA     BYTE      CMPCR1
      000000DEH   SFRSYM    DATA     BYTE      ADCCFG
      000000B8H   SFRSYM    DATA     BYTE      IP
      0000008FH   SFRSYM    DATA     BYTE      INTCLKO
      000000EEH   SFRSYM    DATA     BYTE      IP3H
      000000B6H   SFRSYM    DATA     BYTE      IP2H
      000000BDH   SFRSYM    DATA     BYTE      ADC_RES
      000000A8H   SFRSYM    DATA     BYTE      IE
      000000BBH   SFRSYM    DATA     BYTE      P_SW3
      000000BAH   SFRSYM    DATA     BYTE      P_SW2
      000000A2H   SFRSYM    DATA     BYTE      P_SW1
      000000CEH   SFRSYM    DATA     BYTE      SPCTL
      000000F8H   SFRSYM    DATA     BYTE      P7
      000000E8H   SFRSYM    DATA     BYTE      P6
      000000C8H   SFRSYM    DATA     BYTE      P5
      000000C0H   SFRSYM    DATA     BYTE      P4
      000000B0H   SFRSYM    DATA     BYTE      P3
      000000A0H   SFRSYM    DATA     BYTE      P2
      00000090H   SFRSYM    DATA     BYTE      P1
      00000080H   SFRSYM    DATA     BYTE      P0
      00000091H   SFRSYM    DATA     BYTE      P1M1
      00000092H   SFRSYM    DATA     BYTE      P1M0
L251 LINKER/LOCATER V4.66.93.0                                                        05/09/2023  22:12:16  PAGE 27


      00000093H   SFRSYM    DATA     BYTE      P0M1

      00FF5661H   BLOCK     CODE     ---       LVL=0
      WR4         REGSYM    ---      INT       adcn
      WR2         REGSYM    ---      INT       speed
      00FF5661H   LINE      CODE     ---       #32
      00FF5665H   LINE      CODE     ---       #34
      00FF5668H   LINE      CODE     ---       #36
      00FF566BH   LINE      CODE     ---       #37
      00FF5671H   LINE      CODE     ---       #39
      00FF567DH   LINE      CODE     ---       #42
      00FF5692H   LINE      CODE     ---       #43
      00FF5696H   LINE      CODE     ---       #44
      00FF5698H   LINE      CODE     ---       #45
      00FF569CH   LINE      CODE     ---       #48
      00FF56B1H   LINE      CODE     ---       #49
      00FF56B5H   LINE      CODE     ---       #50
      00FF56B5H   LINE      CODE     ---       #52
      00FF56BBH   LINE      CODE     ---       #54
      00FF56BEH   LINE      CODE     ---       #55
      ---         BLOCKEND  ---      ---       LVL=0

      00FF5DFFH   BLOCK     CODE     ---       LVL=0
      WR6         REGSYM    ---      INT       adcn
      WR4         REGSYM    ---      INT       resolution
      WR6         REGSYM    ---      WORD      adc_value
      00FF5DFFH   LINE      CODE     ---       #66
      00FF5DFFH   LINE      CODE     ---       #67
      00FF5DFFH   LINE      CODE     ---       #70
      00FF5E02H   LINE      CODE     ---       #71
      00FF5E06H   LINE      CODE     ---       #73
      00FF5E09H   LINE      CODE     ---       #74
      00FF5E0EH   LINE      CODE     ---       #75
      00FF5E11H   LINE      CODE     ---       #77
      00FF5E13H   LINE      CODE     ---       #78
      00FF5E17H   LINE      CODE     ---       #79
      00FF5E1DH   LINE      CODE     ---       #81
      00FF5E20H   LINE      CODE     ---       #82
      00FF5E23H   LINE      CODE     ---       #84
      00FF5E2CH   LINE      CODE     ---       #87
      00FF5E2CH   LINE      CODE     ---       #88
      ---         BLOCKEND  ---      ---       LVL=0

      ---         MODULE    ---      ---       zf_delay
      00FF5CCBH   PUBLIC    CODE     ---       delay_init
      00FF6129H   PUBLIC    CODE     ---       delay_ms
      00FF60ADH   PUBLIC    CODE     ---       delay_us
      00000966H   PUBLIC    EDATA    WORD      zf_delay_ms
      00000968H   PUBLIC    EDATA    WORD      zf_delay_us
      000000D0H   SFRSYM    DATA     BYTE      PSW
      0000009DH   SFRSYM    DATA     BYTE      IRCBAND
      00000097H   SFRSYM    DATA     BYTE      AUXR2
      000000EFH   SFRSYM    DATA     BYTE      AUXINTIF
      000000FDH   SFRSYM    DATA     BYTE      S4CON
      000000ACH   SFRSYM    DATA     BYTE      S3CON
      0000009AH   SFRSYM    DATA     BYTE      S2CON
      000000B7H   SFRSYM    DATA     BYTE      IPH
      000000CDH   SFRSYM    DATA     BYTE      SPSTAT
      000000DDH   SFRSYM    DATA     BYTE      T4T3M
      000000C1H   SFRSYM    DATA     BYTE      WDT_CONTR
      000000DFH   SFRSYM    DATA     BYTE      IP3
      000000F4H   SFRSYM    DATA     BYTE      USBCON
      000000B5H   SFRSYM    DATA     BYTE      IP2
      000000FFH   SFRSYM    DATA     BYTE      RSTCFG
      000000F9H   SFRSYM    DATA     BYTE      LINICR
L251 LINKER/LOCATER V4.66.93.0                                                        05/09/2023  22:12:16  PAGE 28


      0000008EH   SFRSYM    DATA     BYTE      AUXR
      000000AFH   SFRSYM    DATA     BYTE      IE2
      00000088H   SFRSYM    DATA     BYTE      TCON
      00000098H   SFRSYM    DATA     BYTE      SCON
      000000F1H   SFRSYM    DATA     BYTE      CANICR
      00000087H   SFRSYM    DATA     BYTE      PCON
      000000BCH   SFRSYM    DATA     BYTE      ADC_CONTR
      000000E7H   SFRSYM    DATA     BYTE      CMPCR2
      000000E6H   SFRSYM    DATA     BYTE      CMPCR1
      000000B8H   SFRSYM    DATA     BYTE      IP
      0000008FH   SFRSYM    DATA     BYTE      INTCLKO
      000000EEH   SFRSYM    DATA     BYTE      IP3H
      000000B6H   SFRSYM    DATA     BYTE      IP2H
      000000A8H   SFRSYM    DATA     BYTE      IE
      000000BBH   SFRSYM    DATA     BYTE      P_SW3
      000000BAH   SFRSYM    DATA     BYTE      P_SW2
      000000A2H   SFRSYM    DATA     BYTE      P_SW1
      000000CEH   SFRSYM    DATA     BYTE      SPCTL
      000000F8H   SFRSYM    DATA     BYTE      P7
      000000E8H   SFRSYM    DATA     BYTE      P6
      000000C8H   SFRSYM    DATA     BYTE      P5
      000000C0H   SFRSYM    DATA     BYTE      P4
      000000B0H   SFRSYM    DATA     BYTE      P3
      000000A0H   SFRSYM    DATA     BYTE      P2
      00000090H   SFRSYM    DATA     BYTE      P1
      00000080H   SFRSYM    DATA     BYTE      P0

      00FF5CCBH   BLOCK     CODE     ---       LVL=0
      00FF5CCBH   LINE      CODE     ---       #34
      00FF5CCBH   LINE      CODE     ---       #36
      00FF5CDCH   LINE      CODE     ---       #37
      00FF5CEDH   LINE      CODE     ---       #38
      00FF5D03H   LINE      CODE     ---       #40
      ---         BLOCKEND  ---      ---       LVL=0

      00FF6129H   BLOCK     CODE     ---       LVL=0
      WR4         REGSYM    ---      WORD      ms
      00FF612BH   BLOCK     CODE     NEAR LAB  LVL=1
      WR6         REGSYM    ---      WORD      i
      ---         BLOCKEND  ---      ---       LVL=1
      00FF6129H   LINE      CODE     ---       #48
      00FF612BH   LINE      CODE     ---       #49
      00FF612BH   LINE      CODE     ---       #51
      00FF612BH   LINE      CODE     ---       #52
      00FF612FH   LINE      CODE     ---       #54
      00FF6137H   LINE      CODE     ---       #55
      00FF613FH   LINE      CODE     ---       #56
      ---         BLOCKEND  ---      ---       LVL=0

      00FF60ADH   BLOCK     CODE     ---       LVL=0
      DR0         REGSYM    ---      DWORD     us
      00FF60AFH   BLOCK     CODE     NEAR LAB  LVL=1
      WR6         REGSYM    ---      WORD      i
      ---         BLOCKEND  ---      ---       LVL=1
      00FF60ADH   LINE      CODE     ---       #64
      00FF60AFH   LINE      CODE     ---       #65
      00FF60AFH   LINE      CODE     ---       #67
      00FF60AFH   LINE      CODE     ---       #68
      00FF60B3H   LINE      CODE     ---       #70
      00FF60BBH   LINE      CODE     ---       #71
      00FF60C5H   LINE      CODE     ---       #72
      ---         BLOCKEND  ---      ---       LVL=0

      ---         MODULE    ---      ---       zf_eeprom
      00FF6156H   PUBLIC    CODE     ---       eeprom_trig
L251 LINKER/LOCATER V4.66.93.0                                                        05/09/2023  22:12:16  PAGE 29


      000000D0H   SFRSYM    DATA     BYTE      PSW
      0000009DH   SFRSYM    DATA     BYTE      IRCBAND
      000000D0H.5 SFRSYM    DATA     BIT       F0
      00000097H   SFRSYM    DATA     BYTE      AUXR2
      000000C6H   SFRSYM    DATA     BYTE      IAP_TRIG
      000000EFH   SFRSYM    DATA     BYTE      AUXINTIF
      000000FDH   SFRSYM    DATA     BYTE      S4CON
      000000ACH   SFRSYM    DATA     BYTE      S3CON
      0000009AH   SFRSYM    DATA     BYTE      S2CON
      000000B7H   SFRSYM    DATA     BYTE      IPH
      000000CDH   SFRSYM    DATA     BYTE      SPSTAT
      000000DDH   SFRSYM    DATA     BYTE      T4T3M
      000000C1H   SFRSYM    DATA     BYTE      WDT_CONTR
      000000C2H   SFRSYM    DATA     BYTE      IAP_DATA
      000000DFH   SFRSYM    DATA     BYTE      IP3
      000000F4H   SFRSYM    DATA     BYTE      USBCON
      000000B5H   SFRSYM    DATA     BYTE      IP2
      000000FFH   SFRSYM    DATA     BYTE      RSTCFG
      000000C7H   SFRSYM    DATA     BYTE      IAP_CONTR
      000000F9H   SFRSYM    DATA     BYTE      LINICR
      0000008EH   SFRSYM    DATA     BYTE      AUXR
      000000AFH   SFRSYM    DATA     BYTE      IE2
      00000088H   SFRSYM    DATA     BYTE      TCON
      00000098H   SFRSYM    DATA     BYTE      SCON
      000000F5H   SFRSYM    DATA     BYTE      IAP_TPS
      000000F1H   SFRSYM    DATA     BYTE      CANICR
      00000087H   SFRSYM    DATA     BYTE      PCON
      000000BCH   SFRSYM    DATA     BYTE      ADC_CONTR
      000000E7H   SFRSYM    DATA     BYTE      CMPCR2
      000000E6H   SFRSYM    DATA     BYTE      CMPCR1
      000000C4H   SFRSYM    DATA     BYTE      IAP_ADDRL
      000000C3H   SFRSYM    DATA     BYTE      IAP_ADDRH
      000000F6H   SFRSYM    DATA     BYTE      IAP_ADDRE
      000000B8H   SFRSYM    DATA     BYTE      IP
      0000008FH   SFRSYM    DATA     BYTE      INTCLKO
      000000EEH   SFRSYM    DATA     BYTE      IP3H
      000000B6H   SFRSYM    DATA     BYTE      IP2H
      000000C5H   SFRSYM    DATA     BYTE      IAP_CMD
      000000A8H   SFRSYM    DATA     BYTE      IE
      000000BBH   SFRSYM    DATA     BYTE      P_SW3
      000000BAH   SFRSYM    DATA     BYTE      P_SW2
      000000A2H   SFRSYM    DATA     BYTE      P_SW1
      000000CEH   SFRSYM    DATA     BYTE      SPCTL
      000000F8H   SFRSYM    DATA     BYTE      P7
      000000A8H.7 SFRSYM    DATA     BIT       EA
      000000E8H   SFRSYM    DATA     BYTE      P6
      000000C8H   SFRSYM    DATA     BYTE      P5
      000000C0H   SFRSYM    DATA     BYTE      P4
      000000B0H   SFRSYM    DATA     BYTE      P3
      000000A0H   SFRSYM    DATA     BYTE      P2
      00000090H   SFRSYM    DATA     BYTE      P1
      00000080H   SFRSYM    DATA     BYTE      P0

      00FF6156H   BLOCK     CODE     ---       LVL=0
      00FF6156H   LINE      CODE     ---       #30
      00FF6156H   LINE      CODE     ---       #32
      00FF615AH   LINE      CODE     ---       #33
      00FF615CH   LINE      CODE     ---       #34
      00FF615FH   LINE      CODE     ---       #35
      00FF6162H   LINE      CODE     ---       #38
      00FF6163H   LINE      CODE     ---       #39
      00FF6164H   LINE      CODE     ---       #40
      00FF6165H   LINE      CODE     ---       #41
      00FF6166H   LINE      CODE     ---       #42
      00FF616AH   LINE      CODE     ---       #43
L251 LINKER/LOCATER V4.66.93.0                                                        05/09/2023  22:12:16  PAGE 30


      ---         BLOCKEND  ---      ---       LVL=0
      R11         REGSYM    ---      BYTE      write_time
      REG=3       REGSYM    ---      ---       buf
      REG=3       REGSYM    ---      ---       buf
      WR6         REGSYM    ---      WORD      addr
      REG=3       REGSYM    ---      ---       buf
      WR6         REGSYM    ---      WORD      i

      ---         MODULE    ---      ---       zf_exti
      000000D0H   SFRSYM    DATA     BYTE      PSW
      0000009DH   SFRSYM    DATA     BYTE      IRCBAND
      00000097H   SFRSYM    DATA     BYTE      AUXR2
      000000EFH   SFRSYM    DATA     BYTE      AUXINTIF
      000000FDH   SFRSYM    DATA     BYTE      S4CON
      000000ACH   SFRSYM    DATA     BYTE      S3CON
      0000009AH   SFRSYM    DATA     BYTE      S2CON
      000000B7H   SFRSYM    DATA     BYTE      IPH
      000000CDH   SFRSYM    DATA     BYTE      SPSTAT
      000000DDH   SFRSYM    DATA     BYTE      T4T3M
      000000C1H   SFRSYM    DATA     BYTE      WDT_CONTR
      00000088H.2 SFRSYM    DATA     BIT       IT1
      000000A8H.2 SFRSYM    DATA     BIT       EX1
      00000088H.0 SFRSYM    DATA     BIT       IT0
      000000A8H.0 SFRSYM    DATA     BIT       EX0
      000000DFH   SFRSYM    DATA     BYTE      IP3
      000000F4H   SFRSYM    DATA     BYTE      USBCON
      000000B5H   SFRSYM    DATA     BYTE      IP2
      000000FFH   SFRSYM    DATA     BYTE      RSTCFG
      000000F9H   SFRSYM    DATA     BYTE      LINICR
      0000008EH   SFRSYM    DATA     BYTE      AUXR
      000000AFH   SFRSYM    DATA     BYTE      IE2
      00000088H   SFRSYM    DATA     BYTE      TCON
      00000098H   SFRSYM    DATA     BYTE      SCON
      000000F1H   SFRSYM    DATA     BYTE      CANICR
      00000087H   SFRSYM    DATA     BYTE      PCON
      000000BCH   SFRSYM    DATA     BYTE      ADC_CONTR
      000000E7H   SFRSYM    DATA     BYTE      CMPCR2
      000000E6H   SFRSYM    DATA     BYTE      CMPCR1
      000000B8H   SFRSYM    DATA     BYTE      IP
      0000008FH   SFRSYM    DATA     BYTE      INTCLKO
      000000EEH   SFRSYM    DATA     BYTE      IP3H
      000000B6H   SFRSYM    DATA     BYTE      IP2H
      000000A8H   SFRSYM    DATA     BYTE      IE
      000000BBH   SFRSYM    DATA     BYTE      P_SW3
      000000BAH   SFRSYM    DATA     BYTE      P_SW2
      000000A2H   SFRSYM    DATA     BYTE      P_SW1
      000000CEH   SFRSYM    DATA     BYTE      SPCTL
      000000F8H   SFRSYM    DATA     BYTE      P7
      000000E8H   SFRSYM    DATA     BYTE      P6
      000000C8H   SFRSYM    DATA     BYTE      P5
      000000C0H   SFRSYM    DATA     BYTE      P4
      000000B0H   SFRSYM    DATA     BYTE      P3
      000000A0H   SFRSYM    DATA     BYTE      P2
      00000090H   SFRSYM    DATA     BYTE      P1
      00000080H   SFRSYM    DATA     BYTE      P0
      WR4         REGSYM    ---      INT       int_n
      WR2         REGSYM    ---      INT       mode

      ---         MODULE    ---      ---       zf_gpio
      00FF3A5BH   PUBLIC    CODE     ---       gpio_mode
      00000094H   SFRSYM    DATA     BYTE      P0M0
      000000D0H   SFRSYM    DATA     BYTE      PSW
      0000009DH   SFRSYM    DATA     BYTE      IRCBAND
      00000097H   SFRSYM    DATA     BYTE      AUXR2
      000000EFH   SFRSYM    DATA     BYTE      AUXINTIF
L251 LINKER/LOCATER V4.66.93.0                                                        05/09/2023  22:12:16  PAGE 31


      000000FDH   SFRSYM    DATA     BYTE      S4CON
      000000ACH   SFRSYM    DATA     BYTE      S3CON
      0000009AH   SFRSYM    DATA     BYTE      S2CON
      000000B7H   SFRSYM    DATA     BYTE      IPH
      000000CDH   SFRSYM    DATA     BYTE      SPSTAT
      000000DDH   SFRSYM    DATA     BYTE      T4T3M
      000000C1H   SFRSYM    DATA     BYTE      WDT_CONTR
      000000DFH   SFRSYM    DATA     BYTE      IP3
      000000F4H   SFRSYM    DATA     BYTE      USBCON
      000000B5H   SFRSYM    DATA     BYTE      IP2
      000000FFH   SFRSYM    DATA     BYTE      RSTCFG
      000000F9H   SFRSYM    DATA     BYTE      LINICR
      0000008EH   SFRSYM    DATA     BYTE      AUXR
      000000AFH   SFRSYM    DATA     BYTE      IE2
      00000088H   SFRSYM    DATA     BYTE      TCON
      00000098H   SFRSYM    DATA     BYTE      SCON
      000000F1H   SFRSYM    DATA     BYTE      CANICR
      00000087H   SFRSYM    DATA     BYTE      PCON
      000000BCH   SFRSYM    DATA     BYTE      ADC_CONTR
      000000E7H   SFRSYM    DATA     BYTE      CMPCR2
      000000E6H   SFRSYM    DATA     BYTE      CMPCR1
      000000B8H   SFRSYM    DATA     BYTE      IP
      0000008FH   SFRSYM    DATA     BYTE      INTCLKO
      000000EEH   SFRSYM    DATA     BYTE      IP3H
      000000B6H   SFRSYM    DATA     BYTE      IP2H
      000000A8H   SFRSYM    DATA     BYTE      IE
      000000BBH   SFRSYM    DATA     BYTE      P_SW3
      000000BAH   SFRSYM    DATA     BYTE      P_SW2
      000000A2H   SFRSYM    DATA     BYTE      P_SW1
      000000CEH   SFRSYM    DATA     BYTE      SPCTL
      000000F8H   SFRSYM    DATA     BYTE      P7
      000000E1H   SFRSYM    DATA     BYTE      P7M1
      000000E8H   SFRSYM    DATA     BYTE      P6
      000000C8H   SFRSYM    DATA     BYTE      P5
      000000CBH   SFRSYM    DATA     BYTE      P6M1
      000000E2H   SFRSYM    DATA     BYTE      P7M0
      000000C0H   SFRSYM    DATA     BYTE      P4
      000000C9H   SFRSYM    DATA     BYTE      P5M1
      000000CCH   SFRSYM    DATA     BYTE      P6M0
      000000B0H   SFRSYM    DATA     BYTE      P3
      000000B3H   SFRSYM    DATA     BYTE      P4M1
      000000CAH   SFRSYM    DATA     BYTE      P5M0
      000000A0H   SFRSYM    DATA     BYTE      P2
      000000B1H   SFRSYM    DATA     BYTE      P3M1
      000000B4H   SFRSYM    DATA     BYTE      P4M0
      00000090H   SFRSYM    DATA     BYTE      P1
      00000095H   SFRSYM    DATA     BYTE      P2M1
      000000B2H   SFRSYM    DATA     BYTE      P3M0
      00000080H   SFRSYM    DATA     BYTE      P0
      00000091H   SFRSYM    DATA     BYTE      P1M1
      00000096H   SFRSYM    DATA     BYTE      P2M0
      00000092H   SFRSYM    DATA     BYTE      P1M0
      00000093H   SFRSYM    DATA     BYTE      P0M1
      WR4         REGSYM    ---      INT       pin
      WR2         REGSYM    ---      INT       pull

      00FF3A5BH   BLOCK     CODE     ---       LVL=0
      WR4         REGSYM    ---      INT       pin
      WR2         REGSYM    ---      INT       mode
      00FF3A5BH   LINE      CODE     ---       #54
      00FF3A5FH   LINE      CODE     ---       #56
      00FF3A66H   LINE      CODE     ---       #58
      00FF3A6EH   LINE      CODE     ---       #60
      00FF3A86H   LINE      CODE     ---       #61
      00FF3A88H   LINE      CODE     ---       #62
L251 LINKER/LOCATER V4.66.93.0                                                        05/09/2023  22:12:16  PAGE 32


      00FF3A88H   LINE      CODE     ---       #63
      00FF3A8EH   LINE      CODE     ---       #65
      00FF3AA6H   LINE      CODE     ---       #66
      00FF3AA8H   LINE      CODE     ---       #67
      00FF3AA8H   LINE      CODE     ---       #68
      00FF3AAEH   LINE      CODE     ---       #70
      00FF3AC6H   LINE      CODE     ---       #71
      00FF3AC8H   LINE      CODE     ---       #72
      00FF3AC8H   LINE      CODE     ---       #74
      00FF3ACEH   LINE      CODE     ---       #76
      00FF3AE6H   LINE      CODE     ---       #77
      00FF3AE8H   LINE      CODE     ---       #78
      00FF3AE8H   LINE      CODE     ---       #79
      00FF3AEEH   LINE      CODE     ---       #81
      00FF3B06H   LINE      CODE     ---       #82
      00FF3B08H   LINE      CODE     ---       #83
      00FF3B08H   LINE      CODE     ---       #84
      00FF3B0EH   LINE      CODE     ---       #86
      00FF3B26H   LINE      CODE     ---       #87
      00FF3B28H   LINE      CODE     ---       #88
      00FF3B28H   LINE      CODE     ---       #89
      00FF3B2EH   LINE      CODE     ---       #91
      00FF3B46H   LINE      CODE     ---       #92
      00FF3B48H   LINE      CODE     ---       #93
      00FF3B48H   LINE      CODE     ---       #94
      00FF3B51H   LINE      CODE     ---       #96
      00FF3B69H   LINE      CODE     ---       #97
      00FF3B6BH   LINE      CODE     ---       #98
      00FF3B6CH   LINE      CODE     ---       #100
      00FF3B75H   LINE      CODE     ---       #102
      00FF3B7DH   LINE      CODE     ---       #104
      00FF3B92H   LINE      CODE     ---       #105
      00FF3B96H   LINE      CODE     ---       #106
      00FF3B96H   LINE      CODE     ---       #107
      00FF3B9CH   LINE      CODE     ---       #109
      00FF3BB1H   LINE      CODE     ---       #110
      00FF3BB5H   LINE      CODE     ---       #111
      00FF3BB5H   LINE      CODE     ---       #112
      00FF3BBBH   LINE      CODE     ---       #114
      00FF3BD0H   LINE      CODE     ---       #115
      00FF3BD4H   LINE      CODE     ---       #116
      00FF3BD4H   LINE      CODE     ---       #118
      00FF3BDAH   LINE      CODE     ---       #120
      00FF3BEFH   LINE      CODE     ---       #121
      00FF3BF3H   LINE      CODE     ---       #122
      00FF3BF3H   LINE      CODE     ---       #123
      00FF3BF9H   LINE      CODE     ---       #125
      00FF3C0EH   LINE      CODE     ---       #126
      00FF3C12H   LINE      CODE     ---       #127
      00FF3C12H   LINE      CODE     ---       #128
      00FF3C18H   LINE      CODE     ---       #130
      00FF3C2DH   LINE      CODE     ---       #131
      00FF3C31H   LINE      CODE     ---       #132
      00FF3C31H   LINE      CODE     ---       #133
      00FF3C37H   LINE      CODE     ---       #135
      00FF3C4CH   LINE      CODE     ---       #136
      00FF3C50H   LINE      CODE     ---       #137
      00FF3C50H   LINE      CODE     ---       #138
      00FF3C59H   LINE      CODE     ---       #140
      00FF3C70H   LINE      CODE     ---       #141
      00FF3C70H   LINE      CODE     ---       #142
      00FF3C73H   LINE      CODE     ---       #145
      00FF3C7CH   LINE      CODE     ---       #147
      00FF3C84H   LINE      CODE     ---       #149
      00FF3C97H   LINE      CODE     ---       #150
L251 LINKER/LOCATER V4.66.93.0                                                        05/09/2023  22:12:16  PAGE 33


      00FF3C9BH   LINE      CODE     ---       #151
      00FF3C9BH   LINE      CODE     ---       #152
      00FF3CA1H   LINE      CODE     ---       #154
      00FF3CB4H   LINE      CODE     ---       #155
      00FF3CB8H   LINE      CODE     ---       #156
      00FF3CB8H   LINE      CODE     ---       #157
      00FF3CBEH   LINE      CODE     ---       #159
      00FF3CD1H   LINE      CODE     ---       #160
      00FF3CD5H   LINE      CODE     ---       #161
      00FF3CD5H   LINE      CODE     ---       #163
      00FF3CDBH   LINE      CODE     ---       #165
      00FF3CEEH   LINE      CODE     ---       #166
      00FF3CF2H   LINE      CODE     ---       #167
      00FF3CF2H   LINE      CODE     ---       #168
      00FF3CF8H   LINE      CODE     ---       #170
      00FF3D0BH   LINE      CODE     ---       #171
      00FF3D0FH   LINE      CODE     ---       #172
      00FF3D0FH   LINE      CODE     ---       #173
      00FF3D15H   LINE      CODE     ---       #175
      00FF3D28H   LINE      CODE     ---       #176
      00FF3D2CH   LINE      CODE     ---       #177
      00FF3D2CH   LINE      CODE     ---       #178
      00FF3D32H   LINE      CODE     ---       #180
      00FF3D45H   LINE      CODE     ---       #181
      00FF3D49H   LINE      CODE     ---       #182
      00FF3D49H   LINE      CODE     ---       #183
      00FF3D52H   LINE      CODE     ---       #185
      00FF3D65H   LINE      CODE     ---       #186
      00FF3D69H   LINE      CODE     ---       #187
      00FF3D6AH   LINE      CODE     ---       #189
      00FF3D73H   LINE      CODE     ---       #191
      00FF3D7BH   LINE      CODE     ---       #193
      00FF3D8EH   LINE      CODE     ---       #194
      00FF3D90H   LINE      CODE     ---       #195
      00FF3D90H   LINE      CODE     ---       #196
      00FF3D96H   LINE      CODE     ---       #198
      00FF3DA9H   LINE      CODE     ---       #199
      00FF3DABH   LINE      CODE     ---       #200
      00FF3DABH   LINE      CODE     ---       #201
      00FF3DB1H   LINE      CODE     ---       #203
      00FF3DC4H   LINE      CODE     ---       #204
      00FF3DC6H   LINE      CODE     ---       #205
      00FF3DC6H   LINE      CODE     ---       #207
      00FF3DCCH   LINE      CODE     ---       #209
      00FF3DDFH   LINE      CODE     ---       #210
      00FF3DE1H   LINE      CODE     ---       #211
      00FF3DE1H   LINE      CODE     ---       #212
      00FF3DE7H   LINE      CODE     ---       #214
      00FF3DFAH   LINE      CODE     ---       #215
      00FF3DFCH   LINE      CODE     ---       #216
      00FF3DFCH   LINE      CODE     ---       #217
      00FF3E02H   LINE      CODE     ---       #219
      00FF3E15H   LINE      CODE     ---       #220
      00FF3E17H   LINE      CODE     ---       #221
      00FF3E17H   LINE      CODE     ---       #222
      00FF3E1DH   LINE      CODE     ---       #224
      00FF3E30H   LINE      CODE     ---       #225
      00FF3E32H   LINE      CODE     ---       #226
      00FF3E32H   LINE      CODE     ---       #227
      00FF3E38H   LINE      CODE     ---       #229
      00FF3E4DH   LINE      CODE     ---       #230
      00FF3E51H   LINE      CODE     ---       #231
      00FF3E51H   LINE      CODE     ---       #233
      ---         BLOCKEND  ---      ---       LVL=0

L251 LINKER/LOCATER V4.66.93.0                                                        05/09/2023  22:12:16  PAGE 34


      ---         MODULE    ---      ---       zf_iic
      00FF5A8AH   PUBLIC    CODE     ---       wait
      00FF616BH   PUBLIC    CODE     ---       iic_delay_us
      000000D0H   SFRSYM    DATA     BYTE      PSW
      0000009DH   SFRSYM    DATA     BYTE      IRCBAND
      00000097H   SFRSYM    DATA     BYTE      AUXR2
      000000EFH   SFRSYM    DATA     BYTE      AUXINTIF
      000000FDH   SFRSYM    DATA     BYTE      S4CON
      000000ACH   SFRSYM    DATA     BYTE      S3CON
      0000009AH   SFRSYM    DATA     BYTE      S2CON
      000000B7H   SFRSYM    DATA     BYTE      IPH
      000000CDH   SFRSYM    DATA     BYTE      SPSTAT
      000000DDH   SFRSYM    DATA     BYTE      T4T3M
      000000C1H   SFRSYM    DATA     BYTE      WDT_CONTR
      000000DFH   SFRSYM    DATA     BYTE      IP3
      000000F4H   SFRSYM    DATA     BYTE      USBCON
      000000B5H   SFRSYM    DATA     BYTE      IP2
      000000FFH   SFRSYM    DATA     BYTE      RSTCFG
      000000F9H   SFRSYM    DATA     BYTE      LINICR
      0000008EH   SFRSYM    DATA     BYTE      AUXR
      000000AFH   SFRSYM    DATA     BYTE      IE2
      00000088H   SFRSYM    DATA     BYTE      TCON
      00000098H   SFRSYM    DATA     BYTE      SCON
      000000F1H   SFRSYM    DATA     BYTE      CANICR
      00000087H   SFRSYM    DATA     BYTE      PCON
      000000BCH   SFRSYM    DATA     BYTE      ADC_CONTR
      000000E7H   SFRSYM    DATA     BYTE      CMPCR2
      000000E6H   SFRSYM    DATA     BYTE      CMPCR1
      000000B8H   SFRSYM    DATA     BYTE      IP
      0000008FH   SFRSYM    DATA     BYTE      INTCLKO
      000000EEH   SFRSYM    DATA     BYTE      IP3H
      000000B6H   SFRSYM    DATA     BYTE      IP2H
      000000A8H   SFRSYM    DATA     BYTE      IE
      000000BBH   SFRSYM    DATA     BYTE      P_SW3
      000000BAH   SFRSYM    DATA     BYTE      P_SW2
      000000A2H   SFRSYM    DATA     BYTE      P_SW1
      000000CEH   SFRSYM    DATA     BYTE      SPCTL
      000000F8H   SFRSYM    DATA     BYTE      P7
      000000E8H   SFRSYM    DATA     BYTE      P6
      000000C8H   SFRSYM    DATA     BYTE      P5
      000000C0H   SFRSYM    DATA     BYTE      P4
      000000B0H   SFRSYM    DATA     BYTE      P3
      000000A0H   SFRSYM    DATA     BYTE      P2
      00000090H   SFRSYM    DATA     BYTE      P1
      00000080H   SFRSYM    DATA     BYTE      P0

      00FF616BH   BLOCK     CODE     ---       LVL=0
      WR6         REGSYM    ---      WORD      x
      R10         REGSYM    ---      BYTE      i
      00FF616BH   LINE      CODE     ---       #30
      00FF616BH   LINE      CODE     ---       #31
      00FF616BH   LINE      CODE     ---       #33
      00FF616DH   LINE      CODE     ---       #35
      00FF6170H   LINE      CODE     ---       #36
      00FF6177H   LINE      CODE     ---       #37
      00FF617FH   LINE      CODE     ---       #38
      ---         BLOCKEND  ---      ---       LVL=0

      00FF5A8AH   BLOCK     CODE     ---       LVL=0
      00FF5A8EH   BLOCK     CODE     NEAR LAB  LVL=1
      WR12        REGSYM    ---      WORD      count
      R15         REGSYM    ---      BYTE      ret
      ---         BLOCKEND  ---      ---       LVL=1
      00FF5A8AH   LINE      CODE     ---       #47
      00FF5A8EH   LINE      CODE     ---       #48
L251 LINKER/LOCATER V4.66.93.0                                                        05/09/2023  22:12:16  PAGE 35


      00FF5A8EH   LINE      CODE     ---       #49
      00FF5A90H   LINE      CODE     ---       #50
      00FF5A92H   LINE      CODE     ---       #51
      00FF5A94H   LINE      CODE     ---       #53
      00FF5A9BH   LINE      CODE     ---       #54
      00FF5AA5H   LINE      CODE     ---       #56
      00FF5AA8H   LINE      CODE     ---       #57
      00FF5AAAH   LINE      CODE     ---       #58
      00FF5AB8H   LINE      CODE     ---       #60
      00FF5AC8H   LINE      CODE     ---       #61
      00FF5ACAH   LINE      CODE     ---       #62
      ---         BLOCKEND  ---      ---       LVL=0
      R11         REGSYM    ---      BYTE      ret
      R11         REGSYM    ---      CHAR      dat
      R11         REGSYM    ---      BYTE      ret
      R11         REGSYM    ---      BYTE      ret
      R11         REGSYM    ---      BYTE      ret
      R11         REGSYM    ---      BYTE      ret
      WR6         REGSYM    ---      INT       iic_n
      R13         REGSYM    ---      BYTE      dev_add
      R14         REGSYM    ---      BYTE      reg
      R15         REGSYM    ---      BYTE      dat
      R15         REGSYM    ---      BYTE      dev_add
      R14         REGSYM    ---      BYTE      reg
      REG=3       REGSYM    ---      ---       dat
      WR6         REGSYM    ---      INT       iic_n

      ---         MODULE    ---      ---       zf_nvic
      000000D0H   SFRSYM    DATA     BYTE      PSW
      0000009DH   SFRSYM    DATA     BYTE      IRCBAND
      00000097H   SFRSYM    DATA     BYTE      AUXR2
      000000EFH   SFRSYM    DATA     BYTE      AUXINTIF
      000000FDH   SFRSYM    DATA     BYTE      S4CON
      000000ACH   SFRSYM    DATA     BYTE      S3CON
      0000009AH   SFRSYM    DATA     BYTE      S2CON
      000000B7H   SFRSYM    DATA     BYTE      IPH
      000000CDH   SFRSYM    DATA     BYTE      SPSTAT
      000000DDH   SFRSYM    DATA     BYTE      T4T3M
      000000C1H   SFRSYM    DATA     BYTE      WDT_CONTR
      000000DFH   SFRSYM    DATA     BYTE      IP3
      000000F4H   SFRSYM    DATA     BYTE      USBCON
      000000B5H   SFRSYM    DATA     BYTE      IP2
      000000FFH   SFRSYM    DATA     BYTE      RSTCFG
      000000F9H   SFRSYM    DATA     BYTE      LINICR
      0000008EH   SFRSYM    DATA     BYTE      AUXR
      000000AFH   SFRSYM    DATA     BYTE      IE2
      00000088H   SFRSYM    DATA     BYTE      TCON
      00000098H   SFRSYM    DATA     BYTE      SCON
      000000F1H   SFRSYM    DATA     BYTE      CANICR
      00000087H   SFRSYM    DATA     BYTE      PCON
      000000BCH   SFRSYM    DATA     BYTE      ADC_CONTR
      000000E7H   SFRSYM    DATA     BYTE      CMPCR2
      000000E6H   SFRSYM    DATA     BYTE      CMPCR1
      000000B8H   SFRSYM    DATA     BYTE      IP
      0000008FH   SFRSYM    DATA     BYTE      INTCLKO
      000000EEH   SFRSYM    DATA     BYTE      IP3H
      000000B6H   SFRSYM    DATA     BYTE      IP2H
      000000A8H   SFRSYM    DATA     BYTE      IE
      000000BBH   SFRSYM    DATA     BYTE      P_SW3
      000000BAH   SFRSYM    DATA     BYTE      P_SW2
      000000A2H   SFRSYM    DATA     BYTE      P_SW1
      000000CEH   SFRSYM    DATA     BYTE      SPCTL
      000000F8H   SFRSYM    DATA     BYTE      P7
      000000E8H   SFRSYM    DATA     BYTE      P6
      000000C8H   SFRSYM    DATA     BYTE      P5
L251 LINKER/LOCATER V4.66.93.0                                                        05/09/2023  22:12:16  PAGE 36


      000000C0H   SFRSYM    DATA     BYTE      P4
      000000B0H   SFRSYM    DATA     BYTE      P3
      000000A0H   SFRSYM    DATA     BYTE      P2
      00000090H   SFRSYM    DATA     BYTE      P1
      00000080H   SFRSYM    DATA     BYTE      P0
      WR4         REGSYM    ---      INT       irqn
      R3          REGSYM    ---      BYTE      priority

      ---         MODULE    ---      ---       zf_pwm
      00FF4E9FH   PUBLIC    CODE     ---       pwm_duty
      00FF414EH   PUBLIC    CODE     ---       pwm_set_gpio
      00FF3E52H   PUBLIC    CODE     ---       pwm_init
      00FF70F9H   PUBLIC    HCONST   ---       PWM_CCR_ADDR
      00FF7119H   PUBLIC    HCONST   ---       PWM_ARR_ADDR
      00FF7121H   PUBLIC    HCONST   ---       PWM_CCER_ADDR
      00FF7131H   PUBLIC    HCONST   ---       PWM_CCMR_ADDR
      000007E8H   PUBLIC    EDATA    BYTE      ?pwm_init?BYTE
      000000D0H   SFRSYM    DATA     BYTE      PSW
      0000009DH   SFRSYM    DATA     BYTE      IRCBAND
      00000097H   SFRSYM    DATA     BYTE      AUXR2
      000000EFH   SFRSYM    DATA     BYTE      AUXINTIF
      000000FDH   SFRSYM    DATA     BYTE      S4CON
      000000ACH   SFRSYM    DATA     BYTE      S3CON
      0000009AH   SFRSYM    DATA     BYTE      S2CON
      000000B7H   SFRSYM    DATA     BYTE      IPH
      000000CDH   SFRSYM    DATA     BYTE      SPSTAT
      000000DDH   SFRSYM    DATA     BYTE      T4T3M
      000000C1H   SFRSYM    DATA     BYTE      WDT_CONTR
      000000DFH   SFRSYM    DATA     BYTE      IP3
      000000F4H   SFRSYM    DATA     BYTE      USBCON
      000000B5H   SFRSYM    DATA     BYTE      IP2
      000000FFH   SFRSYM    DATA     BYTE      RSTCFG
      000000F9H   SFRSYM    DATA     BYTE      LINICR
      0000008EH   SFRSYM    DATA     BYTE      AUXR
      000000AFH   SFRSYM    DATA     BYTE      IE2
      00000088H   SFRSYM    DATA     BYTE      TCON
      00000098H   SFRSYM    DATA     BYTE      SCON
      000000F1H   SFRSYM    DATA     BYTE      CANICR
      00000087H   SFRSYM    DATA     BYTE      PCON
      000000BCH   SFRSYM    DATA     BYTE      ADC_CONTR
      000000E7H   SFRSYM    DATA     BYTE      CMPCR2
      000000E6H   SFRSYM    DATA     BYTE      CMPCR1
      000000B8H   SFRSYM    DATA     BYTE      IP
      0000008FH   SFRSYM    DATA     BYTE      INTCLKO
      000000EEH   SFRSYM    DATA     BYTE      IP3H
      000000B6H   SFRSYM    DATA     BYTE      IP2H
      000000A8H   SFRSYM    DATA     BYTE      IE
      000000BBH   SFRSYM    DATA     BYTE      P_SW3
      000000BAH   SFRSYM    DATA     BYTE      P_SW2
      000000A2H   SFRSYM    DATA     BYTE      P_SW1
      000000CEH   SFRSYM    DATA     BYTE      SPCTL
      000000F8H   SFRSYM    DATA     BYTE      P7
      000000E8H   SFRSYM    DATA     BYTE      P6
      000000C8H   SFRSYM    DATA     BYTE      P5
      000000C0H   SFRSYM    DATA     BYTE      P4
      000000B0H   SFRSYM    DATA     BYTE      P3
      000000A0H   SFRSYM    DATA     BYTE      P2
      00000090H   SFRSYM    DATA     BYTE      P1
      00000080H   SFRSYM    DATA     BYTE      P0

      00FF414EH   BLOCK     CODE     ---       LVL=0
      WR6         REGSYM    ---      INT       pwmch
      00FF414EH   LINE      CODE     ---       #49
      00FF414EH   LINE      CODE     ---       #51
      00FF42C1H   LINE      CODE     ---       #53
L251 LINKER/LOCATER V4.66.93.0                                                        05/09/2023  22:12:16  PAGE 37


      00FF42C1H   LINE      CODE     ---       #55
      00FF42C5H   LINE      CODE     ---       #56
      00FF42C8H   LINE      CODE     ---       #58
      00FF42C8H   LINE      CODE     ---       #60
      00FF42CCH   LINE      CODE     ---       #61
      00FF42CFH   LINE      CODE     ---       #63
      00FF42CFH   LINE      CODE     ---       #65
      00FF42D3H   LINE      CODE     ---       #66
      00FF42D6H   LINE      CODE     ---       #68
      00FF42D6H   LINE      CODE     ---       #70
      00FF42DAH   LINE      CODE     ---       #71
      00FF42DDH   LINE      CODE     ---       #73
      00FF42DDH   LINE      CODE     ---       #75
      00FF42E1H   LINE      CODE     ---       #76
      00FF42E4H   LINE      CODE     ---       #78
      00FF42E4H   LINE      CODE     ---       #80
      00FF42E8H   LINE      CODE     ---       #81
      00FF42EBH   LINE      CODE     ---       #84
      00FF42EBH   LINE      CODE     ---       #86
      00FF42EFH   LINE      CODE     ---       #87
      00FF42F2H   LINE      CODE     ---       #89
      00FF42F2H   LINE      CODE     ---       #91
      00FF42F6H   LINE      CODE     ---       #92
      00FF42F9H   LINE      CODE     ---       #94
      00FF42F9H   LINE      CODE     ---       #96
      00FF42FDH   LINE      CODE     ---       #97
      00FF4300H   LINE      CODE     ---       #99
      00FF4300H   LINE      CODE     ---       #101
      00FF4304H   LINE      CODE     ---       #102
      00FF4307H   LINE      CODE     ---       #104
      00FF4307H   LINE      CODE     ---       #106
      00FF430BH   LINE      CODE     ---       #107
      00FF430EH   LINE      CODE     ---       #109
      00FF430EH   LINE      CODE     ---       #111
      00FF4312H   LINE      CODE     ---       #112
      00FF4315H   LINE      CODE     ---       #115
      00FF4315H   LINE      CODE     ---       #117
      00FF4319H   LINE      CODE     ---       #118
      00FF431BH   LINE      CODE     ---       #120
      00FF431BH   LINE      CODE     ---       #122
      00FF431FH   LINE      CODE     ---       #123
      00FF4321H   LINE      CODE     ---       #125
      00FF4321H   LINE      CODE     ---       #127
      00FF4325H   LINE      CODE     ---       #128
      00FF4327H   LINE      CODE     ---       #130
      00FF4327H   LINE      CODE     ---       #132
      00FF432BH   LINE      CODE     ---       #133
      00FF432DH   LINE      CODE     ---       #135
      00FF432DH   LINE      CODE     ---       #137
      00FF4331H   LINE      CODE     ---       #138
      00FF4333H   LINE      CODE     ---       #140
      00FF4333H   LINE      CODE     ---       #142
      00FF4337H   LINE      CODE     ---       #143
      00FF4339H   LINE      CODE     ---       #147
      00FF4339H   LINE      CODE     ---       #149
      00FF433DH   LINE      CODE     ---       #150
      00FF433FH   LINE      CODE     ---       #152
      00FF433FH   LINE      CODE     ---       #154
      00FF4343H   LINE      CODE     ---       #155
      00FF4345H   LINE      CODE     ---       #157
      00FF4345H   LINE      CODE     ---       #159
      00FF4349H   LINE      CODE     ---       #160
      00FF434BH   LINE      CODE     ---       #162
      00FF434BH   LINE      CODE     ---       #164
      00FF434FH   LINE      CODE     ---       #165
L251 LINKER/LOCATER V4.66.93.0                                                        05/09/2023  22:12:16  PAGE 38


      00FF4351H   LINE      CODE     ---       #167
      00FF4351H   LINE      CODE     ---       #169
      00FF4355H   LINE      CODE     ---       #170
      00FF4357H   LINE      CODE     ---       #172
      00FF4357H   LINE      CODE     ---       #174
      00FF435BH   LINE      CODE     ---       #175
      00FF435DH   LINE      CODE     ---       #177
      00FF435DH   LINE      CODE     ---       #179
      00FF4361H   LINE      CODE     ---       #180
      00FF4363H   LINE      CODE     ---       #182
      00FF4363H   LINE      CODE     ---       #184
      00FF4367H   LINE      CODE     ---       #185
      00FF4369H   LINE      CODE     ---       #189
      00FF4369H   LINE      CODE     ---       #191
      00FF436DH   LINE      CODE     ---       #192
      00FF436FH   LINE      CODE     ---       #194
      00FF436FH   LINE      CODE     ---       #196
      00FF4373H   LINE      CODE     ---       #197
      00FF4375H   LINE      CODE     ---       #199
      00FF4375H   LINE      CODE     ---       #201
      00FF4377H   LINE      CODE     ---       #202
      00FF4379H   LINE      CODE     ---       #204
      00FF4379H   LINE      CODE     ---       #206
      00FF437DH   LINE      CODE     ---       #207
      00FF437FH   LINE      CODE     ---       #210
      00FF437FH   LINE      CODE     ---       #212
      00FF4383H   LINE      CODE     ---       #213
      00FF4385H   LINE      CODE     ---       #215
      00FF4385H   LINE      CODE     ---       #217
      00FF4389H   LINE      CODE     ---       #218
      00FF438BH   LINE      CODE     ---       #220
      00FF438BH   LINE      CODE     ---       #222
      00FF4391H   LINE      CODE     ---       #223
      00FF4393H   LINE      CODE     ---       #225
      00FF4393H   LINE      CODE     ---       #227
      00FF439BH   LINE      CODE     ---       #228
      00FF439DH   LINE      CODE     ---       #232
      00FF439DH   LINE      CODE     ---       #234
      00FF43A5H   LINE      CODE     ---       #235
      00FF43A7H   LINE      CODE     ---       #237
      00FF43A7H   LINE      CODE     ---       #239
      00FF43AFH   LINE      CODE     ---       #240
      00FF43B1H   LINE      CODE     ---       #242
      00FF43B1H   LINE      CODE     ---       #244
      00FF43B9H   LINE      CODE     ---       #245
      00FF43BBH   LINE      CODE     ---       #247
      00FF43BBH   LINE      CODE     ---       #249
      00FF43C3H   LINE      CODE     ---       #250
      00FF43C5H   LINE      CODE     ---       #254
      00FF43C5H   LINE      CODE     ---       #256
      00FF43CDH   LINE      CODE     ---       #257
      00FF43CFH   LINE      CODE     ---       #259
      00FF43CFH   LINE      CODE     ---       #261
      00FF43D7H   LINE      CODE     ---       #262
      00FF43D9H   LINE      CODE     ---       #264
      00FF43D9H   LINE      CODE     ---       #266
      00FF43E1H   LINE      CODE     ---       #267
      00FF43E3H   LINE      CODE     ---       #269
      00FF43E3H   LINE      CODE     ---       #271
      00FF43EEH   LINE      CODE     ---       #272
      00FF43EEH   LINE      CODE     ---       #275
      00FF43EEH   LINE      CODE     ---       #277
      ---         BLOCKEND  ---      ---       LVL=0

      00FF3E52H   BLOCK     CODE     ---       LVL=0
L251 LINKER/LOCATER V4.66.93.0                                                        05/09/2023  22:12:16  PAGE 39


      WR14        REGSYM    ---      INT       pwmch
      000007EAH   SYMBOL    EDATA    DWORD     freq
      000007EEH   SYMBOL    EDATA    DWORD     duty
      00FF3E5AH   BLOCK     CODE     NEAR LAB  LVL=1
      000007F2H   SYMBOL    EDATA    DWORD     match_temp
      DR28        REGSYM    ---      DWORD     period_temp
      WR26        REGSYM    ---      WORD      freq_div
      ---         BLOCKEND  ---      ---       LVL=1
      00FF3E52H   LINE      CODE     ---       #290
      00FF3E5AH   LINE      CODE     ---       #291
      00FF3E5AH   LINE      CODE     ---       #295
      00FF3E5AH   LINE      CODE     ---       #298
      00FF3E5DH   LINE      CODE     ---       #301
      00FF3E60H   LINE      CODE     ---       #305
      00FF3E71H   LINE      CODE     ---       #306
      00FF3E71H   LINE      CODE     ---       #307
      00FF3E7AH   LINE      CODE     ---       #309
      00FF3E84H   LINE      CODE     ---       #311
      00FF3EA1H   LINE      CODE     ---       #312
      00FF3EA3H   LINE      CODE     ---       #315
      00FF3EABH   LINE      CODE     ---       #316
      00FF3EABH   LINE      CODE     ---       #319
      00FF3EB4H   LINE      CODE     ---       #322
      00FF3EDFH   LINE      CODE     ---       #323
      00FF3F00H   LINE      CODE     ---       #326
      00FF3F4CH   LINE      CODE     ---       #329
      00FF3F5BH   LINE      CODE     ---       #330
      00FF3F66H   LINE      CODE     ---       #332
      00FF3F6FH   LINE      CODE     ---       #333
      00FF3F75H   LINE      CODE     ---       #334
      00FF3F78H   LINE      CODE     ---       #337
      00FF3FB0H   LINE      CODE     ---       #338
      00FF3FD3H   LINE      CODE     ---       #341
      00FF4025H   LINE      CODE     ---       #345
      00FF4034H   LINE      CODE     ---       #346
      00FF403FH   LINE      CODE     ---       #348
      00FF4048H   LINE      CODE     ---       #349
      00FF4055H   LINE      CODE     ---       #350
      00FF4055H   LINE      CODE     ---       #353
      00FF4081H   LINE      CODE     ---       #354
      00FF40AFH   LINE      CODE     ---       #357
      00FF40DBH   LINE      CODE     ---       #358
      00FF4109H   LINE      CODE     ---       #361
      00FF4120H   LINE      CODE     ---       #362
      00FF414BH   LINE      CODE     ---       #367
      ---         BLOCKEND  ---      ---       LVL=0

      00FF4E9FH   BLOCK     CODE     ---       LVL=0
      WR30        REGSYM    ---      INT       pwmch
      DR24        REGSYM    ---      DWORD     duty
      00FF4EA3H   BLOCK     CODE     NEAR LAB  LVL=1
      DR20        REGSYM    ---      DWORD     match_temp
      DR16        REGSYM    ---      DWORD     arr
      ---         BLOCKEND  ---      ---       LVL=1
      00FF4E9FH   LINE      CODE     ---       #377
      00FF4EA3H   LINE      CODE     ---       #378
      00FF4EA3H   LINE      CODE     ---       #380
      00FF4EE7H   LINE      CODE     ---       #384
      00FF4EEDH   LINE      CODE     ---       #386
      00FF4F0EH   LINE      CODE     ---       #387
      00FF4F10H   LINE      CODE     ---       #390
      00FF4F14H   LINE      CODE     ---       #391
      00FF4F14H   LINE      CODE     ---       #396
      00FF4F3CH   LINE      CODE     ---       #397
      00FF4F66H   LINE      CODE     ---       #401
L251 LINKER/LOCATER V4.66.93.0                                                        05/09/2023  22:12:16  PAGE 40


      ---         BLOCKEND  ---      ---       LVL=0
      WR30        REGSYM    ---      INT       pwmch
      DR24        REGSYM    ---      DWORD     freq
      DR20        REGSYM    ---      DWORD     match_temp
      DR24        REGSYM    ---      DWORD     period_temp
      WR28        REGSYM    ---      WORD      freq_div

      ---         MODULE    ---      ---       zf_spi
      00FF6227H   PUBLIC    CODE     ---       spi_mosi
      000000CFH   SFRSYM    DATA     BYTE      SPDAT
      000000D0H   SFRSYM    DATA     BYTE      PSW
      0000009DH   SFRSYM    DATA     BYTE      IRCBAND
      00000097H   SFRSYM    DATA     BYTE      AUXR2
      000000EFH   SFRSYM    DATA     BYTE      AUXINTIF
      000000FDH   SFRSYM    DATA     BYTE      S4CON
      000000ACH   SFRSYM    DATA     BYTE      S3CON
      0000009AH   SFRSYM    DATA     BYTE      S2CON
      000000B7H   SFRSYM    DATA     BYTE      IPH
      000000CDH   SFRSYM    DATA     BYTE      SPSTAT
      000000DDH   SFRSYM    DATA     BYTE      T4T3M
      000000C1H   SFRSYM    DATA     BYTE      WDT_CONTR
      000000DFH   SFRSYM    DATA     BYTE      IP3
      000000F4H   SFRSYM    DATA     BYTE      USBCON
      000000B5H   SFRSYM    DATA     BYTE      IP2
      000000FFH   SFRSYM    DATA     BYTE      RSTCFG
      000000F9H   SFRSYM    DATA     BYTE      LINICR
      0000008EH   SFRSYM    DATA     BYTE      AUXR
      000000AFH   SFRSYM    DATA     BYTE      IE2
      00000088H   SFRSYM    DATA     BYTE      TCON
      00000098H   SFRSYM    DATA     BYTE      SCON
      000000F1H   SFRSYM    DATA     BYTE      CANICR
      00000087H   SFRSYM    DATA     BYTE      PCON
      000000BCH   SFRSYM    DATA     BYTE      ADC_CONTR
      000000E7H   SFRSYM    DATA     BYTE      CMPCR2
      000000E6H   SFRSYM    DATA     BYTE      CMPCR1
      000000B8H   SFRSYM    DATA     BYTE      IP
      0000008FH   SFRSYM    DATA     BYTE      INTCLKO
      000000EEH   SFRSYM    DATA     BYTE      IP3H
      000000B6H   SFRSYM    DATA     BYTE      IP2H
      000000A8H   SFRSYM    DATA     BYTE      IE
      000000BBH   SFRSYM    DATA     BYTE      P_SW3
      000000BAH   SFRSYM    DATA     BYTE      P_SW2
      000000A2H   SFRSYM    DATA     BYTE      P_SW1
      000000CEH   SFRSYM    DATA     BYTE      SPCTL
      000000F8H   SFRSYM    DATA     BYTE      P7
      000000E8H   SFRSYM    DATA     BYTE      P6
      000000C8H   SFRSYM    DATA     BYTE      P5
      000000C0H   SFRSYM    DATA     BYTE      P4
      000000B0H   SFRSYM    DATA     BYTE      P3
      000000A0H   SFRSYM    DATA     BYTE      P2
      00000090H   SFRSYM    DATA     BYTE      P1
      00000080H   SFRSYM    DATA     BYTE      P0
      WR14        REGSYM    ---      INT       spi_n
      R13         REGSYM    ---      BYTE      mode

      00FF6227H   BLOCK     CODE     ---       LVL=0
      R11         REGSYM    ---      BYTE      dat
      00FF6227H   LINE      CODE     ---       #129
      00FF6227H   LINE      CODE     ---       #131
      00FF622AH   LINE      CODE     ---       #132
      00FF622FH   LINE      CODE     ---       #133
      00FF6232H   LINE      CODE     ---       #134
      00FF6234H   LINE      CODE     ---       #135
      ---         BLOCKEND  ---      ---       LVL=0
      WR14        REGSYM    ---      INT       spi_n
L251 LINKER/LOCATER V4.66.93.0                                                        05/09/2023  22:12:16  PAGE 41


      R7          REGSYM    ---      BYTE      mode

      ---         MODULE    ---      ---       zf_tim
      00FF5200H   PUBLIC    CODE     ---       pit_timer_ms
      00FF59B0H   PUBLIC    CODE     ---       ctimer_count_init
      000000D0H   SFRSYM    DATA     BYTE      PSW
      0000009DH   SFRSYM    DATA     BYTE      IRCBAND
      00000097H   SFRSYM    DATA     BYTE      AUXR2
      000000EFH   SFRSYM    DATA     BYTE      AUXINTIF
      000000FDH   SFRSYM    DATA     BYTE      S4CON
      000000ACH   SFRSYM    DATA     BYTE      S3CON
      0000009AH   SFRSYM    DATA     BYTE      S2CON
      000000B7H   SFRSYM    DATA     BYTE      IPH
      000000CDH   SFRSYM    DATA     BYTE      SPSTAT
      000000DDH   SFRSYM    DATA     BYTE      T4T3M
      000000C1H   SFRSYM    DATA     BYTE      WDT_CONTR
      00000088H.6 SFRSYM    DATA     BIT       TR1
      00000088H.4 SFRSYM    DATA     BIT       TR0
      000000D3H   SFRSYM    DATA     BYTE      T4L
      000000D5H   SFRSYM    DATA     BYTE      T3L
      000000D7H   SFRSYM    DATA     BYTE      T2L
      0000008BH   SFRSYM    DATA     BYTE      TL1
      0000008AH   SFRSYM    DATA     BYTE      TL0
      000000D2H   SFRSYM    DATA     BYTE      T4H
      000000D4H   SFRSYM    DATA     BYTE      T3H
      000000D6H   SFRSYM    DATA     BYTE      T2H
      0000008DH   SFRSYM    DATA     BYTE      TH1
      0000008CH   SFRSYM    DATA     BYTE      TH0
      000000DFH   SFRSYM    DATA     BYTE      IP3
      000000F4H   SFRSYM    DATA     BYTE      USBCON
      000000B5H   SFRSYM    DATA     BYTE      IP2
      000000FFH   SFRSYM    DATA     BYTE      RSTCFG
      000000A8H.3 SFRSYM    DATA     BIT       ET1
      000000A8H.1 SFRSYM    DATA     BIT       ET0
      000000F9H   SFRSYM    DATA     BYTE      LINICR
      0000008EH   SFRSYM    DATA     BYTE      AUXR
      000000AFH   SFRSYM    DATA     BYTE      IE2
      00000088H   SFRSYM    DATA     BYTE      TCON
      00000089H   SFRSYM    DATA     BYTE      TMOD
      00000098H   SFRSYM    DATA     BYTE      SCON
      000000F1H   SFRSYM    DATA     BYTE      CANICR
      00000087H   SFRSYM    DATA     BYTE      PCON
      000000BCH   SFRSYM    DATA     BYTE      ADC_CONTR
      000000E7H   SFRSYM    DATA     BYTE      CMPCR2
      000000E6H   SFRSYM    DATA     BYTE      CMPCR1
      000000B8H   SFRSYM    DATA     BYTE      IP
      0000008FH   SFRSYM    DATA     BYTE      INTCLKO
      000000EEH   SFRSYM    DATA     BYTE      IP3H
      000000B6H   SFRSYM    DATA     BYTE      IP2H
      000000A8H   SFRSYM    DATA     BYTE      IE
      000000BBH   SFRSYM    DATA     BYTE      P_SW3
      000000BAH   SFRSYM    DATA     BYTE      P_SW2
      000000A2H   SFRSYM    DATA     BYTE      P_SW1
      000000CEH   SFRSYM    DATA     BYTE      SPCTL
      000000F8H   SFRSYM    DATA     BYTE      P7
      000000E8H   SFRSYM    DATA     BYTE      P6
      000000C8H   SFRSYM    DATA     BYTE      P5
      000000C0H   SFRSYM    DATA     BYTE      P4
      000000B0H   SFRSYM    DATA     BYTE      P3
      000000A0H   SFRSYM    DATA     BYTE      P2
      00000090H   SFRSYM    DATA     BYTE      P1
      00000080H   SFRSYM    DATA     BYTE      P0

      00FF59B0H   BLOCK     CODE     ---       LVL=0
      WR6         REGSYM    ---      INT       tim_n
L251 LINKER/LOCATER V4.66.93.0                                                        05/09/2023  22:12:16  PAGE 42


      00FF59B0H   LINE      CODE     ---       #39
      00FF59B0H   LINE      CODE     ---       #42
      00FF59C4H   LINE      CODE     ---       #44
      00FF59C4H   LINE      CODE     ---       #46
      00FF59C7H   LINE      CODE     ---       #47
      00FF59CAH   LINE      CODE     ---       #48
      00FF59CDH   LINE      CODE     ---       #49
      00FF59CFH   LINE      CODE     ---       #50
      00FF59D0H   LINE      CODE     ---       #53
      00FF59D0H   LINE      CODE     ---       #55
      00FF59D3H   LINE      CODE     ---       #56
      00FF59D6H   LINE      CODE     ---       #57
      00FF59D9H   LINE      CODE     ---       #58
      00FF59DBH   LINE      CODE     ---       #59
      00FF59DCH   LINE      CODE     ---       #62
      00FF59DCH   LINE      CODE     ---       #64
      00FF59DFH   LINE      CODE     ---       #65
      00FF59E2H   LINE      CODE     ---       #66
      00FF59E5H   LINE      CODE     ---       #67
      00FF59E6H   LINE      CODE     ---       #70
      00FF59E6H   LINE      CODE     ---       #72
      00FF59E9H   LINE      CODE     ---       #73
      00FF59ECH   LINE      CODE     ---       #74
      00FF59EFH   LINE      CODE     ---       #75
      00FF59F0H   LINE      CODE     ---       #78
      00FF59F0H   LINE      CODE     ---       #80
      00FF59F3H   LINE      CODE     ---       #81
      00FF59F6H   LINE      CODE     ---       #82
      00FF59F9H   LINE      CODE     ---       #83
      00FF59F9H   LINE      CODE     ---       #86
      00FF59F9H   LINE      CODE     ---       #87
      ---         BLOCKEND  ---      ---       LVL=0
      WR4         REGSYM    ---      INT       tim_n
      WR6         REGSYM    ---      WORD      dat
      WR6         REGSYM    ---      INT       tim_n

      00FF5200H   BLOCK     CODE     ---       LVL=0
      WR30        REGSYM    ---      INT       tim_n
      WR28        REGSYM    ---      WORD      time_ms
      00FF5202H   BLOCK     CODE     NEAR LAB  LVL=1
      WR28        REGSYM    ---      WORD      temp
      ---         BLOCKEND  ---      ---       LVL=1
      00FF5200H   LINE      CODE     ---       #198
      00FF5202H   LINE      CODE     ---       #199
      00FF5202H   LINE      CODE     ---       #201
      00FF521FH   LINE      CODE     ---       #203
      00FF5223H   LINE      CODE     ---       #205
      00FF5227H   LINE      CODE     ---       #206
      00FF522DH   LINE      CODE     ---       #207
      00FF5231H   LINE      CODE     ---       #208
      00FF5233H   LINE      CODE     ---       #209
      00FF5235H   LINE      CODE     ---       #210
      00FF5236H   LINE      CODE     ---       #211
      00FF523CH   LINE      CODE     ---       #213
      00FF5240H   LINE      CODE     ---       #214
      00FF5246H   LINE      CODE     ---       #215
      00FF524AH   LINE      CODE     ---       #216
      00FF524CH   LINE      CODE     ---       #217
      00FF524EH   LINE      CODE     ---       #218
      00FF524FH   LINE      CODE     ---       #219
      00FF5255H   LINE      CODE     ---       #221
      00FF525BH   LINE      CODE     ---       #222
      00FF525FH   LINE      CODE     ---       #223
      00FF5262H   LINE      CODE     ---       #224
      00FF5265H   LINE      CODE     ---       #225
L251 LINKER/LOCATER V4.66.93.0                                                        05/09/2023  22:12:16  PAGE 43


      00FF5266H   LINE      CODE     ---       #226
      00FF526CH   LINE      CODE     ---       #228
      00FF5272H   LINE      CODE     ---       #229
      00FF5276H   LINE      CODE     ---       #230
      00FF5279H   LINE      CODE     ---       #231
      00FF527CH   LINE      CODE     ---       #232
      00FF527DH   LINE      CODE     ---       #233
      00FF5283H   LINE      CODE     ---       #235
      00FF5289H   LINE      CODE     ---       #236
      00FF528DH   LINE      CODE     ---       #237
      00FF5290H   LINE      CODE     ---       #238
      00FF5293H   LINE      CODE     ---       #239
      ---         BLOCKEND  ---      ---       LVL=0

      ---         MODULE    ---      ---       zf_uart
      00FF57CCH   PUBLIC    CODE     ---       uart_putchar
      00FF460CH   PUBLIC    CODE     ---       uart_init
      000004CAH   PUBLIC    EDATA    ---       uart1_rx_buff
      0000052EH   PUBLIC    EDATA    ---       uart1_tx_buff
      00000592H   PUBLIC    EDATA    ---       busy
      000007E4H   PUBLIC    EDATA    BYTE      ?uart_init?BYTE
      000000D0H   SFRSYM    DATA     BYTE      PSW
      0000009DH   SFRSYM    DATA     BYTE      IRCBAND
      00000097H   SFRSYM    DATA     BYTE      AUXR2
      000000EFH   SFRSYM    DATA     BYTE      AUXINTIF
      000000FDH   SFRSYM    DATA     BYTE      S4CON
      000000ACH   SFRSYM    DATA     BYTE      S3CON
      0000009AH   SFRSYM    DATA     BYTE      S2CON
      000000FEH   SFRSYM    DATA     BYTE      S4BUF
      000000ADH   SFRSYM    DATA     BYTE      S3BUF
      0000009BH   SFRSYM    DATA     BYTE      S2BUF
      000000B7H   SFRSYM    DATA     BYTE      IPH
      000000CDH   SFRSYM    DATA     BYTE      SPSTAT
      000000DDH   SFRSYM    DATA     BYTE      T4T3M
      000000C1H   SFRSYM    DATA     BYTE      WDT_CONTR
      00000088H.6 SFRSYM    DATA     BIT       TR1
      000000D3H   SFRSYM    DATA     BYTE      T4L
      000000D5H   SFRSYM    DATA     BYTE      T3L
      000000D7H   SFRSYM    DATA     BYTE      T2L
      0000008BH   SFRSYM    DATA     BYTE      TL1
      000000D2H   SFRSYM    DATA     BYTE      T4H
      000000D4H   SFRSYM    DATA     BYTE      T3H
      000000D6H   SFRSYM    DATA     BYTE      T2H
      0000008DH   SFRSYM    DATA     BYTE      TH1
      000000DFH   SFRSYM    DATA     BYTE      IP3
      000000F4H   SFRSYM    DATA     BYTE      USBCON
      000000B5H   SFRSYM    DATA     BYTE      IP2
      000000FFH   SFRSYM    DATA     BYTE      RSTCFG
      000000F9H   SFRSYM    DATA     BYTE      LINICR
      0000008EH   SFRSYM    DATA     BYTE      AUXR
      000000AFH   SFRSYM    DATA     BYTE      IE2
      00000088H   SFRSYM    DATA     BYTE      TCON
      00000089H   SFRSYM    DATA     BYTE      TMOD
      00000098H   SFRSYM    DATA     BYTE      SCON
      000000F1H   SFRSYM    DATA     BYTE      CANICR
      00000087H   SFRSYM    DATA     BYTE      PCON
      00000099H   SFRSYM    DATA     BYTE      SBUF
      000000BCH   SFRSYM    DATA     BYTE      ADC_CONTR
      000000E7H   SFRSYM    DATA     BYTE      CMPCR2
      000000E6H   SFRSYM    DATA     BYTE      CMPCR1
      000000B8H   SFRSYM    DATA     BYTE      IP
      000000A8H.4 SFRSYM    DATA     BIT       ES
      0000008FH   SFRSYM    DATA     BYTE      INTCLKO
      000000EEH   SFRSYM    DATA     BYTE      IP3H
      000000B6H   SFRSYM    DATA     BYTE      IP2H
L251 LINKER/LOCATER V4.66.93.0                                                        05/09/2023  22:12:16  PAGE 44


      000000A8H   SFRSYM    DATA     BYTE      IE
      000000BBH   SFRSYM    DATA     BYTE      P_SW3
      000000BAH   SFRSYM    DATA     BYTE      P_SW2
      000000A2H   SFRSYM    DATA     BYTE      P_SW1
      000000CEH   SFRSYM    DATA     BYTE      SPCTL
      000000F8H   SFRSYM    DATA     BYTE      P7
      000000E8H   SFRSYM    DATA     BYTE      P6
      000000C8H   SFRSYM    DATA     BYTE      P5
      000000C0H   SFRSYM    DATA     BYTE      P4
      000000C9H   SFRSYM    DATA     BYTE      P5M1
      000000B0H   SFRSYM    DATA     BYTE      P3
      000000CAH   SFRSYM    DATA     BYTE      P5M0
      000000A0H   SFRSYM    DATA     BYTE      P2
      00000090H   SFRSYM    DATA     BYTE      P1
      00000080H   SFRSYM    DATA     BYTE      P0

      00FF460CH   BLOCK     CODE     ---       LVL=0
      WR24        REGSYM    ---      INT       uart_n
      WR28        REGSYM    ---      INT       uart_rx_pin
      WR30        REGSYM    ---      INT       uart_tx_pin
      000007EAH   SYMBOL    EDATA    DWORD     baud
      WR26        REGSYM    ---      INT       tim_n
      00FF4614H   BLOCK     CODE     NEAR LAB  LVL=1
      WR6         REGSYM    ---      WORD      brt
      ---         BLOCKEND  ---      ---       LVL=1
      00FF460CH   LINE      CODE     ---       #48
      00FF4614H   LINE      CODE     ---       #49
      00FF4614H   LINE      CODE     ---       #52
      00FF4637H   LINE      CODE     ---       #55
      00FF4655H   LINE      CODE     ---       #57
      00FF4655H   LINE      CODE     ---       #59
      00FF465BH   LINE      CODE     ---       #61
      00FF465EH   LINE      CODE     ---       #62
      00FF4662H   LINE      CODE     ---       #63
      00FF4666H   LINE      CODE     ---       #64
      00FF466AH   LINE      CODE     ---       #65
      00FF466DH   LINE      CODE     ---       #66
      00FF466FH   LINE      CODE     ---       #67
      00FF4674H   LINE      CODE     ---       #68
      00FF4676H   LINE      CODE     ---       #69
      00FF467CH   LINE      CODE     ---       #71
      00FF467FH   LINE      CODE     ---       #72
      00FF4683H   LINE      CODE     ---       #73
      00FF4687H   LINE      CODE     ---       #74
      00FF468AH   LINE      CODE     ---       #75
      00FF468AH   LINE      CODE     ---       #76
      00FF468DH   LINE      CODE     ---       #77
      00FF4697H   LINE      CODE     ---       #79
      00FF469BH   LINE      CODE     ---       #80
      00FF469DH   LINE      CODE     ---       #81
      00FF46A9H   LINE      CODE     ---       #83
      00FF46ACH   LINE      CODE     ---       #84
      00FF46AEH   LINE      CODE     ---       #85
      00FF46BAH   LINE      CODE     ---       #87
      00FF46BDH   LINE      CODE     ---       #88
      00FF46BFH   LINE      CODE     ---       #89
      00FF46CBH   LINE      CODE     ---       #91
      00FF46CEH   LINE      CODE     ---       #92
      00FF46CEH   LINE      CODE     ---       #93
      00FF46D3H   LINE      CODE     ---       #94
      00FF46D5H   LINE      CODE     ---       #95
      00FF46D6H   LINE      CODE     ---       #98
      00FF46D6H   LINE      CODE     ---       #100
      00FF46DCH   LINE      CODE     ---       #102
      00FF46DFH   LINE      CODE     ---       #103
L251 LINKER/LOCATER V4.66.93.0                                                        05/09/2023  22:12:16  PAGE 45


      00FF46E3H   LINE      CODE     ---       #104
      00FF46E7H   LINE      CODE     ---       #105
      00FF46EAH   LINE      CODE     ---       #106
      00FF46EAH   LINE      CODE     ---       #108
      00FF46EDH   LINE      CODE     ---       #109
      00FF46F9H   LINE      CODE     ---       #111
      00FF46FDH   LINE      CODE     ---       #112
      00FF46FFH   LINE      CODE     ---       #113
      00FF470BH   LINE      CODE     ---       #115
      00FF470EH   LINE      CODE     ---       #116
      00FF470EH   LINE      CODE     ---       #118
      00FF4711H   LINE      CODE     ---       #119
      00FF4716H   LINE      CODE     ---       #120
      00FF4717H   LINE      CODE     ---       #123
      00FF4717H   LINE      CODE     ---       #125
      00FF471DH   LINE      CODE     ---       #127
      00FF4720H   LINE      CODE     ---       #128
      00FF4724H   LINE      CODE     ---       #129
      00FF4728H   LINE      CODE     ---       #130
      00FF472BH   LINE      CODE     ---       #131
      00FF472DH   LINE      CODE     ---       #132
      00FF4733H   LINE      CODE     ---       #134
      00FF4736H   LINE      CODE     ---       #135
      00FF473AH   LINE      CODE     ---       #136
      00FF473EH   LINE      CODE     ---       #137
      00FF4741H   LINE      CODE     ---       #138
      00FF4741H   LINE      CODE     ---       #140
      00FF4744H   LINE      CODE     ---       #141
      00FF4750H   LINE      CODE     ---       #143
      00FF4754H   LINE      CODE     ---       #144
      00FF4756H   LINE      CODE     ---       #145
      00FF4762H   LINE      CODE     ---       #147
      00FF4765H   LINE      CODE     ---       #148
      00FF4765H   LINE      CODE     ---       #150
      00FF4768H   LINE      CODE     ---       #151
      00FF476DH   LINE      CODE     ---       #152
      00FF476EH   LINE      CODE     ---       #155
      00FF476EH   LINE      CODE     ---       #157
      00FF4774H   LINE      CODE     ---       #159
      00FF4777H   LINE      CODE     ---       #160
      00FF477BH   LINE      CODE     ---       #161
      00FF477FH   LINE      CODE     ---       #162
      00FF4782H   LINE      CODE     ---       #163
      00FF4784H   LINE      CODE     ---       #164
      00FF478AH   LINE      CODE     ---       #166
      00FF478DH   LINE      CODE     ---       #167
      00FF4791H   LINE      CODE     ---       #168
      00FF4795H   LINE      CODE     ---       #169
      00FF4798H   LINE      CODE     ---       #170
      00FF4798H   LINE      CODE     ---       #172
      00FF479BH   LINE      CODE     ---       #173
      00FF47A7H   LINE      CODE     ---       #175
      00FF47ABH   LINE      CODE     ---       #176
      00FF47ADH   LINE      CODE     ---       #177
      00FF47B9H   LINE      CODE     ---       #179
      00FF47BCH   LINE      CODE     ---       #180
      00FF47BFH   LINE      CODE     ---       #181
      00FF47C2H   LINE      CODE     ---       #182
      00FF47C2H   LINE      CODE     ---       #183
      00FF47C5H   LINE      CODE     ---       #184
      00FF47CAH   LINE      CODE     ---       #185
      00FF47CAH   LINE      CODE     ---       #188
      00FF47CAH   LINE      CODE     ---       #190
      ---         BLOCKEND  ---      ---       LVL=0

L251 LINKER/LOCATER V4.66.93.0                                                        05/09/2023  22:12:16  PAGE 46


      00FF57CCH   BLOCK     CODE     ---       LVL=0
      WR6         REGSYM    ---      INT       uart_n
      R10         REGSYM    ---      BYTE      dat
      00FF57CCH   LINE      CODE     ---       #199
      00FF57CEH   LINE      CODE     ---       #201
      00FF57E0H   LINE      CODE     ---       #203
      00FF57E0H   LINE      CODE     ---       #204
      00FF57E6H   LINE      CODE     ---       #205
      00FF57ECH   LINE      CODE     ---       #206
      00FF57EFH   LINE      CODE     ---       #207
      00FF57F0H   LINE      CODE     ---       #208
      00FF57F0H   LINE      CODE     ---       #209
      00FF57F6H   LINE      CODE     ---       #210
      00FF57FCH   LINE      CODE     ---       #211
      00FF57FFH   LINE      CODE     ---       #212
      00FF5800H   LINE      CODE     ---       #213
      00FF5800H   LINE      CODE     ---       #214
      00FF5806H   LINE      CODE     ---       #215
      00FF580CH   LINE      CODE     ---       #216
      00FF580FH   LINE      CODE     ---       #217
      00FF5810H   LINE      CODE     ---       #218
      00FF5810H   LINE      CODE     ---       #219
      00FF5816H   LINE      CODE     ---       #220
      00FF581CH   LINE      CODE     ---       #221
      00FF581FH   LINE      CODE     ---       #222
      00FF581FH   LINE      CODE     ---       #223
      00FF581FH   LINE      CODE     ---       #224
      ---         BLOCKEND  ---      ---       LVL=0
      REG=3       REGSYM    ---      ---       p
      REG=3       REGSYM    ---      ---       str

      ---         MODULE    ---      ---       zf_fifo
      00FF5B58H   PUBLIC    CODE     ---       fifo_head_offset
      00FF4C0DH   PUBLIC    CODE     ---       fifo_write_buffer
      000007ACH   PUBLIC    EDATA    BYTE      ?fifo_write_buffer?BYTE
      000000D0H   SFRSYM    DATA     BYTE      PSW
      0000009DH   SFRSYM    DATA     BYTE      IRCBAND
      00000097H   SFRSYM    DATA     BYTE      AUXR2
      000000EFH   SFRSYM    DATA     BYTE      AUXINTIF
      000000FDH   SFRSYM    DATA     BYTE      S4CON
      000000ACH   SFRSYM    DATA     BYTE      S3CON
      0000009AH   SFRSYM    DATA     BYTE      S2CON
      000000B7H   SFRSYM    DATA     BYTE      IPH
      000000CDH   SFRSYM    DATA     BYTE      SPSTAT
      000000DDH   SFRSYM    DATA     BYTE      T4T3M
      000000C1H   SFRSYM    DATA     BYTE      WDT_CONTR
      000000DFH   SFRSYM    DATA     BYTE      IP3
      000000F4H   SFRSYM    DATA     BYTE      USBCON
      000000B5H   SFRSYM    DATA     BYTE      IP2
      000000FFH   SFRSYM    DATA     BYTE      RSTCFG
      000000F9H   SFRSYM    DATA     BYTE      LINICR
      0000008EH   SFRSYM    DATA     BYTE      AUXR
      000000AFH   SFRSYM    DATA     BYTE      IE2
      00000088H   SFRSYM    DATA     BYTE      TCON
      00000098H   SFRSYM    DATA     BYTE      SCON
      000000F1H   SFRSYM    DATA     BYTE      CANICR
      00000087H   SFRSYM    DATA     BYTE      PCON
      000000BCH   SFRSYM    DATA     BYTE      ADC_CONTR
      000000E7H   SFRSYM    DATA     BYTE      CMPCR2
      000000E6H   SFRSYM    DATA     BYTE      CMPCR1
      000000B8H   SFRSYM    DATA     BYTE      IP
      0000008FH   SFRSYM    DATA     BYTE      INTCLKO
      000000EEH   SFRSYM    DATA     BYTE      IP3H
      000000B6H   SFRSYM    DATA     BYTE      IP2H
      000000A8H   SFRSYM    DATA     BYTE      IE
L251 LINKER/LOCATER V4.66.93.0                                                        05/09/2023  22:12:16  PAGE 47


      000000BBH   SFRSYM    DATA     BYTE      P_SW3
      000000BAH   SFRSYM    DATA     BYTE      P_SW2
      000000A2H   SFRSYM    DATA     BYTE      P_SW1
      000000CEH   SFRSYM    DATA     BYTE      SPCTL
      000000F8H   SFRSYM    DATA     BYTE      P7
      000000E8H   SFRSYM    DATA     BYTE      P6
      000000C8H   SFRSYM    DATA     BYTE      P5
      000000C0H   SFRSYM    DATA     BYTE      P4
      000000B0H   SFRSYM    DATA     BYTE      P3
      000000A0H   SFRSYM    DATA     BYTE      P2
      00000090H   SFRSYM    DATA     BYTE      P1
      00000080H   SFRSYM    DATA     BYTE      P0
      REG=2       REGSYM    ---      ---       fifo
      REG=7       REGSYM    ---      ---       buffer_addr

      00FF5B58H   BLOCK     CODE     ---       LVL=0
      REG=7       REGSYM    ---      ---       fifo
      DR24        REGSYM    ---      DWORD     offset
      00FF5B58H   LINE      CODE     ---       #61
      00FF5B5CH   LINE      CODE     ---       #63
      00FF5B67H   LINE      CODE     ---       #65
      00FF5B69H   LINE      CODE     ---       #67
      00FF5B85H   LINE      CODE     ---       #68
      00FF5B99H   LINE      CODE     ---       #69
      ---         BLOCKEND  ---      ---       LVL=0
      REG=7       REGSYM    ---      ---       fifo
      DR24        REGSYM    ---      DWORD     offset
      REG=2       REGSYM    ---      ---       fifo
      REG=7       REGSYM    ---      ---       fifo

      00FF4C0DH   BLOCK     CODE     ---       LVL=0
      REG=3       REGSYM    ---      ---       fifo
      000007B0H   SYMBOL    EDATA    ---       dat
      000007B4H   SYMBOL    EDATA    DWORD     length
      00FF4C15H   BLOCK     CODE     NEAR LAB  LVL=1
      000007B8H   SYMBOL    EDATA    DWORD     temp_length
      ---         BLOCKEND  ---      ---       LVL=1
      00FF4C0DH   LINE      CODE     ---       #120
      00FF4C15H   LINE      CODE     ---       #121
      00FF4C15H   LINE      CODE     ---       #124
      00FF4C28H   LINE      CODE     ---       #126
      00FF4C3EH   LINE      CODE     ---       #128
      00FF4C42H   LINE      CODE     ---       #130
      00FF4C5AH   LINE      CODE     ---       #131
      00FF4C63H   LINE      CODE     ---       #132
      00FF4C73H   LINE      CODE     ---       #133
      00FF4C93H   LINE      CODE     ---       #134
      00FF4C9FH   LINE      CODE     ---       #135
      00FF4CA1H   LINE      CODE     ---       #138
      00FF4CBDH   LINE      CODE     ---       #139
      00FF4CC6H   LINE      CODE     ---       #140
      00FF4CC6H   LINE      CODE     ---       #142
      00FF4CE0H   LINE      CODE     ---       #143
      00FF4CE2H   LINE      CODE     ---       #146
      00FF4CE8H   LINE      CODE     ---       #147
      00FF4CE8H   LINE      CODE     ---       #149
      00FF4CEAH   LINE      CODE     ---       #150
      ---         BLOCKEND  ---      ---       LVL=0
      REG=3       REGSYM    ---      ---       fifo

      ---         MODULE    ---      ---       SEEKFREE_ABSOLUTE_ENCODER
      00FF0006H   PUBLIC    CODE     ---       encoder_delay_us
      000000D0H   SFRSYM    DATA     BYTE      PSW
      0000009DH   SFRSYM    DATA     BYTE      IRCBAND
      00000097H   SFRSYM    DATA     BYTE      AUXR2
L251 LINKER/LOCATER V4.66.93.0                                                        05/09/2023  22:12:16  PAGE 48


      000000EFH   SFRSYM    DATA     BYTE      AUXINTIF
      000000FDH   SFRSYM    DATA     BYTE      S4CON
      000000ACH   SFRSYM    DATA     BYTE      S3CON
      0000009AH   SFRSYM    DATA     BYTE      S2CON
      000000B7H   SFRSYM    DATA     BYTE      IPH
      000000CDH   SFRSYM    DATA     BYTE      SPSTAT
      000000DDH   SFRSYM    DATA     BYTE      T4T3M
      000000C1H   SFRSYM    DATA     BYTE      WDT_CONTR
      000000DFH   SFRSYM    DATA     BYTE      IP3
      000000F4H   SFRSYM    DATA     BYTE      USBCON
      000000B5H   SFRSYM    DATA     BYTE      IP2
      000000FFH   SFRSYM    DATA     BYTE      RSTCFG
      000000F9H   SFRSYM    DATA     BYTE      LINICR
      0000008EH   SFRSYM    DATA     BYTE      AUXR
      000000AFH   SFRSYM    DATA     BYTE      IE2
      000000A0H.7 SFRSYM    DATA     BIT       P27
      000000A0H.6 SFRSYM    DATA     BIT       P26
      000000A0H.5 SFRSYM    DATA     BIT       P25
      000000A0H.4 SFRSYM    DATA     BIT       P24
      00000088H   SFRSYM    DATA     BYTE      TCON
      00000098H   SFRSYM    DATA     BYTE      SCON
      000000A0H.2 SFRSYM    DATA     BIT       P22
      000000F1H   SFRSYM    DATA     BYTE      CANICR
      00000087H   SFRSYM    DATA     BYTE      PCON
      000000BCH   SFRSYM    DATA     BYTE      ADC_CONTR
      000000E7H   SFRSYM    DATA     BYTE      CMPCR2
      000000E6H   SFRSYM    DATA     BYTE      CMPCR1
      000000B8H   SFRSYM    DATA     BYTE      IP
      0000008FH   SFRSYM    DATA     BYTE      INTCLKO
      000000EEH   SFRSYM    DATA     BYTE      IP3H
      000000B6H   SFRSYM    DATA     BYTE      IP2H
      000000A8H   SFRSYM    DATA     BYTE      IE
      000000BBH   SFRSYM    DATA     BYTE      P_SW3
      000000BAH   SFRSYM    DATA     BYTE      P_SW2
      000000A2H   SFRSYM    DATA     BYTE      P_SW1
      000000CEH   SFRSYM    DATA     BYTE      SPCTL
      000000F8H   SFRSYM    DATA     BYTE      P7
      000000E8H   SFRSYM    DATA     BYTE      P6
      000000C8H   SFRSYM    DATA     BYTE      P5
      000000C0H   SFRSYM    DATA     BYTE      P4
      000000B0H   SFRSYM    DATA     BYTE      P3
      000000A0H   SFRSYM    DATA     BYTE      P2
      00000090H   SFRSYM    DATA     BYTE      P1
      00000080H   SFRSYM    DATA     BYTE      P0

      00FF0006H   BLOCK     CODE     ---       LVL=0
      WR6         REGSYM    ---      WORD      x
      00FF0006H   LINE      CODE     ---       #43
      00FF0006H   LINE      CODE     ---       #45
      ---         BLOCKEND  ---      ---       LVL=0
      R6          REGSYM    ---      BYTE      byte
      R7          REGSYM    ---      BYTE      i
      R7          REGSYM    ---      BYTE      cmd
      R15         REGSYM    ---      BYTE      val
      R7          REGSYM    ---      BYTE      cmd
      REG=3       REGSYM    ---      ---       val
      R7          REGSYM    ---      BYTE      cmd
      R15         REGSYM    ---      BYTE      val
      R14         REGSYM    ---      BYTE      dat
      R7          REGSYM    ---      BYTE      cmd
      REG=3       REGSYM    ---      ---       val
      WR14        REGSYM    ---      WORD      zero_position
      WR14        REGSYM    ---      WORD      angle
      R10         REGSYM    ---      BYTE      byte
      R7          REGSYM    ---      BYTE      cmd
L251 LINKER/LOCATER V4.66.93.0                                                        05/09/2023  22:12:16  PAGE 49


      R15         REGSYM    ---      BYTE      val
      R7          REGSYM    ---      BYTE      cmd
      REG=3       REGSYM    ---      ---       val
      R7          REGSYM    ---      BYTE      cmd
      R15         REGSYM    ---      BYTE      val
      R14         REGSYM    ---      BYTE      dat
      R7          REGSYM    ---      BYTE      cmd
      REG=3       REGSYM    ---      ---       val
      WR14        REGSYM    ---      WORD      zero_position
      WR14        REGSYM    ---      WORD      angle

      ---         MODULE    ---      ---       SEEKFREE_AT24C02
      000000D0H   SFRSYM    DATA     BYTE      PSW
      0000009DH   SFRSYM    DATA     BYTE      IRCBAND
      00000097H   SFRSYM    DATA     BYTE      AUXR2
      000000EFH   SFRSYM    DATA     BYTE      AUXINTIF
      000000FDH   SFRSYM    DATA     BYTE      S4CON
      000000ACH   SFRSYM    DATA     BYTE      S3CON
      0000009AH   SFRSYM    DATA     BYTE      S2CON
      000000B7H   SFRSYM    DATA     BYTE      IPH
      000000CDH   SFRSYM    DATA     BYTE      SPSTAT
      000000DDH   SFRSYM    DATA     BYTE      T4T3M
      000000C1H   SFRSYM    DATA     BYTE      WDT_CONTR
      000000DFH   SFRSYM    DATA     BYTE      IP3
      000000F4H   SFRSYM    DATA     BYTE      USBCON
      000000B5H   SFRSYM    DATA     BYTE      IP2
      000000FFH   SFRSYM    DATA     BYTE      RSTCFG
      000000F9H   SFRSYM    DATA     BYTE      LINICR
      0000008EH   SFRSYM    DATA     BYTE      AUXR
      000000AFH   SFRSYM    DATA     BYTE      IE2
      00000088H   SFRSYM    DATA     BYTE      TCON
      000000A0H.3 SFRSYM    DATA     BIT       P23
      00000098H   SFRSYM    DATA     BYTE      SCON
      000000A0H.2 SFRSYM    DATA     BIT       P22
      000000F1H   SFRSYM    DATA     BYTE      CANICR
      00000087H   SFRSYM    DATA     BYTE      PCON
      000000BCH   SFRSYM    DATA     BYTE      ADC_CONTR
      000000E7H   SFRSYM    DATA     BYTE      CMPCR2
      000000E6H   SFRSYM    DATA     BYTE      CMPCR1
      000000B8H   SFRSYM    DATA     BYTE      IP
      0000008FH   SFRSYM    DATA     BYTE      INTCLKO
      000000EEH   SFRSYM    DATA     BYTE      IP3H
      000000B6H   SFRSYM    DATA     BYTE      IP2H
      000000A8H   SFRSYM    DATA     BYTE      IE
      000000BBH   SFRSYM    DATA     BYTE      P_SW3
      000000BAH   SFRSYM    DATA     BYTE      P_SW2
      000000A2H   SFRSYM    DATA     BYTE      P_SW1
      000000CEH   SFRSYM    DATA     BYTE      SPCTL
      000000F8H   SFRSYM    DATA     BYTE      P7
      000000E8H   SFRSYM    DATA     BYTE      P6
      000000C8H   SFRSYM    DATA     BYTE      P5
      000000C0H   SFRSYM    DATA     BYTE      P4
      000000B0H   SFRSYM    DATA     BYTE      P3
      000000A0H   SFRSYM    DATA     BYTE      P2
      00000090H   SFRSYM    DATA     BYTE      P1
      00000080H   SFRSYM    DATA     BYTE      P0
      00FF61B8H   SYMBOL    CODE     ---       at24c02_simiic_stop
      00FF5FB7H   SYMBOL    CODE     ---       at24c02_simiic_sendack
      00FF0046H   SYMBOL    CODE     ---       at24c02_simiic_delay

      00FF0046H   BLOCK     CODE     ---       LVL=0
      WR6         REGSYM    ---      WORD      j
      00FF0046H   LINE      CODE     ---       #45
      00FF0046H   LINE      CODE     ---       #46
      00FF0046H   LINE      CODE     ---       #47
L251 LINKER/LOCATER V4.66.93.0                                                        05/09/2023  22:12:16  PAGE 50


      00FF004AH   LINE      CODE     ---       #48
      00FF0052H   LINE      CODE     ---       #49
      ---         BLOCKEND  ---      ---       LVL=0

      00FF61B8H   BLOCK     CODE     ---       LVL=0
      00FF61B8H   LINE      CODE     ---       #63
      00FF61B8H   LINE      CODE     ---       #65
      00FF61BAH   LINE      CODE     ---       #66
      00FF61BCH   LINE      CODE     ---       #67
      00FF61BFH   LINE      CODE     ---       #68
      00FF61C1H   LINE      CODE     ---       #69
      00FF61C4H   LINE      CODE     ---       #70
      00FF61C6H   LINE      CODE     ---       #71
      ---         BLOCKEND  ---      ---       LVL=0

      00FF5FB7H   BLOCK     CODE     ---       LVL=0
      R15         REGSYM    ---      BYTE      ack_dat
      00FF5FB7H   LINE      CODE     ---       #76
      00FF5FBBH   LINE      CODE     ---       #78
      00FF5FBDH   LINE      CODE     ---       #79
      00FF5FC0H   LINE      CODE     ---       #80
      00FF5FC8H   LINE      CODE     ---       #81
      00FF5FCAH   LINE      CODE     ---       #83
      00FF5FCCH   LINE      CODE     ---       #84
      00FF5FCFH   LINE      CODE     ---       #85
      00FF5FD1H   LINE      CODE     ---       #86
      00FF5FD4H   LINE      CODE     ---       #87
      ---         BLOCKEND  ---      ---       LVL=0
      R15         REGSYM    ---      BYTE      c
      R14         REGSYM    ---      BYTE      i
      R15         REGSYM    ---      BYTE      ack_x
      R13         REGSYM    ---      BYTE      i
      R14         REGSYM    ---      BYTE      c
      R13         REGSYM    ---      BYTE      dev_add
      R14         REGSYM    ---      BYTE      reg
      R15         REGSYM    ---      BYTE      dat
      R15         REGSYM    ---      BYTE      dev_add
      R14         REGSYM    ---      BYTE      reg
      R15         REGSYM    ---      BYTE      dat
      R14         REGSYM    ---      BYTE      byte_reg
      R15         REGSYM    ---      BYTE      dat
      R15         REGSYM    ---      BYTE      byte_reg
      REG=3       REGSYM    ---      ---       dat_add
      REG=3       REGSYM    ---      ---       dat_add

      ---         MODULE    ---      ---       SEEKFREE_BLUETOOTH_CH9141
      00FF60C6H   PUBLIC    CODE     ---       bluetooth_ch9141_uart_callback
      000000D0H   SFRSYM    DATA     BYTE      PSW
      0000009DH   SFRSYM    DATA     BYTE      IRCBAND
      00000097H   SFRSYM    DATA     BYTE      AUXR2
      000000EFH   SFRSYM    DATA     BYTE      AUXINTIF
      000000FDH   SFRSYM    DATA     BYTE      S4CON
      000000ACH   SFRSYM    DATA     BYTE      S3CON
      0000009AH   SFRSYM    DATA     BYTE      S2CON
      000000FEH   SFRSYM    DATA     BYTE      S4BUF
      000000B7H   SFRSYM    DATA     BYTE      IPH
      000000CDH   SFRSYM    DATA     BYTE      SPSTAT
      000000DDH   SFRSYM    DATA     BYTE      T4T3M
      000000C1H   SFRSYM    DATA     BYTE      WDT_CONTR
      000000DFH   SFRSYM    DATA     BYTE      IP3
      000000F4H   SFRSYM    DATA     BYTE      USBCON
      000000B5H   SFRSYM    DATA     BYTE      IP2
      000000FFH   SFRSYM    DATA     BYTE      RSTCFG
      000000F9H   SFRSYM    DATA     BYTE      LINICR
      0000008EH   SFRSYM    DATA     BYTE      AUXR
L251 LINKER/LOCATER V4.66.93.0                                                        05/09/2023  22:12:16  PAGE 51


      000000AFH   SFRSYM    DATA     BYTE      IE2
      00000080H.7 SFRSYM    DATA     BIT       P07
      00000088H   SFRSYM    DATA     BYTE      TCON
      00000098H   SFRSYM    DATA     BYTE      SCON
      000000F1H   SFRSYM    DATA     BYTE      CANICR
      00000087H   SFRSYM    DATA     BYTE      PCON
      000000BCH   SFRSYM    DATA     BYTE      ADC_CONTR
      000000E7H   SFRSYM    DATA     BYTE      CMPCR2
      000000E6H   SFRSYM    DATA     BYTE      CMPCR1
      000000B8H   SFRSYM    DATA     BYTE      IP
      0000008FH   SFRSYM    DATA     BYTE      INTCLKO
      000000EEH   SFRSYM    DATA     BYTE      IP3H
      000000B6H   SFRSYM    DATA     BYTE      IP2H
      000000A8H   SFRSYM    DATA     BYTE      IE
      000000BBH   SFRSYM    DATA     BYTE      P_SW3
      000000BAH   SFRSYM    DATA     BYTE      P_SW2
      000000A2H   SFRSYM    DATA     BYTE      P_SW1
      000000CEH   SFRSYM    DATA     BYTE      SPCTL
      000000F8H   SFRSYM    DATA     BYTE      P7
      000000E8H   SFRSYM    DATA     BYTE      P6
      000000C8H   SFRSYM    DATA     BYTE      P5
      000000C0H   SFRSYM    DATA     BYTE      P4
      000000B0H   SFRSYM    DATA     BYTE      P3
      000000A0H   SFRSYM    DATA     BYTE      P2
      00000090H   SFRSYM    DATA     BYTE      P1
      00000080H   SFRSYM    DATA     BYTE      P0
      00000812H   SYMBOL    EDATA    ---       bluetooth_ch9141_buffer
      00000852H   SYMBOL    EDATA    BYTE      bluetooth_ch9141_data
      00000853H   SYMBOL    EDATA    ---       bluetooth_ch9141_fifo

      00FF60C6H   BLOCK     CODE     ---       LVL=0
      00FF60C6H   LINE      CODE     ---       #67
      00FF60C6H   LINE      CODE     ---       #70
      00FF60CCH   LINE      CODE     ---       #71
      ---         BLOCKEND  ---      ---       LVL=0
      DR12        REGSYM    ---      DWORD     len
      REG=7       REGSYM    ---      ---       buff
      DR8         REGSYM    ---      DWORD     len

      ---         MODULE    ---      ---       SEEKFREE_DL1A
      0000097AH   PUBLIC    EDATA    WORD      dl1a_distance_mm
      0000097CH   PUBLIC    EDATA    BYTE      dl1a_finsh_flag
      000000D0H   SFRSYM    DATA     BYTE      PSW
      0000009DH   SFRSYM    DATA     BYTE      IRCBAND
      00000097H   SFRSYM    DATA     BYTE      AUXR2
      000000EFH   SFRSYM    DATA     BYTE      AUXINTIF
      000000FDH   SFRSYM    DATA     BYTE      S4CON
      000000ACH   SFRSYM    DATA     BYTE      S3CON
      0000009AH   SFRSYM    DATA     BYTE      S2CON
      000000B7H   SFRSYM    DATA     BYTE      IPH
      000000CDH   SFRSYM    DATA     BYTE      SPSTAT
      000000DDH   SFRSYM    DATA     BYTE      T4T3M
      000000C1H   SFRSYM    DATA     BYTE      WDT_CONTR
      000000DFH   SFRSYM    DATA     BYTE      IP3
      000000F4H   SFRSYM    DATA     BYTE      USBCON
      000000B5H   SFRSYM    DATA     BYTE      IP2
      000000FFH   SFRSYM    DATA     BYTE      RSTCFG
      000000F9H   SFRSYM    DATA     BYTE      LINICR
      0000008EH   SFRSYM    DATA     BYTE      AUXR
      000000AFH   SFRSYM    DATA     BYTE      IE2
      000000A0H.7 SFRSYM    DATA     BIT       P27
      000000C0H.5 SFRSYM    DATA     BIT       P45
      000000A0H.6 SFRSYM    DATA     BIT       P26
      00000088H   SFRSYM    DATA     BYTE      TCON
      00000098H   SFRSYM    DATA     BYTE      SCON
L251 LINKER/LOCATER V4.66.93.0                                                        05/09/2023  22:12:16  PAGE 52


      000000F1H   SFRSYM    DATA     BYTE      CANICR
      00000087H   SFRSYM    DATA     BYTE      PCON
      000000BCH   SFRSYM    DATA     BYTE      ADC_CONTR
      000000E7H   SFRSYM    DATA     BYTE      CMPCR2
      000000E6H   SFRSYM    DATA     BYTE      CMPCR1
      000000B8H   SFRSYM    DATA     BYTE      IP
      0000008FH   SFRSYM    DATA     BYTE      INTCLKO
      000000EEH   SFRSYM    DATA     BYTE      IP3H
      000000B6H   SFRSYM    DATA     BYTE      IP2H
      000000A8H   SFRSYM    DATA     BYTE      IE
      000000BBH   SFRSYM    DATA     BYTE      P_SW3
      000000BAH   SFRSYM    DATA     BYTE      P_SW2
      000000A2H   SFRSYM    DATA     BYTE      P_SW1
      000000CEH   SFRSYM    DATA     BYTE      SPCTL
      000000F8H   SFRSYM    DATA     BYTE      P7
      000000E8H   SFRSYM    DATA     BYTE      P6
      000000C8H   SFRSYM    DATA     BYTE      P5
      000000C0H   SFRSYM    DATA     BYTE      P4
      000000B0H   SFRSYM    DATA     BYTE      P3
      000000A0H   SFRSYM    DATA     BYTE      P2
      00000090H   SFRSYM    DATA     BYTE      P1
      00000080H   SFRSYM    DATA     BYTE      P0
      00FF5FD7H   SYMBOL    CODE     ---       dl1a_simiic_sendack
      00FF5C54H   SYMBOL    CODE     ---       dl1a_timeout_microseconds_to_mclks
      00FF5BD9H   SYMBOL    CODE     ---       dl1a_timeout_mclks_to_microseconds
      00FF5C90H   SYMBOL    CODE     ---       dl1a_read_ch
      00FF61EBH   SYMBOL    CODE     ---       dl1a_decode_timeout
      00FF5E2DH   SYMBOL    CODE     ---       dl1a_send_ch
      00FF5D39H   SYMBOL    CODE     ---       dl1a_encode_timeout
      00FF5774H   SYMBOL    CODE     ---       dl1a_get_sequence_step_enables
      00FF0026H   SYMBOL    CODE     ---       dl1a_sccb_waitack
      00FF6235H   SYMBOL    CODE     ---       dl1a_simiic_delay
      00FF4CEDH   SYMBOL    CODE     ---       dl1a_get_sequence_step_timeouts
      00FF61FBH   SYMBOL    CODE     ---       dl1a_simiic_start
      00FF5820H   SYMBOL    CODE     ---       dl1a_simiic_read_regs
      00FF5D04H   SYMBOL    CODE     ---       dl1a_simiic_write_dats
      00FF61C9H   SYMBOL    CODE     ---       dl1a_simiic_stop
      00FF5916H   SYMBOL    CODE     ---       dl1a_get_vcsel_pulse_period

      00FF6235H   BLOCK     CODE     ---       LVL=0
      WR6         REGSYM    ---      WORD      j
      00FF6235H   LINE      CODE     ---       #75
      00FF6235H   LINE      CODE     ---       #76
      00FF6235H   LINE      CODE     ---       #77
      00FF6239H   LINE      CODE     ---       #78
      00FF6241H   LINE      CODE     ---       #79
      ---         BLOCKEND  ---      ---       LVL=0

      00FF61FBH   BLOCK     CODE     ---       LVL=0
      00FF61FBH   LINE      CODE     ---       #82
      00FF61FBH   LINE      CODE     ---       #84
      00FF61FDH   LINE      CODE     ---       #85
      00FF61FFH   LINE      CODE     ---       #86
      00FF6202H   LINE      CODE     ---       #87
      00FF6204H   LINE      CODE     ---       #88
      00FF6207H   LINE      CODE     ---       #89
      00FF6209H   LINE      CODE     ---       #90
      ---         BLOCKEND  ---      ---       LVL=0

      00FF61C9H   BLOCK     CODE     ---       LVL=0
      00FF61C9H   LINE      CODE     ---       #93
      00FF61C9H   LINE      CODE     ---       #95
      00FF61CBH   LINE      CODE     ---       #96
      00FF61CDH   LINE      CODE     ---       #97
      00FF61D0H   LINE      CODE     ---       #98
L251 LINKER/LOCATER V4.66.93.0                                                        05/09/2023  22:12:16  PAGE 53


      00FF61D2H   LINE      CODE     ---       #99
      00FF61D5H   LINE      CODE     ---       #100
      00FF61D7H   LINE      CODE     ---       #101
      ---         BLOCKEND  ---      ---       LVL=0

      00FF5FD7H   BLOCK     CODE     ---       LVL=0
      R15         REGSYM    ---      BYTE      ack_dat
      00FF5FD7H   LINE      CODE     ---       #106
      00FF5FDBH   LINE      CODE     ---       #108
      00FF5FDDH   LINE      CODE     ---       #109
      00FF5FE0H   LINE      CODE     ---       #110
      00FF5FE8H   LINE      CODE     ---       #111
      00FF5FEAH   LINE      CODE     ---       #113
      00FF5FECH   LINE      CODE     ---       #114
      00FF5FEFH   LINE      CODE     ---       #115
      00FF5FF1H   LINE      CODE     ---       #116
      00FF5FF4H   LINE      CODE     ---       #117
      ---         BLOCKEND  ---      ---       LVL=0

      00FF0026H   BLOCK     CODE     ---       LVL=0
      00FF0026H   LINE      CODE     ---       #120
      00FF0026H   LINE      CODE     ---       #122
      00FF0028H   LINE      CODE     ---       #124
      00FF002BH   LINE      CODE     ---       #126
      00FF002DH   LINE      CODE     ---       #127
      00FF0030H   LINE      CODE     ---       #129
      00FF0033H   LINE      CODE     ---       #132
      00FF0035H   LINE      CODE     ---       #133
      00FF0038H   LINE      CODE     ---       #134
      00FF0038H   LINE      CODE     ---       #136
      00FF003AH   LINE      CODE     ---       #137
      00FF003DH   LINE      CODE     ---       #138
      00FF0041H   LINE      CODE     ---       #139
      ---         BLOCKEND  ---      ---       LVL=0

      00FF5E2DH   BLOCK     CODE     ---       LVL=0
      R15         REGSYM    ---      BYTE      c
      00FF5E31H   BLOCK     CODE     NEAR LAB  LVL=1
      R14         REGSYM    ---      BYTE      i
      ---         BLOCKEND  ---      ---       LVL=1
      00FF5E2DH   LINE      CODE     ---       #145
      00FF5E31H   LINE      CODE     ---       #146
      00FF5E31H   LINE      CODE     ---       #147
      00FF5E34H   LINE      CODE     ---       #148
      00FF5E36H   LINE      CODE     ---       #150
      00FF5E3FH   LINE      CODE     ---       #151
      00FF5E41H   LINE      CODE     ---       #152
      00FF5E43H   LINE      CODE     ---       #153
      00FF5E46H   LINE      CODE     ---       #154
      00FF5E48H   LINE      CODE     ---       #155
      00FF5E4BH   LINE      CODE     ---       #156
      00FF5E4DH   LINE      CODE     ---       #157
      00FF5E55H   LINE      CODE     ---       #158
      00FF5E58H   LINE      CODE     ---       #159
      ---         BLOCKEND  ---      ---       LVL=0

      00FF5C90H   BLOCK     CODE     ---       LVL=0
      R15         REGSYM    ---      BYTE      ack_x
      00FF5C96H   BLOCK     CODE     NEAR LAB  LVL=1
      R13         REGSYM    ---      BYTE      i
      R14         REGSYM    ---      BYTE      c
      ---         BLOCKEND  ---      ---       LVL=1
      00FF5C90H   LINE      CODE     ---       #165
      00FF5C96H   LINE      CODE     ---       #166
      00FF5C96H   LINE      CODE     ---       #169
L251 LINKER/LOCATER V4.66.93.0                                                        05/09/2023  22:12:16  PAGE 54


      00FF5C98H   LINE      CODE     ---       #170
      00FF5C9AH   LINE      CODE     ---       #171
      00FF5C9DH   LINE      CODE     ---       #172
      00FF5C9FH   LINE      CODE     ---       #174
      00FF5CA2H   LINE      CODE     ---       #176
      00FF5CA5H   LINE      CODE     ---       #177
      00FF5CA7H   LINE      CODE     ---       #178
      00FF5CAAH   LINE      CODE     ---       #179
      00FF5CACH   LINE      CODE     ---       #180
      00FF5CAFH   LINE      CODE     ---       #181
      00FF5CB1H   LINE      CODE     ---       #182
      00FF5CB4H   LINE      CODE     ---       #184
      00FF5CB6H   LINE      CODE     ---       #185
      00FF5CBAH   LINE      CODE     ---       #188
      00FF5CBCH   LINE      CODE     ---       #189
      00FF5CBFH   LINE      CODE     ---       #190
      00FF5CC4H   LINE      CODE     ---       #192
      00FF5CC6H   LINE      CODE     ---       #193
      ---         BLOCKEND  ---      ---       LVL=0

      00FF5D04H   BLOCK     CODE     ---       LVL=0
      0000095DH   SYMBOL    EDATA    BYTE      dev_add
      0000095EH   SYMBOL    EDATA    ---       dat
      DR12        REGSYM    ---      DWORD     len
      00FF5D04H   LINE      CODE     ---       #205
      00FF5D10H   LINE      CODE     ---       #207
      00FF5D13H   LINE      CODE     ---       #208
      00FF5D19H   LINE      CODE     ---       #209
      00FF5D1BH   LINE      CODE     ---       #211
      00FF5D2BH   LINE      CODE     ---       #212
      00FF5D33H   LINE      CODE     ---       #215
      00FF5D36H   LINE      CODE     ---       #216
      ---         BLOCKEND  ---      ---       LVL=0
      R13         REGSYM    ---      BYTE      dev_add
      R14         REGSYM    ---      BYTE      reg
      R15         REGSYM    ---      BYTE      dat
      R15         REGSYM    ---      BYTE      dev_add
      R14         REGSYM    ---      BYTE      reg
      R15         REGSYM    ---      BYTE      dat

      00FF5820H   BLOCK     CODE     ---       LVL=0
      00000951H   SYMBOL    EDATA    BYTE      dev_add
      00000952H   SYMBOL    EDATA    BYTE      reg
      REG=3       REGSYM    ---      ---       dat_add
      00000953H   SYMBOL    EDATA    DWORD     num
      00FF5820H   LINE      CODE     ---       #273
      00FF582CH   LINE      CODE     ---       #275
      00FF582FH   LINE      CODE     ---       #276
      00FF5838H   LINE      CODE     ---       #277
      00FF583FH   LINE      CODE     ---       #280
      00FF5842H   LINE      CODE     ---       #281
      00FF584DH   LINE      CODE     ---       #282
      00FF584FH   LINE      CODE     ---       #284
      00FF5857H   LINE      CODE     ---       #285
      00FF5859H   LINE      CODE     ---       #286
      00FF5867H   LINE      CODE     ---       #287
      00FF586EH   LINE      CODE     ---       #288
      00FF5871H   LINE      CODE     ---       #289
      ---         BLOCKEND  ---      ---       LVL=0
      REG=3       REGSYM    ---      ---       dat_add
      REG=3       REGSYM    ---      ---       type_is_aperture

      00FF5BD9H   BLOCK     CODE     ---       LVL=0
      WR30        REGSYM    ---      WORD      timeout_period_mclks
      R5          REGSYM    ---      BYTE      vcsel_period_pclks
L251 LINKER/LOCATER V4.66.93.0                                                        05/09/2023  22:12:16  PAGE 55


      00FF5BDBH   BLOCK     CODE     NEAR LAB  LVL=1
      DR24        REGSYM    ---      DWORD     macro_period_ns
      ---         BLOCKEND  ---      ---       LVL=1
      00FF5BD9H   LINE      CODE     ---       #417
      00FF5BDBH   LINE      CODE     ---       #418
      00FF5BDBH   LINE      CODE     ---       #419
      00FF5BFCH   LINE      CODE     ---       #421
      ---         BLOCKEND  ---      ---       LVL=0

      00FF5C54H   BLOCK     CODE     ---       LVL=0
      DR28        REGSYM    ---      DWORD     timeout_period_us
      R3          REGSYM    ---      BYTE      vcsel_period_pclks
      00FF5C56H   BLOCK     CODE     NEAR LAB  LVL=1
      DR8         REGSYM    ---      DWORD     macro_period_ns
      ---         BLOCKEND  ---      ---       LVL=1
      00FF5C54H   LINE      CODE     ---       #432
      00FF5C56H   LINE      CODE     ---       #433
      00FF5C56H   LINE      CODE     ---       #434
      00FF5C77H   LINE      CODE     ---       #436
      ---         BLOCKEND  ---      ---       LVL=0

      00FF61EBH   BLOCK     CODE     ---       LVL=0
      WR4         REGSYM    ---      WORD      reg_val
      00FF61EBH   LINE      CODE     ---       #446
      00FF61EDH   LINE      CODE     ---       #449
      00FF61FAH   LINE      CODE     ---       #451
      ---         BLOCKEND  ---      ---       LVL=0

      00FF5D39H   BLOCK     CODE     ---       LVL=0
      WR2         REGSYM    ---      WORD      timeout_mclks
      00FF5D3BH   BLOCK     CODE     NEAR LAB  LVL=1
      DR8         REGSYM    ---      DWORD     ls_byte
      WR4         REGSYM    ---      WORD      ms_byte
      WR6         REGSYM    ---      WORD      return_data
      ---         BLOCKEND  ---      ---       LVL=1
      00FF5D39H   LINE      CODE     ---       #460
      00FF5D3BH   LINE      CODE     ---       #461
      00FF5D3BH   LINE      CODE     ---       #462
      00FF5D3BH   LINE      CODE     ---       #463
      00FF5D3FH   LINE      CODE     ---       #464
      00FF5D3FH   LINE      CODE     ---       #466
      00FF5D45H   LINE      CODE     ---       #469
      00FF5D4BH   LINE      CODE     ---       #470
      00FF5D4DH   LINE      CODE     ---       #472
      00FF5D56H   LINE      CODE     ---       #473
      00FF5D58H   LINE      CODE     ---       #474
      00FF5D62H   LINE      CODE     ---       #475
      00FF5D6CH   LINE      CODE     ---       #476
      00FF5D6CH   LINE      CODE     ---       #477
      00FF5D6CH   LINE      CODE     ---       #478
      ---         BLOCKEND  ---      ---       LVL=0

      00FF5774H   BLOCK     CODE     ---       LVL=0
      REG=3       REGSYM    ---      ---       enables
      00FF5778H   BLOCK     CODE     NEAR LAB  LVL=1
      00000983H   SYMBOL    EDATA    BYTE      sequence_config
      ---         BLOCKEND  ---      ---       LVL=1
      00FF5774H   LINE      CODE     ---       #487
      00FF5778H   LINE      CODE     ---       #488
      00FF5778H   LINE      CODE     ---       #489
      00FF577DH   LINE      CODE     ---       #490
      00FF578EH   LINE      CODE     ---       #492
      00FF5798H   LINE      CODE     ---       #493
      00FF57A4H   LINE      CODE     ---       #494
      00FF57B2H   LINE      CODE     ---       #495
L251 LINKER/LOCATER V4.66.93.0                                                        05/09/2023  22:12:16  PAGE 56


      00FF57BEH   LINE      CODE     ---       #496
      00FF57C9H   LINE      CODE     ---       #497
      ---         BLOCKEND  ---      ---       LVL=0

      00FF5916H   BLOCK     CODE     ---       LVL=0
      WR6         REGSYM    ---      INT       type
      00000984H   SYMBOL    EDATA    BYTE      data_buffer
      00FF5916H   LINE      CODE     ---       #506
      00FF5916H   LINE      CODE     ---       #507
      00FF5916H   LINE      CODE     ---       #508
      00FF591BH   LINE      CODE     ---       #509
      00FF591FH   LINE      CODE     ---       #511
      00FF592CH   LINE      CODE     ---       #512
      00FF592CH   LINE      CODE     ---       #513
      00FF592EH   LINE      CODE     ---       #514
      00FF5934H   LINE      CODE     ---       #516
      00FF5948H   LINE      CODE     ---       #517
      00FF5956H   LINE      CODE     ---       #518
      00FF5958H   LINE      CODE     ---       #521
      00FF595EH   LINE      CODE     ---       #522
      00FF595EH   LINE      CODE     ---       #523
      00FF5962H   LINE      CODE     ---       #524
      ---         BLOCKEND  ---      ---       LVL=0

      00FF4CEDH   BLOCK     CODE     ---       LVL=0
      00000957H   SYMBOL    EDATA    ---       enables
      REG=3       REGSYM    ---      ---       timeouts
      00FF4CF5H   BLOCK     CODE     NEAR LAB  LVL=1
      0000095BH   SYMBOL    EDATA    ---       reg_buffer
      WR6         REGSYM    ---      WORD      reg16_buffer
      ---         BLOCKEND  ---      ---       LVL=1
      00FF4CEDH   LINE      CODE     ---       #534
      00FF4CF5H   LINE      CODE     ---       #535
      00FF4CF5H   LINE      CODE     ---       #537
      00FF4CF5H   LINE      CODE     ---       #539
      00FF4CFFH   LINE      CODE     ---       #541
      00FF4D13H   LINE      CODE     ---       #542
      00FF4D1FH   LINE      CODE     ---       #543
      00FF4D2DH   LINE      CODE     ---       #545
      00FF4D41H   LINE      CODE     ---       #546
      00FF4D4DH   LINE      CODE     ---       #547
      00FF4D54H   LINE      CODE     ---       #548
      00FF4D62H   LINE      CODE     ---       #550
      00FF4D6FH   LINE      CODE     ---       #552
      00FF4D83H   LINE      CODE     ---       #553
      00FF4D8FH   LINE      CODE     ---       #554
      00FF4D96H   LINE      CODE     ---       #556
      00FF4DA0H   LINE      CODE     ---       #558
      00FF4DB2H   LINE      CODE     ---       #559
      00FF4DB2H   LINE      CODE     ---       #561
      00FF4DC5H   LINE      CODE     ---       #562
      ---         BLOCKEND  ---      ---       LVL=0
      R10         REGSYM    ---      BYTE      vhv_init_byte
      R15         REGSYM    ---      BYTE      return_state
      DR12        REGSYM    ---      DWORD     budget_us
      WR6         REGSYM    ---      WORD      dat
      DR4         REGSYM    ---      DWORD     final_range_timeout_us
      WR6         REGSYM    ---      WORD      final_range_timeout_mclks
      DR12        REGSYM    ---      DWORD     budget_us
      DR4         REGSYM    ---      FLOAT     limit_mcps
      WR6         REGSYM    ---      WORD      limit_mcps_16bit
      R15         REGSYM    ---      BYTE      return_state
      R14         REGSYM    ---      BYTE      reg_data_buffer
      R13         REGSYM    ---      BYTE      i

L251 LINKER/LOCATER V4.66.93.0                                                        05/09/2023  22:12:16  PAGE 57


      ---         MODULE    ---      ---       SEEKFREE_FONT
      00FF20A6H   PUBLIC    CODE     ---       oled_8x16
      00FF2696H   PUBLIC    CODE     ---       tft_ascii
      00FF2C86H   PUBLIC    CODE     ---       oled_6x8
      000000D0H   SFRSYM    DATA     BYTE      PSW
      0000009DH   SFRSYM    DATA     BYTE      IRCBAND
      00000097H   SFRSYM    DATA     BYTE      AUXR2
      000000EFH   SFRSYM    DATA     BYTE      AUXINTIF
      000000FDH   SFRSYM    DATA     BYTE      S4CON
      000000ACH   SFRSYM    DATA     BYTE      S3CON
      0000009AH   SFRSYM    DATA     BYTE      S2CON
      000000B7H   SFRSYM    DATA     BYTE      IPH
      000000CDH   SFRSYM    DATA     BYTE      SPSTAT
      000000DDH   SFRSYM    DATA     BYTE      T4T3M
      000000C1H   SFRSYM    DATA     BYTE      WDT_CONTR
      000000DFH   SFRSYM    DATA     BYTE      IP3
      000000F4H   SFRSYM    DATA     BYTE      USBCON
      000000B5H   SFRSYM    DATA     BYTE      IP2
      000000FFH   SFRSYM    DATA     BYTE      RSTCFG
      000000F9H   SFRSYM    DATA     BYTE      LINICR
      0000008EH   SFRSYM    DATA     BYTE      AUXR
      000000AFH   SFRSYM    DATA     BYTE      IE2
      00000088H   SFRSYM    DATA     BYTE      TCON
      00000098H   SFRSYM    DATA     BYTE      SCON
      000000F1H   SFRSYM    DATA     BYTE      CANICR
      00000087H   SFRSYM    DATA     BYTE      PCON
      000000BCH   SFRSYM    DATA     BYTE      ADC_CONTR
      000000E7H   SFRSYM    DATA     BYTE      CMPCR2
      000000E6H   SFRSYM    DATA     BYTE      CMPCR1
      000000B8H   SFRSYM    DATA     BYTE      IP
      0000008FH   SFRSYM    DATA     BYTE      INTCLKO
      000000EEH   SFRSYM    DATA     BYTE      IP3H
      000000B6H   SFRSYM    DATA     BYTE      IP2H
      000000A8H   SFRSYM    DATA     BYTE      IE
      000000BBH   SFRSYM    DATA     BYTE      P_SW3
      000000BAH   SFRSYM    DATA     BYTE      P_SW2
      000000A2H   SFRSYM    DATA     BYTE      P_SW1
      000000CEH   SFRSYM    DATA     BYTE      SPCTL
      000000F8H   SFRSYM    DATA     BYTE      P7
      000000E8H   SFRSYM    DATA     BYTE      P6
      000000C8H   SFRSYM    DATA     BYTE      P5
      000000C0H   SFRSYM    DATA     BYTE      P4
      000000B0H   SFRSYM    DATA     BYTE      P3
      000000A0H   SFRSYM    DATA     BYTE      P2
      00000090H   SFRSYM    DATA     BYTE      P1
      00000080H   SFRSYM    DATA     BYTE      P0

      ---         MODULE    ---      ---       SEEKFREE_ICM20602
      00000923H   PUBLIC    EDATA    INT       icm20602_acc_x
      00000925H   PUBLIC    EDATA    INT       icm20602_acc_y
      00000927H   PUBLIC    EDATA    INT       icm20602_acc_z
      00000929H   PUBLIC    EDATA    INT       icm20602_gyro_x
      0000092BH   PUBLIC    EDATA    INT       icm20602_gyro_y
      0000092DH   PUBLIC    EDATA    INT       icm20602_gyro_z
      000000D0H   SFRSYM    DATA     BYTE      PSW
      0000009DH   SFRSYM    DATA     BYTE      IRCBAND
      00000097H   SFRSYM    DATA     BYTE      AUXR2
      000000EFH   SFRSYM    DATA     BYTE      AUXINTIF
      000000FDH   SFRSYM    DATA     BYTE      S4CON
      000000ACH   SFRSYM    DATA     BYTE      S3CON
      0000009AH   SFRSYM    DATA     BYTE      S2CON
      000000B7H   SFRSYM    DATA     BYTE      IPH
      000000CDH   SFRSYM    DATA     BYTE      SPSTAT
      000000DDH   SFRSYM    DATA     BYTE      T4T3M
      000000C1H   SFRSYM    DATA     BYTE      WDT_CONTR
L251 LINKER/LOCATER V4.66.93.0                                                        05/09/2023  22:12:16  PAGE 58


      000000DFH   SFRSYM    DATA     BYTE      IP3
      000000F4H   SFRSYM    DATA     BYTE      USBCON
      000000B5H   SFRSYM    DATA     BYTE      IP2
      000000FFH   SFRSYM    DATA     BYTE      RSTCFG
      000000F9H   SFRSYM    DATA     BYTE      LINICR
      0000008EH   SFRSYM    DATA     BYTE      AUXR
      000000AFH   SFRSYM    DATA     BYTE      IE2
      000000C0H.3 SFRSYM    DATA     BIT       P43
      000000C0H.2 SFRSYM    DATA     BIT       P42
      00000088H   SFRSYM    DATA     BYTE      TCON
      000000C0H.1 SFRSYM    DATA     BIT       P41
      00000098H   SFRSYM    DATA     BYTE      SCON
      000000C0H.0 SFRSYM    DATA     BIT       P40
      000000F1H   SFRSYM    DATA     BYTE      CANICR
      00000087H   SFRSYM    DATA     BYTE      PCON
      000000BCH   SFRSYM    DATA     BYTE      ADC_CONTR
      000000E7H   SFRSYM    DATA     BYTE      CMPCR2
      000000E6H   SFRSYM    DATA     BYTE      CMPCR1
      000000B8H   SFRSYM    DATA     BYTE      IP
      0000008FH   SFRSYM    DATA     BYTE      INTCLKO
      000000EEH   SFRSYM    DATA     BYTE      IP3H
      000000B6H   SFRSYM    DATA     BYTE      IP2H
      000000A8H   SFRSYM    DATA     BYTE      IE
      000000BBH   SFRSYM    DATA     BYTE      P_SW3
      000000BAH   SFRSYM    DATA     BYTE      P_SW2
      000000A2H   SFRSYM    DATA     BYTE      P_SW1
      000000CEH   SFRSYM    DATA     BYTE      SPCTL
      000000F8H   SFRSYM    DATA     BYTE      P7
      000000E8H   SFRSYM    DATA     BYTE      P6
      000000C8H   SFRSYM    DATA     BYTE      P5
      000000C0H   SFRSYM    DATA     BYTE      P4
      000000B0H   SFRSYM    DATA     BYTE      P3
      000000A0H   SFRSYM    DATA     BYTE      P2
      00000090H   SFRSYM    DATA     BYTE      P1
      00000080H   SFRSYM    DATA     BYTE      P0
      00FF61A6H   SYMBOL    CODE     ---       icm20602_read_register
      00FF5F4EH   SYMBOL    CODE     ---       icm20602_simspi_wr_byte
      00FF5D9FH   SYMBOL    CODE     ---       icm20602_simspi_r_reg_bytes
      00FF6111H   SYMBOL    CODE     ---       icm20602_simspi_r_reg_byte

      00FF5F4EH   BLOCK     CODE     ---       LVL=0
      R6          REGSYM    ---      BYTE      byte
      00FF5F50H   BLOCK     CODE     NEAR LAB  LVL=1
      R7          REGSYM    ---      BYTE      i
      ---         BLOCKEND  ---      ---       LVL=1
      00FF5F4EH   LINE      CODE     ---       #270
      00FF5F50H   LINE      CODE     ---       #271
      00FF5F50H   LINE      CODE     ---       #274
      00FF5F52H   LINE      CODE     ---       #276
      00FF5F57H   LINE      CODE     ---       #277
      00FF5F59H   LINE      CODE     ---       #278
      00FF5F5BH   LINE      CODE     ---       #279
      00FF5F5DH   LINE      CODE     ---       #281
      00FF5F5FH   LINE      CODE     ---       #282
      00FF5F61H   LINE      CODE     ---       #283
      00FF5F67H   LINE      CODE     ---       #284
      00FF5F6EH   LINE      CODE     ---       #285
      00FF5F70H   LINE      CODE     ---       #286
      ---         BLOCKEND  ---      ---       LVL=0
      R7          REGSYM    ---      BYTE      cmd
      R15         REGSYM    ---      BYTE      val

      00FF6111H   BLOCK     CODE     ---       LVL=0
      R7          REGSYM    ---      BYTE      cmd
      REG=3       REGSYM    ---      ---       val
L251 LINKER/LOCATER V4.66.93.0                                                        05/09/2023  22:12:16  PAGE 59


      00FF6111H   LINE      CODE     ---       #332
      00FF6117H   LINE      CODE     ---       #335
      00FF611AH   LINE      CODE     ---       #336
      00FF611FH   LINE      CODE     ---       #337
      00FF6126H   LINE      CODE     ---       #339
      ---         BLOCKEND  ---      ---       LVL=0

      00FF5D9FH   BLOCK     CODE     ---       LVL=0
      R7          REGSYM    ---      BYTE      cmd
      REG=3       REGSYM    ---      ---       val
      0000096AH   SYMBOL    EDATA    DWORD     num
      00FF5DA9H   BLOCK     CODE     NEAR LAB  LVL=1
      ---         BLOCKEND  ---      ---       LVL=1
      00FF5D9FH   LINE      CODE     ---       #349
      00FF5DA9H   LINE      CODE     ---       #350
      00FF5DA9H   LINE      CODE     ---       #351
      00FF5DA9H   LINE      CODE     ---       #352
      00FF5DACH   LINE      CODE     ---       #353
      00FF5DB1H   LINE      CODE     ---       #355
      00FF5DB3H   LINE      CODE     ---       #357
      00FF5DBCH   LINE      CODE     ---       #358
      00FF5DCCH   LINE      CODE     ---       #359
      ---         BLOCKEND  ---      ---       LVL=0
      R11         REGSYM    ---      BYTE      reg
      R7          REGSYM    ---      BYTE      dat

      00FF61A6H   BLOCK     CODE     ---       LVL=0
      R7          REGSYM    ---      BYTE      reg
      00000985H   SYMBOL    EDATA    BYTE      dat
      00FF61A6H   LINE      CODE     ---       #399
      00FF61A6H   LINE      CODE     ---       #400
      00FF61A6H   LINE      CODE     ---       #402
      00FF61A8H   LINE      CODE     ---       #403
      00FF61B1H   LINE      CODE     ---       #404
      00FF61B3H   LINE      CODE     ---       #405
      00FF61B7H   LINE      CODE     ---       #406
      ---         BLOCKEND  ---      ---       LVL=0
      R3          REGSYM    ---      BYTE      reg
      REG=1       REGSYM    ---      ---       dat
      DR28        REGSYM    ---      DWORD     len
      R14         REGSYM    ---      BYTE      dat
      R15         REGSYM    ---      BYTE      return_state
      WR12        REGSYM    ---      WORD      timeout_count
      WR8         REGSYM    ---      INT       acc_value
      DR4         REGSYM    ---      FLOAT     acc_data
      WR8         REGSYM    ---      INT       gyro_value
      DR4         REGSYM    ---      FLOAT     gyro_data
      R14         REGSYM    ---      BYTE      val
      R15         REGSYM    ---      BYTE      return_state
      WR12        REGSYM    ---      WORD      timeout_count

      ---         MODULE    ---      ---       SEEKFREE_IMU660RA
      0000092FH   PUBLIC    EDATA    INT       imu660ra_acc_x
      00000931H   PUBLIC    EDATA    INT       imu660ra_acc_y
      00000933H   PUBLIC    EDATA    INT       imu660ra_acc_z
      00000935H   PUBLIC    EDATA    INT       imu660ra_gyro_x
      00000937H   PUBLIC    EDATA    INT       imu660ra_gyro_y
      00000939H   PUBLIC    EDATA    INT       imu660ra_gyro_z
      000000D0H   SFRSYM    DATA     BYTE      PSW
      0000009DH   SFRSYM    DATA     BYTE      IRCBAND
      00000097H   SFRSYM    DATA     BYTE      AUXR2
      000000EFH   SFRSYM    DATA     BYTE      AUXINTIF
      000000FDH   SFRSYM    DATA     BYTE      S4CON
      000000ACH   SFRSYM    DATA     BYTE      S3CON
      0000009AH   SFRSYM    DATA     BYTE      S2CON
L251 LINKER/LOCATER V4.66.93.0                                                        05/09/2023  22:12:16  PAGE 60


      000000B7H   SFRSYM    DATA     BYTE      IPH
      000000CDH   SFRSYM    DATA     BYTE      SPSTAT
      000000DDH   SFRSYM    DATA     BYTE      T4T3M
      000000C1H   SFRSYM    DATA     BYTE      WDT_CONTR
      000000DFH   SFRSYM    DATA     BYTE      IP3
      000000F4H   SFRSYM    DATA     BYTE      USBCON
      000000B5H   SFRSYM    DATA     BYTE      IP2
      000000FFH   SFRSYM    DATA     BYTE      RSTCFG
      000000F9H   SFRSYM    DATA     BYTE      LINICR
      0000008EH   SFRSYM    DATA     BYTE      AUXR
      000000AFH   SFRSYM    DATA     BYTE      IE2
      000000C0H.3 SFRSYM    DATA     BIT       P43
      000000C0H.2 SFRSYM    DATA     BIT       P42
      00000088H   SFRSYM    DATA     BYTE      TCON
      000000C0H.1 SFRSYM    DATA     BIT       P41
      00000098H   SFRSYM    DATA     BYTE      SCON
      000000C0H.0 SFRSYM    DATA     BIT       P40
      000000F1H   SFRSYM    DATA     BYTE      CANICR
      00000087H   SFRSYM    DATA     BYTE      PCON
      000000BCH   SFRSYM    DATA     BYTE      ADC_CONTR
      000000E7H   SFRSYM    DATA     BYTE      CMPCR2
      000000E6H   SFRSYM    DATA     BYTE      CMPCR1
      000000B8H   SFRSYM    DATA     BYTE      IP
      0000008FH   SFRSYM    DATA     BYTE      INTCLKO
      000000EEH   SFRSYM    DATA     BYTE      IP3H
      000000B6H   SFRSYM    DATA     BYTE      IP2H
      000000A8H   SFRSYM    DATA     BYTE      IE
      000000BBH   SFRSYM    DATA     BYTE      P_SW3
      000000BAH   SFRSYM    DATA     BYTE      P_SW2
      000000A2H   SFRSYM    DATA     BYTE      P_SW1
      000000CEH   SFRSYM    DATA     BYTE      SPCTL
      000000F8H   SFRSYM    DATA     BYTE      P7
      000000E8H   SFRSYM    DATA     BYTE      P6
      000000C8H   SFRSYM    DATA     BYTE      P5
      000000C0H   SFRSYM    DATA     BYTE      P4
      000000B0H   SFRSYM    DATA     BYTE      P3
      000000A0H   SFRSYM    DATA     BYTE      P2
      00000090H   SFRSYM    DATA     BYTE      P1
      00000080H   SFRSYM    DATA     BYTE      P0
      00FF6140H   SYMBOL    CODE     ---       imu660ra_read_register
      00FF5F71H   SYMBOL    CODE     ---       imu660ra_simspi_wr_byte
      00FF5DCFH   SYMBOL    CODE     ---       imu660ra_simspi_r_reg_bytes

      00FF5F71H   BLOCK     CODE     ---       LVL=0
      R6          REGSYM    ---      BYTE      byte
      00FF5F73H   BLOCK     CODE     NEAR LAB  LVL=1
      R7          REGSYM    ---      BYTE      i
      ---         BLOCKEND  ---      ---       LVL=1
      00FF5F71H   LINE      CODE     ---       #326
      00FF5F73H   LINE      CODE     ---       #327
      00FF5F73H   LINE      CODE     ---       #330
      00FF5F75H   LINE      CODE     ---       #332
      00FF5F7AH   LINE      CODE     ---       #333
      00FF5F7CH   LINE      CODE     ---       #334
      00FF5F7EH   LINE      CODE     ---       #335
      00FF5F80H   LINE      CODE     ---       #336
      00FF5F82H   LINE      CODE     ---       #337
      00FF5F84H   LINE      CODE     ---       #339
      00FF5F8AH   LINE      CODE     ---       #340
      00FF5F91H   LINE      CODE     ---       #341
      00FF5F93H   LINE      CODE     ---       #342
      ---         BLOCKEND  ---      ---       LVL=0
      R7          REGSYM    ---      BYTE      cmd
      R15         REGSYM    ---      BYTE      val
      R11         REGSYM    ---      BYTE      cmd
L251 LINKER/LOCATER V4.66.93.0                                                        05/09/2023  22:12:16  PAGE 61


      DR12        REGSYM    ---      DWORD     len

      00FF5DCFH   BLOCK     CODE     ---       LVL=0
      R7          REGSYM    ---      BYTE      cmd
      REG=3       REGSYM    ---      ---       val
      0000096EH   SYMBOL    EDATA    DWORD     num
      00FF5DCFH   LINE      CODE     ---       #399
      00FF5DD9H   LINE      CODE     ---       #401
      00FF5DDCH   LINE      CODE     ---       #402
      00FF5DE1H   LINE      CODE     ---       #404
      00FF5DE3H   LINE      CODE     ---       #406
      00FF5DECH   LINE      CODE     ---       #407
      00FF5DFCH   LINE      CODE     ---       #408
      ---         BLOCKEND  ---      ---       LVL=0
      R11         REGSYM    ---      BYTE      reg
      R7          REGSYM    ---      BYTE      dat
      R3          REGSYM    ---      BYTE      reg
      REG=1       REGSYM    ---      ---       dat
      DR28        REGSYM    ---      DWORD     len

      00FF6140H   BLOCK     CODE     ---       LVL=0
      R7          REGSYM    ---      BYTE      reg
      0000097FH   SYMBOL    EDATA    ---       dat
      00FF6140H   LINE      CODE     ---       #449
      00FF6140H   LINE      CODE     ---       #450
      00FF6140H   LINE      CODE     ---       #452
      00FF6142H   LINE      CODE     ---       #453
      00FF614FH   LINE      CODE     ---       #454
      00FF6151H   LINE      CODE     ---       #455
      00FF6155H   LINE      CODE     ---       #456
      ---         BLOCKEND  ---      ---       LVL=0
      R3          REGSYM    ---      BYTE      reg
      REG=1       REGSYM    ---      ---       dat
      DR28        REGSYM    ---      DWORD     len
      R14         REGSYM    ---      BYTE      dat
      R15         REGSYM    ---      BYTE      return_state
      WR12        REGSYM    ---      WORD      timeout_count
      WR8         REGSYM    ---      INT       acc_value
      DR4         REGSYM    ---      FLOAT     acc_dat
      WR8         REGSYM    ---      INT       gyro_value
      DR4         REGSYM    ---      FLOAT     gyro_dat
      R15         REGSYM    ---      BYTE      return_state

      ---         MODULE    ---      ---       SEEKFREE_IMU963RA
      00000911H   PUBLIC    EDATA    INT       imu963ra_acc_x
      00000913H   PUBLIC    EDATA    INT       imu963ra_acc_y
      00000915H   PUBLIC    EDATA    INT       imu963ra_acc_z
      00000917H   PUBLIC    EDATA    INT       imu963ra_mag_x
      00000919H   PUBLIC    EDATA    INT       imu963ra_mag_y
      0000091BH   PUBLIC    EDATA    INT       imu963ra_mag_z
      0000091DH   PUBLIC    EDATA    INT       imu963ra_gyro_x
      0000091FH   PUBLIC    EDATA    INT       imu963ra_gyro_y
      00000921H   PUBLIC    EDATA    INT       imu963ra_gyro_z
      000000D0H   SFRSYM    DATA     BYTE      PSW
      0000009DH   SFRSYM    DATA     BYTE      IRCBAND
      00000097H   SFRSYM    DATA     BYTE      AUXR2
      000000EFH   SFRSYM    DATA     BYTE      AUXINTIF
      000000FDH   SFRSYM    DATA     BYTE      S4CON
      000000ACH   SFRSYM    DATA     BYTE      S3CON
      0000009AH   SFRSYM    DATA     BYTE      S2CON
      000000B7H   SFRSYM    DATA     BYTE      IPH
      000000CDH   SFRSYM    DATA     BYTE      SPSTAT
      000000DDH   SFRSYM    DATA     BYTE      T4T3M
      000000C1H   SFRSYM    DATA     BYTE      WDT_CONTR
      000000DFH   SFRSYM    DATA     BYTE      IP3
L251 LINKER/LOCATER V4.66.93.0                                                        05/09/2023  22:12:16  PAGE 62


      000000F4H   SFRSYM    DATA     BYTE      USBCON
      000000B5H   SFRSYM    DATA     BYTE      IP2
      000000FFH   SFRSYM    DATA     BYTE      RSTCFG
      000000F9H   SFRSYM    DATA     BYTE      LINICR
      0000008EH   SFRSYM    DATA     BYTE      AUXR
      000000AFH   SFRSYM    DATA     BYTE      IE2
      000000C0H.4 SFRSYM    DATA     BIT       P44
      000000C0H.3 SFRSYM    DATA     BIT       P43
      000000C0H.2 SFRSYM    DATA     BIT       P42
      00000088H   SFRSYM    DATA     BYTE      TCON
      000000C0H.1 SFRSYM    DATA     BIT       P41
      00000098H   SFRSYM    DATA     BYTE      SCON
      000000F1H   SFRSYM    DATA     BYTE      CANICR
      00000087H   SFRSYM    DATA     BYTE      PCON
      000000BCH   SFRSYM    DATA     BYTE      ADC_CONTR
      000000E7H   SFRSYM    DATA     BYTE      CMPCR2
      000000E6H   SFRSYM    DATA     BYTE      CMPCR1
      000000B8H   SFRSYM    DATA     BYTE      IP
      0000008FH   SFRSYM    DATA     BYTE      INTCLKO
      000000EEH   SFRSYM    DATA     BYTE      IP3H
      000000B6H   SFRSYM    DATA     BYTE      IP2H
      000000A8H   SFRSYM    DATA     BYTE      IE
      000000BBH   SFRSYM    DATA     BYTE      P_SW3
      000000BAH   SFRSYM    DATA     BYTE      P_SW2
      000000A2H   SFRSYM    DATA     BYTE      P_SW1
      000000CEH   SFRSYM    DATA     BYTE      SPCTL
      000000F8H   SFRSYM    DATA     BYTE      P7
      000000E8H   SFRSYM    DATA     BYTE      P6
      000000C8H   SFRSYM    DATA     BYTE      P5
      000000C0H   SFRSYM    DATA     BYTE      P4
      000000B0H   SFRSYM    DATA     BYTE      P3
      000000A0H   SFRSYM    DATA     BYTE      P2
      00000090H   SFRSYM    DATA     BYTE      P1
      00000080H   SFRSYM    DATA     BYTE      P0
      00FF5F94H   SYMBOL    CODE     ---       imu963ra_simspi_wr_byte
      00FF5874H   SYMBOL    CODE     ---       imu963ra_read_mag_register
      00FF6092H   SYMBOL    CODE     ---       imu963ra_read_acc_gyro_register
      00FF0066H   SYMBOL    CODE     ---       imu963ra_simspi_r_reg_byte
      00FF6257H   SYMBOL    CODE     ---       imu963ra_write_acc_gyro_register
      00FF6180H   SYMBOL    CODE     ---       imu963ra_simspi_w_reg_byte

      00FF5F94H   BLOCK     CODE     ---       LVL=0
      R6          REGSYM    ---      BYTE      byte
      00FF5F96H   BLOCK     CODE     NEAR LAB  LVL=1
      R7          REGSYM    ---      BYTE      i
      ---         BLOCKEND  ---      ---       LVL=1
      00FF5F94H   LINE      CODE     ---       #361
      00FF5F96H   LINE      CODE     ---       #362
      00FF5F96H   LINE      CODE     ---       #365
      00FF5F98H   LINE      CODE     ---       #367
      00FF5F9DH   LINE      CODE     ---       #368
      00FF5F9FH   LINE      CODE     ---       #369
      00FF5FA1H   LINE      CODE     ---       #370
      00FF5FA3H   LINE      CODE     ---       #372
      00FF5FA5H   LINE      CODE     ---       #373
      00FF5FA7H   LINE      CODE     ---       #374
      00FF5FADH   LINE      CODE     ---       #375
      00FF5FB4H   LINE      CODE     ---       #376
      00FF5FB6H   LINE      CODE     ---       #377
      ---         BLOCKEND  ---      ---       LVL=0

      00FF6180H   BLOCK     CODE     ---       LVL=0
      R7          REGSYM    ---      BYTE      cmd
      R15         REGSYM    ---      BYTE      val
      00FF6180H   LINE      CODE     ---       #385
L251 LINKER/LOCATER V4.66.93.0                                                        05/09/2023  22:12:16  PAGE 63


      00FF6184H   LINE      CODE     ---       #387
      00FF6186H   LINE      CODE     ---       #388
      00FF6186H   LINE      CODE     ---       #389
      00FF6189H   LINE      CODE     ---       #390
      00FF618EH   LINE      CODE     ---       #391
      00FF6190H   LINE      CODE     ---       #392
      ---         BLOCKEND  ---      ---       LVL=0

      00FF0066H   BLOCK     CODE     ---       LVL=0
      R7          REGSYM    ---      BYTE      cmd
      REG=3       REGSYM    ---      ---       val
      00FF0066H   LINE      CODE     ---       #423
      00FF006CH   LINE      CODE     ---       #425
      00FF006EH   LINE      CODE     ---       #426
      00FF0071H   LINE      CODE     ---       #427
      00FF0076H   LINE      CODE     ---       #428
      00FF007DH   LINE      CODE     ---       #429
      00FF007FH   LINE      CODE     ---       #430
      ---         BLOCKEND  ---      ---       LVL=0
      R7          REGSYM    ---      BYTE      cmd
      REG=3       REGSYM    ---      ---       val

      00FF6257H   BLOCK     CODE     ---       LVL=0
      R11         REGSYM    ---      BYTE      reg
      R7          REGSYM    ---      BYTE      dat
      00FF6257H   LINE      CODE     ---       #462
      00FF6257H   LINE      CODE     ---       #464
      00FF6259H   LINE      CODE     ---       #465
      00FF625CH   LINE      CODE     ---       #467
      00FF625EH   LINE      CODE     ---       #468
      ---         BLOCKEND  ---      ---       LVL=0

      00FF6092H   BLOCK     CODE     ---       LVL=0
      R10         REGSYM    ---      BYTE      reg
      00FF6094H   BLOCK     CODE     NEAR LAB  LVL=1
      00000986H   SYMBOL    EDATA    BYTE      dat
      ---         BLOCKEND  ---      ---       LVL=1
      00FF6092H   LINE      CODE     ---       #477
      00FF6094H   LINE      CODE     ---       #478
      00FF6094H   LINE      CODE     ---       #479
      00FF6099H   LINE      CODE     ---       #480
      00FF609BH   LINE      CODE     ---       #481
      00FF60A6H   LINE      CODE     ---       #482
      00FF60A8H   LINE      CODE     ---       #483
      00FF60ACH   LINE      CODE     ---       #484
      ---         BLOCKEND  ---      ---       LVL=0
      R3          REGSYM    ---      BYTE      reg
      REG=1       REGSYM    ---      ---       dat
      DR28        REGSYM    ---      DWORD     len
      R15         REGSYM    ---      BYTE      addr
      R13         REGSYM    ---      BYTE      reg
      R14         REGSYM    ---      BYTE      dat
      R12         REGSYM    ---      BYTE      return_state

      00FF5874H   BLOCK     CODE     ---       LVL=0
      R10         REGSYM    ---      BYTE      addr
      R15         REGSYM    ---      BYTE      reg
      00FF587CH   BLOCK     CODE     NEAR LAB  LVL=1
      WR12        REGSYM    ---      WORD      timeout_count
      ---         BLOCKEND  ---      ---       LVL=1
      00FF5874H   LINE      CODE     ---       #546
      00FF587CH   LINE      CODE     ---       #547
      00FF587CH   LINE      CODE     ---       #548
      00FF587EH   LINE      CODE     ---       #550
      00FF5880H   LINE      CODE     ---       #551
L251 LINKER/LOCATER V4.66.93.0                                                        05/09/2023  22:12:16  PAGE 64


      00FF588AH   LINE      CODE     ---       #552
      00FF5891H   LINE      CODE     ---       #553
      00FF5899H   LINE      CODE     ---       #554
      00FF58A1H   LINE      CODE     ---       #557
      00FF58A3H   LINE      CODE     ---       #559
      00FF58ADH   LINE      CODE     ---       #561
      00FF58ADH   LINE      CODE     ---       #562
      00FF58ADH   LINE      CODE     ---       #563
      00FF58B4H   LINE      CODE     ---       #564
      00FF58BCH   LINE      CODE     ---       #566
      00FF58C1H   LINE      CODE     ---       #567
      ---         BLOCKEND  ---      ---       LVL=0
      R10         REGSYM    ---      BYTE      addr
      R15         REGSYM    ---      BYTE      reg
      R15         REGSYM    ---      BYTE      return_state
      R14         REGSYM    ---      BYTE      dat
      WR12        REGSYM    ---      WORD      timeout_count
      R15         REGSYM    ---      BYTE      return_state
      R14         REGSYM    ---      BYTE      dat
      WR12        REGSYM    ---      WORD      timeout_count
      R11         REGSYM    ---      BYTE      temp_status
      WR8         REGSYM    ---      INT       mag_value
      DR4         REGSYM    ---      FLOAT     mag_dat
      R15         REGSYM    ---      BYTE      return_state

      ---         MODULE    ---      ---       SEEKFREE_IPS114_SPI
      00FF6037H   PUBLIC    CODE     ---       ips114_writedata_16bit
      00FF5E89H   PUBLIC    CODE     ---       ips114_writeDatai_16bit_simspi
      00FF5EB5H   PUBLIC    CODE     ---       ips114_writeIndex_simspi
      00FF624DH   PUBLIC    CODE     ---       ips114_writeIndex
      000000D0H   SFRSYM    DATA     BYTE      PSW
      0000009DH   SFRSYM    DATA     BYTE      IRCBAND
      00000097H   SFRSYM    DATA     BYTE      AUXR2
      000000EFH   SFRSYM    DATA     BYTE      AUXINTIF
      000000FDH   SFRSYM    DATA     BYTE      S4CON
      000000ACH   SFRSYM    DATA     BYTE      S3CON
      0000009AH   SFRSYM    DATA     BYTE      S2CON
      000000B7H   SFRSYM    DATA     BYTE      IPH
      000000CDH   SFRSYM    DATA     BYTE      SPSTAT
      000000DDH   SFRSYM    DATA     BYTE      T4T3M
      000000C1H   SFRSYM    DATA     BYTE      WDT_CONTR
      000000DFH   SFRSYM    DATA     BYTE      IP3
      000000F4H   SFRSYM    DATA     BYTE      USBCON
      000000B5H   SFRSYM    DATA     BYTE      IP2
      000000FFH   SFRSYM    DATA     BYTE      RSTCFG
      000000F9H   SFRSYM    DATA     BYTE      LINICR
      0000008EH   SFRSYM    DATA     BYTE      AUXR
      000000AFH   SFRSYM    DATA     BYTE      IE2
      000000A0H.7 SFRSYM    DATA     BIT       P27
      000000A0H.5 SFRSYM    DATA     BIT       P25
      00000088H   SFRSYM    DATA     BYTE      TCON
      000000A0H.3 SFRSYM    DATA     BIT       P23
      00000098H   SFRSYM    DATA     BYTE      SCON
      000000A0H.2 SFRSYM    DATA     BIT       P22
      000000A0H.1 SFRSYM    DATA     BIT       P21
      000000A0H.0 SFRSYM    DATA     BIT       P20
      000000F1H   SFRSYM    DATA     BYTE      CANICR
      00000087H   SFRSYM    DATA     BYTE      PCON
      000000BCH   SFRSYM    DATA     BYTE      ADC_CONTR
      000000E7H   SFRSYM    DATA     BYTE      CMPCR2
      000000E6H   SFRSYM    DATA     BYTE      CMPCR1
      000000B8H   SFRSYM    DATA     BYTE      IP
      0000008FH   SFRSYM    DATA     BYTE      INTCLKO
      000000EEH   SFRSYM    DATA     BYTE      IP3H
      000000B6H   SFRSYM    DATA     BYTE      IP2H
L251 LINKER/LOCATER V4.66.93.0                                                        05/09/2023  22:12:16  PAGE 65


      000000A8H   SFRSYM    DATA     BYTE      IE
      000000BBH   SFRSYM    DATA     BYTE      P_SW3
      000000BAH   SFRSYM    DATA     BYTE      P_SW2
      000000A2H   SFRSYM    DATA     BYTE      P_SW1
      000000CEH   SFRSYM    DATA     BYTE      SPCTL
      000000F8H   SFRSYM    DATA     BYTE      P7
      000000E8H   SFRSYM    DATA     BYTE      P6
      000000C8H   SFRSYM    DATA     BYTE      P5
      000000C0H   SFRSYM    DATA     BYTE      P4
      000000B0H   SFRSYM    DATA     BYTE      P3
      000000A0H   SFRSYM    DATA     BYTE      P2
      00000090H   SFRSYM    DATA     BYTE      P1
      00000080H   SFRSYM    DATA     BYTE      P0

      00FF5EB5H   BLOCK     CODE     ---       LVL=0
      R7          REGSYM    ---      BYTE      dat
      00FF5EB7H   BLOCK     CODE     NEAR LAB  LVL=1
      R6          REGSYM    ---      BYTE      i
      ---         BLOCKEND  ---      ---       LVL=1
      00FF5EB5H   LINE      CODE     ---       #61
      00FF5EB7H   LINE      CODE     ---       #62
      00FF5EB7H   LINE      CODE     ---       #63
      00FF5EBAH   LINE      CODE     ---       #64
      00FF5EBCH   LINE      CODE     ---       #65
      00FF5EBEH   LINE      CODE     ---       #67
      00FF5EC0H   LINE      CODE     ---       #69
      00FF5EC2H   LINE      CODE     ---       #71
      00FF5ECBH   LINE      CODE     ---       #72
      00FF5ECDH   LINE      CODE     ---       #73
      00FF5ECFH   LINE      CODE     ---       #75
      00FF5ED1H   LINE      CODE     ---       #76
      00FF5ED3H   LINE      CODE     ---       #77
      00FF5EDBH   LINE      CODE     ---       #78
      00FF5EDDH   LINE      CODE     ---       #79
      ---         BLOCKEND  ---      ---       LVL=0
      R7          REGSYM    ---      BYTE      dat
      R6          REGSYM    ---      BYTE      i

      00FF5E89H   BLOCK     CODE     ---       LVL=0
      WR4         REGSYM    ---      WORD      dat
      00FF5E8BH   BLOCK     CODE     NEAR LAB  LVL=1
      R10         REGSYM    ---      BYTE      i
      ---         BLOCKEND  ---      ---       LVL=1
      00FF5E89H   LINE      CODE     ---       #115
      00FF5E8BH   LINE      CODE     ---       #116
      00FF5E8BH   LINE      CODE     ---       #117
      00FF5E8EH   LINE      CODE     ---       #118
      00FF5E90H   LINE      CODE     ---       #119
      00FF5E92H   LINE      CODE     ---       #120
      00FF5E94H   LINE      CODE     ---       #121
      00FF5E96H   LINE      CODE     ---       #123
      00FF5EA2H   LINE      CODE     ---       #124
      00FF5EA4H   LINE      CODE     ---       #125
      00FF5EA6H   LINE      CODE     ---       #127
      00FF5EA8H   LINE      CODE     ---       #128
      00FF5EAAH   LINE      CODE     ---       #129
      00FF5EB2H   LINE      CODE     ---       #130
      00FF5EB4H   LINE      CODE     ---       #131
      ---         BLOCKEND  ---      ---       LVL=0
      WR12        REGSYM    ---      WORD      x2
      WR14        REGSYM    ---      WORD      y2
      WR14        REGSYM    ---      WORD      color
      R13         REGSYM    ---      BYTE      i
      WR2         REGSYM    ---      WORD      x
      WR0         REGSYM    ---      WORD      y
L251 LINKER/LOCATER V4.66.93.0                                                        05/09/2023  22:12:16  PAGE 66


      WR14        REGSYM    ---      WORD      color
      WR12        REGSYM    ---      WORD      x
      WR14        REGSYM    ---      WORD      y
      REG=3       REGSYM    ---      ---       dat
      WR12        REGSYM    ---      WORD      x
      WR14        REGSYM    ---      WORD      y
      WR12        REGSYM    ---      WORD      x
      WR14        REGSYM    ---      WORD      y
      R10         REGSYM    ---      BYTE      dat
      WR12        REGSYM    ---      WORD      x
      WR14        REGSYM    ---      WORD      y
      WR12        REGSYM    ---      WORD      x
      WR14        REGSYM    ---      WORD      y
      WR2         REGSYM    ---      WORD      dat
      WR12        REGSYM    ---      WORD      y
      R15         REGSYM    ---      BYTE      num
      R14         REGSYM    ---      BYTE      length
      DR12        REGSYM    ---      FLOAT     dat
      R7          REGSYM    ---      CHAR      point

      00FF624DH   BLOCK     CODE     ---       LVL=0
      R7          REGSYM    ---      BYTE      dat
      00FF624DH   LINE      CODE     ---       #594
      00FF624DH   LINE      CODE     ---       #596
      00FF624FH   LINE      CODE     ---       #597
      00FF6251H   LINE      CODE     ---       #599
      00FF6254H   LINE      CODE     ---       #600
      00FF6256H   LINE      CODE     ---       #601
      ---         BLOCKEND  ---      ---       LVL=0
      R7          REGSYM    ---      BYTE      dat

      00FF6037H   BLOCK     CODE     ---       LVL=0
      WR4         REGSYM    ---      WORD      dat
      00FF6039H   BLOCK     CODE     NEAR LAB  LVL=1
      00000981H   SYMBOL    EDATA    ---       dat1
      ---         BLOCKEND  ---      ---       LVL=1
      00FF6037H   LINE      CODE     ---       #626
      00FF6039H   LINE      CODE     ---       #627
      00FF6039H   LINE      CODE     ---       #629
      00FF603DH   LINE      CODE     ---       #630
      00FF6041H   LINE      CODE     ---       #631
      00FF6043H   LINE      CODE     ---       #632
      00FF6045H   LINE      CODE     ---       #633
      00FF604CH   LINE      CODE     ---       #634
      00FF6053H   LINE      CODE     ---       #635
      00FF6055H   LINE      CODE     ---       #636
      ---         BLOCKEND  ---      ---       LVL=0
      WR12        REGSYM    ---      WORD      x2
      WR14        REGSYM    ---      WORD      y2
      WR14        REGSYM    ---      WORD      color
      R13         REGSYM    ---      BYTE      i
      WR2         REGSYM    ---      WORD      x
      WR0         REGSYM    ---      WORD      y
      WR14        REGSYM    ---      WORD      color
      WR12        REGSYM    ---      WORD      x
      WR14        REGSYM    ---      WORD      y
      REG=3       REGSYM    ---      ---       dat
      WR12        REGSYM    ---      WORD      x
      WR14        REGSYM    ---      WORD      y
      WR12        REGSYM    ---      WORD      x
      WR14        REGSYM    ---      WORD      y
      R10         REGSYM    ---      BYTE      dat
      WR12        REGSYM    ---      WORD      x
      WR14        REGSYM    ---      WORD      y
      WR12        REGSYM    ---      WORD      x
L251 LINKER/LOCATER V4.66.93.0                                                        05/09/2023  22:12:16  PAGE 67


      WR14        REGSYM    ---      WORD      y
      WR2         REGSYM    ---      WORD      dat
      WR12        REGSYM    ---      WORD      y
      R15         REGSYM    ---      BYTE      num
      R14         REGSYM    ---      BYTE      length
      DR12        REGSYM    ---      FLOAT     dat
      R7          REGSYM    ---      CHAR      point

      ---         MODULE    ---      ---       SEEKFREE_MPU6050
      0000093BH   PUBLIC    EDATA    INT       mpu6050_acc_x
      0000093DH   PUBLIC    EDATA    INT       mpu6050_acc_y
      0000093FH   PUBLIC    EDATA    INT       mpu6050_acc_z
      00000941H   PUBLIC    EDATA    INT       mpu6050_gyro_x
      00000943H   PUBLIC    EDATA    INT       mpu6050_gyro_y
      00000945H   PUBLIC    EDATA    INT       mpu6050_gyro_z
      000000D0H   SFRSYM    DATA     BYTE      PSW
      0000009DH   SFRSYM    DATA     BYTE      IRCBAND
      00000097H   SFRSYM    DATA     BYTE      AUXR2
      000000EFH   SFRSYM    DATA     BYTE      AUXINTIF
      000000FDH   SFRSYM    DATA     BYTE      S4CON
      000000ACH   SFRSYM    DATA     BYTE      S3CON
      0000009AH   SFRSYM    DATA     BYTE      S2CON
      000000B7H   SFRSYM    DATA     BYTE      IPH
      000000CDH   SFRSYM    DATA     BYTE      SPSTAT
      000000DDH   SFRSYM    DATA     BYTE      T4T3M
      000000C1H   SFRSYM    DATA     BYTE      WDT_CONTR
      000000DFH   SFRSYM    DATA     BYTE      IP3
      000000F4H   SFRSYM    DATA     BYTE      USBCON
      000000B5H   SFRSYM    DATA     BYTE      IP2
      000000FFH   SFRSYM    DATA     BYTE      RSTCFG
      000000F9H   SFRSYM    DATA     BYTE      LINICR
      0000008EH   SFRSYM    DATA     BYTE      AUXR
      000000AFH   SFRSYM    DATA     BYTE      IE2
      00000088H   SFRSYM    DATA     BYTE      TCON
      000000C0H.1 SFRSYM    DATA     BIT       P41
      00000098H   SFRSYM    DATA     BYTE      SCON
      000000C0H.0 SFRSYM    DATA     BIT       P40
      000000F1H   SFRSYM    DATA     BYTE      CANICR
      00000087H   SFRSYM    DATA     BYTE      PCON
      000000BCH   SFRSYM    DATA     BYTE      ADC_CONTR
      000000E7H   SFRSYM    DATA     BYTE      CMPCR2
      000000E6H   SFRSYM    DATA     BYTE      CMPCR1
      000000B8H   SFRSYM    DATA     BYTE      IP
      0000008FH   SFRSYM    DATA     BYTE      INTCLKO
      000000EEH   SFRSYM    DATA     BYTE      IP3H
      000000B6H   SFRSYM    DATA     BYTE      IP2H
      000000A8H   SFRSYM    DATA     BYTE      IE
      000000BBH   SFRSYM    DATA     BYTE      P_SW3
      000000BAH   SFRSYM    DATA     BYTE      P_SW2
      000000A2H   SFRSYM    DATA     BYTE      P_SW1
      000000CEH   SFRSYM    DATA     BYTE      SPCTL
      000000F8H   SFRSYM    DATA     BYTE      P7
      000000E8H   SFRSYM    DATA     BYTE      P6
      000000C8H   SFRSYM    DATA     BYTE      P5
      000000C0H   SFRSYM    DATA     BYTE      P4
      000000B0H   SFRSYM    DATA     BYTE      P3
      000000A0H   SFRSYM    DATA     BYTE      P2
      00000090H   SFRSYM    DATA     BYTE      P1
      00000080H   SFRSYM    DATA     BYTE      P0
      00FF620AH   SYMBOL    CODE     ---       mpu6050_simiic_start
      00FF61DAH   SYMBOL    CODE     ---       mpu6050_simiic_stop
      00FF5FF7H   SYMBOL    CODE     ---       mpu6050_simiic_sendack
      00FF6242H   SYMBOL    CODE     ---       mpu6050_simiic_delay

      00FF6242H   BLOCK     CODE     ---       LVL=0
L251 LINKER/LOCATER V4.66.93.0                                                        05/09/2023  22:12:16  PAGE 68


      WR6         REGSYM    ---      WORD      j
      00FF6242H   LINE      CODE     ---       #52
      00FF6242H   LINE      CODE     ---       #53
      00FF6242H   LINE      CODE     ---       #54
      00FF6244H   LINE      CODE     ---       #55
      00FF624CH   LINE      CODE     ---       #56
      ---         BLOCKEND  ---      ---       LVL=0

      00FF620AH   BLOCK     CODE     ---       LVL=0
      00FF620AH   LINE      CODE     ---       #59
      00FF620AH   LINE      CODE     ---       #61
      00FF620CH   LINE      CODE     ---       #62
      00FF620EH   LINE      CODE     ---       #63
      00FF6211H   LINE      CODE     ---       #64
      00FF6213H   LINE      CODE     ---       #65
      00FF6216H   LINE      CODE     ---       #66
      00FF6218H   LINE      CODE     ---       #67
      ---         BLOCKEND  ---      ---       LVL=0

      00FF61DAH   BLOCK     CODE     ---       LVL=0
      00FF61DAH   LINE      CODE     ---       #70
      00FF61DAH   LINE      CODE     ---       #72
      00FF61DCH   LINE      CODE     ---       #73
      00FF61DEH   LINE      CODE     ---       #74
      00FF61E1H   LINE      CODE     ---       #75
      00FF61E3H   LINE      CODE     ---       #76
      00FF61E6H   LINE      CODE     ---       #77
      00FF61E8H   LINE      CODE     ---       #78
      ---         BLOCKEND  ---      ---       LVL=0

      00FF5FF7H   BLOCK     CODE     ---       LVL=0
      R15         REGSYM    ---      BYTE      ack_dat
      00FF5FF7H   LINE      CODE     ---       #83
      00FF5FFBH   LINE      CODE     ---       #85
      00FF5FFDH   LINE      CODE     ---       #86
      00FF6000H   LINE      CODE     ---       #87
      00FF6008H   LINE      CODE     ---       #88
      00FF600AH   LINE      CODE     ---       #90
      00FF600CH   LINE      CODE     ---       #91
      00FF600FH   LINE      CODE     ---       #92
      00FF6011H   LINE      CODE     ---       #93
      00FF6014H   LINE      CODE     ---       #94
      ---         BLOCKEND  ---      ---       LVL=0
      R15         REGSYM    ---      BYTE      c
      R14         REGSYM    ---      BYTE      i
      R15         REGSYM    ---      BYTE      ack_x
      R13         REGSYM    ---      BYTE      i
      R14         REGSYM    ---      BYTE      c
      R13         REGSYM    ---      BYTE      dev_add
      R14         REGSYM    ---      BYTE      reg
      R15         REGSYM    ---      BYTE      dat
      R15         REGSYM    ---      BYTE      dev_add
      R14         REGSYM    ---      BYTE      reg
      R15         REGSYM    ---      BYTE      dat
      REG=3       REGSYM    ---      ---       dat_add

      ---         MODULE    ---      ---       SEEKFREE_PRINTF
      000000D0H   SFRSYM    DATA     BYTE      PSW
      0000009DH   SFRSYM    DATA     BYTE      IRCBAND
      00000097H   SFRSYM    DATA     BYTE      AUXR2
      000000EFH   SFRSYM    DATA     BYTE      AUXINTIF
      000000FDH   SFRSYM    DATA     BYTE      S4CON
      000000ACH   SFRSYM    DATA     BYTE      S3CON
      0000009AH   SFRSYM    DATA     BYTE      S2CON
      000000B7H   SFRSYM    DATA     BYTE      IPH
L251 LINKER/LOCATER V4.66.93.0                                                        05/09/2023  22:12:16  PAGE 69


      000000CDH   SFRSYM    DATA     BYTE      SPSTAT
      000000DDH   SFRSYM    DATA     BYTE      T4T3M
      000000C1H   SFRSYM    DATA     BYTE      WDT_CONTR
      000000DFH   SFRSYM    DATA     BYTE      IP3
      000000F4H   SFRSYM    DATA     BYTE      USBCON
      000000B5H   SFRSYM    DATA     BYTE      IP2
      000000FFH   SFRSYM    DATA     BYTE      RSTCFG
      000000F9H   SFRSYM    DATA     BYTE      LINICR
      0000008EH   SFRSYM    DATA     BYTE      AUXR
      000000AFH   SFRSYM    DATA     BYTE      IE2
      00000088H   SFRSYM    DATA     BYTE      TCON
      00000098H   SFRSYM    DATA     BYTE      SCON
      000000F1H   SFRSYM    DATA     BYTE      CANICR
      00000087H   SFRSYM    DATA     BYTE      PCON
      000000BCH   SFRSYM    DATA     BYTE      ADC_CONTR
      000000E7H   SFRSYM    DATA     BYTE      CMPCR2
      000000E6H   SFRSYM    DATA     BYTE      CMPCR1
      000000B8H   SFRSYM    DATA     BYTE      IP
      0000008FH   SFRSYM    DATA     BYTE      INTCLKO
      000000EEH   SFRSYM    DATA     BYTE      IP3H
      000000B6H   SFRSYM    DATA     BYTE      IP2H
      000000A8H   SFRSYM    DATA     BYTE      IE
      000000BBH   SFRSYM    DATA     BYTE      P_SW3
      000000BAH   SFRSYM    DATA     BYTE      P_SW2
      000000A2H   SFRSYM    DATA     BYTE      P_SW1
      000000CEH   SFRSYM    DATA     BYTE      SPCTL
      000000F8H   SFRSYM    DATA     BYTE      P7
      000000E8H   SFRSYM    DATA     BYTE      P6
      000000C8H   SFRSYM    DATA     BYTE      P5
      000000C0H   SFRSYM    DATA     BYTE      P4
      000000B0H   SFRSYM    DATA     BYTE      P3
      000000A0H   SFRSYM    DATA     BYTE      P2
      00000090H   SFRSYM    DATA     BYTE      P1
      00000080H   SFRSYM    DATA     BYTE      P0
      DR24        REGSYM    ---      DWORD     dat
      REG=7       REGSYM    ---      ---       p
      R10         REGSYM    ---      BYTE      neg_type
      DR20        REGSYM    ---      LONG      neg_dat
      DR24        REGSYM    ---      DWORD     pos_dat
      R14         REGSYM    ---      BYTE      temp_data
      R15         REGSYM    ---      BYTE      valid_num
      REG=7       REGSYM    ---      ---       d_buff
      DR24        REGSYM    ---      DWORD     len
      DR4         REGSYM    ---      DWORD     i
      R3          REGSYM    ---      CHAR      temp_data
      REG=3       REGSYM    ---      ---       buff

      ---         MODULE    ---      ---       SEEKFREE_TSL1401
      000003C9H   PUBLIC    EDATA    BYTE      tsl1401_finish_flag
      000003CAH   PUBLIC    EDATA    ---       ccd_data
      000000D0H   SFRSYM    DATA     BYTE      PSW
      0000009DH   SFRSYM    DATA     BYTE      IRCBAND
      00000097H   SFRSYM    DATA     BYTE      AUXR2
      000000EFH   SFRSYM    DATA     BYTE      AUXINTIF
      000000FDH   SFRSYM    DATA     BYTE      S4CON
      000000ACH   SFRSYM    DATA     BYTE      S3CON
      0000009AH   SFRSYM    DATA     BYTE      S2CON
      000000B7H   SFRSYM    DATA     BYTE      IPH
      000000CDH   SFRSYM    DATA     BYTE      SPSTAT
      000000DDH   SFRSYM    DATA     BYTE      T4T3M
      000000C1H   SFRSYM    DATA     BYTE      WDT_CONTR
      000000DFH   SFRSYM    DATA     BYTE      IP3
      000000F4H   SFRSYM    DATA     BYTE      USBCON
      000000B5H   SFRSYM    DATA     BYTE      IP2
      000000FFH   SFRSYM    DATA     BYTE      RSTCFG
L251 LINKER/LOCATER V4.66.93.0                                                        05/09/2023  22:12:16  PAGE 70


      000000F9H   SFRSYM    DATA     BYTE      LINICR
      0000008EH   SFRSYM    DATA     BYTE      AUXR
      000000AFH   SFRSYM    DATA     BYTE      IE2
      000000B0H.3 SFRSYM    DATA     BIT       P33
      00000088H   SFRSYM    DATA     BYTE      TCON
      000000B0H.2 SFRSYM    DATA     BIT       P32
      00000098H   SFRSYM    DATA     BYTE      SCON
      000000F1H   SFRSYM    DATA     BYTE      CANICR
      00000087H   SFRSYM    DATA     BYTE      PCON
      000000BCH   SFRSYM    DATA     BYTE      ADC_CONTR
      000000E7H   SFRSYM    DATA     BYTE      CMPCR2
      000000E6H   SFRSYM    DATA     BYTE      CMPCR1
      000000B8H   SFRSYM    DATA     BYTE      IP
      0000008FH   SFRSYM    DATA     BYTE      INTCLKO
      000000EEH   SFRSYM    DATA     BYTE      IP3H
      000000B6H   SFRSYM    DATA     BYTE      IP2H
      000000A8H   SFRSYM    DATA     BYTE      IE
      000000BBH   SFRSYM    DATA     BYTE      P_SW3
      000000BAH   SFRSYM    DATA     BYTE      P_SW2
      000000A2H   SFRSYM    DATA     BYTE      P_SW1
      000000CEH   SFRSYM    DATA     BYTE      SPCTL
      000000F8H   SFRSYM    DATA     BYTE      P7
      000000E8H   SFRSYM    DATA     BYTE      P6
      000000C8H   SFRSYM    DATA     BYTE      P5
      000000C0H   SFRSYM    DATA     BYTE      P4
      000000B0H   SFRSYM    DATA     BYTE      P3
      000000A0H   SFRSYM    DATA     BYTE      P2
      00000090H   SFRSYM    DATA     BYTE      P1
      00000080H   SFRSYM    DATA     BYTE      P0
      REG=3       REGSYM    ---      ---       dat
      R15         REGSYM    ---      BYTE      i

      ---         MODULE    ---      ---       SEEKFREE_VIRSCO
      00000947H   PUBLIC    EDATA    ---       virtual_scope_data
      000000D0H   SFRSYM    DATA     BYTE      PSW
      0000009DH   SFRSYM    DATA     BYTE      IRCBAND
      00000097H   SFRSYM    DATA     BYTE      AUXR2
      000000EFH   SFRSYM    DATA     BYTE      AUXINTIF
      000000FDH   SFRSYM    DATA     BYTE      S4CON
      000000ACH   SFRSYM    DATA     BYTE      S3CON
      0000009AH   SFRSYM    DATA     BYTE      S2CON
      000000B7H   SFRSYM    DATA     BYTE      IPH
      000000CDH   SFRSYM    DATA     BYTE      SPSTAT
      000000DDH   SFRSYM    DATA     BYTE      T4T3M
      000000C1H   SFRSYM    DATA     BYTE      WDT_CONTR
      000000DFH   SFRSYM    DATA     BYTE      IP3
      000000F4H   SFRSYM    DATA     BYTE      USBCON
      000000B5H   SFRSYM    DATA     BYTE      IP2
      000000FFH   SFRSYM    DATA     BYTE      RSTCFG
      000000F9H   SFRSYM    DATA     BYTE      LINICR
      0000008EH   SFRSYM    DATA     BYTE      AUXR
      000000AFH   SFRSYM    DATA     BYTE      IE2
      00000088H   SFRSYM    DATA     BYTE      TCON
      00000098H   SFRSYM    DATA     BYTE      SCON
      000000F1H   SFRSYM    DATA     BYTE      CANICR
      00000087H   SFRSYM    DATA     BYTE      PCON
      000000BCH   SFRSYM    DATA     BYTE      ADC_CONTR
      000000E7H   SFRSYM    DATA     BYTE      CMPCR2
      000000E6H   SFRSYM    DATA     BYTE      CMPCR1
      000000B8H   SFRSYM    DATA     BYTE      IP
      0000008FH   SFRSYM    DATA     BYTE      INTCLKO
      000000EEH   SFRSYM    DATA     BYTE      IP3H
      000000B6H   SFRSYM    DATA     BYTE      IP2H
      000000A8H   SFRSYM    DATA     BYTE      IE
      000000BBH   SFRSYM    DATA     BYTE      P_SW3
L251 LINKER/LOCATER V4.66.93.0                                                        05/09/2023  22:12:16  PAGE 71


      000000BAH   SFRSYM    DATA     BYTE      P_SW2
      000000A2H   SFRSYM    DATA     BYTE      P_SW1
      000000CEH   SFRSYM    DATA     BYTE      SPCTL
      000000F8H   SFRSYM    DATA     BYTE      P7
      000000E8H   SFRSYM    DATA     BYTE      P6
      000000C8H   SFRSYM    DATA     BYTE      P5
      000000C0H   SFRSYM    DATA     BYTE      P4
      000000B0H   SFRSYM    DATA     BYTE      P3
      000000A0H   SFRSYM    DATA     BYTE      P2
      00000090H   SFRSYM    DATA     BYTE      P1
      00000080H   SFRSYM    DATA     BYTE      P0
      REG=7       REGSYM    ---      ---       Buf
      R10         REGSYM    ---      BYTE      CRC_CNT
      WR6         REGSYM    ---      WORD      CRC_Temp
      R5          REGSYM    ---      BYTE      i
      R4          REGSYM    ---      BYTE      j
      WR0         REGSYM    ---      INT       data1
      WR30        REGSYM    ---      INT       data2
      WR8         REGSYM    ---      INT       data3
      WR10        REGSYM    ---      INT       data4
      WR6         REGSYM    ---      WORD      CRC16

      ---         MODULE    ---      ---       SEEKFREE_WIRELESS
      00FF60DFH   PUBLIC    CODE     ---       wireless_uart_callback
      000000D0H   SFRSYM    DATA     BYTE      PSW
      0000009DH   SFRSYM    DATA     BYTE      IRCBAND
      00000097H   SFRSYM    DATA     BYTE      AUXR2
      000000EFH   SFRSYM    DATA     BYTE      AUXINTIF
      000000FDH   SFRSYM    DATA     BYTE      S4CON
      000000ACH   SFRSYM    DATA     BYTE      S3CON
      0000009AH   SFRSYM    DATA     BYTE      S2CON
      000000FEH   SFRSYM    DATA     BYTE      S4BUF
      000000B7H   SFRSYM    DATA     BYTE      IPH
      000000CDH   SFRSYM    DATA     BYTE      SPSTAT
      000000DDH   SFRSYM    DATA     BYTE      T4T3M
      000000C1H   SFRSYM    DATA     BYTE      WDT_CONTR
      000000DFH   SFRSYM    DATA     BYTE      IP3
      000000F4H   SFRSYM    DATA     BYTE      USBCON
      000000B5H   SFRSYM    DATA     BYTE      IP2
      000000FFH   SFRSYM    DATA     BYTE      RSTCFG
      000000F9H   SFRSYM    DATA     BYTE      LINICR
      0000008EH   SFRSYM    DATA     BYTE      AUXR
      000000AFH   SFRSYM    DATA     BYTE      IE2
      00000080H.7 SFRSYM    DATA     BIT       P07
      00000088H   SFRSYM    DATA     BYTE      TCON
      00000098H   SFRSYM    DATA     BYTE      SCON
      000000F1H   SFRSYM    DATA     BYTE      CANICR
      00000087H   SFRSYM    DATA     BYTE      PCON
      000000BCH   SFRSYM    DATA     BYTE      ADC_CONTR
      000000E7H   SFRSYM    DATA     BYTE      CMPCR2
      000000E6H   SFRSYM    DATA     BYTE      CMPCR1
      000000B8H   SFRSYM    DATA     BYTE      IP
      0000008FH   SFRSYM    DATA     BYTE      INTCLKO
      000000EEH   SFRSYM    DATA     BYTE      IP3H
      000000B6H   SFRSYM    DATA     BYTE      IP2H
      000000A8H   SFRSYM    DATA     BYTE      IE
      000000BBH   SFRSYM    DATA     BYTE      P_SW3
      000000BAH   SFRSYM    DATA     BYTE      P_SW2
      000000A2H   SFRSYM    DATA     BYTE      P_SW1
      000000CEH   SFRSYM    DATA     BYTE      SPCTL
      000000F8H   SFRSYM    DATA     BYTE      P7
      000000E8H   SFRSYM    DATA     BYTE      P6
      000000C8H   SFRSYM    DATA     BYTE      P5
      000000C0H   SFRSYM    DATA     BYTE      P4
      000000B0H   SFRSYM    DATA     BYTE      P3
L251 LINKER/LOCATER V4.66.93.0                                                        05/09/2023  22:12:16  PAGE 72


      000000A0H   SFRSYM    DATA     BYTE      P2
      00000090H   SFRSYM    DATA     BYTE      P1
      00000080H   SFRSYM    DATA     BYTE      P0
      00000867H   SYMBOL    EDATA    BYTE      wireless_uart_data
      00000868H   SYMBOL    EDATA    ---       wireless_uart_fifo
      0000087CH   SYMBOL    EDATA    ---       wireless_uart_buffer

      00FF60DFH   BLOCK     CODE     ---       LVL=0
      00FF60DFH   LINE      CODE     ---       #48
      00FF60DFH   LINE      CODE     ---       #51
      00FF60E5H   LINE      CODE     ---       #52
      ---         BLOCKEND  ---      ---       LVL=0
      REG=3       REGSYM    ---      ---       buff
      REG=7       REGSYM    ---      ---       buff
      DR8         REGSYM    ---      DWORD     len

      ---         MODULE    ---      ---       SEEKFREE_WIRELESS_CH573
      00FF60F8H   PUBLIC    CODE     ---       wireless_ch573_callback
      000000D0H   SFRSYM    DATA     BYTE      PSW
      0000009DH   SFRSYM    DATA     BYTE      IRCBAND
      00000097H   SFRSYM    DATA     BYTE      AUXR2
      000000EFH   SFRSYM    DATA     BYTE      AUXINTIF
      000000FDH   SFRSYM    DATA     BYTE      S4CON
      000000ACH   SFRSYM    DATA     BYTE      S3CON
      0000009AH   SFRSYM    DATA     BYTE      S2CON
      000000FEH   SFRSYM    DATA     BYTE      S4BUF
      000000B7H   SFRSYM    DATA     BYTE      IPH
      000000CDH   SFRSYM    DATA     BYTE      SPSTAT
      000000DDH   SFRSYM    DATA     BYTE      T4T3M
      000000C1H   SFRSYM    DATA     BYTE      WDT_CONTR
      000000DFH   SFRSYM    DATA     BYTE      IP3
      000000F4H   SFRSYM    DATA     BYTE      USBCON
      000000B5H   SFRSYM    DATA     BYTE      IP2
      000000FFH   SFRSYM    DATA     BYTE      RSTCFG
      000000F9H   SFRSYM    DATA     BYTE      LINICR
      0000008EH   SFRSYM    DATA     BYTE      AUXR
      000000AFH   SFRSYM    DATA     BYTE      IE2
      00000080H.7 SFRSYM    DATA     BIT       P07
      00000088H   SFRSYM    DATA     BYTE      TCON
      00000098H   SFRSYM    DATA     BYTE      SCON
      000000F1H   SFRSYM    DATA     BYTE      CANICR
      00000087H   SFRSYM    DATA     BYTE      PCON
      000000BCH   SFRSYM    DATA     BYTE      ADC_CONTR
      000000E7H   SFRSYM    DATA     BYTE      CMPCR2
      000000E6H   SFRSYM    DATA     BYTE      CMPCR1
      000000B8H   SFRSYM    DATA     BYTE      IP
      0000008FH   SFRSYM    DATA     BYTE      INTCLKO
      000000EEH   SFRSYM    DATA     BYTE      IP3H
      000000B6H   SFRSYM    DATA     BYTE      IP2H
      000000A8H   SFRSYM    DATA     BYTE      IE
      000000BBH   SFRSYM    DATA     BYTE      P_SW3
      000000BAH   SFRSYM    DATA     BYTE      P_SW2
      000000A2H   SFRSYM    DATA     BYTE      P_SW1
      000000CEH   SFRSYM    DATA     BYTE      SPCTL
      000000F8H   SFRSYM    DATA     BYTE      P7
      000000E8H   SFRSYM    DATA     BYTE      P6
      000000C8H   SFRSYM    DATA     BYTE      P5
      000000C0H   SFRSYM    DATA     BYTE      P4
      000000B0H   SFRSYM    DATA     BYTE      P3
      000000A0H   SFRSYM    DATA     BYTE      P2
      00000090H   SFRSYM    DATA     BYTE      P1
      00000080H   SFRSYM    DATA     BYTE      P0
      000008BCH   SYMBOL    EDATA    ---       wireless_ch573_buffer
      000008FCH   SYMBOL    EDATA    BYTE      wireless_ch573_data
      000008FDH   SYMBOL    EDATA    ---       wireless_ch573_fifo
L251 LINKER/LOCATER V4.66.93.0                                                        05/09/2023  22:12:16  PAGE 73



      00FF60F8H   BLOCK     CODE     ---       LVL=0
      00FF60F8H   LINE      CODE     ---       #39
      00FF60F8H   LINE      CODE     ---       #42
      00FF60FEH   LINE      CODE     ---       #43
      ---         BLOCKEND  ---      ---       LVL=0
      REG=3       REGSYM    ---      ---       buff
      REG=7       REGSYM    ---      ---       buff
      DR8         REGSYM    ---      DWORD     len

      ---         MODULE    ---      ---       isr
      00FF5C17H   PUBLIC    CODE     ---       UART1_Isr
      00FF6056H   PUBLIC    CODE     ---       UART2_Isr
      00FF6074H   PUBLIC    CODE     ---       UART3_Isr
      00FF54CFH   PUBLIC    CODE     ---       UART4_Isr
      00FF6287H   PUBLIC    CODE     ---       INT0_Isr
      00FF0011H   PUBLIC    CODE     ---       INT1_Isr
      00FF625FH   PUBLIC    CODE     ---       INT2_Isr
      00FF6267H   PUBLIC    CODE     ---       INT3_Isr
      00FF626FH   PUBLIC    CODE     ---       INT4_Isr
      00FF5ACFH   PUBLIC    CODE     ---       TM0_Isr
      00FF0012H   PUBLIC    CODE     ---       TM1_Isr
      00FF6277H   PUBLIC    CODE     ---       TM2_Isr
      00FF627FH   PUBLIC    CODE     ---       TM3_Isr
      00FF43EFH   PUBLIC    CODE     ---       TM4_Isr
      000000D0H   SFRSYM    DATA     BYTE      PSW
      0000009DH   SFRSYM    DATA     BYTE      IRCBAND
      00000097H   SFRSYM    DATA     BYTE      AUXR2
      000000EFH   SFRSYM    DATA     BYTE      AUXINTIF
      000000FDH   SFRSYM    DATA     BYTE      S4CON
      000000ACH   SFRSYM    DATA     BYTE      S3CON
      0000009AH   SFRSYM    DATA     BYTE      S2CON
      000000B7H   SFRSYM    DATA     BYTE      IPH
      000000CDH   SFRSYM    DATA     BYTE      SPSTAT
      000000DDH   SFRSYM    DATA     BYTE      T4T3M
      000000C1H   SFRSYM    DATA     BYTE      WDT_CONTR
      000000DFH   SFRSYM    DATA     BYTE      IP3
      000000F4H   SFRSYM    DATA     BYTE      USBCON
      000000B5H   SFRSYM    DATA     BYTE      IP2
      000000FFH   SFRSYM    DATA     BYTE      RSTCFG
      000000C7H   SFRSYM    DATA     BYTE      IAP_CONTR
      000000F9H   SFRSYM    DATA     BYTE      LINICR
      0000008EH   SFRSYM    DATA     BYTE      AUXR
      000000AFH   SFRSYM    DATA     BYTE      IE2
      00000080H.7 SFRSYM    DATA     BIT       P07
      00000088H   SFRSYM    DATA     BYTE      TCON
      00000098H   SFRSYM    DATA     BYTE      SCON
      000000F1H   SFRSYM    DATA     BYTE      CANICR
      00000087H   SFRSYM    DATA     BYTE      PCON
      00000099H   SFRSYM    DATA     BYTE      SBUF
      000000BCH   SFRSYM    DATA     BYTE      ADC_CONTR
      000000E7H   SFRSYM    DATA     BYTE      CMPCR2
      000000E6H   SFRSYM    DATA     BYTE      CMPCR1
      000000B8H   SFRSYM    DATA     BYTE      IP
      0000008FH   SFRSYM    DATA     BYTE      INTCLKO
      000000EEH   SFRSYM    DATA     BYTE      IP3H
      000000B6H   SFRSYM    DATA     BYTE      IP2H
      000000A8H   SFRSYM    DATA     BYTE      IE
      000000BBH   SFRSYM    DATA     BYTE      P_SW3
      000000BAH   SFRSYM    DATA     BYTE      P_SW2
      000000A2H   SFRSYM    DATA     BYTE      P_SW1
      000000CEH   SFRSYM    DATA     BYTE      SPCTL
      000000F8H   SFRSYM    DATA     BYTE      P7
      000000E8H   SFRSYM    DATA     BYTE      P6
      000000C8H   SFRSYM    DATA     BYTE      P5
L251 LINKER/LOCATER V4.66.93.0                                                        05/09/2023  22:12:16  PAGE 74


      000000C0H   SFRSYM    DATA     BYTE      P4
      000000B0H   SFRSYM    DATA     BYTE      P3
      000000A0H   SFRSYM    DATA     BYTE      P2
      00000090H   SFRSYM    DATA     BYTE      P1
      00000080H   SFRSYM    DATA     BYTE      P0

      00FF5C17H   BLOCK     CODE     ---       LVL=0
      00FF5C1BH   BLOCK     CODE     NEAR LAB  LVL=1
      R11         REGSYM    ---      BYTE      res
      00000987H   SYMBOL    EDATA    BYTE      dwon_count
      ---         BLOCKEND  ---      ---       LVL=1
      00FF5C17H   LINE      CODE     ---       #22
      00FF5C1BH   LINE      CODE     ---       #23
      00FF5C1BH   LINE      CODE     ---       #26
      00FF5C20H   LINE      CODE     ---       #28
      00FF5C23H   LINE      CODE     ---       #29
      00FF5C28H   LINE      CODE     ---       #30
      00FF5C28H   LINE      CODE     ---       #31
      00FF5C2DH   LINE      CODE     ---       #33
      00FF5C30H   LINE      CODE     ---       #34
      00FF5C32H   LINE      CODE     ---       #36
      00FF5C35H   LINE      CODE     ---       #38
      00FF5C45H   LINE      CODE     ---       #39
      00FF5C48H   LINE      CODE     ---       #40
      00FF5C4AH   LINE      CODE     ---       #43
      00FF5C4FH   LINE      CODE     ---       #44
      00FF5C4FH   LINE      CODE     ---       #45
      ---         BLOCKEND  ---      ---       LVL=0

      00FF6056H   BLOCK     CODE     ---       LVL=0
      00FF6056H   LINE      CODE     ---       #49
      00FF605AH   LINE      CODE     ---       #51
      00FF605FH   LINE      CODE     ---       #53
      00FF6062H   LINE      CODE     ---       #54
      00FF6067H   LINE      CODE     ---       #55
      00FF6067H   LINE      CODE     ---       #56
      00FF606CH   LINE      CODE     ---       #58
      00FF606FH   LINE      CODE     ---       #61
      ---         BLOCKEND  ---      ---       LVL=0

      00FF6074H   BLOCK     CODE     ---       LVL=0
      00FF6074H   LINE      CODE     ---       #66
      00FF6078H   LINE      CODE     ---       #68
      00FF607DH   LINE      CODE     ---       #70
      00FF6080H   LINE      CODE     ---       #71
      00FF6085H   LINE      CODE     ---       #72
      00FF6085H   LINE      CODE     ---       #73
      00FF608AH   LINE      CODE     ---       #75
      00FF608DH   LINE      CODE     ---       #78
      ---         BLOCKEND  ---      ---       LVL=0

      00FF54CFH   BLOCK     CODE     ---       LVL=0
      00FF54CFH   LINE      CODE     ---       #83
      00FF54E7H   LINE      CODE     ---       #85
      00FF54ECH   LINE      CODE     ---       #87
      00FF54EFH   LINE      CODE     ---       #88
      00FF54F4H   LINE      CODE     ---       #89
      00FF54F4H   LINE      CODE     ---       #90
      00FF54F9H   LINE      CODE     ---       #92
      00FF54FCH   LINE      CODE     ---       #95
      00FF5506H   LINE      CODE     ---       #97
      00FF5509H   LINE      CODE     ---       #98
      00FF550BH   LINE      CODE     ---       #99
      00FF5511H   LINE      CODE     ---       #101
      00FF5514H   LINE      CODE     ---       #102
L251 LINKER/LOCATER V4.66.93.0                                                        05/09/2023  22:12:16  PAGE 75


      00FF5516H   LINE      CODE     ---       #103
      00FF551CH   LINE      CODE     ---       #105
      00FF551FH   LINE      CODE     ---       #106
      00FF551FH   LINE      CODE     ---       #108
      ---         BLOCKEND  ---      ---       LVL=0

      00FF6287H   BLOCK     CODE     ---       LVL=0
      00FF6287H   LINE      CODE     ---       #111
      00FF6289H   LINE      CODE     ---       #113
      00FF628BH   LINE      CODE     ---       #114
      ---         BLOCKEND  ---      ---       LVL=0

      00FF0011H   BLOCK     CODE     ---       LVL=0
      00FF0011H   LINE      CODE     ---       #115
      00FF0011H   LINE      CODE     ---       #118
      ---         BLOCKEND  ---      ---       LVL=0

      00FF625FH   BLOCK     CODE     ---       LVL=0
      00FF625FH   LINE      CODE     ---       #119
      00FF6261H   LINE      CODE     ---       #121
      00FF6264H   LINE      CODE     ---       #122
      ---         BLOCKEND  ---      ---       LVL=0

      00FF6267H   BLOCK     CODE     ---       LVL=0
      00FF6267H   LINE      CODE     ---       #123
      00FF6269H   LINE      CODE     ---       #125
      00FF626CH   LINE      CODE     ---       #126
      ---         BLOCKEND  ---      ---       LVL=0

      00FF626FH   BLOCK     CODE     ---       LVL=0
      00FF626FH   LINE      CODE     ---       #128
      00FF6271H   LINE      CODE     ---       #130
      00FF6274H   LINE      CODE     ---       #131
      ---         BLOCKEND  ---      ---       LVL=0

      00FF5ACFH   BLOCK     CODE     ---       LVL=0
      00FF5ACFH   LINE      CODE     ---       #133
      00FF5AE5H   LINE      CODE     ---       #135
      00FF5AE8H   LINE      CODE     ---       #136
      00FF5AF7H   LINE      CODE     ---       #137
      00FF5AFAH   LINE      CODE     ---       #138
      00FF5AFDH   LINE      CODE     ---       #140
      ---         BLOCKEND  ---      ---       LVL=0

      00FF0012H   BLOCK     CODE     ---       LVL=0
      00FF0012H   LINE      CODE     ---       #141
      00FF0012H   LINE      CODE     ---       #144
      ---         BLOCKEND  ---      ---       LVL=0

      00FF6277H   BLOCK     CODE     ---       LVL=0
      00FF6277H   LINE      CODE     ---       #145
      00FF6279H   LINE      CODE     ---       #147
      00FF627CH   LINE      CODE     ---       #149
      ---         BLOCKEND  ---      ---       LVL=0

      00FF627FH   BLOCK     CODE     ---       LVL=0
      00FF627FH   LINE      CODE     ---       #150
      00FF6281H   LINE      CODE     ---       #152
      00FF6284H   LINE      CODE     ---       #155
      ---         BLOCKEND  ---      ---       LVL=0

      00FF43EFH   BLOCK     CODE     ---       LVL=0
      00FF43EFH   LINE      CODE     ---       #157
      00FF4405H   LINE      CODE     ---       #159
      00FF4408H   LINE      CODE     ---       #161
L251 LINKER/LOCATER V4.66.93.0                                                        05/09/2023  22:12:16  PAGE 76


      00FF4430H   LINE      CODE     ---       #162
      00FF4436H   LINE      CODE     ---       #165
      00FF443DH   LINE      CODE     ---       #166
      00FF446DH   LINE      CODE     ---       #168
      00FF446DH   LINE      CODE     ---       #170
      00FF44ACH   LINE      CODE     ---       #171
      00FF44B4H   LINE      CODE     ---       #172
      00FF44B4H   LINE      CODE     ---       #173
      00FF44B7H   LINE      CODE     ---       #175
      00FF44B7H   LINE      CODE     ---       #177
      00FF44F2H   LINE      CODE     ---       #178
      00FF44FAH   LINE      CODE     ---       #179
      00FF44FAH   LINE      CODE     ---       #180
      00FF44FDH   LINE      CODE     ---       #182
      00FF44FDH   LINE      CODE     ---       #184
      00FF4538H   LINE      CODE     ---       #185
      00FF4540H   LINE      CODE     ---       #186
      00FF4540H   LINE      CODE     ---       #187
      00FF4543H   LINE      CODE     ---       #189
      00FF4543H   LINE      CODE     ---       #191
      00FF4582H   LINE      CODE     ---       #192
      00FF458AH   LINE      CODE     ---       #193
      00FF458AH   LINE      CODE     ---       #194
      00FF458CH   LINE      CODE     ---       #196
      00FF458CH   LINE      CODE     ---       #198
      00FF45CBH   LINE      CODE     ---       #199
      00FF45D7H   LINE      CODE     ---       #200
      00FF45E1H   LINE      CODE     ---       #201
      00FF45E3H   LINE      CODE     ---       #203
      00FF45E3H   LINE      CODE     ---       #204
      00FF45EBH   LINE      CODE     ---       #205
      00FF45EDH   LINE      CODE     ---       #207
      00FF45EDH   LINE      CODE     ---       #208
      00FF45F5H   LINE      CODE     ---       #209
      00FF45F5H   LINE      CODE     ---       #211
      00FF45F5H   LINE      CODE     ---       #214
      ---         BLOCKEND  ---      ---       LVL=0

      ---         MODULE    ---      ---       main
      00FF49FCH   PUBLIC    CODE     ---       main
      000000D0H   SFRSYM    DATA     BYTE      PSW
      0000009DH   SFRSYM    DATA     BYTE      IRCBAND
      00000097H   SFRSYM    DATA     BYTE      AUXR2
      000000EFH   SFRSYM    DATA     BYTE      AUXINTIF
      000000FDH   SFRSYM    DATA     BYTE      S4CON
      000000ACH   SFRSYM    DATA     BYTE      S3CON
      0000009AH   SFRSYM    DATA     BYTE      S2CON
      000000B7H   SFRSYM    DATA     BYTE      IPH
      000000CDH   SFRSYM    DATA     BYTE      SPSTAT
      000000DDH   SFRSYM    DATA     BYTE      T4T3M
      000000C1H   SFRSYM    DATA     BYTE      WDT_CONTR
      000000DFH   SFRSYM    DATA     BYTE      IP3
      000000F4H   SFRSYM    DATA     BYTE      USBCON
      000000B5H   SFRSYM    DATA     BYTE      IP2
      000000FFH   SFRSYM    DATA     BYTE      RSTCFG
      000000F9H   SFRSYM    DATA     BYTE      LINICR
      0000008EH   SFRSYM    DATA     BYTE      AUXR
      000000AFH   SFRSYM    DATA     BYTE      IE2
      00000080H.7 SFRSYM    DATA     BIT       P07
      00000088H   SFRSYM    DATA     BYTE      TCON
      000000C8H.0 SFRSYM    DATA     BIT       P50
      00000098H   SFRSYM    DATA     BYTE      SCON
      000000F1H   SFRSYM    DATA     BYTE      CANICR
      00000087H   SFRSYM    DATA     BYTE      PCON
      000000BCH   SFRSYM    DATA     BYTE      ADC_CONTR
L251 LINKER/LOCATER V4.66.93.0                                                        05/09/2023  22:12:16  PAGE 77


      000000E7H   SFRSYM    DATA     BYTE      CMPCR2
      000000E6H   SFRSYM    DATA     BYTE      CMPCR1
      000000B8H   SFRSYM    DATA     BYTE      IP
      0000008FH   SFRSYM    DATA     BYTE      INTCLKO
      000000EEH   SFRSYM    DATA     BYTE      IP3H
      000000B6H   SFRSYM    DATA     BYTE      IP2H
      000000A8H   SFRSYM    DATA     BYTE      IE
      000000BBH   SFRSYM    DATA     BYTE      P_SW3
      000000BAH   SFRSYM    DATA     BYTE      P_SW2
      000000A2H   SFRSYM    DATA     BYTE      P_SW1
      000000CEH   SFRSYM    DATA     BYTE      SPCTL
      000000F8H   SFRSYM    DATA     BYTE      P7
      000000E8H   SFRSYM    DATA     BYTE      P6
      000000C8H   SFRSYM    DATA     BYTE      P5
      000000C0H   SFRSYM    DATA     BYTE      P4
      000000B0H   SFRSYM    DATA     BYTE      P3
      000000A0H   SFRSYM    DATA     BYTE      P2
      00000090H   SFRSYM    DATA     BYTE      P1
      00000080H   SFRSYM    DATA     BYTE      P0

      00FF49FCH   BLOCK     CODE     ---       LVL=0
      WR14        REGSYM    ---      INT       adc_err_read
      WR12        REGSYM    ---      INT       order_angle_read
      00FF49FCH   LINE      CODE     ---       #30
      00FF49FCH   LINE      CODE     ---       #31
      00FF49FCH   LINE      CODE     ---       #34
      00FF49FFH   LINE      CODE     ---       #38
      00FF4A34H   LINE      CODE     ---       #39
      00FF4A6FH   LINE      CODE     ---       #40
      00FF4A72H   LINE      CODE     ---       #41
      00FF4A75H   LINE      CODE     ---       #42
      00FF4A78H   LINE      CODE     ---       #43
      00FF4A7BH   LINE      CODE     ---       #44
      00FF4A7EH   LINE      CODE     ---       #45
      00FF4A80H   LINE      CODE     ---       #46
      00FF4A82H   LINE      CODE     ---       #49
      00FF4A8DH   LINE      CODE     ---       #50
      00FF4A96H   LINE      CODE     ---       #52
      00FF4A96H   LINE      CODE     ---       #55
      00FF4AA1H   LINE      CODE     ---       #56
      00FF4AADH   LINE      CODE     ---       #58
      00FF4AB0H   LINE      CODE     ---       #59
      00FF4AB3H   LINE      CODE     ---       #61
      00FF4AB6H   LINE      CODE     ---       #65
      00FF4AC8H   LINE      CODE     ---       #66
      00FF4AD1H   LINE      CODE     ---       #67
      00FF4AEAH   LINE      CODE     ---       #68
      00FF4AFDH   LINE      CODE     ---       #71
      00FF4B04H   LINE      CODE     ---       #72
      ---         BLOCKEND  ---      ---       LVL=0

      ---         MODULE    ---      ---       adc
      00FF5963H   PUBLIC    CODE     ---       adc_mean_filter
      00FF59FAH   PUBLIC    CODE     ---       My_Adc_Init
      00FF4B06H   PUBLIC    CODE     ---       Read_Adc_Value
      00000660H   PUBLIC    EDATA    INT       adc1
      00000662H   PUBLIC    EDATA    INT       adc2
      00000664H   PUBLIC    EDATA    INT       adc3
      00000666H   PUBLIC    EDATA    ---       adc1_array
      0000067CH   PUBLIC    EDATA    INT       adc4
      0000067EH   PUBLIC    EDATA    ---       adc2_array
      00000694H   PUBLIC    EDATA    INT       adc5
      00000696H   PUBLIC    EDATA    ---       adc3_array
      000006ACH   PUBLIC    EDATA    INT       adc6
      000006AEH   PUBLIC    EDATA    ---       adc4_array
L251 LINKER/LOCATER V4.66.93.0                                                        05/09/2023  22:12:16  PAGE 78


      000006C4H   PUBLIC    EDATA    INT       adc7
      000006C6H   PUBLIC    EDATA    ---       adc5_array
      000006DCH   PUBLIC    EDATA    INT       adc8
      000006DEH   PUBLIC    EDATA    ---       adc6_array
      000006F4H   PUBLIC    EDATA    ---       adc7_array
      0000070AH   PUBLIC    EDATA    ---       adc8_array
      000000D0H   SFRSYM    DATA     BYTE      PSW
      0000009DH   SFRSYM    DATA     BYTE      IRCBAND
      00000097H   SFRSYM    DATA     BYTE      AUXR2
      000000EFH   SFRSYM    DATA     BYTE      AUXINTIF
      000000FDH   SFRSYM    DATA     BYTE      S4CON
      000000ACH   SFRSYM    DATA     BYTE      S3CON
      0000009AH   SFRSYM    DATA     BYTE      S2CON
      000000B7H   SFRSYM    DATA     BYTE      IPH
      000000CDH   SFRSYM    DATA     BYTE      SPSTAT
      000000DDH   SFRSYM    DATA     BYTE      T4T3M
      000000C1H   SFRSYM    DATA     BYTE      WDT_CONTR
      000000DFH   SFRSYM    DATA     BYTE      IP3
      000000F4H   SFRSYM    DATA     BYTE      USBCON
      000000B5H   SFRSYM    DATA     BYTE      IP2
      000000FFH   SFRSYM    DATA     BYTE      RSTCFG
      000000F9H   SFRSYM    DATA     BYTE      LINICR
      0000008EH   SFRSYM    DATA     BYTE      AUXR
      000000AFH   SFRSYM    DATA     BYTE      IE2
      00000088H   SFRSYM    DATA     BYTE      TCON
      00000098H   SFRSYM    DATA     BYTE      SCON
      000000F1H   SFRSYM    DATA     BYTE      CANICR
      00000087H   SFRSYM    DATA     BYTE      PCON
      000000BCH   SFRSYM    DATA     BYTE      ADC_CONTR
      000000E7H   SFRSYM    DATA     BYTE      CMPCR2
      000000E6H   SFRSYM    DATA     BYTE      CMPCR1
      000000B8H   SFRSYM    DATA     BYTE      IP
      0000008FH   SFRSYM    DATA     BYTE      INTCLKO
      000000EEH   SFRSYM    DATA     BYTE      IP3H
      000000B6H   SFRSYM    DATA     BYTE      IP2H
      000000A8H   SFRSYM    DATA     BYTE      IE
      000000BBH   SFRSYM    DATA     BYTE      P_SW3
      000000BAH   SFRSYM    DATA     BYTE      P_SW2
      000000A2H   SFRSYM    DATA     BYTE      P_SW1
      000000CEH   SFRSYM    DATA     BYTE      SPCTL
      000000F8H   SFRSYM    DATA     BYTE      P7
      000000E8H   SFRSYM    DATA     BYTE      P6
      000000C8H   SFRSYM    DATA     BYTE      P5
      000000C0H   SFRSYM    DATA     BYTE      P4
      000000B0H   SFRSYM    DATA     BYTE      P3
      000000A0H   SFRSYM    DATA     BYTE      P2
      00000090H   SFRSYM    DATA     BYTE      P1
      00000080H   SFRSYM    DATA     BYTE      P0

      00FF59FAH   BLOCK     CODE     ---       LVL=0
      00FF59FAH   LINE      CODE     ---       #25
      00FF59FAH   LINE      CODE     ---       #27
      00FF5A03H   LINE      CODE     ---       #28
      00FF5A0CH   LINE      CODE     ---       #29
      00FF5A15H   LINE      CODE     ---       #30
      00FF5A1EH   LINE      CODE     ---       #32
      00FF5A27H   LINE      CODE     ---       #33
      00FF5A30H   LINE      CODE     ---       #34
      00FF5A39H   LINE      CODE     ---       #35
      ---         BLOCKEND  ---      ---       LVL=0

      00FF5963H   BLOCK     CODE     ---       LVL=0
      WR12        REGSYM    ---      INT       adcn
      WR14        REGSYM    ---      INT       speed
      000007BCH   SYMBOL    EDATA    BYTE      count
L251 LINKER/LOCATER V4.66.93.0                                                        05/09/2023  22:12:16  PAGE 79


      00FF596DH   BLOCK     CODE     NEAR LAB  LVL=1
      000007BDH   SYMBOL    EDATA    BYTE      i
      000007BEH   SYMBOL    EDATA    DWORD     sum
      ---         BLOCKEND  ---      ---       LVL=1
      00FF5963H   LINE      CODE     ---       #42
      00FF596DH   LINE      CODE     ---       #43
      00FF596DH   LINE      CODE     ---       #47
      00FF5973H   LINE      CODE     ---       #48
      00FF5976H   LINE      CODE     ---       #50
      00FF598BH   LINE      CODE     ---       #51
      00FF599EH   LINE      CODE     ---       #53
      00FF59ADH   LINE      CODE     ---       #54
      00FF59ADH   LINE      CODE     ---       #55
      ---         BLOCKEND  ---      ---       LVL=0

      00FF4B06H   BLOCK     CODE     ---       LVL=0
      00FF4B08H   BLOCK     CODE     NEAR LAB  LVL=1
      R15         REGSYM    ---      BYTE      adc_read_count
      ---         BLOCKEND  ---      ---       LVL=1
      00FF4B06H   LINE      CODE     ---       #60
      00FF4B08H   LINE      CODE     ---       #61
      00FF4B08H   LINE      CODE     ---       #62
      00FF4B0BH   LINE      CODE     ---       #65
      00FF4B1AH   LINE      CODE     ---       #66
      00FF4B29H   LINE      CODE     ---       #67
      00FF4B38H   LINE      CODE     ---       #68
      00FF4B47H   LINE      CODE     ---       #70
      00FF4B56H   LINE      CODE     ---       #71
      00FF4B65H   LINE      CODE     ---       #72
      00FF4B74H   LINE      CODE     ---       #73
      00FF4B83H   LINE      CODE     ---       #75
      00FF4B8BH   LINE      CODE     ---       #76
      00FF4B93H   LINE      CODE     ---       #77
      00FF4B9BH   LINE      CODE     ---       #78
      00FF4BA3H   LINE      CODE     ---       #79
      00FF4BABH   LINE      CODE     ---       #80
      00FF4BB3H   LINE      CODE     ---       #81
      00FF4BBBH   LINE      CODE     ---       #82
      00FF4BBFH   LINE      CODE     ---       #83
      00FF4BBFH   LINE      CODE     ---       #85
      00FF4BCBH   LINE      CODE     ---       #86
      00FF4BD3H   LINE      CODE     ---       #87
      00FF4BDBH   LINE      CODE     ---       #88
      00FF4BE3H   LINE      CODE     ---       #89
      00FF4BEBH   LINE      CODE     ---       #90
      00FF4BF3H   LINE      CODE     ---       #91
      00FF4BFBH   LINE      CODE     ---       #92
      00FF4C03H   LINE      CODE     ---       #93
      00FF4C0AH   LINE      CODE     ---       #94
      ---         BLOCKEND  ---      ---       LVL=0

      ---         MODULE    ---      ---       control
      00FF56BFH   PUBLIC    CODE     ---       ADC_error_window_filtering
      00FF4DC8H   PUBLIC    CODE     ---       Dev_Tolerant_Correc_Ang
      00FF5538H   PUBLIC    CODE     ---       Correct_Angle
      00FF5445H   PUBLIC    CODE     ---       Roundabout_deal
      00FF5327H   PUBLIC    CODE     ---       lost_line_judge
      00FF48EDH   PUBLIC    CODE     ---       Direct_judge
      00FF4F67H   PUBLIC    CODE     ---       lostline_deal
      00FF5E5BH   PUBLIC    CODE     ---       ADC_error_weight_filtering
      00FF559FH   PUBLIC    CODE     ---       ADC_error_processing
      00000597H   PUBLIC    EDATA    FLOAT     Adc_Five_Del_2
      0000059BH   PUBLIC    EDATA    ---       akeman_left
      000005AFH   PUBLIC    EDATA    FLOAT     Adc_Five_Del_3
      000005B3H   PUBLIC    EDATA    FLOAT     Adc_Five_Del_4
L251 LINKER/LOCATER V4.66.93.0                                                        05/09/2023  22:12:16  PAGE 80


      000005B7H   PUBLIC    EDATA    FLOAT     order_angle
      000005BBH   PUBLIC    EDATA    INT       Dir_judge_flag
      000005BDH   PUBLIC    EDATA    INT       lostline_dir
      000005BFH   PUBLIC    EDATA    FLOAT     order_speed
      000005C3H   PUBLIC    EDATA    FLOAT     ADC_error_a
      000005C7H   PUBLIC    EDATA    INT       window_flag
      000005C9H   PUBLIC    EDATA    INT       Roundabout_count
      000005CBH   PUBLIC    EDATA    BYTE      pid_flag
      000005CCH   PUBLIC    EDATA    INT       dev_flag
      000005CEH   PUBLIC    EDATA    ---       Dev_errs
      000005EEH   PUBLIC    EDATA    INT       Roundabout_flag_L
      000005F0H   PUBLIC    EDATA    FLOAT     adc_err
      000005F4H   PUBLIC    EDATA    ---       adc_err_array
      00000608H   PUBLIC    EDATA    INT       Roundabout_flag_R
      0000060AH   PUBLIC    EDATA    FLOAT     Adc_Five_Mean_1_Las
      0000060EH   PUBLIC    EDATA    INT       lostline_flag
      00000610H   PUBLIC    EDATA    FLOAT     Adc_Five_Mean_2_Las
      00000614H   PUBLIC    EDATA    FLOAT     Adc_Five_Mean_3_Las
      00000618H   PUBLIC    EDATA    FLOAT     Adc_Five_Mean_4_Las
      0000061CH   PUBLIC    EDATA    ---       akeman_right
      00000630H   PUBLIC    EDATA    INT       countADC
      00000632H   PUBLIC    EDATA    INT       lostline_count
      00000634H   PUBLIC    EDATA    FLOAT     Adc_Five_Del_1
      000007B4H   PUBLIC    EDATA    BYTE      ?ADC_error_processing?BYTE
      000007DEH   PUBLIC    EDATA    BYTE      ?Correct_Angle?BYTE
      000007BEH   PUBLIC    EDATA    BYTE      ?Dev_Tolerant_Correc_Ang?BYTE
      000000D0H   SFRSYM    DATA     BYTE      PSW
      0000009DH   SFRSYM    DATA     BYTE      IRCBAND
      00000097H   SFRSYM    DATA     BYTE      AUXR2
      000000EFH   SFRSYM    DATA     BYTE      AUXINTIF
      000000FDH   SFRSYM    DATA     BYTE      S4CON
      000000ACH   SFRSYM    DATA     BYTE      S3CON
      0000009AH   SFRSYM    DATA     BYTE      S2CON
      000000B7H   SFRSYM    DATA     BYTE      IPH
      000000CDH   SFRSYM    DATA     BYTE      SPSTAT
      000000DDH   SFRSYM    DATA     BYTE      T4T3M
      000000C1H   SFRSYM    DATA     BYTE      WDT_CONTR
      000000DFH   SFRSYM    DATA     BYTE      IP3
      000000F4H   SFRSYM    DATA     BYTE      USBCON
      000000B5H   SFRSYM    DATA     BYTE      IP2
      000000FFH   SFRSYM    DATA     BYTE      RSTCFG
      000000F9H   SFRSYM    DATA     BYTE      LINICR
      0000008EH   SFRSYM    DATA     BYTE      AUXR
      000000AFH   SFRSYM    DATA     BYTE      IE2
      00000088H   SFRSYM    DATA     BYTE      TCON
      00000098H   SFRSYM    DATA     BYTE      SCON
      000000F1H   SFRSYM    DATA     BYTE      CANICR
      00000087H   SFRSYM    DATA     BYTE      PCON
      000000BCH   SFRSYM    DATA     BYTE      ADC_CONTR
      000000E7H   SFRSYM    DATA     BYTE      CMPCR2
      000000E6H   SFRSYM    DATA     BYTE      CMPCR1
      000000B8H   SFRSYM    DATA     BYTE      IP
      0000008FH   SFRSYM    DATA     BYTE      INTCLKO
      000000EEH   SFRSYM    DATA     BYTE      IP3H
      000000B6H   SFRSYM    DATA     BYTE      IP2H
      000000A8H   SFRSYM    DATA     BYTE      IE
      000000BBH   SFRSYM    DATA     BYTE      P_SW3
      000000BAH   SFRSYM    DATA     BYTE      P_SW2
      000000A2H   SFRSYM    DATA     BYTE      P_SW1
      000000CEH   SFRSYM    DATA     BYTE      SPCTL
      000000F8H   SFRSYM    DATA     BYTE      P7
      000000E8H   SFRSYM    DATA     BYTE      P6
      000000C8H   SFRSYM    DATA     BYTE      P5
      000000C0H   SFRSYM    DATA     BYTE      P4
      000000B0H   SFRSYM    DATA     BYTE      P3
L251 LINKER/LOCATER V4.66.93.0                                                        05/09/2023  22:12:16  PAGE 81


      000000A0H   SFRSYM    DATA     BYTE      P2
      00000090H   SFRSYM    DATA     BYTE      P1
      00000080H   SFRSYM    DATA     BYTE      P0
      DR12        REGSYM    ---      FLOAT     basic_speed
      DR28        REGSYM    ---      FLOAT     akeman_diff
      DR8         REGSYM    ---      FLOAT     current_l
      DR0         REGSYM    ---      FLOAT     target_l
      00000638H   SYMBOL    EDATA    FLOAT     pwm_l
      0000063CH   SYMBOL    EDATA    FLOAT     pwm_r

      00FF559FH   BLOCK     CODE     ---       LVL=0
      DR24        REGSYM    ---      FLOAT     A
      DR28        REGSYM    ---      FLOAT     B
      000007BCH   SYMBOL    EDATA    FLOAT     compensation
      00FF559FH   LINE      CODE     ---       #129
      00FF55A1H   LINE      CODE     ---       #134
      00FF5601H   LINE      CODE     ---       #135
      00FF5601H   LINE      CODE     ---       #136
      ---         BLOCKEND  ---      ---       LVL=0

      00FF5E5BH   BLOCK     CODE     ---       LVL=0
      00000640H   SYMBOL    EDATA    FLOAT     adc_err_last
      00FF5E5BH   LINE      CODE     ---       #143
      00FF5E5BH   LINE      CODE     ---       #144
      00FF5E5BH   LINE      CODE     ---       #146
      00FF5E84H   LINE      CODE     ---       #147
      00FF5E88H   LINE      CODE     ---       #149
      00FF5E88H   LINE      CODE     ---       #150
      ---         BLOCKEND  ---      ---       LVL=0

      00FF56BFH   BLOCK     CODE     ---       LVL=0
      00FF56BFH   LINE      CODE     ---       #157
      00FF56BFH   LINE      CODE     ---       #159
      00FF56D5H   LINE      CODE     ---       #161
      00FF56DBH   LINE      CODE     ---       #163
      00FF56E1H   LINE      CODE     ---       #164
      00FF56E7H   LINE      CODE     ---       #167
      00FF56EFH   LINE      CODE     ---       #168
      00FF5715H   LINE      CODE     ---       #171
      00FF5719H   LINE      CODE     ---       #172
      ---         BLOCKEND  ---      ---       LVL=0
      DR4         REGSYM    ---      FLOAT     sum
      WR30        REGSYM    ---      INT       i
      DR0         REGSYM    ---      FLOAT     Down1
      DR12        REGSYM    ---      FLOAT     DownY1
      DR0         REGSYM    ---      FLOAT     Down2
      DR28        REGSYM    ---      FLOAT     Y_Mean_1

      00FF48EDH   BLOCK     CODE     ---       LVL=0
      00000644H   SYMBOL    EDATA    INT       res
      00FF48EDH   LINE      CODE     ---       #301
      00FF48EDH   LINE      CODE     ---       #302
      00FF48EDH   LINE      CODE     ---       #306
      00FF4911H   LINE      CODE     ---       #307
      00FF4917H   LINE      CODE     ---       #309
      00FF4934H   LINE      CODE     ---       #310
      00FF493CH   LINE      CODE     ---       #312
      00FF4953H   LINE      CODE     ---       #313
      00FF495BH   LINE      CODE     ---       #317
      00FF496FH   LINE      CODE     ---       #319
      00FF4983H   LINE      CODE     ---       #320
      00FF498BH   LINE      CODE     ---       #321
      00FF498BH   LINE      CODE     ---       #323
      00FF499FH   LINE      CODE     ---       #325
      00FF49AFH   LINE      CODE     ---       #326
L251 LINKER/LOCATER V4.66.93.0                                                        05/09/2023  22:12:16  PAGE 82


      00FF49B7H   LINE      CODE     ---       #327
      00FF49B7H   LINE      CODE     ---       #330
      00FF49D0H   LINE      CODE     ---       #331
      00FF49DAH   LINE      CODE     ---       #333
      00FF49EFH   LINE      CODE     ---       #334
      00FF49F7H   LINE      CODE     ---       #336
      00FF49FBH   LINE      CODE     ---       #337
      ---         BLOCKEND  ---      ---       LVL=0

      00FF5445H   BLOCK     CODE     ---       LVL=0
      00FF5445H   LINE      CODE     ---       #343
      00FF5445H   LINE      CODE     ---       #345
      00FF544CH   LINE      CODE     ---       #346
      00FF5454H   LINE      CODE     ---       #347
      00FF545EH   LINE      CODE     ---       #349
      00FF5460H   LINE      CODE     ---       #351
      00FF5469H   LINE      CODE     ---       #352
      00FF5472H   LINE      CODE     ---       #353
      00FF5479H   LINE      CODE     ---       #354
      00FF548BH   LINE      CODE     ---       #355
      00FF5491H   LINE      CODE     ---       #356
      00FF5491H   LINE      CODE     ---       #358
      00FF549BH   LINE      CODE     ---       #360
      00FF549DH   LINE      CODE     ---       #362
      00FF54A6H   LINE      CODE     ---       #363
      00FF54AFH   LINE      CODE     ---       #364
      00FF54B6H   LINE      CODE     ---       #365
      00FF54C8H   LINE      CODE     ---       #366
      00FF54CEH   LINE      CODE     ---       #367
      ---         BLOCKEND  ---      ---       LVL=0
      00000646H   SYMBOL    EDATA    INT       state

      00FF5327H   BLOCK     CODE     ---       LVL=0
      00FF532BH   BLOCK     CODE     NEAR LAB  LVL=1
      R13         REGSYM    ---      CHAR      i
      R14         REGSYM    ---      CHAR      L_count
      R15         REGSYM    ---      CHAR      R_count
      ---         BLOCKEND  ---      ---       LVL=1
      00FF5327H   LINE      CODE     ---       #439
      00FF532BH   LINE      CODE     ---       #440
      00FF532BH   LINE      CODE     ---       #441
      00FF532FH   LINE      CODE     ---       #442
      00FF5335H   LINE      CODE     ---       #443
      00FF533DH   LINE      CODE     ---       #445
      00FF5365H   LINE      CODE     ---       #446
      00FF536DH   LINE      CODE     ---       #448
      00FF536FH   LINE      CODE     ---       #450
      00FF5388H   LINE      CODE     ---       #451
      00FF538AH   LINE      CODE     ---       #452
      00FF5393H   LINE      CODE     ---       #453
      00FF5395H   LINE      CODE     ---       #454
      00FF539CH   LINE      CODE     ---       #455
      00FF53A0H   LINE      CODE     ---       #456
      00FF53A8H   LINE      CODE     ---       #457
      00FF53ACH   LINE      CODE     ---       #458
      00FF53B4H   LINE      CODE     ---       #460
      00FF53B4H   LINE      CODE     ---       #461
      ---         BLOCKEND  ---      ---       LVL=0

      00FF4F67H   BLOCK     CODE     ---       LVL=0
      00FF4F67H   LINE      CODE     ---       #468
      00FF4F67H   LINE      CODE     ---       #470
      00FF4F6FH   LINE      CODE     ---       #471
      00FF4F7CH   LINE      CODE     ---       #473
      00FF4F86H   LINE      CODE     ---       #475
L251 LINKER/LOCATER V4.66.93.0                                                        05/09/2023  22:12:16  PAGE 83


      00FF4F88H   LINE      CODE     ---       #477
      00FF4F91H   LINE      CODE     ---       #478
      00FF4F9AH   LINE      CODE     ---       #479
      00FF4FA1H   LINE      CODE     ---       #480
      00FF4FB3H   LINE      CODE     ---       #481
      00FF4FB3H   LINE      CODE     ---       #483
      00FF4FBDH   LINE      CODE     ---       #485
      00FF4FBFH   LINE      CODE     ---       #487
      00FF4FC8H   LINE      CODE     ---       #488
      00FF4FD1H   LINE      CODE     ---       #489
      00FF4FD8H   LINE      CODE     ---       #490
      00FF4FEAH   LINE      CODE     ---       #491
      00FF4FEAH   LINE      CODE     ---       #493
      00FF5012H   LINE      CODE     ---       #494
      00FF5018H   LINE      CODE     ---       #495
      00FF5018H   LINE      CODE     ---       #496
      ---         BLOCKEND  ---      ---       LVL=0

      00FF5538H   BLOCK     CODE     ---       LVL=0
      DR24        REGSYM    ---      FLOAT     kp
      DR28        REGSYM    ---      FLOAT     kd
      000007E6H   SYMBOL    EDATA    FLOAT     ki
      00FF553CH   BLOCK     CODE     NEAR LAB  LVL=1
      DR28        REGSYM    ---      FLOAT     target_angle
      DR20        REGSYM    ---      FLOAT     target_angle_last
      00000648H   SYMBOL    EDATA    FLOAT     adc_err_last
      0000064CH   SYMBOL    EDATA    FLOAT     integral_err
      ---         BLOCKEND  ---      ---       LVL=1
      00FF5538H   LINE      CODE     ---       #503
      00FF553CH   LINE      CODE     ---       #504
      00FF553CH   LINE      CODE     ---       #515
      00FF5579H   LINE      CODE     ---       #516
      00FF559AH   LINE      CODE     ---       #517
      00FF559AH   LINE      CODE     ---       #519
      00FF559EH   LINE      CODE     ---       #521
      00FF559EH   LINE      CODE     ---       #522
      ---         BLOCKEND  ---      ---       LVL=0

      00FF4DC8H   BLOCK     CODE     ---       LVL=0
      000007C2H   SYMBOL    EDATA    FLOAT     Tolerance
      DR12        REGSYM    ---      FLOAT     DKp
      000007C6H   SYMBOL    EDATA    FLOAT     DKi
      000007CAH   SYMBOL    EDATA    FLOAT     Dkd
      000007CEH   SYMBOL    EDATA    FLOAT     PKp
      000007D2H   SYMBOL    EDATA    FLOAT     PKi
      000007D6H   SYMBOL    EDATA    FLOAT     PKd
      000007DAH   SYMBOL    EDATA    FLOAT     kp
      000007DEH   SYMBOL    EDATA    FLOAT     kd
      00FF4DD0H   BLOCK     CODE     NEAR LAB  LVL=1
      00000650H   SYMBOL    EDATA    FLOAT     Itg_dev_err
      00000654H   SYMBOL    EDATA    FLOAT     Itg_posi_err
      00000658H   SYMBOL    EDATA    FLOAT     dev_last
      0000065CH   SYMBOL    EDATA    FLOAT     dev_last2
      000007E2H   SYMBOL    EDATA    FLOAT     dev
      DR16        REGSYM    ---      FLOAT     Delta_dev
      DR20        REGSYM    ---      FLOAT     Delta_dev_las
      DR28        REGSYM    ---      FLOAT     Direc_angle
      DR0         REGSYM    ---      FLOAT     Posi_angle
      ---         BLOCKEND  ---      ---       LVL=1
      00FF4DC8H   LINE      CODE     ---       #532
      00FF4DD0H   LINE      CODE     ---       #542
      00FF4DD0H   LINE      CODE     ---       #556
      00FF4DD8H   LINE      CODE     ---       #559
      00FF4DE4H   LINE      CODE     ---       #561
      00FF4DF8H   LINE      CODE     ---       #562
L251 LINKER/LOCATER V4.66.93.0                                                        05/09/2023  22:12:16  PAGE 84


      00FF4DF8H   LINE      CODE     ---       #567
      00FF4E09H   LINE      CODE     ---       #568
      00FF4E14H   LINE      CODE     ---       #573
      00FF4E21H   LINE      CODE     ---       #574
      00FF4E51H   LINE      CODE     ---       #580
      00FF4E5EH   LINE      CODE     ---       #581
      00FF4E8BH   LINE      CODE     ---       #583
      00FF4E93H   LINE      CODE     ---       #584
      00FF4E97H   LINE      CODE     ---       #586
      00FF4E9CH   LINE      CODE     ---       #588
      ---         BLOCKEND  ---      ---       LVL=0

      ---         MODULE    ---      ---       key
      000000D0H   SFRSYM    DATA     BYTE      PSW
      0000009DH   SFRSYM    DATA     BYTE      IRCBAND
      00000097H   SFRSYM    DATA     BYTE      AUXR2
      000000EFH   SFRSYM    DATA     BYTE      AUXINTIF
      000000FDH   SFRSYM    DATA     BYTE      S4CON
      000000ACH   SFRSYM    DATA     BYTE      S3CON
      0000009AH   SFRSYM    DATA     BYTE      S2CON
      000000B7H   SFRSYM    DATA     BYTE      IPH
      000000CDH   SFRSYM    DATA     BYTE      SPSTAT
      000000DDH   SFRSYM    DATA     BYTE      T4T3M
      000000C1H   SFRSYM    DATA     BYTE      WDT_CONTR
      000000DFH   SFRSYM    DATA     BYTE      IP3
      000000F4H   SFRSYM    DATA     BYTE      USBCON
      000000B5H   SFRSYM    DATA     BYTE      IP2
      000000FFH   SFRSYM    DATA     BYTE      RSTCFG
      000000F9H   SFRSYM    DATA     BYTE      LINICR
      0000008EH   SFRSYM    DATA     BYTE      AUXR
      000000AFH   SFRSYM    DATA     BYTE      IE2
      000000F8H.3 SFRSYM    DATA     BIT       P73
      000000F8H.2 SFRSYM    DATA     BIT       P72
      000000F8H.1 SFRSYM    DATA     BIT       P71
      000000F8H.0 SFRSYM    DATA     BIT       P70
      00000088H   SFRSYM    DATA     BYTE      TCON
      00000098H   SFRSYM    DATA     BYTE      SCON
      000000F1H   SFRSYM    DATA     BYTE      CANICR
      00000087H   SFRSYM    DATA     BYTE      PCON
      000000BCH   SFRSYM    DATA     BYTE      ADC_CONTR
      000000E7H   SFRSYM    DATA     BYTE      CMPCR2
      000000E6H   SFRSYM    DATA     BYTE      CMPCR1
      000000B8H   SFRSYM    DATA     BYTE      IP
      0000008FH   SFRSYM    DATA     BYTE      INTCLKO
      000000EEH   SFRSYM    DATA     BYTE      IP3H
      000000B6H   SFRSYM    DATA     BYTE      IP2H
      000000A8H   SFRSYM    DATA     BYTE      IE
      000000BBH   SFRSYM    DATA     BYTE      P_SW3
      000000BAH   SFRSYM    DATA     BYTE      P_SW2
      000000A2H   SFRSYM    DATA     BYTE      P_SW1
      000000CEH   SFRSYM    DATA     BYTE      SPCTL
      000000F8H   SFRSYM    DATA     BYTE      P7
      000000E8H   SFRSYM    DATA     BYTE      P6
      000000C8H   SFRSYM    DATA     BYTE      P5
      000000C0H   SFRSYM    DATA     BYTE      P4
      000000B0H   SFRSYM    DATA     BYTE      P3
      000000A0H   SFRSYM    DATA     BYTE      P2
      00000090H   SFRSYM    DATA     BYTE      P1
      00000080H   SFRSYM    DATA     BYTE      P0
      R7          REGSYM    ---      BYTE      mode
      00000988H   SYMBOL    EDATA    BYTE      key_up

      ---         MODULE    ---      ---       motor
      00FF58C6H   PUBLIC    CODE     ---       Motor_Init
      00FF50C7H   PUBLIC    CODE     ---       Motor_Control
L251 LINKER/LOCATER V4.66.93.0                                                        05/09/2023  22:12:16  PAGE 85


      00000972H   PUBLIC    EDATA    INT       pulse_right
      00000974H   PUBLIC    EDATA    INT       pulse_left
      000000D0H   SFRSYM    DATA     BYTE      PSW
      0000009DH   SFRSYM    DATA     BYTE      IRCBAND
      00000097H   SFRSYM    DATA     BYTE      AUXR2
      000000EFH   SFRSYM    DATA     BYTE      AUXINTIF
      000000FDH   SFRSYM    DATA     BYTE      S4CON
      000000ACH   SFRSYM    DATA     BYTE      S3CON
      0000009AH   SFRSYM    DATA     BYTE      S2CON
      000000B7H   SFRSYM    DATA     BYTE      IPH
      000000CDH   SFRSYM    DATA     BYTE      SPSTAT
      000000DDH   SFRSYM    DATA     BYTE      T4T3M
      000000C1H   SFRSYM    DATA     BYTE      WDT_CONTR
      000000DFH   SFRSYM    DATA     BYTE      IP3
      000000F4H   SFRSYM    DATA     BYTE      USBCON
      000000B5H   SFRSYM    DATA     BYTE      IP2
      000000FFH   SFRSYM    DATA     BYTE      RSTCFG
      000000F9H   SFRSYM    DATA     BYTE      LINICR
      0000008EH   SFRSYM    DATA     BYTE      AUXR
      000000AFH   SFRSYM    DATA     BYTE      IE2
      000000B0H.5 SFRSYM    DATA     BIT       P35
      000000C8H.3 SFRSYM    DATA     BIT       P53
      00000088H   SFRSYM    DATA     BYTE      TCON
      00000098H   SFRSYM    DATA     BYTE      SCON
      000000F1H   SFRSYM    DATA     BYTE      CANICR
      00000087H   SFRSYM    DATA     BYTE      PCON
      000000BCH   SFRSYM    DATA     BYTE      ADC_CONTR
      000000E7H   SFRSYM    DATA     BYTE      CMPCR2
      000000E6H   SFRSYM    DATA     BYTE      CMPCR1
      000000B8H   SFRSYM    DATA     BYTE      IP
      0000008FH   SFRSYM    DATA     BYTE      INTCLKO
      000000EEH   SFRSYM    DATA     BYTE      IP3H
      000000B6H   SFRSYM    DATA     BYTE      IP2H
      000000A8H   SFRSYM    DATA     BYTE      IE
      000000BBH   SFRSYM    DATA     BYTE      P_SW3
      000000BAH   SFRSYM    DATA     BYTE      P_SW2
      000000A2H   SFRSYM    DATA     BYTE      P_SW1
      000000CEH   SFRSYM    DATA     BYTE      SPCTL
      000000F8H   SFRSYM    DATA     BYTE      P7
      000000E8H   SFRSYM    DATA     BYTE      P6
      000000C8H   SFRSYM    DATA     BYTE      P5
      000000C0H   SFRSYM    DATA     BYTE      P4
      000000B0H   SFRSYM    DATA     BYTE      P3
      000000A0H   SFRSYM    DATA     BYTE      P2
      00000090H   SFRSYM    DATA     BYTE      P1
      00000080H   SFRSYM    DATA     BYTE      P0

      00FF58C6H   BLOCK     CODE     ---       LVL=0
      00FF58C6H   LINE      CODE     ---       #12
      00FF58C6H   LINE      CODE     ---       #15
      00FF58D7H   LINE      CODE     ---       #16
      00FF58E8H   LINE      CODE     ---       #18
      00FF58F9H   LINE      CODE     ---       #19
      00FF590AH   LINE      CODE     ---       #21
      00FF590FH   LINE      CODE     ---       #22
      ---         BLOCKEND  ---      ---       LVL=0

      00FF50C7H   BLOCK     CODE     ---       LVL=0
      000007EAH   SYMBOL    EDATA    LONG      left_duty
      DR12        REGSYM    ---      LONG      right_duty
      00FF50C7H   LINE      CODE     ---       #31
      00FF50CFH   LINE      CODE     ---       #34
      00FF50DDH   LINE      CODE     ---       #35
      00FF50EFH   LINE      CODE     ---       #36
      00FF50F9H   LINE      CODE     ---       #37
L251 LINKER/LOCATER V4.66.93.0                                                        05/09/2023  22:12:16  PAGE 86


      00FF5103H   LINE      CODE     ---       #39
      00FF510DH   LINE      CODE     ---       #41
      00FF5116H   LINE      CODE     ---       #42
      00FF511EH   LINE      CODE     ---       #43
      00FF5120H   LINE      CODE     ---       #46
      00FF5135H   LINE      CODE     ---       #47
      00FF513EH   LINE      CODE     ---       #48
      00FF513EH   LINE      CODE     ---       #50
      00FF5144H   LINE      CODE     ---       #52
      00FF514DH   LINE      CODE     ---       #53
      00FF5153H   LINE      CODE     ---       #54
      00FF5155H   LINE      CODE     ---       #57
      00FF5160H   LINE      CODE     ---       #58
      00FF5169H   LINE      CODE     ---       #59
      00FF5169H   LINE      CODE     ---       #60
      ---         BLOCKEND  ---      ---       LVL=0

      ---         MODULE    ---      ---       steer
      00FF53B9H   PUBLIC    CODE     ---       Steer_Spin
      00FF6017H   PUBLIC    CODE     ---       Steer_Spin_limit
      00FF6193H   PUBLIC    CODE     ---       Steer_Init
      00000976H   PUBLIC    EDATA    FLOAT     angle_limit
      000000D0H   SFRSYM    DATA     BYTE      PSW
      0000009DH   SFRSYM    DATA     BYTE      IRCBAND
      00000097H   SFRSYM    DATA     BYTE      AUXR2
      000000EFH   SFRSYM    DATA     BYTE      AUXINTIF
      000000FDH   SFRSYM    DATA     BYTE      S4CON
      000000ACH   SFRSYM    DATA     BYTE      S3CON
      0000009AH   SFRSYM    DATA     BYTE      S2CON
      000000B7H   SFRSYM    DATA     BYTE      IPH
      000000CDH   SFRSYM    DATA     BYTE      SPSTAT
      000000DDH   SFRSYM    DATA     BYTE      T4T3M
      000000C1H   SFRSYM    DATA     BYTE      WDT_CONTR
      000000DFH   SFRSYM    DATA     BYTE      IP3
      000000F4H   SFRSYM    DATA     BYTE      USBCON
      000000B5H   SFRSYM    DATA     BYTE      IP2
      000000FFH   SFRSYM    DATA     BYTE      RSTCFG
      000000F9H   SFRSYM    DATA     BYTE      LINICR
      0000008EH   SFRSYM    DATA     BYTE      AUXR
      000000AFH   SFRSYM    DATA     BYTE      IE2
      00000088H   SFRSYM    DATA     BYTE      TCON
      00000098H   SFRSYM    DATA     BYTE      SCON
      000000F1H   SFRSYM    DATA     BYTE      CANICR
      00000087H   SFRSYM    DATA     BYTE      PCON
      000000BCH   SFRSYM    DATA     BYTE      ADC_CONTR
      000000E7H   SFRSYM    DATA     BYTE      CMPCR2
      000000E6H   SFRSYM    DATA     BYTE      CMPCR1
      000000B8H   SFRSYM    DATA     BYTE      IP
      0000008FH   SFRSYM    DATA     BYTE      INTCLKO
      000000EEH   SFRSYM    DATA     BYTE      IP3H
      000000B6H   SFRSYM    DATA     BYTE      IP2H
      000000A8H   SFRSYM    DATA     BYTE      IE
      000000BBH   SFRSYM    DATA     BYTE      P_SW3
      000000BAH   SFRSYM    DATA     BYTE      P_SW2
      000000A2H   SFRSYM    DATA     BYTE      P_SW1
      000000CEH   SFRSYM    DATA     BYTE      SPCTL
      000000F8H   SFRSYM    DATA     BYTE      P7
      000000E8H   SFRSYM    DATA     BYTE      P6
      000000C8H   SFRSYM    DATA     BYTE      P5
      000000C0H   SFRSYM    DATA     BYTE      P4
      000000B0H   SFRSYM    DATA     BYTE      P3
      000000A0H   SFRSYM    DATA     BYTE      P2
      00000090H   SFRSYM    DATA     BYTE      P1
      00000080H   SFRSYM    DATA     BYTE      P0

L251 LINKER/LOCATER V4.66.93.0                                                        05/09/2023  22:12:16  PAGE 87


      00FF6193H   BLOCK     CODE     ---       LVL=0
      00FF6193H   LINE      CODE     ---       #9
      00FF6193H   LINE      CODE     ---       #11
      ---         BLOCKEND  ---      ---       LVL=0

      00FF53B9H   BLOCK     CODE     ---       LVL=0
      DR28        REGSYM    ---      FLOAT     target_angle
      00FF53BDH   BLOCK     CODE     NEAR LAB  LVL=1
      DR12        REGSYM    ---      DWORD     duty
      ---         BLOCKEND  ---      ---       LVL=1
      00FF53B9H   LINE      CODE     ---       #19
      00FF53BDH   LINE      CODE     ---       #20
      00FF53BDH   LINE      CODE     ---       #24
      00FF53CCH   LINE      CODE     ---       #25
      00FF53DDH   LINE      CODE     ---       #26
      00FF53EFH   LINE      CODE     ---       #28
      00FF53FAH   LINE      CODE     ---       #31
      00FF5415H   LINE      CODE     ---       #32
      00FF5415H   LINE      CODE     ---       #34
      00FF541EH   LINE      CODE     ---       #37
      00FF5439H   LINE      CODE     ---       #38
      00FF5439H   LINE      CODE     ---       #40
      00FF5442H   LINE      CODE     ---       #41
      ---         BLOCKEND  ---      ---       LVL=0

      00FF6017H   BLOCK     CODE     ---       LVL=0
      DR28        REGSYM    ---      FLOAT     target_angle
      DR24        REGSYM    ---      FLOAT     angle_limit
      00FF6017H   LINE      CODE     ---       #48
      00FF601BH   LINE      CODE     ---       #50
      00FF6020H   LINE      CODE     ---       #51
      00FF6022H   LINE      CODE     ---       #52
      00FF6030H   LINE      CODE     ---       #53
      00FF6032H   LINE      CODE     ---       #55
      ---         BLOCKEND  ---      ---       LVL=0

      ---         MODULE    ---      ---       timer
      000000D0H   SFRSYM    DATA     BYTE      PSW
      0000009DH   SFRSYM    DATA     BYTE      IRCBAND
      00000097H   SFRSYM    DATA     BYTE      AUXR2
      000000EFH   SFRSYM    DATA     BYTE      AUXINTIF
      000000FDH   SFRSYM    DATA     BYTE      S4CON
      000000ACH   SFRSYM    DATA     BYTE      S3CON
      0000009AH   SFRSYM    DATA     BYTE      S2CON
      000000B7H   SFRSYM    DATA     BYTE      IPH
      000000CDH   SFRSYM    DATA     BYTE      SPSTAT
      000000DDH   SFRSYM    DATA     BYTE      T4T3M
      000000C1H   SFRSYM    DATA     BYTE      WDT_CONTR
      000000D3H   SFRSYM    DATA     BYTE      T4L
      000000D5H   SFRSYM    DATA     BYTE      T3L
      000000D2H   SFRSYM    DATA     BYTE      T4H
      000000D4H   SFRSYM    DATA     BYTE      T3H
      000000DFH   SFRSYM    DATA     BYTE      IP3
      000000F4H   SFRSYM    DATA     BYTE      USBCON
      000000B5H   SFRSYM    DATA     BYTE      IP2
      000000FFH   SFRSYM    DATA     BYTE      RSTCFG
      000000F9H   SFRSYM    DATA     BYTE      LINICR
      0000008EH   SFRSYM    DATA     BYTE      AUXR
      000000AFH   SFRSYM    DATA     BYTE      IE2
      00000088H   SFRSYM    DATA     BYTE      TCON
      00000098H   SFRSYM    DATA     BYTE      SCON
      000000F1H   SFRSYM    DATA     BYTE      CANICR
      00000087H   SFRSYM    DATA     BYTE      PCON
      000000BCH   SFRSYM    DATA     BYTE      ADC_CONTR
      000000E7H   SFRSYM    DATA     BYTE      CMPCR2
L251 LINKER/LOCATER V4.66.93.0                                                        05/09/2023  22:12:16  PAGE 88


      000000E6H   SFRSYM    DATA     BYTE      CMPCR1
      000000B8H   SFRSYM    DATA     BYTE      IP
      0000008FH   SFRSYM    DATA     BYTE      INTCLKO
      000000EEH   SFRSYM    DATA     BYTE      IP3H
      000000B6H   SFRSYM    DATA     BYTE      IP2H
      000000A8H   SFRSYM    DATA     BYTE      IE
      000000BBH   SFRSYM    DATA     BYTE      P_SW3
      000000BAH   SFRSYM    DATA     BYTE      P_SW2
      000000A2H   SFRSYM    DATA     BYTE      P_SW1
      000000CEH   SFRSYM    DATA     BYTE      SPCTL
      000000F8H   SFRSYM    DATA     BYTE      P7
      000000E8H   SFRSYM    DATA     BYTE      P6
      000000C8H   SFRSYM    DATA     BYTE      P5
      000000C0H   SFRSYM    DATA     BYTE      P4
      000000B0H   SFRSYM    DATA     BYTE      P3
      000000A0H   SFRSYM    DATA     BYTE      P2
      00000090H   SFRSYM    DATA     BYTE      P1
      00000080H   SFRSYM    DATA     BYTE      P0
      WR2         REGSYM    ---      WORD      time_ms
      WR8         REGSYM    ---      WORD      temp

      ---         MODULE    ---      ---       oled
      00FF5019H   PUBLIC    CODE     ---       OLED_Init
      00FF571AH   PUBLIC    CODE     ---       OLED_WR_Byte
      00FF5EDEH   PUBLIC    CODE     ---       OLED_Set_Pos
      00FF5D6DH   PUBLIC    CODE     ---       OLED_Clear
      00FF628EH   PUBLIC    HCONST   ---       F6x8
      00FF64B6H   PUBLIC    HCONST   ---       F8X16
      00000008H   PUBLIC    EDATA    ---       Hzk
      000003C8H   PUBLIC    EDATA    BYTE      show_mode
      000000D0H   SFRSYM    DATA     BYTE      PSW
      0000009DH   SFRSYM    DATA     BYTE      IRCBAND
      00000097H   SFRSYM    DATA     BYTE      AUXR2
      000000EFH   SFRSYM    DATA     BYTE      AUXINTIF
      000000FDH   SFRSYM    DATA     BYTE      S4CON
      000000B0H.7 SFRSYM    DATA     BIT       OLED_SCL
      000000ACH   SFRSYM    DATA     BYTE      S3CON
      0000009AH   SFRSYM    DATA     BYTE      S2CON
      000000B7H   SFRSYM    DATA     BYTE      IPH
      000000CDH   SFRSYM    DATA     BYTE      SPSTAT
      000000DDH   SFRSYM    DATA     BYTE      T4T3M
      000000C1H   SFRSYM    DATA     BYTE      WDT_CONTR
      000000DFH   SFRSYM    DATA     BYTE      IP3
      000000F4H   SFRSYM    DATA     BYTE      USBCON
      000000B5H   SFRSYM    DATA     BYTE      IP2
      000000FFH   SFRSYM    DATA     BYTE      RSTCFG
      000000F9H   SFRSYM    DATA     BYTE      LINICR
      0000008EH   SFRSYM    DATA     BYTE      AUXR
      000000AFH   SFRSYM    DATA     BYTE      IE2
      00000088H   SFRSYM    DATA     BYTE      TCON
      000000B0H.6 SFRSYM    DATA     BIT       OLED_SDIN
      00000098H   SFRSYM    DATA     BYTE      SCON
      000000F1H   SFRSYM    DATA     BYTE      CANICR
      00000087H   SFRSYM    DATA     BYTE      PCON
      000000BCH   SFRSYM    DATA     BYTE      ADC_CONTR
      000000E7H   SFRSYM    DATA     BYTE      CMPCR2
      000000E6H   SFRSYM    DATA     BYTE      CMPCR1
      00000080H.2 SFRSYM    DATA     BIT       OLED_CS
      000000B8H   SFRSYM    DATA     BYTE      IP
      0000008FH   SFRSYM    DATA     BYTE      INTCLKO
      000000EEH   SFRSYM    DATA     BYTE      IP3H
      000000B6H   SFRSYM    DATA     BYTE      IP2H
      000000A8H   SFRSYM    DATA     BYTE      IE
      000000BBH   SFRSYM    DATA     BYTE      P_SW3
      000000BAH   SFRSYM    DATA     BYTE      P_SW2
L251 LINKER/LOCATER V4.66.93.0                                                        05/09/2023  22:12:16  PAGE 89


      000000C8H.2 SFRSYM    DATA     BIT       OLED_DC
      000000A2H   SFRSYM    DATA     BYTE      P_SW1
      000000CEH   SFRSYM    DATA     BYTE      SPCTL
      000000F8H   SFRSYM    DATA     BYTE      P7
      000000E8H   SFRSYM    DATA     BYTE      P6
      000000C8H   SFRSYM    DATA     BYTE      P5
      000000C0H   SFRSYM    DATA     BYTE      P4
      000000B0H   SFRSYM    DATA     BYTE      P3
      000000A0H   SFRSYM    DATA     BYTE      P2
      00000090H   SFRSYM    DATA     BYTE      P1
      00000080H   SFRSYM    DATA     BYTE      P0
      000000C8H.1 SFRSYM    DATA     BIT       OLED_RST

      00FF571AH   BLOCK     CODE     ---       LVL=0
      R10         REGSYM    ---      BYTE      dat
      R7          REGSYM    ---      BYTE      cmd
      00FF571CH   BLOCK     CODE     NEAR LAB  LVL=1
      R6          REGSYM    ---      BYTE      i
      ---         BLOCKEND  ---      ---       LVL=1
      00FF571AH   LINE      CODE     ---       #83
      00FF571CH   LINE      CODE     ---       #84
      00FF571CH   LINE      CODE     ---       #86
      00FF5720H   LINE      CODE     ---       #88
      00FF5722H   LINE      CODE     ---       #89
      00FF5724H   LINE      CODE     ---       #90
      00FF5726H   LINE      CODE     ---       #92
      00FF5728H   LINE      CODE     ---       #93
      00FF572EH   LINE      CODE     ---       #95
      00FF5733H   LINE      CODE     ---       #97
      00FF5735H   LINE      CODE     ---       #98
      00FF5737H   LINE      CODE     ---       #100
      00FF5739H   LINE      CODE     ---       #101
      00FF573BH   LINE      CODE     ---       #104
      00FF5740H   LINE      CODE     ---       #106
      00FF5742H   LINE      CODE     ---       #107
      00FF5744H   LINE      CODE     ---       #109
      00FF5746H   LINE      CODE     ---       #110
      00FF5746H   LINE      CODE     ---       #112
      00FF5748H   LINE      CODE     ---       #113
      00FF574AH   LINE      CODE     ---       #114
      00FF5750H   LINE      CODE     ---       #115
      00FF5752H   LINE      CODE     ---       #119
      00FF5754H   LINE      CODE     ---       #120
      00FF5756H   LINE      CODE     ---       #122
      00FF5758H   LINE      CODE     ---       #124
      00FF575AH   LINE      CODE     ---       #125
      00FF575FH   LINE      CODE     ---       #127
      00FF5761H   LINE      CODE     ---       #128
      00FF5763H   LINE      CODE     ---       #130
      00FF5765H   LINE      CODE     ---       #131
      00FF5767H   LINE      CODE     ---       #132
      00FF5769H   LINE      CODE     ---       #133
      00FF576FH   LINE      CODE     ---       #135
      00FF576FH   LINE      CODE     ---       #138
      00FF5771H   LINE      CODE     ---       #139
      00FF5773H   LINE      CODE     ---       #140
      ---         BLOCKEND  ---      ---       LVL=0

      00FF5EDEH   BLOCK     CODE     ---       LVL=0
      R15         REGSYM    ---      BYTE      x
      R10         REGSYM    ---      BYTE      y
      00FF5EDEH   LINE      CODE     ---       #142
      00FF5EE2H   LINE      CODE     ---       #144
      00FF5EEDH   LINE      CODE     ---       #145
      00FF5EF9H   LINE      CODE     ---       #146
L251 LINKER/LOCATER V4.66.93.0                                                        05/09/2023  22:12:16  PAGE 90


      00FF5F02H   LINE      CODE     ---       #147
      ---         BLOCKEND  ---      ---       LVL=0

      00FF5D6DH   BLOCK     CODE     ---       LVL=0
      00FF5D6FH   BLOCK     CODE     NEAR LAB  LVL=1
      R15         REGSYM    ---      BYTE      i
      R14         REGSYM    ---      BYTE      n
      ---         BLOCKEND  ---      ---       LVL=1
      00FF5D6DH   LINE      CODE     ---       #163
      00FF5D6FH   LINE      CODE     ---       #164
      00FF5D6FH   LINE      CODE     ---       #166
      00FF5D71H   LINE      CODE     ---       #168
      00FF5D7CH   LINE      CODE     ---       #169
      00FF5D80H   LINE      CODE     ---       #170
      00FF5D85H   LINE      CODE     ---       #171
      00FF5D95H   LINE      CODE     ---       #172
      00FF5D9CH   LINE      CODE     ---       #173
      ---         BLOCKEND  ---      ---       LVL=0
      R14         REGSYM    ---      BYTE      x
      R15         REGSYM    ---      BYTE      y
      R6          REGSYM    ---      BYTE      chr
      R12         REGSYM    ---      BYTE      c
      R13         REGSYM    ---      BYTE      i
      R3          REGSYM    ---      BYTE      m
      R10         REGSYM    ---      BYTE      n
      WR6         REGSYM    ---      WORD      result
      WR14        REGSYM    ---      WORD      num
      R13         REGSYM    ---      BYTE      len
      R12         REGSYM    ---      BYTE      size2
      REG=3       REGSYM    ---      ---       chr
      R13         REGSYM    ---      BYTE      x
      R14         REGSYM    ---      BYTE      y
      R15         REGSYM    ---      BYTE      no
      R12         REGSYM    ---      BYTE      t
      R10         REGSYM    ---      BYTE      y0
      REG=3       REGSYM    ---      ---       BMP

      00FF5019H   BLOCK     CODE     ---       LVL=0
      00FF5019H   LINE      CODE     ---       #282
      00FF5019H   LINE      CODE     ---       #287
      00FF501BH   LINE      CODE     ---       #288
      00FF5022H   LINE      CODE     ---       #289
      00FF5024H   LINE      CODE     ---       #290
      00FF502BH   LINE      CODE     ---       #291
      00FF502DH   LINE      CODE     ---       #323
      00FF5034H   LINE      CODE     ---       #324
      00FF5038H   LINE      CODE     ---       #325
      00FF503DH   LINE      CODE     ---       #326
      00FF5042H   LINE      CODE     ---       #327
      00FF5047H   LINE      CODE     ---       #328
      00FF504CH   LINE      CODE     ---       #329
      00FF5051H   LINE      CODE     ---       #330
      00FF5056H   LINE      CODE     ---       #331
      00FF505BH   LINE      CODE     ---       #332
      00FF5060H   LINE      CODE     ---       #333
      00FF5065H   LINE      CODE     ---       #334
      00FF506AH   LINE      CODE     ---       #335
      00FF506EH   LINE      CODE     ---       #336
      00FF5073H   LINE      CODE     ---       #337
      00FF5078H   LINE      CODE     ---       #338
      00FF507DH   LINE      CODE     ---       #339
      00FF5082H   LINE      CODE     ---       #340
      00FF5087H   LINE      CODE     ---       #341
      00FF508CH   LINE      CODE     ---       #342
      00FF5091H   LINE      CODE     ---       #343
L251 LINKER/LOCATER V4.66.93.0                                                        05/09/2023  22:12:16  PAGE 91


      00FF5096H   LINE      CODE     ---       #344
      00FF509BH   LINE      CODE     ---       #345
      00FF50A0H   LINE      CODE     ---       #346
      00FF50A5H   LINE      CODE     ---       #347
      00FF50AAH   LINE      CODE     ---       #348
      00FF50AFH   LINE      CODE     ---       #349
      00FF50B4H   LINE      CODE     ---       #350
      00FF50B9H   LINE      CODE     ---       #352
      00FF50BEH   LINE      CODE     ---       #353
      00FF50C1H   LINE      CODE     ---       #354
      ---         BLOCKEND  ---      ---       LVL=0

      ---         MODULE    ---      ---       brushless
      00FF5F2AH   PUBLIC    CODE     ---       Brushless_Init
      000000D0H   SFRSYM    DATA     BYTE      PSW
      0000009DH   SFRSYM    DATA     BYTE      IRCBAND
      00000097H   SFRSYM    DATA     BYTE      AUXR2
      000000EFH   SFRSYM    DATA     BYTE      AUXINTIF
      000000FDH   SFRSYM    DATA     BYTE      S4CON
      000000ACH   SFRSYM    DATA     BYTE      S3CON
      0000009AH   SFRSYM    DATA     BYTE      S2CON
      000000B7H   SFRSYM    DATA     BYTE      IPH
      000000CDH   SFRSYM    DATA     BYTE      SPSTAT
      000000DDH   SFRSYM    DATA     BYTE      T4T3M
      000000C1H   SFRSYM    DATA     BYTE      WDT_CONTR
      000000DFH   SFRSYM    DATA     BYTE      IP3
      000000F4H   SFRSYM    DATA     BYTE      USBCON
      000000B5H   SFRSYM    DATA     BYTE      IP2
      000000FFH   SFRSYM    DATA     BYTE      RSTCFG
      000000F9H   SFRSYM    DATA     BYTE      LINICR
      0000008EH   SFRSYM    DATA     BYTE      AUXR
      000000AFH   SFRSYM    DATA     BYTE      IE2
      00000088H   SFRSYM    DATA     BYTE      TCON
      00000098H   SFRSYM    DATA     BYTE      SCON
      000000F1H   SFRSYM    DATA     BYTE      CANICR
      00000087H   SFRSYM    DATA     BYTE      PCON
      000000BCH   SFRSYM    DATA     BYTE      ADC_CONTR
      000000E7H   SFRSYM    DATA     BYTE      CMPCR2
      000000E6H   SFRSYM    DATA     BYTE      CMPCR1
      000000B8H   SFRSYM    DATA     BYTE      IP
      0000008FH   SFRSYM    DATA     BYTE      INTCLKO
      000000EEH   SFRSYM    DATA     BYTE      IP3H
      000000B6H   SFRSYM    DATA     BYTE      IP2H
      000000A8H   SFRSYM    DATA     BYTE      IE
      000000BBH   SFRSYM    DATA     BYTE      P_SW3
      000000BAH   SFRSYM    DATA     BYTE      P_SW2
      000000A2H   SFRSYM    DATA     BYTE      P_SW1
      000000CEH   SFRSYM    DATA     BYTE      SPCTL
      000000F8H   SFRSYM    DATA     BYTE      P7
      000000E8H   SFRSYM    DATA     BYTE      P6
      000000C8H   SFRSYM    DATA     BYTE      P5
      000000C0H   SFRSYM    DATA     BYTE      P4
      000000B0H   SFRSYM    DATA     BYTE      P3
      000000A0H   SFRSYM    DATA     BYTE      P2
      00000090H   SFRSYM    DATA     BYTE      P1
      00000080H   SFRSYM    DATA     BYTE      P0

      00FF5F2AH   BLOCK     CODE     ---       LVL=0
      00FF5F2AH   LINE      CODE     ---       #13
      00FF5F2AH   LINE      CODE     ---       #16
      00FF5F3BH   LINE      CODE     ---       #17
      ---         BLOCKEND  ---      ---       LVL=0
      WR14        REGSYM    ---      WORD      value

      ---         MODULE    ---      ---       pid
L251 LINKER/LOCATER V4.66.93.0                                                        05/09/2023  22:12:16  PAGE 92


      00FF5602H   PUBLIC    CODE     ---       PID_struct_init
      00000720H   PUBLIC    EDATA    ---       pid_right_
      00000768H   PUBLIC    EDATA    ---       pid_left_
      000007E2H   PUBLIC    EDATA    BYTE      ?PID_struct_init?BYTE
      000000D0H   SFRSYM    DATA     BYTE      PSW
      0000009DH   SFRSYM    DATA     BYTE      IRCBAND
      00000097H   SFRSYM    DATA     BYTE      AUXR2
      000000EFH   SFRSYM    DATA     BYTE      AUXINTIF
      000000FDH   SFRSYM    DATA     BYTE      S4CON
      000000ACH   SFRSYM    DATA     BYTE      S3CON
      0000009AH   SFRSYM    DATA     BYTE      S2CON
      000000B7H   SFRSYM    DATA     BYTE      IPH
      000000CDH   SFRSYM    DATA     BYTE      SPSTAT
      000000DDH   SFRSYM    DATA     BYTE      T4T3M
      000000C1H   SFRSYM    DATA     BYTE      WDT_CONTR
      000000DFH   SFRSYM    DATA     BYTE      IP3
      000000F4H   SFRSYM    DATA     BYTE      USBCON
      000000B5H   SFRSYM    DATA     BYTE      IP2
      000000FFH   SFRSYM    DATA     BYTE      RSTCFG
      000000F9H   SFRSYM    DATA     BYTE      LINICR
      0000008EH   SFRSYM    DATA     BYTE      AUXR
      000000AFH   SFRSYM    DATA     BYTE      IE2
      00000088H   SFRSYM    DATA     BYTE      TCON
      00000098H   SFRSYM    DATA     BYTE      SCON
      000000F1H   SFRSYM    DATA     BYTE      CANICR
      00000087H   SFRSYM    DATA     BYTE      PCON
      000000BCH   SFRSYM    DATA     BYTE      ADC_CONTR
      000000E7H   SFRSYM    DATA     BYTE      CMPCR2
      000000E6H   SFRSYM    DATA     BYTE      CMPCR1
      000000B8H   SFRSYM    DATA     BYTE      IP
      0000008FH   SFRSYM    DATA     BYTE      INTCLKO
      000000EEH   SFRSYM    DATA     BYTE      IP3H
      000000B6H   SFRSYM    DATA     BYTE      IP2H
      000000A8H   SFRSYM    DATA     BYTE      IE
      000000BBH   SFRSYM    DATA     BYTE      P_SW3
      000000BAH   SFRSYM    DATA     BYTE      P_SW2
      000000A2H   SFRSYM    DATA     BYTE      P_SW1
      000000CEH   SFRSYM    DATA     BYTE      SPCTL
      000000F8H   SFRSYM    DATA     BYTE      P7
      000000E8H   SFRSYM    DATA     BYTE      P6
      000000C8H   SFRSYM    DATA     BYTE      P5
      000000C0H   SFRSYM    DATA     BYTE      P4
      000000B0H   SFRSYM    DATA     BYTE      P3
      000000A0H   SFRSYM    DATA     BYTE      P2
      00000090H   SFRSYM    DATA     BYTE      P1
      00000080H   SFRSYM    DATA     BYTE      P0
      00FF5B14H   SYMBOL    CODE     ---       pid_reset
      00FF5A42H   SYMBOL    CODE     ---       pid_param_init
      REG=6       REGSYM    ---      ---       a
      DR28        REGSYM    ---      FLOAT     ABS_MAX

      00FF5A42H   BLOCK     CODE     ---       LVL=0
      REG=2       REGSYM    ---      ---       pid
      DR28        REGSYM    ---      DWORD     mode
      000007FEH   SYMBOL    EDATA    DWORD     maxout
      00000802H   SYMBOL    EDATA    DWORD     intergral_limit
      00000806H   SYMBOL    EDATA    FLOAT     kp
      0000080AH   SYMBOL    EDATA    FLOAT     ki
      0000080EH   SYMBOL    EDATA    FLOAT     kd
      00FF5A42H   LINE      CODE     ---       #25
      00FF5A46H   LINE      CODE     ---       #35
      00FF5A52H   LINE      CODE     ---       #36
      00FF5A5EH   LINE      CODE     ---       #37
      00FF5A66H   LINE      CODE     ---       #39
      00FF5A71H   LINE      CODE     ---       #40
L251 LINKER/LOCATER V4.66.93.0                                                        05/09/2023  22:12:16  PAGE 93


      00FF5A7DH   LINE      CODE     ---       #41
      00FF5A89H   LINE      CODE     ---       #42
      ---         BLOCKEND  ---      ---       LVL=0

      00FF5B14H   BLOCK     CODE     ---       LVL=0
      REG=2       REGSYM    ---      ---       pid
      DR4         REGSYM    ---      FLOAT     kp
      000007FEH   SYMBOL    EDATA    FLOAT     ki
      00000802H   SYMBOL    EDATA    FLOAT     kd
      00FF5B14H   LINE      CODE     ---       #49
      00FF5B16H   LINE      CODE     ---       #51
      00FF5B1DH   LINE      CODE     ---       #52
      00FF5B29H   LINE      CODE     ---       #53
      00FF5B35H   LINE      CODE     ---       #55
      00FF5B3FH   LINE      CODE     ---       #56
      00FF5B47H   LINE      CODE     ---       #57
      00FF5B4FH   LINE      CODE     ---       #58
      00FF5B57H   LINE      CODE     ---       #59
      ---         BLOCKEND  ---      ---       LVL=0
      REG=3       REGSYM    ---      ---       pid
      DR28        REGSYM    ---      FLOAT     get

      00FF5602H   BLOCK     CODE     ---       LVL=0
      REG=3       REGSYM    ---      ---       pid
      DR8         REGSYM    ---      DWORD     mode
      000007EAH   SYMBOL    EDATA    DWORD     maxout
      000007EEH   SYMBOL    EDATA    DWORD     intergral_limit
      000007F2H   SYMBOL    EDATA    FLOAT     kp
      000007F6H   SYMBOL    EDATA    FLOAT     ki
      000007FAH   SYMBOL    EDATA    FLOAT     kd
      00FF5602H   LINE      CODE     ---       #109
      00FF5608H   LINE      CODE     ---       #119
      00FF5610H   LINE      CODE     ---       #120
      00FF5618H   LINE      CODE     ---       #122
      00FF5642H   LINE      CODE     ---       #123
      00FF565EH   LINE      CODE     ---       #124
      ---         BLOCKEND  ---      ---       LVL=0
      REG=3       REGSYM    ---      ---       pid
      DR28        REGSYM    ---      FLOAT     get
      REG=2       REGSYM    ---      ---       pid

      ---         MODULE    ---      ---       host
      00FF5294H   PUBLIC    CODE     ---       send_five_data
      000007E1H   PUBLIC    EDATA    BYTE      ?send_five_data?BYTE
      000000D0H   SFRSYM    DATA     BYTE      PSW
      0000009DH   SFRSYM    DATA     BYTE      IRCBAND
      00000097H   SFRSYM    DATA     BYTE      AUXR2
      000000EFH   SFRSYM    DATA     BYTE      AUXINTIF
      000000FDH   SFRSYM    DATA     BYTE      S4CON
      000000ACH   SFRSYM    DATA     BYTE      S3CON
      0000009AH   SFRSYM    DATA     BYTE      S2CON
      000000B7H   SFRSYM    DATA     BYTE      IPH
      000000CDH   SFRSYM    DATA     BYTE      SPSTAT
      000000DDH   SFRSYM    DATA     BYTE      T4T3M
      000000C1H   SFRSYM    DATA     BYTE      WDT_CONTR
      000000DFH   SFRSYM    DATA     BYTE      IP3
      000000F4H   SFRSYM    DATA     BYTE      USBCON
      000000B5H   SFRSYM    DATA     BYTE      IP2
      000000FFH   SFRSYM    DATA     BYTE      RSTCFG
      000000F9H   SFRSYM    DATA     BYTE      LINICR
      0000008EH   SFRSYM    DATA     BYTE      AUXR
      000000AFH   SFRSYM    DATA     BYTE      IE2
      00000088H   SFRSYM    DATA     BYTE      TCON
      00000098H   SFRSYM    DATA     BYTE      SCON
      000000F1H   SFRSYM    DATA     BYTE      CANICR
L251 LINKER/LOCATER V4.66.93.0                                                        05/09/2023  22:12:16  PAGE 94


      00000087H   SFRSYM    DATA     BYTE      PCON
      000000BCH   SFRSYM    DATA     BYTE      ADC_CONTR
      000000E7H   SFRSYM    DATA     BYTE      CMPCR2
      000000E6H   SFRSYM    DATA     BYTE      CMPCR1
      000000B8H   SFRSYM    DATA     BYTE      IP
      0000008FH   SFRSYM    DATA     BYTE      INTCLKO
      000000EEH   SFRSYM    DATA     BYTE      IP3H
      000000B6H   SFRSYM    DATA     BYTE      IP2H
      000000A8H   SFRSYM    DATA     BYTE      IE
      000000BBH   SFRSYM    DATA     BYTE      P_SW3
      000000BAH   SFRSYM    DATA     BYTE      P_SW2
      000000A2H   SFRSYM    DATA     BYTE      P_SW1
      000000CEH   SFRSYM    DATA     BYTE      SPCTL
      000000F8H   SFRSYM    DATA     BYTE      P7
      000000E8H   SFRSYM    DATA     BYTE      P6
      000000C8H   SFRSYM    DATA     BYTE      P5
      000000C0H   SFRSYM    DATA     BYTE      P4
      000000B0H   SFRSYM    DATA     BYTE      P3
      000000A0H   SFRSYM    DATA     BYTE      P2
      00000090H   SFRSYM    DATA     BYTE      P1
      00000080H   SFRSYM    DATA     BYTE      P0

      00FF5294H   BLOCK     CODE     ---       LVL=0
      R10         REGSYM    ---      BYTE      frame
      WR8         REGSYM    ---      INT       num1
      WR4         REGSYM    ---      INT       num2
      WR2         REGSYM    ---      INT       num3
      WR0         REGSYM    ---      INT       num4
      000007EAH   SYMBOL    EDATA    INT       num5
      00FF529AH   BLOCK     CODE     NEAR LAB  LVL=1
      R15         REGSYM    ---      BYTE      i
      R6          REGSYM    ---      BYTE      sumcheck
      R7          REGSYM    ---      BYTE      addcheck
      000007ECH   SYMBOL    EDATA    ---       data_buf
      ---         BLOCKEND  ---      ---       LVL=1
      00FF5294H   LINE      CODE     ---       #35
      00FF529AH   LINE      CODE     ---       #36
      00FF529AH   LINE      CODE     ---       #38
      00FF529CH   LINE      CODE     ---       #39
      00FF529EH   LINE      CODE     ---       #43
      00FF52A4H   LINE      CODE     ---       #44
      00FF52AAH   LINE      CODE     ---       #45
      00FF52AEH   LINE      CODE     ---       #46
      00FF52B4H   LINE      CODE     ---       #49
      00FF52B8H   LINE      CODE     ---       #50
      00FF52BCH   LINE      CODE     ---       #51
      00FF52C0H   LINE      CODE     ---       #52
      00FF52C4H   LINE      CODE     ---       #53
      00FF52CCH   LINE      CODE     ---       #55
      00FF52D2H   LINE      CODE     ---       #56
      00FF52D8H   LINE      CODE     ---       #57
      00FF52DEH   LINE      CODE     ---       #58
      00FF52E4H   LINE      CODE     ---       #59
      00FF52EAH   LINE      CODE     ---       #62
      00FF52EEH   LINE      CODE     ---       #64
      00FF52F6H   LINE      CODE     ---       #65
      00FF52F8H   LINE      CODE     ---       #66
      00FF5308H   LINE      CODE     ---       #67
      00FF530CH   LINE      CODE     ---       #68
      00FF5310H   LINE      CODE     ---       #71
      00FF5312H   LINE      CODE     ---       #72
      00FF5324H   LINE      CODE     ---       #74
      ---         BLOCKEND  ---      ---       LVL=0

      ---         MODULE    ---      ---       SEEKFREE_CONFIG
L251 LINKER/LOCATER V4.66.93.0                                                        05/09/2023  22:12:16  PAGE 95


      00FF00A6H   PUBLIC    CODE     ---       imu660ra_config_file

      ---         MODULE    ---      ---       ?C?FPADD
      00FF2EB4H   PUBLIC    CODE     ---       ?C?FPADD
      00FF2EB1H   PUBLIC    CODE     ---       ?C?FPSUB

      ---         MODULE    ---      ---       ?C?FPMUL
      00FF2F6CH   PUBLIC    CODE     ---       ?C?FPMUL

      ---         MODULE    ---      ---       ?C?FPDIV
      00FF300CH   PUBLIC    CODE     ---       ?C?FPDIV

      ---         MODULE    ---      ---       ?C?FPCMP
      00FF308FH   PUBLIC    CODE     ---       ?C?FPCMP
      00FF308DH   PUBLIC    CODE     ---       ?C?FPCMP3

      ---         MODULE    ---      ---       ?C?FPNEG
      00FF30D3H   PUBLIC    CODE     ---       ?C?FPNEG

      ---         MODULE    ---      ---       ?C?FCAST
      00FF30EBH   PUBLIC    CODE     NEAR LAB  ?C?FCASTC
      00FF30E6H   PUBLIC    CODE     NEAR LAB  ?C?FCASTI
      00FF30E1H   PUBLIC    CODE     NEAR LAB  ?C?FCASTL

      ---         MODULE    ---      ---       ?C?CASTF
      00FF311EH   PUBLIC    CODE     NEAR LAB  ?C?CASTF

      ---         MODULE    ---      ---       PRINTF
      00FF315BH   PUBLIC    CODE     NEAR LAB  PRINTF

      ---         MODULE    ---      ---       FABS
      00FF3187H   PUBLIC    CODE     NEAR LAB  FABS?_

      ---         MODULE    ---      ---       SQRT?_
      00FF3196H   PUBLIC    CODE     ---       SQRT?_

      ---         MODULE    ---      ---       SIN?_
      00FF326EH   PUBLIC    CODE     ---       COS?_
      00FF328BH   PUBLIC    CODE     ---       SIN?_
      00FF32B8H   PUBLIC    CODE     ---       TAN?_

      ---         MODULE    ---      ---       ?C?FPGETOPN
      00FF335EH   PUBLIC    CODE     ---       ?C?FPGETOPN2
      00FF339BH   PUBLIC    CODE     ---       ?C?FPNANRESULT
      00FF33A3H   PUBLIC    CODE     ---       ?C?FPOVERFLOW
      00FF3377H   PUBLIC    CODE     ---       ?C?FPRESULT
      00FF338DH   PUBLIC    CODE     ---       ?C?FPRESULT2
      00FF33A0H   PUBLIC    CODE     ---       ?C?FPUNDERFLOW

      ---         MODULE    ---      ---       ?C?PRNFMT
      00FF33DCH   PUBLIC    CODE     ---       ?C?PRNFMT

      ---         MODULE    ---      ---       ?C?FPSERIES
      00FF37EBH   PUBLIC    CODE     ---       ?C?FP2SERIES
      00FF37F4H   PUBLIC    CODE     ---       ?C?FPSERIES

      ---         MODULE    ---      ---       ?C?FPCONVERT
      00FF3826H   PUBLIC    CODE     ---       ?C?FPCONVERT
      00FF38DEH   PUBLIC    CODE     ---       ?C?FPROUND

      ---         MODULE    ---      ---       ?C?FTNPWR
      00FF3951H   PUBLIC    CODE     ---       ?C?FTNPWR

      ---         MODULE    ---      ---       ?C_START
      00FF0000H   PUBLIC    CODE     ---       ?C?STARTUP
L251 LINKER/LOCATER V4.66.93.0                                                        05/09/2023  22:12:16  PAGE 96


      00FF0000H   PUBLIC    CODE     ---       ?C_STARTUP

      ---         MODULE    ---      ---       ?C?INITEDATA
      00FF5BADH   PUBLIC    CODE     ---       ?C?INITEDATA

      ---         MODULE    ---      ---       ?C?SIDIV
      00FF3988H   PUBLIC    CODE     ---       ?C?SIDIV

      ---         MODULE    ---      ---       ?C?LMUL
      00FF39BAH   PUBLIC    CODE     ---       ?C?LMUL

      ---         MODULE    ---      ---       ?C?LIMUL
      00FF39CBH   PUBLIC    CODE     ---       ?C?LIMUL

      ---         MODULE    ---      ---       ?C?ULDIV
      00FF39D6H   PUBLIC    CODE     NEAR LAB  ?C?ULDIV
      00FF39D4H   PUBLIC    CODE     NEAR LAB  ?C?ULIDIV

      ---         MODULE    ---      ---       ?C?SLDIV
      00FF3A27H   PUBLIC    CODE     NEAR LAB  ?C?SLDIV

      ---         MODULE    ---      ---       memcpy
      00FF5F05H   PUBLIC    CODE     ---       memcpy?_

      ---         MODULE    ---      ---       memset

      ---         MODULE    ---      ---       ?C?INITEDATA_END
      00FF70F7H   PUBLIC    HCONST   WORD      ?C?INITEDATA_END

Program Size: data=8.0 edata+hdata=2689 xdata=0 const=4008 code=25188
L251 RUN COMPLETE.  0 WARNING(S),  0 ERROR(S)
