L251 LINKER/LOCATER V4.66.93.0                                                          05/06/2023  18:04:44  PAGE 1


L251 LINKER/LOCATER V4.66.93.0, INVOKED BY:
D:\KEIL_V5\C251\BIN\L251.EXE .\Out_File\board.obj, .\Out_File\common.obj, .\Out_File\zf_adc.obj, .\Out_File\zf_delay.obj
>> , .\Out_File\zf_eeprom.obj, .\Out_File\zf_exti.obj, .\Out_File\zf_gpio.obj, .\Out_File\zf_iic.obj, .\Out_File\zf_nvic
>> .obj, .\Out_File\zf_pwm.obj, .\Out_File\zf_spi.obj, .\Out_File\zf_tim.obj, .\Out_File\zf_uart.obj, .\Out_File\zf_fifo
>> .obj, .\Out_File\SEEKFREE_ABSOLUTE_ENCODER.obj, .\Out_File\SEEKFREE_AT24C02.obj, .\Out_File\SEEKFREE_BLUETOOTH_CH9141
>> .obj, ..\..\Libraries\seekfree_peripheral\SEEKFREE_CONFIG.LIB, .\Out_File\SEEKFREE_DL1A.obj, .\Out_File\SEEKFREE_FONT
>> .obj, .\Out_File\SEEKFREE_ICM20602.obj, .\Out_File\SEEKFREE_IMU660RA.obj, .\Out_File\SEEKFREE_IMU963RA.obj, .\Out_Fil
>> e\SEEKFREE_IPS114_SPI.obj, .\Out_File\SEEKFREE_MPU6050.obj, .\Out_File\SEEKFREE_PRINTF.obj, .\Out_File\SEEKFREE_TSL14
>> 01.obj, .\Out_File\SEEKFREE_VIRSCO.obj, .\Out_File\SEEKFREE_WIRELESS.obj, .\Out_File\SEEKFREE_WIRELESS_CH573.obj, .\O
>> ut_File\isr.obj, .\Out_File\main.obj, .\Out_File\adc.obj, .\Out_File\control.obj, .\Out_File\key.obj, .\Out_File\moto
>> r.obj, .\Out_File\steer.obj, .\Out_File\timer.obj, .\Out_File\oled.obj, .\Out_File\brushless.obj, .\Out_File\pid.obj,
>>  .\Out_File\host.obj TO .\Out_File\SEEKFREE PRINT (.\Out_File\SEEKFREE.map) CASE DISABLEWARNING (16, 57) REMOVEUNUSED
>>  CLASSES (EDATA (0X0-0XFFF), HDATA (0X0-0XFFF))


CPU MODE:     251 SOURCE MODE
INTR FRAME:   2 BYTES SAVED ON INTERRUPT
MEMORY MODEL: XSMALL WITH FLOATING POINT ARITHMETIC


INPUT MODULES INCLUDED:
  .\Out_File\board.obj (board)
         COMMENT TYPE 0: C251 V5.60.0
  .\Out_File\common.obj (common)
         COMMENT TYPE 0: C251 V5.60.0
  .\Out_File\zf_adc.obj (zf_adc)
         COMMENT TYPE 0: C251 V5.60.0
  .\Out_File\zf_delay.obj (zf_delay)
         COMMENT TYPE 0: C251 V5.60.0
  .\Out_File\zf_eeprom.obj (zf_eeprom)
         COMMENT TYPE 0: C251 V5.60.0
  .\Out_File\zf_exti.obj (zf_exti)
         COMMENT TYPE 0: C251 V5.60.0
  .\Out_File\zf_gpio.obj (zf_gpio)
         COMMENT TYPE 0: C251 V5.60.0
  .\Out_File\zf_iic.obj (zf_iic)
         COMMENT TYPE 0: C251 V5.60.0
  .\Out_File\zf_nvic.obj (zf_nvic)
         COMMENT TYPE 0: C251 V5.60.0
  .\Out_File\zf_pwm.obj (zf_pwm)
         COMMENT TYPE 0: C251 V5.60.0
  .\Out_File\zf_spi.obj (zf_spi)
         COMMENT TYPE 0: C251 V5.60.0
  .\Out_File\zf_tim.obj (zf_tim)
         COMMENT TYPE 0: C251 V5.60.0
  .\Out_File\zf_uart.obj (zf_uart)
         COMMENT TYPE 0: C251 V5.60.0
  .\Out_File\zf_fifo.obj (zf_fifo)
         COMMENT TYPE 0: C251 V5.60.0
  .\Out_File\SEEKFREE_ABSOLUTE_ENCODER.obj (SEEKFREE_ABSOLUTE_ENCODER)
         COMMENT TYPE 0: C251 V5.60.0
  .\Out_File\SEEKFREE_AT24C02.obj (SEEKFREE_AT24C02)
         COMMENT TYPE 0: C251 V5.60.0
  .\Out_File\SEEKFREE_BLUETOOTH_CH9141.obj (SEEKFREE_BLUETOOTH_CH9141)
         COMMENT TYPE 0: C251 V5.60.0
  .\Out_File\SEEKFREE_DL1A.obj (SEEKFREE_DL1A)
         COMMENT TYPE 0: C251 V5.60.0
  .\Out_File\SEEKFREE_FONT.obj (SEEKFREE_FONT)
         COMMENT TYPE 0: C251 V5.60.0
  .\Out_File\SEEKFREE_ICM20602.obj (SEEKFREE_ICM20602)
         COMMENT TYPE 0: C251 V5.60.0
  .\Out_File\SEEKFREE_IMU660RA.obj (SEEKFREE_IMU660RA)
         COMMENT TYPE 0: C251 V5.60.0
  .\Out_File\SEEKFREE_IMU963RA.obj (SEEKFREE_IMU963RA)
         COMMENT TYPE 0: C251 V5.60.0
  .\Out_File\SEEKFREE_IPS114_SPI.obj (SEEKFREE_IPS114_SPI)
L251 LINKER/LOCATER V4.66.93.0                                                        05/06/2023  18:04:44  PAGE 2


         COMMENT TYPE 0: C251 V5.60.0
  .\Out_File\SEEKFREE_MPU6050.obj (SEEKFREE_MPU6050)
         COMMENT TYPE 0: C251 V5.60.0
  .\Out_File\SEEKFREE_PRINTF.obj (SEEKFREE_PRINTF)
         COMMENT TYPE 0: C251 V5.60.0
  .\Out_File\SEEKFREE_TSL1401.obj (SEEKFREE_TSL1401)
         COMMENT TYPE 0: C251 V5.60.0
  .\Out_File\SEEKFREE_VIRSCO.obj (SEEKFREE_VIRSCO)
         COMMENT TYPE 0: C251 V5.60.0
  .\Out_File\SEEKFREE_WIRELESS.obj (SEEKFREE_WIRELESS)
         COMMENT TYPE 0: C251 V5.60.0
  .\Out_File\SEEKFREE_WIRELESS_CH573.obj (SEEKFREE_WIRELESS_CH573)
         COMMENT TYPE 0: C251 V5.60.0
  .\Out_File\isr.obj (isr)
         COMMENT TYPE 0: C251 V5.60.0
  .\Out_File\main.obj (main)
         COMMENT TYPE 0: C251 V5.60.0
  .\Out_File\adc.obj (adc)
         COMMENT TYPE 0: C251 V5.60.0
  .\Out_File\control.obj (control)
         COMMENT TYPE 0: C251 V5.60.0
  .\Out_File\key.obj (key)
         COMMENT TYPE 0: C251 V5.60.0
  .\Out_File\motor.obj (motor)
         COMMENT TYPE 0: C251 V5.60.0
  .\Out_File\steer.obj (steer)
         COMMENT TYPE 0: C251 V5.60.0
  .\Out_File\timer.obj (timer)
         COMMENT TYPE 0: C251 V5.60.0
  .\Out_File\oled.obj (oled)
         COMMENT TYPE 0: C251 V5.60.0
  .\Out_File\brushless.obj (brushless)
         COMMENT TYPE 0: C251 V5.60.0
  .\Out_File\pid.obj (pid)
         COMMENT TYPE 0: C251 V5.60.0
  .\Out_File\host.obj (host)
         COMMENT TYPE 0: C251 V5.60.0
  ..\..\Libraries\seekfree_peripheral\SEEKFREE_CONFIG.LIB (SEEKFREE_CONFIG)
         COMMENT TYPE 0: C251 V5.60.0
  D:\KEIL_V5\C251\LIB\C2SFPXS.LIB (?C?FPADD)
         COMMENT TYPE 0: A251 V4.69.6.0
  D:\KEIL_V5\C251\LIB\C2SFPXS.LIB (?C?FPMUL)
         COMMENT TYPE 0: A251 V4.69.6.0
  D:\KEIL_V5\C251\LIB\C2SFPXS.LIB (?C?FPDIV)
         COMMENT TYPE 0: A251 V4.69.6.0
  D:\KEIL_V5\C251\LIB\C2SFPXS.LIB (?C?FPCMP)
         COMMENT TYPE 0: A251 V4.69.6.0
  D:\KEIL_V5\C251\LIB\C2SFPXS.LIB (?C?FPNEG)
         COMMENT TYPE 0: A251 V4.69.6.0
  D:\KEIL_V5\C251\LIB\C2SFPXS.LIB (?C?FCAST)
         COMMENT TYPE 0: A251 V4.69.6.0
  D:\KEIL_V5\C251\LIB\C2SFPXS.LIB (?C?CASTF)
         COMMENT TYPE 0: A251 V4.69.6.0
  D:\KEIL_V5\C251\LIB\C2SFPXS.LIB (PRINTF)
         COMMENT TYPE 0: A251 V4.69.6.0
  D:\KEIL_V5\C251\LIB\C2SFPXS.LIB (FABS)
         COMMENT TYPE 0: A251 V4.69.6.0
  D:\KEIL_V5\C251\LIB\C2SFPXS.LIB (SQRT?_)
         COMMENT TYPE 0: A251 V4.69.6.0
  D:\KEIL_V5\C251\LIB\C2SFPXS.LIB (SIN?_)
         COMMENT TYPE 0: A251 V4.69.6.0
  D:\KEIL_V5\C251\LIB\C2SFPXS.LIB (?C?FPGETOPN)
         COMMENT TYPE 0: A251 V4.69.6.0
  D:\KEIL_V5\C251\LIB\C2SFPXS.LIB (?C?PRNFMT)
         COMMENT TYPE 0: A251 V4.69.6.0
L251 LINKER/LOCATER V4.66.93.0                                                        05/06/2023  18:04:44  PAGE 3


  D:\KEIL_V5\C251\LIB\C2SFPXS.LIB (?C?FPSERIES)
         COMMENT TYPE 0: A251 V4.69.6.0
  D:\KEIL_V5\C251\LIB\C2SFPXS.LIB (?C?FPCONVERT)
         COMMENT TYPE 0: A251 V4.69.6.0
  D:\KEIL_V5\C251\LIB\C2SFPXS.LIB (?C?FTNPWR)
         COMMENT TYPE 0: A251 V4.69.6.0
  D:\KEIL_V5\C251\LIB\C2SXS.LIB (?C_START)
         COMMENT TYPE 0: A251 V4.69.6.0
  D:\KEIL_V5\C251\LIB\C2SXS.LIB (?C?INITEDATA)
         COMMENT TYPE 0: A251 V4.69.6.0
  D:\KEIL_V5\C251\LIB\C2SXS.LIB (?C?SIDIV)
         COMMENT TYPE 0: A251 V4.69.6.0
  D:\KEIL_V5\C251\LIB\C2SXS.LIB (?C?LMUL)
         COMMENT TYPE 0: A251 V4.69.6.0
  D:\KEIL_V5\C251\LIB\C2SXS.LIB (?C?LIMUL)
         COMMENT TYPE 0: A251 V4.69.6.0
  D:\KEIL_V5\C251\LIB\C2SXS.LIB (?C?ULDIV)
         COMMENT TYPE 0: A251 V4.69.6.0
  D:\KEIL_V5\C251\LIB\C2SXS.LIB (?C?SLDIV)
         COMMENT TYPE 0: A251 V4.69.6.0
  D:\KEIL_V5\C251\LIB\C2SXS.LIB (memcpy)
         COMMENT TYPE 0: C251 V5.58.7
  D:\KEIL_V5\C251\LIB\C2SXS.LIB (memset)
         COMMENT TYPE 0: C251 V5.58.7
  D:\KEIL_V5\C251\LIB\C2SXS.LIB (?C?INITEDATA_END)
         COMMENT TYPE 0: A251 V4.69.6.0


ACTIVE MEMORY CLASSES OF MODULE:  .\Out_File\SEEKFREE (board)

BASE        START       END         USED      MEMORY CLASS
==========================================================
000000H     000000H     000FFFH     00099BH   EDATA
000000H     000000H     000FFFH               HDATA
FF0000H     FF0000H     FFFFFFH     006034H   CODE
000000H     FF0000H     FFFFFFH     000EFCH   HCONST
FF0000H     FF0000H     FFFFFFH     000004H   CONST
000000H     000000H     00007FH     000008H   DATA


MEMORY MAP OF MODULE:  .\Out_File\SEEKFREE (board)


START     STOP      LENGTH    ALIGN  RELOC    MEMORY CLASS   SEGMENT NAME
=========================================================================
000000H   000007H   000008H   ---    AT..     DATA           "REG BANK 0"
000008H   0003C8H   0003C1H   BYTE   UNIT     EDATA          ?ED?OLED
0003C9H   0004C9H   000101H   BYTE   UNIT     EDATA          ?ED?SEEKFREE_TSL1401
0004CAH   000596H   0000CDH   BYTE   UNIT     EDATA          ?ED?ZF_UART
000597H   00064DH   0000B7H   BYTE   UNIT     EDATA          ?ED?CONTROL
00064EH   0006DDH   000090H   BYTE   UNIT     EDATA          ?ED?PID
0006DEH   000732H   000055H   BYTE   UNIT     EDATA          ?ED?SEEKFREE_BLUETOOTH_CH9141
000733H   000787H   000055H   BYTE   UNIT     EDATA          ?ED?SEEKFREE_WIRELESS
000788H   0007DCH   000055H   BYTE   UNIT     EDATA          ?ED?SEEKFREE_WIRELESS_CH573
0007DDH   00081AH   00003EH   BYTE   UNIT     EDATA          _EDATA_GROUP_
00081BH   00082CH   000012H   BYTE   UNIT     EDATA          ?ED?SEEKFREE_IMU963RA
00082DH   00083CH   000010H   BYTE   UNIT     EDATA          ?ED?ADC
00083DH   000848H   00000CH   BYTE   UNIT     EDATA          ?ED?SEEKFREE_ICM20602
000849H   000854H   00000CH   BYTE   UNIT     EDATA          ?ED?SEEKFREE_IMU660RA
000855H   000860H   00000CH   BYTE   UNIT     EDATA          ?ED?SEEKFREE_MPU6050
000861H   00086AH   00000AH   BYTE   UNIT     EDATA          ?ED?SEEKFREE_VIRSCO
00086BH   000870H   000006H   BYTE   UNIT     EDATA          ?ED?DL1A_SIMIIC_READ_REGS?SEEKFREE_DL1A
000871H   000876H   000006H   BYTE   UNIT     EDATA          ?ED?DL1A_GET_SEQUENCE_STEP_TIMEOUTS?SEEKFREE_DL1A
000877H   00087BH   000005H   BYTE   UNIT     EDATA          ?ED?DL1A_SIMIIC_WRITE_DATS?SEEKFREE_DL1A
00087CH   00087FH   000004H   BYTE   UNIT     EDATA          ?ED?BOARD
L251 LINKER/LOCATER V4.66.93.0                                                        05/06/2023  18:04:44  PAGE 4


000880H   000883H   000004H   BYTE   UNIT     EDATA          ?ED?ZF_DELAY
000884H   000887H   000004H   BYTE   UNIT     EDATA          ?ED?ICM20602_SIMSPI_R_REG_BYTES?SEEKFREE_ICM20602
000888H   00088BH   000004H   BYTE   UNIT     EDATA          ?ED?IMU660RA_SIMSPI_R_REG_BYTES?SEEKFREE_IMU660RA
00088CH   00088FH   000004H   BYTE   UNIT     EDATA          ?ED?MOTOR
000890H   000893H   000004H   BYTE   UNIT     EDATA          ?ED?STEER
000894H   000896H   000003H   BYTE   UNIT     EDATA          ?ED?SEEKFREE_DL1A
000897H   000898H   000002H   BYTE   UNIT     EDATA          ?ED?COMMON
000899H   00089AH   000002H   BYTE   UNIT     EDATA          ?ED?IMU660RA_READ_REGISTER?SEEKFREE_IMU660RA
00089BH   00089CH   000002H   BYTE   UNIT     EDATA          ?ED?IPS114_WRITEDATA_16BIT?SEEKFREE_IPS114_SPI
00089DH   00089DH   000001H   BYTE   UNIT     EDATA          ?ED?DL1A_GET_SEQUENCE_STEP_ENABLES?SEEKFREE_DL1A
00089EH   00089EH   000001H   BYTE   UNIT     EDATA          ?ED?DL1A_GET_VCSEL_PULSE_PERIOD?SEEKFREE_DL1A
00089FH   00089FH   000001H   BYTE   UNIT     EDATA          ?ED?ICM20602_READ_REGISTER?SEEKFREE_ICM20602
0008A0H   0008A0H   000001H   BYTE   UNIT     EDATA          ?ED?IMU963RA_READ_ACC_GYRO_REGISTER?SEEKFREE_IMU963RA
0008A1H   0008A1H   000001H   BYTE   UNIT     EDATA          ?ED?ISR
0008A2H   0008A2H   000001H   BYTE   UNIT     EDATA          ?ED?KEY
0008A3H   0009A2H   000100H   BYTE   UNIT     EDATA          ?STACK
0009A3H   FEFFFFH   FEF65DH   ---    ---      **GAP**
FF0000H   FF0002H   000003H   ---    OFFS..   CODE           ?CO?start251?4
FF0003H   FF0005H   000003H   ---    OFFS..   CODE           ?PR?IV?0
FF0006H   FF000AH   000005H   BYTE   INSEG    CODE           ?PR?ENCODER_DELAY_US?SEEKFREE_ABSOLUTE_ENCODER
FF000BH   FF000DH   000003H   ---    OFFS..   CODE           ?PR?IV?1
FF000EH   FF0010H   000003H   BYTE   INSEG    CODE           ?PR?ENABLEGLOBALIRQ?BOARD
FF0011H   FF0011H   000001H   BYTE   INSEG    CODE           ?PR?INT1_ISR?ISR
FF0012H   FF0012H   000001H   BYTE   INSEG    CODE           ?PR?TM0_ISR?ISR
FF0013H   FF0015H   000003H   ---    OFFS..   CODE           ?PR?IV?2
FF0016H   FF0016H   000001H   BYTE   INSEG    CODE           ?PR?TM1_ISR?ISR
FF0017H   FF001AH   000004H   BYTE   UNIT     CONST          ?CO?PRINTF
FF001BH   FF001DH   000003H   ---    OFFS..   CODE           ?PR?IV?3
FF001EH   FF0022H   000005H   ---    ---      **GAP**
FF0023H   FF0025H   000003H   ---    OFFS..   CODE           ?PR?IV?4
FF0026H   FF0041H   00001CH   BYTE   INSEG    CODE           ?PR?DL1A_SCCB_WAITACK?SEEKFREE_DL1A
FF0042H   FF0042H   000001H   ---    ---      **GAP**
FF0043H   FF0045H   000003H   ---    OFFS..   CODE           ?PR?IV?8
FF0046H   FF0052H   00000DH   BYTE   INSEG    CODE           ?PR?AT24C02_SIMIIC_DELAY?SEEKFREE_AT24C02
FF0053H   FF0055H   000003H   ---    OFFS..   CODE           ?PR?IV?10
FF0056H   FF005AH   000005H   ---    ---      **GAP**
FF005BH   FF005DH   000003H   ---    OFFS..   CODE           ?PR?IV?11
FF005EH   FF0062H   000005H   ---    ---      **GAP**
FF0063H   FF0065H   000003H   ---    OFFS..   CODE           ?PR?IV?12
FF0066H   FF0081H   00001CH   BYTE   INSEG    CODE           ?PR?IMU963RA_SIMSPI_R_REG_BYTE?SEEKFREE_IMU963RA
FF0082H   FF0082H   000001H   ---    ---      **GAP**
FF0083H   FF0085H   000003H   ---    OFFS..   CODE           ?PR?IV?16
FF0086H   FF008AH   000005H   ---    ---      **GAP**
FF008BH   FF008DH   000003H   ---    OFFS..   CODE           ?PR?IV?17
FF008EH   FF0092H   000005H   ---    ---      **GAP**
FF0093H   FF0095H   000003H   ---    OFFS..   CODE           ?PR?IV?18
FF0096H   FF009AH   000005H   ---    ---      **GAP**
FF009BH   FF009DH   000003H   ---    OFFS..   CODE           ?PR?IV?19
FF009EH   FF00A2H   000005H   ---    ---      **GAP**
FF00A3H   FF00A5H   000003H   ---    OFFS..   CODE           ?PR?IV?20
FF00A6H   FF20A5H   002000H   BYTE   UNIT     CODE           ?CO?SEEKFREE_CONFIG
FF20A6H   FF2EADH   000E08H   BYTE   UNIT     CODE           ?CO?SEEKFREE_FONT
FF2EAEH   FF3A5AH   000BADH   BYTE   UNIT     CODE           ?C?LIB_CODE
FF3A5BH   FF3E51H   0003F7H   BYTE   INSEG    CODE           ?PR?GPIO_MODE?ZF_GPIO
FF3E52H   FF414DH   0002FCH   BYTE   INSEG    CODE           ?PR?PWM_INIT?ZF_PWM
FF414EH   FF43EEH   0002A1H   BYTE   INSEG    CODE           ?PR?PWM_SET_GPIO?ZF_PWM
FF43EFH   FF45ADH   0001BFH   BYTE   INSEG    CODE           ?PR?UART_INIT?ZF_UART
FF45AEH   FF4739H   00018CH   BYTE   INSEG    CODE           ?PR?TM4_ISR?ISR
FF473AH   FF486EH   000135H   BYTE   INSEG    CODE           ?PR?DIRECT_JUDGE?CONTROL
FF486FH   FF4990H   000122H   BYTE   INSEG    CODE           ?PR?SET_CLK?BOARD
FF4991H   FF4A9BH   00010BH   BYTE   INSEG    CODE           ?PR?MAIN?MAIN
FF4A9CH   FF4B7BH   0000E0H   BYTE   INSEG    CODE           ?PR?FIFO_WRITE_BUFFER?ZF_FIFO
FF4B7CH   FF4C56H   0000DBH   BYTE   INSEG    CODE           ?PR?DL1A_GET_SEQUENCE_STEP_TIMEOUTS?SEEKFREE_DL1A
FF4C57H   FF4D1EH   0000C8H   BYTE   INSEG    CODE           ?PR?PWM_DUTY?ZF_PWM
FF4D1FH   FF4DCCH   0000AEH   BYTE   INSEG    CODE           ?PR?OLED_INIT?OLED
L251 LINKER/LOCATER V4.66.93.0                                                        05/06/2023  18:04:44  PAGE 5


FF4DCDH   FF4E72H   0000A6H   BYTE   INSEG    CODE           ?PR?TM3_ISR?ISR
FF4E73H   FF4F17H   0000A5H   BYTE   INSEG    CODE           ?PR?MOTOR_CONTROL?MOTOR
FF4F18H   FF4FB1H   00009AH   BYTE   INSEG    CODE           ?PR?STEER_SPIN?STEER
FF4FB2H   FF5045H   000094H   BYTE   INSEG    CODE           ?PR?BOARD_INIT?BOARD
FF5046H   FF50D9H   000094H   BYTE   INSEG    CODE           ?PR?PIT_TIMER_MS?ZF_TIM
FF50DAH   FF516CH   000093H   BYTE   INSEG    CODE           ?PR?SEND_FIVE_DATA?HOST
FF516DH   FF51FEH   000092H   BYTE   INSEG    CODE           ?PR?LOST_LINE_JUDGE?CONTROL
FF51FFH   FF5277H   000079H   BYTE   INSEG    CODE           ?PR?READ_ADC_VALUE?ADC
FF5278H   FF52E7H   000070H   BYTE   INSEG    CODE           ?PR?ADC_ERROR_PROCESSING?CONTROL
FF52E8H   FF5350H   000069H   BYTE   INSEG    CODE           ?PR?UART4_ISR?ISR
FF5351H   FF53B7H   000067H   BYTE   INSEG    CODE           ?PR?CORRECT_ANGLE?CONTROL
FF53B8H   FF5416H   00005FH   BYTE   INSEG    CODE           ?PR?PID_STRUCT_INIT?PID
FF5417H   FF5474H   00005EH   BYTE   INSEG    CODE           ?PR?ADC_INIT?ZF_ADC
FF5475H   FF54D1H   00005DH   BYTE   INSEG    CODE           ?PR?LOSTLINE_DEAL?CONTROL
FF54D2H   FF552CH   00005BH   BYTE   INSEG    CODE           ?PR?ADC_ERROR_WINDOW_FILTERING?CONTROL
FF552DH   FF5586H   00005AH   BYTE   INSEG    CODE           ?PR?OLED_WR_BYTE?OLED
FF5587H   FF55DEH   000058H   BYTE   INSEG    CODE           ?PR?DL1A_GET_SEQUENCE_STEP_ENABLES?SEEKFREE_DL1A
FF55DFH   FF5632H   000054H   BYTE   INSEG    CODE           ?PR?UART_PUTCHAR?ZF_UART
FF5633H   FF5686H   000054H   BYTE   INSEG    CODE           ?PR?DL1A_SIMIIC_READ_REGS?SEEKFREE_DL1A
FF5687H   FF56D8H   000052H   BYTE   INSEG    CODE           ?PR?IMU963RA_READ_MAG_REGISTER?SEEKFREE_IMU963RA
FF56D9H   FF5728H   000050H   BYTE   INSEG    CODE           ?PR?MOTOR_INIT?MOTOR
FF5729H   FF5775H   00004DH   BYTE   INSEG    CODE           ?PR?DL1A_GET_VCSEL_PULSE_PERIOD?SEEKFREE_DL1A
FF5776H   FF57C2H   00004DH   BYTE   INSEG    CODE           ?PR?ADC_MEAN_FILTER?ADC
FF57C3H   FF580CH   00004AH   BYTE   INSEG    CODE           ?PR?CTIMER_COUNT_INIT?ZF_TIM
FF580DH   FF5854H   000048H   BYTE   INSEG    CODE           ?PR?MY_ADC_INIT?ADC
FF5855H   FF589CH   000048H   BYTE   INSEG    CODE           ?PR?PID_PARAM_INIT?PID
FF589DH   FF58E1H   000045H   BYTE   INSEG    CODE           ?PR?WAIT?ZF_IIC
FF58E2H   FF5925H   000044H   BYTE   INSEG    CODE           ?PR?PID_RESET?PID
FF5926H   FF5967H   000042H   BYTE   INSEG    CODE           ?PR?FIFO_HEAD_OFFSET?ZF_FIFO
FF5968H   FF597AH   000013H   BYTE   UNIT     CODE           ?C_C51STARTUP
FF597BH   FF59A3H   000029H   BYTE   UNIT     CODE           ?C_C51STARTUP?2
FF59A4H   FF59A6H   000003H   BYTE   UNIT     CODE           ?C_C51STARTUP?3
FF59A7H   FF59E4H   00003EH   BYTE   INSEG    CODE           ?PR?DL1A_TIMEOUT_MCLKS_TO_MICROSECONDS?SEEKFREE_DL1A
FF59E5H   FF5A21H   00003DH   BYTE   INSEG    CODE           ?PR?UART1_ISR?ISR
FF5A22H   FF5A5DH   00003CH   BYTE   INSEG    CODE           ?PR?DL1A_TIMEOUT_MICROSECONDS_TO_MCLKS?SEEKFREE_DL1A
FF5A5EH   FF5A98H   00003BH   BYTE   INSEG    CODE           ?PR?DL1A_READ_CH?SEEKFREE_DL1A
FF5A99H   FF5AD1H   000039H   BYTE   INSEG    CODE           ?PR?DELAY_INIT?ZF_DELAY
FF5AD2H   FF5B06H   000035H   BYTE   INSEG    CODE           ?PR?DL1A_SIMIIC_WRITE_DATS?SEEKFREE_DL1A
FF5B07H   FF5B3AH   000034H   BYTE   INSEG    CODE           ?PR?DL1A_ENCODE_TIMEOUT?SEEKFREE_DL1A
FF5B3BH   FF5B6CH   000032H   BYTE   INSEG    CODE           ?PR?OLED_CLEAR?OLED
FF5B6DH   FF5B9CH   000030H   BYTE   INSEG    CODE           ?PR?ICM20602_SIMSPI_R_REG_BYTES?SEEKFREE_ICM20602
FF5B9DH   FF5BCCH   000030H   BYTE   INSEG    CODE           ?PR?IMU660RA_SIMSPI_R_REG_BYTES?SEEKFREE_IMU660RA
FF5BCDH   FF5BFAH   00002EH   BYTE   INSEG    CODE           ?PR?ADC_ONCE?ZF_ADC
FF5BFBH   FF5C28H   00002EH   BYTE   INSEG    CODE           ?PR?DL1A_SEND_CH?SEEKFREE_DL1A
FF5C29H   FF5C56H   00002EH   BYTE   INSEG    CODE           ?PR?ADC_ERROR_WEIGHT_FILTERING?CONTROL
FF5C57H   FF5C82H   00002CH   BYTE   INSEG    CODE           ?PR?IPS114_WRITEDATAI_16BIT_SIMSPI?SEEKFREE_IPS114_SPI
FF5C83H   FF5CABH   000029H   BYTE   INSEG    CODE           ?PR?IPS114_WRITEINDEX_SIMSPI?SEEKFREE_IPS114_SPI
FF5CACH   FF5CD2H   000027H   BYTE   INSEG    CODE           ?PR?OLED_SET_POS?OLED
FF5CD3H   FF5CF7H   000025H   BYTE   INSEG    CODE           ?PR?MEMCPY?_?MEMCPY
FF5CF8H   FF5D1BH   000024H   BYTE   INSEG    CODE           ?PR?BRUSHLESS_INIT?BRUSHLESS
FF5D1CH   FF5D3EH   000023H   BYTE   INSEG    CODE           ?PR?ICM20602_SIMSPI_WR_BYTE?SEEKFREE_ICM20602
FF5D3FH   FF5D61H   000023H   BYTE   INSEG    CODE           ?PR?IMU660RA_SIMSPI_WR_BYTE?SEEKFREE_IMU660RA
FF5D62H   FF5D84H   000023H   BYTE   INSEG    CODE           ?PR?IMU963RA_SIMSPI_WR_BYTE?SEEKFREE_IMU963RA
FF5D85H   FF5DA4H   000020H   BYTE   INSEG    CODE           ?PR?AT24C02_SIMIIC_SENDACK?SEEKFREE_AT24C02
FF5DA5H   FF5DC4H   000020H   BYTE   INSEG    CODE           ?PR?DL1A_SIMIIC_SENDACK?SEEKFREE_DL1A
FF5DC5H   FF5DE4H   000020H   BYTE   INSEG    CODE           ?PR?MPU6050_SIMIIC_SENDACK?SEEKFREE_MPU6050
FF5DE5H   FF5E04H   000020H   BYTE   INSEG    CODE           ?PR?STEER_SPIN_LIMIT?STEER
FF5E05H   FF5E23H   00001FH   BYTE   INSEG    CODE           ?PR?IPS114_WRITEDATA_16BIT?SEEKFREE_IPS114_SPI
FF5E24H   FF5E41H   00001EH   BYTE   INSEG    CODE           ?PR?UART2_ISR?ISR
FF5E42H   FF5E5FH   00001EH   BYTE   INSEG    CODE           ?PR?UART3_ISR?ISR
FF5E60H   FF5E7AH   00001BH   BYTE   INSEG    CODE           ?PR?IMU963RA_READ_ACC_GYRO_REGISTER?SEEKFREE_IMU963RA
FF5E7BH   FF5E93H   000019H   BYTE   INSEG    CODE           ?PR?DELAY_US?ZF_DELAY
FF5E94H   FF5EACH   000019H   BYTE   INSEG    CODE           ?PR?BLUETOOTH_CH9141_UART_CALLBACK?SEEKFREE_BLUETOOTH_CH91
                                                             -41
FF5EADH   FF5EC5H   000019H   BYTE   INSEG    CODE           ?PR?WIRELESS_UART_CALLBACK?SEEKFREE_WIRELESS
L251 LINKER/LOCATER V4.66.93.0                                                        05/06/2023  18:04:44  PAGE 6


FF5EC6H   FF5EDEH   000019H   BYTE   INSEG    CODE           ?PR?WIRELESS_CH573_CALLBACK?SEEKFREE_WIRELESS_CH573
FF5EDFH   FF5EF6H   000018H   BYTE   INSEG    CODE           ?PR?ICM20602_SIMSPI_R_REG_BYTE?SEEKFREE_ICM20602
FF5EF7H   FF5F0DH   000017H   BYTE   INSEG    CODE           ?PR?DELAY_MS?ZF_DELAY
FF5F0EH   FF5F23H   000016H   BYTE   INSEG    CODE           ?PR?IMU660RA_READ_REGISTER?SEEKFREE_IMU660RA
FF5F24H   FF5F38H   000015H   BYTE   INSEG    CODE           ?PR?EEPROM_TRIG?ZF_EEPROM
FF5F39H   FF5F4DH   000015H   BYTE   INSEG    CODE           ?PR?IIC_DELAY_US?ZF_IIC
FF5F4EH   FF5F60H   000013H   BYTE   INSEG    CODE           ?PR?IMU963RA_SIMSPI_W_REG_BYTE?SEEKFREE_IMU963RA
FF5F61H   FF5F73H   000013H   BYTE   INSEG    CODE           ?PR?STEER_INIT?STEER
FF5F74H   FF5F85H   000012H   BYTE   INSEG    CODE           ?PR?ICM20602_READ_REGISTER?SEEKFREE_ICM20602
FF5F86H   FF5F96H   000011H   BYTE   INSEG    CODE           ?PR?AT24C02_SIMIIC_STOP?SEEKFREE_AT24C02
FF5F97H   FF5FA7H   000011H   BYTE   INSEG    CODE           ?PR?DL1A_SIMIIC_STOP?SEEKFREE_DL1A
FF5FA8H   FF5FB8H   000011H   BYTE   INSEG    CODE           ?PR?MPU6050_SIMIIC_STOP?SEEKFREE_MPU6050
FF5FB9H   FF5FC8H   000010H   BYTE   INSEG    CODE           ?PR?DL1A_DECODE_TIMEOUT?SEEKFREE_DL1A
FF5FC9H   FF5FD7H   00000FH   BYTE   INSEG    CODE           ?PR?DL1A_SIMIIC_START?SEEKFREE_DL1A
FF5FD8H   FF5FE6H   00000FH   BYTE   INSEG    CODE           ?PR?MPU6050_SIMIIC_START?SEEKFREE_MPU6050
FF5FE7H   FF5FF4H   00000EH   BYTE   INSEG    CODE           ?PR?PUTCHAR?BOARD
FF5FF5H   FF6002H   00000EH   BYTE   INSEG    CODE           ?PR?SPI_MOSI?ZF_SPI
FF6003H   FF600FH   00000DH   BYTE   INSEG    CODE           ?PR?DL1A_SIMIIC_DELAY?SEEKFREE_DL1A
FF6010H   FF601AH   00000BH   BYTE   INSEG    CODE           ?PR?MPU6050_SIMIIC_DELAY?SEEKFREE_MPU6050
FF601BH   FF6024H   00000AH   BYTE   INSEG    CODE           ?PR?IPS114_WRITEINDEX?SEEKFREE_IPS114_SPI
FF6025H   FF602DH   000009H   BYTE   INSEG    CODE           ?PR?TIMER4_INIT?TIMER
FF602EH   FF6035H   000008H   BYTE   INSEG    CODE           ?PR?IMU963RA_WRITE_ACC_GYRO_REGISTER?SEEKFREE_IMU963RA
FF6036H   FF603DH   000008H   BYTE   INSEG    CODE           ?PR?INT2_ISR?ISR
FF603EH   FF6045H   000008H   BYTE   INSEG    CODE           ?PR?INT3_ISR?ISR
FF6046H   FF604DH   000008H   BYTE   INSEG    CODE           ?PR?INT4_ISR?ISR
FF604EH   FF6055H   000008H   BYTE   INSEG    CODE           ?PR?TM2_ISR?ISR
FF6056H   FF605CH   000007H   BYTE   INSEG    CODE           ?PR?INT0_ISR?ISR
FF605DH   FF6874H   000818H   BYTE   UNIT     HCONST         ?HC?OLED
FF6875H   FF6DD5H   000561H   BYTE   UNIT     HCONST         ?C_INITEDATA
FF6DD6H   FF6E2DH   000058H   BYTE   UNIT     HCONST         ?HC?ZF_PWM
FF6E2EH   FF6E78H   00004BH   BYTE   UNIT     HCONST         ?HC?SEEKFREE_IMU963RA
FF6E79H   FF6EC2H   00004AH   BYTE   UNIT     HCONST         ?HC?MAIN
FF6EC3H   FF6EF6H   000034H   BYTE   UNIT     HCONST         ?HC?SEEKFREE_IMU660RA
FF6EF7H   FF6F29H   000033H   BYTE   UNIT     HCONST         ?HC?SEEKFREE_ICM20602
FF6F2AH   FF6F3FH   000016H   BYTE   UNIT     HCONST         ?HC?SEEKFREE_MPU6050
FF6F40H   FF6F52H   000013H   BYTE   UNIT     HCONST         ?HC?SEEKFREE_DL1A
FF6F53H   FF6F58H   000006H   BYTE   UNIT     HCONST         ?HC?SEEKFREE_IPS114_SPI

* * * * * * * * *   R E M O V E D     S E G M E N T S   * * * * * * * *
   *DEL*:           000003H   BYTE   INSEG    CODE           ?PR?DISABLEGLOBALIRQ?BOARD
   *DEL*:           000016H   BYTE   INSEG    CODE           ?PR?IAP_SET_TPS?ZF_EEPROM
   *DEL*:           00000EH   BYTE   INSEG    CODE           ?PR?IAP_ERASE_PAGE?ZF_EEPROM
   *DEL*:           000004H   BYTE   INSEG    CODE           ?PR?IAP_IDLE?ZF_EEPROM
   *DEL*:           000047H   BYTE   INSEG    CODE           ?PR?IAP_READ_BYTES?ZF_EEPROM
   *DEL*:           00006DH   BYTE   INSEG    CODE           ?PR?EXTERN_IAP_WRITE_BYTES?ZF_EEPROM
   *DEL*:           000006H   BYTE   INSEG    CODE           ?PR?IAP_INIT?ZF_EEPROM
   *DEL*:           000047H   BYTE   INSEG    CODE           ?PR?IAP_WRITE_BYTES?ZF_EEPROM
   *DEL*:           00000CH   BYTE   INSEG    CODE           ?PR?IAP_GET_CMD_STATE?ZF_EEPROM
   *DEL*:           000004H   BYTE   UNIT     EDATA          ?ED?IAP_READ_BYTES?ZF_EEPROM
   *DEL*:           000004H   BYTE   UNIT     EDATA          ?ED?IAP_WRITE_BYTES?ZF_EEPROM
   *DEL*:           000204H   BYTE   UNIT     EDATA          ?ED?EXTERN_IAP_WRITE_BYTES?ZF_EEPROM
   *DEL*:           00003EH   BYTE   INSEG    CODE           ?PR?EXIT_INIT?ZF_EXTI
   *DEL*:           00006EH   BYTE   INSEG    CODE           ?PR?GPIO_PULL_SET?ZF_GPIO
   *DEL*:           000017H   BYTE   INSEG    CODE           ?PR?SEND_DATA?ZF_IIC
   *DEL*:           00002FH   BYTE   INSEG    CODE           ?PR?IIC_CHANGE_PIN?ZF_IIC
   *DEL*:           00001CH   BYTE   INSEG    CODE           ?PR?RECV_DATA?ZF_IIC
   *DEL*:           000010H   BYTE   INSEG    CODE           ?PR?START?ZF_IIC
   *DEL*:           000018H   BYTE   INSEG    CODE           ?PR?SEND_ACK?ZF_IIC
   *DEL*:           000010H   BYTE   INSEG    CODE           ?PR?RECV_ACK?ZF_IIC
   *DEL*:           000010H   BYTE   INSEG    CODE           ?PR?STOP?ZF_IIC
   *DEL*:           000019H   BYTE   INSEG    CODE           ?PR?SEND_NAK?ZF_IIC
   *DEL*:           00005EH   BYTE   INSEG    CODE           ?PR?IIC_INIT?ZF_IIC
   *DEL*:           000075H   BYTE   INSEG    CODE           ?PR?IIC_READ_REG?ZF_IIC
   *DEL*:           00009CH   BYTE   INSEG    CODE           ?PR?IIC_READ_REG_BYTES?ZF_IIC
   *DEL*:           000060H   BYTE   INSEG    CODE           ?PR?IIC_WRITE_REG?ZF_IIC
L251 LINKER/LOCATER V4.66.93.0                                                        05/06/2023  18:04:44  PAGE 7


   *DEL*:           000004H   BYTE   UNIT     EDATA          ?ED?IIC_INIT?ZF_IIC
   *DEL*:           000004H   BYTE   UNIT     EDATA          ?ED?IIC_READ_REG?ZF_IIC
   *DEL*:           000003H   BYTE   UNIT     EDATA          ?ED?IIC_READ_REG_BYTES?ZF_IIC
   *DEL*:           00006CH   BYTE   INSEG    CODE           ?PR?NVIC_SETPRIORITY?ZF_NVIC
   *DEL*:           000131H   BYTE   INSEG    CODE           ?PR?PWM_FREQ?ZF_PWM
   *DEL*:           000004H   BYTE   UNIT     EDATA          ?ED?PWM_FREQ?ZF_PWM
   *DEL*:           00001DH   BYTE   INSEG    CODE           ?PR?SPI_CHANGE_MODE?ZF_SPI
   *DEL*:           0000AEH   BYTE   INSEG    CODE           ?PR?SPI_CHANGE_PIN?ZF_SPI
   *DEL*:           0000DFH   BYTE   INSEG    CODE           ?PR?SPI_INIT?ZF_SPI
   *DEL*:           000004H   BYTE   UNIT     EDATA          ?ED?SPI_INIT?ZF_SPI
   *DEL*:           00004DH   BYTE   INSEG    CODE           ?PR?CTIMER_COUNT_READ?ZF_TIM
   *DEL*:           000051H   BYTE   INSEG    CODE           ?PR?CTIMER_COUNT_CLEAN?ZF_TIM
   *DEL*:           00002DH   BYTE   INSEG    CODE           ?PR?UART_PUTBUFF?ZF_UART
   *DEL*:           00001EH   BYTE   INSEG    CODE           ?PR?UART_PUTSTR?ZF_UART
   *DEL*:           000004H   BYTE   UNIT     EDATA          ?ED?UART_PUTBUFF?ZF_UART
   *DEL*:           000002H   BYTE   UNIT     EDATA          ?ED?UART_PUTSTR?ZF_UART
   *DEL*:           000113H   BYTE   INSEG    CODE           ?PR?FIFO_READ_BUFFER?ZF_FIFO
   *DEL*:           000025H   BYTE   INSEG    CODE           ?PR?FIFO_CLEAR?ZF_FIFO
   *DEL*:           000046H   BYTE   INSEG    CODE           ?PR?FIFO_END_OFFSET?ZF_FIFO
   *DEL*:           000015H   BYTE   INSEG    CODE           ?PR?FIFO_USED?ZF_FIFO
   *DEL*:           000043H   BYTE   INSEG    CODE           ?PR?FIFO_INIT?ZF_FIFO
   *DEL*:           000004H   BYTE   UNIT     EDATA          ?ED?FIFO_INIT?ZF_FIFO
   *DEL*:           00000FH   BYTE   UNIT     EDATA          ?ED?FIFO_READ_BUFFER?ZF_FIFO
   *DEL*:           000011H   BYTE   INSEG    CODE           ?PR?ENCODER_SELF4_CHECK?SEEKFREE_ABSOLUTE_ENCODER
   *DEL*:           000011H   BYTE   INSEG    CODE           ?PR?ENCODER_SELF5_CHECK?SEEKFREE_ABSOLUTE_ENCODER
   *DEL*:           00002FH   BYTE   INSEG    CODE           ?PR?ENCODER_SPI_R_REG_BYTE?SEEKFREE_ABSOLUTE_ENCODER
   *DEL*:           000038H   BYTE   INSEG    CODE           ?PR?ENCODER_SPI_W_REG_BYTE?SEEKFREE_ABSOLUTE_ENCODER
   *DEL*:           00001CH   BYTE   INSEG    CODE           ?PR?SIMSPI_R_REG_BYTE?SEEKFREE_ABSOLUTE_ENCODER
   *DEL*:           00001AH   BYTE   INSEG    CODE           ?PR?SIMSPI_W_REG_BYTE?SEEKFREE_ABSOLUTE_ENCODER
   *DEL*:           000029H   BYTE   INSEG    CODE           ?PR?ENCODER_INIT_SPI?SEEKFREE_ABSOLUTE_ENCODER
   *DEL*:           000004H   BYTE   INSEG    CODE           ?PR?SPI_WR_BYTE?SEEKFREE_ABSOLUTE_ENCODER
   *DEL*:           000024H   BYTE   INSEG    CODE           ?PR?SET_ZERO_POSITION_SIMSPI?SEEKFREE_ABSOLUTE_ENCODER
   *DEL*:           000023H   BYTE   INSEG    CODE           ?PR?ENCODER_ANGLE_SIMSPI?SEEKFREE_ABSOLUTE_ENCODER
   *DEL*:           00001CH   BYTE   INSEG    CODE           ?PR?SPI_R_REG_BYTE?SEEKFREE_ABSOLUTE_ENCODER
   *DEL*:           00001AH   BYTE   INSEG    CODE           ?PR?SPI_W_REG_BYTE?SEEKFREE_ABSOLUTE_ENCODER
   *DEL*:           00002FH   BYTE   INSEG    CODE           ?PR?ENCODER_SIMSPI_R_REG_BYTE?SEEKFREE_ABSOLUTE_ENCODER
   *DEL*:           000038H   BYTE   INSEG    CODE           ?PR?ENCODER_SIMSPI_W_REG_BYTE?SEEKFREE_ABSOLUTE_ENCODER
   *DEL*:           00000FH   BYTE   INSEG    CODE           ?PR?ENCODER_INIT_SIMSPI?SEEKFREE_ABSOLUTE_ENCODER
   *DEL*:           000024H   BYTE   INSEG    CODE           ?PR?SET_ZERO_POSITION_SPI?SEEKFREE_ABSOLUTE_ENCODER
   *DEL*:           00001FH   BYTE   INSEG    CODE           ?PR?SIMSPI_WR_BYTE?SEEKFREE_ABSOLUTE_ENCODER
   *DEL*:           000023H   BYTE   INSEG    CODE           ?PR?ENCODER_ANGLE_SPI?SEEKFREE_ABSOLUTE_ENCODER
   *DEL*:           000001H   BYTE   UNIT     EDATA          ?ED?ENCODER_SELF4_CHECK?SEEKFREE_ABSOLUTE_ENCODER
   *DEL*:           000001H   BYTE   UNIT     EDATA          ?ED?ENCODER_SELF5_CHECK?SEEKFREE_ABSOLUTE_ENCODER
   *DEL*:           000029H   BYTE   INSEG    CODE           ?PR?AT24C02_SIMIIC_READ_REG?SEEKFREE_AT24C02
   *DEL*:           00005EH   BYTE   INSEG    CODE           ?PR?AT24C02_READ_BYTES?SEEKFREE_AT24C02
   *DEL*:           000022H   BYTE   INSEG    CODE           ?PR?AT24C02_SIMIIC_WRITE_REG?SEEKFREE_AT24C02
   *DEL*:           000015H   BYTE   INSEG    CODE           ?PR?AT24C02_READ_BYTE?SEEKFREE_AT24C02
   *DEL*:           00005BH   BYTE   INSEG    CODE           ?PR?AT24C02_WRITE_BYTES?SEEKFREE_AT24C02
   *DEL*:           000019H   BYTE   INSEG    CODE           ?PR?AT24C02_WRITE_BYTE?SEEKFREE_AT24C02
   *DEL*:           00003BH   BYTE   INSEG    CODE           ?PR?AT24C02_READ_CH?SEEKFREE_AT24C02
   *DEL*:           00002EH   BYTE   INSEG    CODE           ?PR?AT24C02_SEND_CH?SEEKFREE_AT24C02
   *DEL*:           00001CH   BYTE   INSEG    CODE           ?PR?AT24C02_SCCB_WAITACK?SEEKFREE_AT24C02
   *DEL*:           00000FH   BYTE   INSEG    CODE           ?PR?AT24C02_SIMIIC_START?SEEKFREE_AT24C02
   *DEL*:           000002H   BYTE   UNIT     EDATA          ?ED?AT24C02_WRITE_BYTES?SEEKFREE_AT24C02
   *DEL*:           000002H   BYTE   UNIT     EDATA          ?ED?AT24C02_READ_BYTES?SEEKFREE_AT24C02
   *DEL*:           000022H   BYTE   INSEG    CODE           ?PR?BLUETOOTH_CH9141_READ_BUFF?SEEKFREE_BLUETOOTH_CH9141
   *DEL*:           0000ABH   BYTE   INSEG    CODE           ?PR?BLUETOOTH_CH9141_SEND_BUFF?SEEKFREE_BLUETOOTH_CH9141
   *DEL*:           00003CH   BYTE   INSEG    CODE           ?PR?BLUETOOTH_CH9141_INIT?SEEKFREE_BLUETOOTH_CH9141
   *DEL*:           000006H   BYTE   UNIT     EDATA          ?ED?BLUETOOTH_CH9141_SEND_BUFF?SEEKFREE_BLUETOOTH_CH9141
   *DEL*:           000004H   BYTE   UNIT     EDATA          ?ED?BLUETOOTH_CH9141_READ_BUFF?SEEKFREE_BLUETOOTH_CH9141
   *DEL*:           000027H   BYTE   INSEG    CODE           ?PR?DL1A_SET_SIGNAL_RATE_LIMIT?SEEKFREE_DL1A
   *DEL*:           00017CH   BYTE   INSEG    CODE           ?PR?DL1A_GET_SPAD_INFO?SEEKFREE_DL1A
   *DEL*:           00005DH   BYTE   INSEG    CODE           ?PR?DL1A_GET_DISTANCE?SEEKFREE_DL1A
   *DEL*:           000077H   BYTE   INSEG    CODE           ?PR?DL1A_PERFORM_SINGLE_REF_CALIBRATION?SEEKFREE_DL1A
   *DEL*:           000073H   BYTE   INSEG    CODE           ?PR?DL1A_GET_MEASUREMENT_TIMING_BUDGET?SEEKFREE_DL1A
L251 LINKER/LOCATER V4.66.93.0                                                        05/06/2023  18:04:44  PAGE 8


   *DEL*:           000029H   BYTE   INSEG    CODE           ?PR?DL1A_SIMIIC_READ_REG?SEEKFREE_DL1A
   *DEL*:           000054H   BYTE   INSEG    CODE           ?PR?DL1A_SIMIIC_READ_REGS_1?SEEKFREE_DL1A
   *DEL*:           0000E4H   BYTE   INSEG    CODE           ?PR?DL1A_SET_MEASUREMENT_TIMING_BUDGET?SEEKFREE_DL1A
   *DEL*:           000022H   BYTE   INSEG    CODE           ?PR?DL1A_SIMIIC_WRITE_REG?SEEKFREE_DL1A
   *DEL*:           00061BH   BYTE   INSEG    CODE           ?PR?DL1A_INIT?SEEKFREE_DL1A
   *DEL*:           000006H   BYTE   UNIT     EDATA          ?ED?DL1A_SIMIIC_READ_REGS_1?SEEKFREE_DL1A
   *DEL*:           000008H   BYTE   UNIT     EDATA          ?ED?DL1A_GET_SPAD_INFO?SEEKFREE_DL1A
   *DEL*:           000003H   BYTE   UNIT     EDATA          ?ED?DL1A_PERFORM_SINGLE_REF_CALIBRATION?SEEKFREE_DL1A
   *DEL*:           000023H   BYTE   UNIT     EDATA          ?ED?DL1A_SET_MEASUREMENT_TIMING_BUDGET?SEEKFREE_DL1A
   *DEL*:           00001BH   BYTE   UNIT     EDATA          ?ED?DL1A_GET_MEASUREMENT_TIMING_BUDGET?SEEKFREE_DL1A
   *DEL*:           000003H   BYTE   UNIT     EDATA          ?ED?DL1A_SET_SIGNAL_RATE_LIMIT?SEEKFREE_DL1A
   *DEL*:           000003H   BYTE   UNIT     EDATA          ?ED?DL1A_GET_DISTANCE?SEEKFREE_DL1A
   *DEL*:           000012H   BYTE   UNIT     EDATA          ?ED?DL1A_INIT?SEEKFREE_DL1A
   *DEL*:           000012H   BYTE   INSEG    CODE           ?PR?ICM20602_GYRO_TRANSITION?SEEKFREE_ICM20602
   *DEL*:           000008H   BYTE   INSEG    CODE           ?PR?ICM20602_WRITE_REGISTER?SEEKFREE_ICM20602
   *DEL*:           00002DH   BYTE   INSEG    CODE           ?PR?ICM20602_SELF_CHECK?SEEKFREE_ICM20602
   *DEL*:           00000FH   BYTE   INSEG    CODE           ?PR?ICM20602_SIMSPI_W_REG_BYTE?SEEKFREE_ICM20602
   *DEL*:           000098H   BYTE   INSEG    CODE           ?PR?ICM20602_INIT?SEEKFREE_ICM20602
   *DEL*:           000040H   BYTE   INSEG    CODE           ?PR?ICM20602_GET_ACC?SEEKFREE_ICM20602
   *DEL*:           000010H   BYTE   INSEG    CODE           ?PR?ICM20602_ACC_TRANSITION?SEEKFREE_ICM20602
   *DEL*:           000010H   BYTE   INSEG    CODE           ?PR?ICM20602_READ_REGISTERS?SEEKFREE_ICM20602
   *DEL*:           000040H   BYTE   INSEG    CODE           ?PR?ICM20602_GET_GYRO?SEEKFREE_ICM20602
   *DEL*:           000006H   BYTE   UNIT     EDATA          ?ED?ICM20602_GET_ACC?SEEKFREE_ICM20602
   *DEL*:           000006H   BYTE   UNIT     EDATA          ?ED?ICM20602_GET_GYRO?SEEKFREE_ICM20602
   *DEL*:           000040H   BYTE   INSEG    CODE           ?PR?IMU660RA_GET_GYRO?SEEKFREE_IMU660RA
   *DEL*:           00000EH   BYTE   INSEG    CODE           ?PR?IMU660RA_WRITE_REGISTERS?SEEKFREE_IMU660RA
   *DEL*:           000012H   BYTE   INSEG    CODE           ?PR?IMU660RA_GYRO_TRANSITION?SEEKFREE_IMU660RA
   *DEL*:           000008H   BYTE   INSEG    CODE           ?PR?IMU660RA_WRITE_REGISTER?SEEKFREE_IMU660RA
   *DEL*:           00002CH   BYTE   INSEG    CODE           ?PR?IMU660RA_SELF_CHECK?SEEKFREE_IMU660RA
   *DEL*:           000025H   BYTE   INSEG    CODE           ?PR?IMU660RA_SIMSPI_W_REG_BYTES?SEEKFREE_IMU660RA
   *DEL*:           00000FH   BYTE   INSEG    CODE           ?PR?IMU660RA_SIMSPI_W_REG_BYTE?SEEKFREE_IMU660RA
   *DEL*:           00009AH   BYTE   INSEG    CODE           ?PR?IMU660RA_INIT?SEEKFREE_IMU660RA
   *DEL*:           000040H   BYTE   INSEG    CODE           ?PR?IMU660RA_GET_ACC?SEEKFREE_IMU660RA
   *DEL*:           000010H   BYTE   INSEG    CODE           ?PR?IMU660RA_ACC_TRANSITION?SEEKFREE_IMU660RA
   *DEL*:           000010H   BYTE   INSEG    CODE           ?PR?IMU660RA_READ_REGISTERS?SEEKFREE_IMU660RA
   *DEL*:           000004H   BYTE   UNIT     EDATA          ?ED?IMU660RA_SIMSPI_W_REG_BYTES?SEEKFREE_IMU660RA
   *DEL*:           000007H   BYTE   UNIT     EDATA          ?ED?IMU660RA_GET_ACC?SEEKFREE_IMU660RA
   *DEL*:           000007H   BYTE   UNIT     EDATA          ?ED?IMU660RA_GET_GYRO?SEEKFREE_IMU660RA
   *DEL*:           000003H   BYTE   INSEG    CODE           ?PR?IMU963RA_ACC_TRANSITION?SEEKFREE_IMU963RA
   *DEL*:           000040H   BYTE   INSEG    CODE           ?PR?IMU963RA_GET_GYRO?SEEKFREE_IMU963RA
   *DEL*:           000012H   BYTE   INSEG    CODE           ?PR?IMU963RA_MAG_TRANSITION?SEEKFREE_IMU963RA
   *DEL*:           000003H   BYTE   INSEG    CODE           ?PR?IMU963RA_GYRO_TRANSITION?SEEKFREE_IMU963RA
   *DEL*:           00002CH   BYTE   INSEG    CODE           ?PR?IMU963RA_CONNECT_MAG?SEEKFREE_IMU963RA
   *DEL*:           000010H   BYTE   INSEG    CODE           ?PR?IMU963RA_READ_ACC_GYRO_REGISTERS?SEEKFREE_IMU963RA
   *DEL*:           000061H   BYTE   INSEG    CODE           ?PR?IMU963RA_WRITE_MAG_REGISTER?SEEKFREE_IMU963RA
   *DEL*:           000030H   BYTE   INSEG    CODE           ?PR?IMU963RA_SIMSPI_R_REG_BYTES?SEEKFREE_IMU963RA
   *DEL*:           000030H   BYTE   INSEG    CODE           ?PR?IMU963RA_MAG_SELF_CHECK?SEEKFREE_IMU963RA
   *DEL*:           00010AH   BYTE   INSEG    CODE           ?PR?IMU963RA_INIT?SEEKFREE_IMU963RA
   *DEL*:           00002DH   BYTE   INSEG    CODE           ?PR?IMU963RA_ACC_GYRO_SELF_CHECK?SEEKFREE_IMU963RA
   *DEL*:           000040H   BYTE   INSEG    CODE           ?PR?IMU963RA_GET_ACC?SEEKFREE_IMU963RA
   *DEL*:           000056H   BYTE   INSEG    CODE           ?PR?IMU963RA_GET_MAG?SEEKFREE_IMU963RA
   *DEL*:           000004H   BYTE   UNIT     EDATA          ?ED?IMU963RA_SIMSPI_R_REG_BYTES?SEEKFREE_IMU963RA
   *DEL*:           000002H   BYTE   UNIT     EDATA          ?ED?IMU963RA_WRITE_MAG_REGISTER?SEEKFREE_IMU963RA
   *DEL*:           000006H   BYTE   UNIT     EDATA          ?ED?IMU963RA_GET_ACC?SEEKFREE_IMU963RA
   *DEL*:           000006H   BYTE   UNIT     EDATA          ?ED?IMU963RA_GET_GYRO?SEEKFREE_IMU963RA
   *DEL*:           000006H   BYTE   UNIT     EDATA          ?ED?IMU963RA_GET_MAG?SEEKFREE_IMU963RA
   *DEL*:           00007BH   BYTE   INSEG    CODE           ?PR?IPS114_SHOWUINT8_SIMSPI?SEEKFREE_IPS114_SPI
   *DEL*:           000077H   BYTE   INSEG    CODE           ?PR?IPS114_SHOWUINT8?SEEKFREE_IPS114_SPI
   *DEL*:           0000B9H   BYTE   INSEG    CODE           ?PR?IPS114_SHOWINT8_SIMSPI?SEEKFREE_IPS114_SPI
   *DEL*:           0000B5H   BYTE   INSEG    CODE           ?PR?IPS114_SHOWINT8?SEEKFREE_IPS114_SPI
   *DEL*:           0000F8H   BYTE   INSEG    CODE           ?PR?IPS114_SHOWFLOAT_SIMSPI?SEEKFREE_IPS114_SPI
   *DEL*:           000013H   BYTE   INSEG    CODE           ?PR?IPS114_DRAWPOINT_SIMSPI?SEEKFREE_IPS114_SPI
   *DEL*:           0000F8H   BYTE   INSEG    CODE           ?PR?IPS114_SHOWFLOAT?SEEKFREE_IPS114_SPI
   *DEL*:           000013H   BYTE   INSEG    CODE           ?PR?IPS114_DRAWPOINT?SEEKFREE_IPS114_SPI
   *DEL*:           00008EH   BYTE   INSEG    CODE           ?PR?IPS114_SHOWCHAR_SIMSPI?SEEKFREE_IPS114_SPI
L251 LINKER/LOCATER V4.66.93.0                                                        05/06/2023  18:04:44  PAGE 9


   *DEL*:           00008EH   BYTE   INSEG    CODE           ?PR?IPS114_SHOWCHAR?SEEKFREE_IPS114_SPI
   *DEL*:           00008BH   BYTE   INSEG    CODE           ?PR?IPS114_SHOWUINT16_SIMSPI?SEEKFREE_IPS114_SPI
   *DEL*:           00008BH   BYTE   INSEG    CODE           ?PR?IPS114_SHOWUINT16?SEEKFREE_IPS114_SPI
   *DEL*:           000082H   BYTE   INSEG    CODE           ?PR?IPS114_SHOWINT32_SIMSPI?SEEKFREE_IPS114_SPI
   *DEL*:           0000DDH   BYTE   INSEG    CODE           ?PR?IPS114_SHOWINT16_SIMSPI?SEEKFREE_IPS114_SPI
   *DEL*:           000082H   BYTE   INSEG    CODE           ?PR?IPS114_SHOWINT32?SEEKFREE_IPS114_SPI
   *DEL*:           0000D9H   BYTE   INSEG    CODE           ?PR?IPS114_SHOWINT16?SEEKFREE_IPS114_SPI
   *DEL*:           00003CH   BYTE   INSEG    CODE           ?PR?IPS114_CLEAR_SIMSPI?SEEKFREE_IPS114_SPI
   *DEL*:           00003CH   BYTE   INSEG    CODE           ?PR?IPS114_CLEAR?SEEKFREE_IPS114_SPI
   *DEL*:           00004EH   BYTE   INSEG    CODE           ?PR?IPS114_SHOWSTR_SIMSPI?SEEKFREE_IPS114_SPI
   *DEL*:           00004EH   BYTE   INSEG    CODE           ?PR?IPS114_SHOWSTR?SEEKFREE_IPS114_SPI
   *DEL*:           000029H   BYTE   INSEG    CODE           ?PR?IPS114_WRITEDATA_SIMSPI?SEEKFREE_IPS114_SPI
   *DEL*:           00000AH   BYTE   INSEG    CODE           ?PR?IPS114_WRITEDATA?SEEKFREE_IPS114_SPI
   *DEL*:           000044H   BYTE   INSEG    CODE           ?PR?IPS114_SET_REGION_SIMSPI?SEEKFREE_IPS114_SPI
   *DEL*:           00014FH   BYTE   INSEG    CODE           ?PR?IPS114_INIT_SIMSPI?SEEKFREE_IPS114_SPI
   *DEL*:           000048H   BYTE   INSEG    CODE           ?PR?IPS114_SET_REGION?SEEKFREE_IPS114_SPI
   *DEL*:           00016DH   BYTE   INSEG    CODE           ?PR?IPS114_INIT?SEEKFREE_IPS114_SPI
   *DEL*:           000004H   BYTE   UNIT     EDATA          ?ED?IPS114_SET_REGION_SIMSPI?SEEKFREE_IPS114_SPI
   *DEL*:           000002H   BYTE   UNIT     EDATA          ?ED?IPS114_CLEAR_SIMSPI?SEEKFREE_IPS114_SPI
   *DEL*:           000004H   BYTE   UNIT     EDATA          ?ED?IPS114_SHOWCHAR_SIMSPI?SEEKFREE_IPS114_SPI
   *DEL*:           000006H   BYTE   UNIT     EDATA          ?ED?IPS114_SHOWSTR_SIMSPI?SEEKFREE_IPS114_SPI
   *DEL*:           000005H   BYTE   UNIT     EDATA          ?ED?IPS114_SHOWINT8_SIMSPI?SEEKFREE_IPS114_SPI
   *DEL*:           000004H   BYTE   UNIT     EDATA          ?ED?IPS114_SHOWUINT8_SIMSPI?SEEKFREE_IPS114_SPI
   *DEL*:           000008H   BYTE   UNIT     EDATA          ?ED?IPS114_SHOWINT16_SIMSPI?SEEKFREE_IPS114_SPI
   *DEL*:           000006H   BYTE   UNIT     EDATA          ?ED?IPS114_SHOWUINT16_SIMSPI?SEEKFREE_IPS114_SPI
   *DEL*:           000028H   BYTE   UNIT     EDATA          ?ED?IPS114_SHOWINT32_SIMSPI?SEEKFREE_IPS114_SPI
   *DEL*:           00002BH   BYTE   UNIT     EDATA          ?ED?IPS114_SHOWFLOAT_SIMSPI?SEEKFREE_IPS114_SPI
   *DEL*:           000004H   BYTE   UNIT     EDATA          ?ED?IPS114_SET_REGION?SEEKFREE_IPS114_SPI
   *DEL*:           000002H   BYTE   UNIT     EDATA          ?ED?IPS114_CLEAR?SEEKFREE_IPS114_SPI
   *DEL*:           000004H   BYTE   UNIT     EDATA          ?ED?IPS114_SHOWCHAR?SEEKFREE_IPS114_SPI
   *DEL*:           000006H   BYTE   UNIT     EDATA          ?ED?IPS114_SHOWSTR?SEEKFREE_IPS114_SPI
   *DEL*:           000005H   BYTE   UNIT     EDATA          ?ED?IPS114_SHOWINT8?SEEKFREE_IPS114_SPI
   *DEL*:           000004H   BYTE   UNIT     EDATA          ?ED?IPS114_SHOWUINT8?SEEKFREE_IPS114_SPI
   *DEL*:           000008H   BYTE   UNIT     EDATA          ?ED?IPS114_SHOWINT16?SEEKFREE_IPS114_SPI
   *DEL*:           000006H   BYTE   UNIT     EDATA          ?ED?IPS114_SHOWUINT16?SEEKFREE_IPS114_SPI
   *DEL*:           000028H   BYTE   UNIT     EDATA          ?ED?IPS114_SHOWINT32?SEEKFREE_IPS114_SPI
   *DEL*:           00002BH   BYTE   UNIT     EDATA          ?ED?IPS114_SHOWFLOAT?SEEKFREE_IPS114_SPI
   *DEL*:           000055H   BYTE   INSEG    CODE           ?PR?MPU6050_SIMIIC_READ_REGS?SEEKFREE_MPU6050
   *DEL*:           000029H   BYTE   INSEG    CODE           ?PR?MPU6050_SIMIIC_READ_REG?SEEKFREE_MPU6050
   *DEL*:           000022H   BYTE   INSEG    CODE           ?PR?MPU6050_SIMIIC_WRITE_REG?SEEKFREE_MPU6050
   *DEL*:           00005CH   BYTE   INSEG    CODE           ?PR?MPU6050_INIT?SEEKFREE_MPU6050
   *DEL*:           000032H   BYTE   INSEG    CODE           ?PR?MPU6050_SELF1_CHECK?SEEKFREE_MPU6050
   *DEL*:           00003BH   BYTE   INSEG    CODE           ?PR?MPU6050_READ_CH?SEEKFREE_MPU6050
   *DEL*:           00002EH   BYTE   INSEG    CODE           ?PR?MPU6050_SEND_CH?SEEKFREE_MPU6050
   *DEL*:           000040H   BYTE   INSEG    CODE           ?PR?MPU6050_GET_GYRO?SEEKFREE_MPU6050
   *DEL*:           00001CH   BYTE   INSEG    CODE           ?PR?MPU6050_SCCB_WAITACK?SEEKFREE_MPU6050
   *DEL*:           000040H   BYTE   INSEG    CODE           ?PR?MPU6050_GET_ACCDATA?SEEKFREE_MPU6050
   *DEL*:           000003H   BYTE   UNIT     EDATA          ?ED?MPU6050_SIMIIC_READ_REGS?SEEKFREE_MPU6050
   *DEL*:           000006H   BYTE   UNIT     EDATA          ?ED?MPU6050_GET_ACCDATA?SEEKFREE_MPU6050
   *DEL*:           000006H   BYTE   UNIT     EDATA          ?ED?MPU6050_GET_GYRO?SEEKFREE_MPU6050
   *DEL*:           000092H   BYTE   INSEG    CODE           ?PR?NUMBER_CONVERSION_ASCII?SEEKFREE_PRINTF
   *DEL*:           0004FAH   BYTE   INSEG    CODE           ?PR?ZF_SPRINTF?SEEKFREE_PRINTF
   *DEL*:           00003EH   BYTE   INSEG    CODE           ?PR?PRINTF_REVERSE_ORDER?SEEKFREE_PRINTF
   *DEL*:           000001H   BYTE   UNIT     EDATA          ?ED?NUMBER_CONVERSION_ASCII?SEEKFREE_PRINTF
   *DEL*:           00005FH   BYTE   UNIT     EDATA          ?ED?ZF_SPRINTF?SEEKFREE_PRINTF
   *DEL*:           000070H   BYTE   INSEG    CODE           ?PR?CCD_SEND_DATA?SEEKFREE_TSL1401
   *DEL*:           000016H   BYTE   INSEG    CODE           ?PR?CCD_INIT?SEEKFREE_TSL1401
   *DEL*:           000035H   BYTE   INSEG    CODE           ?PR?CCD_COLLECT?SEEKFREE_TSL1401
   *DEL*:           000003H   BYTE   UNIT     EDATA          ?ED?CCD_SEND_DATA?SEEKFREE_TSL1401
   *DEL*:           00003AH   BYTE   INSEG    CODE           ?PR?CRC_CHECK?SEEKFREE_VIRSCO
   *DEL*:           000069H   BYTE   INSEG    CODE           ?PR?DATA_CONVERSION?SEEKFREE_VIRSCO
   *DEL*:           000004H   BYTE   UNIT     EDATA          ?ED?DATA_CONVERSION?SEEKFREE_VIRSCO
   *DEL*:           000022H   BYTE   INSEG    CODE           ?PR?WIRELESS_UART_READ_BUFF?SEEKFREE_WIRELESS
   *DEL*:           00005DH   BYTE   INSEG    CODE           ?PR?WIRELESS_UART_SEND_BUFF?SEEKFREE_WIRELESS
   *DEL*:           00003CH   BYTE   INSEG    CODE           ?PR?WIRELESS_UART_INIT?SEEKFREE_WIRELESS
L251 LINKER/LOCATER V4.66.93.0                                                        05/06/2023  18:04:44  PAGE 10


   *DEL*:           000002H   BYTE   UNIT     EDATA          ?ED?WIRELESS_UART_SEND_BUFF?SEEKFREE_WIRELESS
   *DEL*:           000004H   BYTE   UNIT     EDATA          ?ED?WIRELESS_UART_READ_BUFF?SEEKFREE_WIRELESS
   *DEL*:           000022H   BYTE   INSEG    CODE           ?PR?WIRELESS_CH573_READ_BUFF?SEEKFREE_WIRELESS_CH573
   *DEL*:           00005DH   BYTE   INSEG    CODE           ?PR?WIRELESS_CH573_SEND_BUFF?SEEKFREE_WIRELESS_CH573
   *DEL*:           00003CH   BYTE   INSEG    CODE           ?PR?WIRELESS_CH573_INIT?SEEKFREE_WIRELESS_CH573
   *DEL*:           000002H   BYTE   UNIT     EDATA          ?ED?WIRELESS_CH573_SEND_BUFF?SEEKFREE_WIRELESS_CH573
   *DEL*:           000004H   BYTE   UNIT     EDATA          ?ED?WIRELESS_CH573_READ_BUFF?SEEKFREE_WIRELESS_CH573
   *DEL*:           0000B1H   BYTE   INSEG    CODE           ?PR?AKEMAN_CONTROL?CONTROL
   *DEL*:           00003DH   BYTE   INSEG    CODE           ?PR?MOTOR_PID_CONTROL?CONTROL
   *DEL*:           000007H   BYTE   INSEG    CODE           ?PR?PID_ON?CONTROL
   *DEL*:           000077H   BYTE   INSEG    CODE           ?PR?DEV_ERR_WINDOW_FILTER_2?CONTROL
   *DEL*:           0002A6H   BYTE   INSEG    CODE           ?PR?ADC_ERR_TRENDENCY?CONTROL
   *DEL*:           000132H   BYTE   INSEG    CODE           ?PR?DIRECT_JUDGE_ACCELE?CONTROL
   *DEL*:           000006H   BYTE   INSEG    CODE           ?PR?PID_OFF?CONTROL
   *DEL*:           000004H   BYTE   UNIT     EDATA          ?ED?AKEMAN_CONTROL?CONTROL
   *DEL*:           000008H   BYTE   UNIT     EDATA          ?ED?MOTOR_PID_CONTROL?CONTROL
   *DEL*:           000022H   BYTE   UNIT     EDATA          ?ED?ADC_ERR_TRENDENCY?CONTROL
   *DEL*:           00007DH   BYTE   INSEG    CODE           ?PR?KEY_SCAN?KEY
   *DEL*:           00000CH   BYTE   INSEG    CODE           ?PR?ENCODER_CLEAR?MOTOR
   *DEL*:           000024H   BYTE   INSEG    CODE           ?PR?MOTOR_SHUT?MOTOR
   *DEL*:           000049H   BYTE   INSEG    CODE           ?PR?ENCODER_READ?MOTOR
   *DEL*:           000011H   BYTE   INSEG    CODE           ?PR?OLED_DISPLAY_ON?OLED
   *DEL*:           000064H   BYTE   INSEG    CODE           ?PR?OLED_SHOWSTRING?OLED
   *DEL*:           0000AFH   BYTE   INSEG    CODE           ?PR?OLED_SHOWCHAR?OLED
   *DEL*:           00007CH   BYTE   INSEG    CODE           ?PR?OLED_SHOWCHINESE?OLED
   *DEL*:           0000AAH   BYTE   INSEG    CODE           ?PR?OLED_SHOWNUM?OLED
   *DEL*:           000011H   BYTE   INSEG    CODE           ?PR?OLED_DISPLAY_OFF?OLED
   *DEL*:           000017H   BYTE   INSEG    CODE           ?PR?OLED_POW?OLED
   *DEL*:           00009DH   BYTE   INSEG    CODE           ?PR?OLED_DRAWBMP?OLED
   *DEL*:           000005H   BYTE   UNIT     EDATA          ?ED?OLED_SHOWNUM?OLED
   *DEL*:           000003H   BYTE   UNIT     EDATA          ?ED?OLED_SHOWSTRING?OLED
   *DEL*:           000001H   BYTE   UNIT     EDATA          ?ED?OLED_SHOWCHINESE?OLED
   *DEL*:           000007H   BYTE   UNIT     EDATA          ?ED?OLED_DRAWBMP?OLED
   *DEL*:           000044H   BYTE   INSEG    CODE           ?PR?SET_BRUSHLESS_OUTPUT?BRUSHLESS
   *DEL*:           000110H   BYTE   INSEG    CODE           ?PR?POSITION_PID_CALC?PID
   *DEL*:           000237H   BYTE   INSEG    CODE           ?PR?PID_CALC?PID
   *DEL*:           000034H   BYTE   INSEG    CODE           ?PR?ABS_LIMIT?PID
   *DEL*:           00000DH   BYTE   INSEG    CODE           ?PR?PID_CLEAR_INTEGRAL?PID
   *DEL*:           000004H   BYTE   UNIT     EDATA          ?ED?PID_CALC?PID
   *DEL*:           000004H   BYTE   UNIT     EDATA          ?ED?POSITION_PID_CALC?PID
   *DEL*:           00001AH   BYTE   INSEG    CODE           ?PR?MEMSET?_?MEMSET



OVERLAY MAP OF MODULE:   .\Out_File\SEEKFREE (board)


FUNCTION/MODULE                               EDATA_GROUP
--> CALLED FUNCTION/MODULE                    START  STOP
=========================================================
UART1_Isr/isr                                 ----- -----

*** NEW ROOT ********************************

UART2_Isr/isr                                 ----- -----

*** NEW ROOT ********************************

UART3_Isr/isr                                 ----- -----

*** NEW ROOT ********************************

UART4_Isr/isr                                 ----- -----
  +--> wireless_uart_callback/SEEKFREE_WIRELESS
  +--> bluetooth_ch9141_uart_callback/SEEKFREE_BLUETOOTH_CH9141
L251 LINKER/LOCATER V4.66.93.0                                                        05/06/2023  18:04:44  PAGE 11


  +--> wireless_ch573_callback/SEEKFREE_WIRELESS_CH573

wireless_uart_callback/SEEKFREE_WIRELESS      ----- -----
  +--> fifo_write_buffer/zf_fifo

fifo_write_buffer/zf_fifo                     07DDH 07E8H
  +--> memcpy?_/memcpy
  +--> fifo_head_offset/zf_fifo

memcpy?_/memcpy                               ----- -----

fifo_head_offset/zf_fifo                      ----- -----

bluetooth_ch9141_uart_callback/SEEKFREE_+     ----- -----
... BLUETOOTH_CH9141
  +--> fifo_write_buffer/zf_fifo

wireless_ch573_callback/SEEKFREE_WIRELES+     ----- -----
... S_CH573
  +--> fifo_write_buffer/zf_fifo

*** NEW ROOT ********************************

INT0_Isr/isr                                  ----- -----

*** NEW ROOT ********************************

INT1_Isr/isr                                  ----- -----

*** NEW ROOT ********************************

INT2_Isr/isr                                  ----- -----

*** NEW ROOT ********************************

INT3_Isr/isr                                  ----- -----

*** NEW ROOT ********************************

INT4_Isr/isr                                  ----- -----

*** NEW ROOT ********************************

TM0_Isr/isr                                   ----- -----

*** NEW ROOT ********************************

TM1_Isr/isr                                   ----- -----

*** NEW ROOT ********************************

TM2_Isr/isr                                   ----- -----

*** NEW ROOT ********************************

TM3_Isr/isr                                   ----- -----
  +--> Steer_Spin_limit/steer
  +--> Motor_Control/motor

Steer_Spin_limit/steer                        ----- -----
  +--> Steer_Spin/steer

Steer_Spin/steer                              ----- -----
  +--> pwm_duty/zf_pwm

L251 LINKER/LOCATER V4.66.93.0                                                        05/06/2023  18:04:44  PAGE 12


pwm_duty/zf_pwm                               ----- -----

Motor_Control/motor                           07EDH 07F0H
  +--> pwm_duty/zf_pwm

*** NEW ROOT ********************************

TM4_Isr/isr                                   ----- -----
  +--> Motor_Control/motor
  +--> Read_Adc_Value/adc
  +--> ADC_error_processing/control
  +--> ADC_error_window_filtering/control
  +--> ADC_error_weight_filtering/control
  +--> Direct_judge/control
  +--> Correct_Angle/control
  +--> delay_ms/zf_delay
  +--> pit_timer_ms/zf_tim
  +--> lost_line_judge/control
  +--> lostline_deal/control
  +--> Steer_Spin_limit/steer

Read_Adc_Value/adc                            ----- -----
  +--> adc_mean_filter/adc

adc_mean_filter/adc                           07EDH 07F2H
  +--> adc_once/zf_adc
  +--> ?C?ULIDIV/?C?ULDIV

adc_once/zf_adc                               ----- -----

?C?ULIDIV/?C?ULDIV                            ----- -----

ADC_error_processing/control                  07EDH 07F0H

ADC_error_window_filtering/control            ----- -----

ADC_error_weight_filtering/control            ----- -----

Direct_judge/control                          ----- -----
  +--> delay_ms/zf_delay

delay_ms/zf_delay                             ----- -----

Correct_Angle/control                         07EDH 07F0H

pit_timer_ms/zf_tim                           ----- -----
  +--> ?C?SLDIV/?C?SLDIV

?C?SLDIV/?C?SLDIV                             ----- -----
  +--> ?C?ULIDIV/?C?ULDIV

lost_line_judge/control                       ----- -----

lostline_deal/control                         ----- -----

*** NEW ROOT ********************************

?C_C51STARTUP                                 ----- -----

*** NEW ROOT ********************************

?C_C51STARTUP?3                               ----- -----
  +--> main/main

main/main                                     ----- -----
L251 LINKER/LOCATER V4.66.93.0                                                        05/06/2023  18:04:44  PAGE 13


  +--> board_init/board
  +--> PID_struct_init/pid
  +--> My_Adc_Init/adc
  +--> Motor_Init/motor
  +--> Steer_Init/steer
  +--> Brushless_Init/brushless
  +--> OLED_Init/oled
  +--> Timer4_Init/timer
  +--> PRINTF/PRINTF
  +--> send_five_data/host
  +--> delay_ms/zf_delay

board_init/board                              ----- -----
  +--> set_clk/board
  +--> delay_init/zf_delay
  +--> uart_init/zf_uart
  +--> EnableGlobalIRQ/board

set_clk/board                                 ----- -----

delay_init/zf_delay                           ----- -----
  +--> ?C?SLDIV/?C?SLDIV

uart_init/zf_uart                             07F3H 07F8H
  +--> ?C?ULIDIV/?C?ULDIV

EnableGlobalIRQ/board                         ----- -----

PID_struct_init/pid                           07F3H 0806H
  +--> pid_param_init/pid
  +--> pid_reset/pid

pid_param_init/pid                            0807H 081AH

pid_reset/pid                                 0807H 080EH

My_Adc_Init/adc                               ----- -----
  +--> adc_init/zf_adc

adc_init/zf_adc                               ----- -----

Motor_Init/motor                              ----- -----
  +--> pwm_init/zf_pwm
  +--> ctimer_count_init/zf_tim

pwm_init/zf_pwm                               07F3H 07FEH
  +--> pwm_set_gpio/zf_pwm
  +--> ?C?ULIDIV/?C?ULDIV

pwm_set_gpio/zf_pwm                           ----- -----
  +--> gpio_mode/zf_gpio

gpio_mode/zf_gpio                             ----- -----

ctimer_count_init/zf_tim                      ----- -----

Steer_Init/steer                              ----- -----
  +--> pwm_init/zf_pwm

Brushless_Init/brushless                      ----- -----
  +--> pwm_init/zf_pwm

OLED_Init/oled                                ----- -----
  +--> delay_ms/zf_delay
  +--> OLED_WR_Byte/oled
L251 LINKER/LOCATER V4.66.93.0                                                        05/06/2023  18:04:44  PAGE 14


  +--> OLED_Clear/oled
  +--> OLED_Set_Pos/oled

OLED_WR_Byte/oled                             ----- -----

OLED_Clear/oled                               ----- -----
  +--> OLED_WR_Byte/oled

OLED_Set_Pos/oled                             ----- -----
  +--> OLED_WR_Byte/oled

Timer4_Init/timer                             ----- -----
  +--> pit_timer_ms/zf_tim

PRINTF/PRINTF                                 07F3H 081AH
  +--> OUT/PRINTF

OUT/PRINTF                                    ----- -----
  +--> PUTCH/PRINTF

PUTCH/PRINTF                                  ----- -----
  +--> putchar/board
  +--> OUT/PRINTF

putchar/board                                 ----- -----
  +--> uart_putchar/zf_uart

uart_putchar/zf_uart                          ----- -----

send_five_data/host                           07F3H 0808H
  +--> uart_putchar/zf_uart

*** NEW ROOT ********************************

?C_C51STARTUP?2                               ----- -----



PUBLIC SYMBOLS OF MODULE:  .\Out_File\SEEKFREE (board)


      VALUE       CLASS    TYPE      PUBLIC SYMBOL NAME
      =================================================
      000007E5H   EDATA    BYTE      ?ADC_error_processing?BYTE
      00FF311EH   CODE     NEAR LAB  ?C?CASTF
      000000FFH   NUMBER   ---       ?C?CODESEG
      00FF30EBH   CODE     NEAR LAB  ?C?FCASTC
      00FF30E6H   CODE     NEAR LAB  ?C?FCASTI
      00FF30E1H   CODE     NEAR LAB  ?C?FCASTL
      00FF37EBH   CODE     ---       ?C?FP2SERIES
      00FF2EB4H   CODE     ---       ?C?FPADD
      00FF308FH   CODE     ---       ?C?FPCMP
      00FF308DH   CODE     ---       ?C?FPCMP3
      00FF3826H   CODE     ---       ?C?FPCONVERT
      00FF300CH   CODE     ---       ?C?FPDIV
      00FF335EH   CODE     ---       ?C?FPGETOPN2
      00FF2F6CH   CODE     ---       ?C?FPMUL
      00FF339BH   CODE     ---       ?C?FPNANRESULT
      00FF30D3H   CODE     ---       ?C?FPNEG
      00FF33A3H   CODE     ---       ?C?FPOVERFLOW
      00FF3377H   CODE     ---       ?C?FPRESULT
      00FF338DH   CODE     ---       ?C?FPRESULT2
      00FF38DEH   CODE     ---       ?C?FPROUND
      00FF37F4H   CODE     ---       ?C?FPSERIES
      00FF2EB1H   CODE     ---       ?C?FPSUB
L251 LINKER/LOCATER V4.66.93.0                                                        05/06/2023  18:04:44  PAGE 15


      00FF33A0H   CODE     ---       ?C?FPUNDERFLOW
      00FF3951H   CODE     ---       ?C?FTNPWR
      00FF597BH   CODE     ---       ?C?INITEDATA
      00FF6DD4H   HCONST   WORD      ?C?INITEDATA_END
      00FF39CBH   CODE     ---       ?C?LIMUL
      00FF39BAH   CODE     ---       ?C?LMUL
      00FF33DCH   CODE     ---       ?C?PRNFMT
      00FF3988H   CODE     ---       ?C?SIDIV
      00FF3A27H   CODE     NEAR LAB  ?C?SLDIV
      00FF0000H   CODE     ---       ?C?STARTUP
      00FF39D6H   CODE     NEAR LAB  ?C?ULDIV
      00FF39D4H   CODE     NEAR LAB  ?C?ULIDIV
      00000001H   NUMBER   ---       ?C?XDATASEG
      00FF0000H   CODE     ---       ?C_STARTUP
      000007E5H   EDATA    BYTE      ?Correct_Angle?BYTE
*DEL*:1FFFFFF8H   EDATA    BYTE      ?data_conversion?BYTE
*DEL*:1FFFFFF8H   EDATA    BYTE      ?fifo_init?BYTE
*DEL*:1FFFFFFCH   EDATA    BYTE      ?fifo_read_buffer?BYTE
      000007D9H   EDATA    BYTE      ?fifo_write_buffer?BYTE
*DEL*:1FFFFFFAH   EDATA    BYTE      ?iic_init?BYTE
*DEL*:1FFFFFFCH   EDATA    BYTE      ?ips114_showfloat?BYTE
*DEL*:1FFFFFFCH   EDATA    BYTE      ?ips114_showfloat_simspi?BYTE
*DEL*:1FFFFFF8H   EDATA    BYTE      ?Motor_PID_Control?BYTE
*DEL*:1FFFFFF7H   EDATA    BYTE      ?number_conversion_ascii?BYTE
*DEL*:1FFFFFF8H   EDATA    BYTE      ?pid_calc?BYTE
      000007EBH   EDATA    BYTE      ?PID_struct_init?BYTE
*DEL*:1FFFFFF8H   EDATA    BYTE      ?position_pid_calc?BYTE
      0000081BH   EDATA    ---       ?printf?BYTE
*DEL*:1FFFFFFAH   EDATA    BYTE      ?pwm_freq?BYTE
      000007F1H   EDATA    BYTE      ?pwm_init?BYTE
      000007EAH   EDATA    BYTE      ?send_five_data?BYTE
*DEL*:1FFFFFF7H   EDATA    BYTE      ?spi_init?BYTE
      000007EDH   EDATA    BYTE      ?uart_init?BYTE
*DEL*:00000028H   EDATA    BYTE      ?zf_sprintf?BYTE
*DEL*:00000000H   CODE     ---       abs_limit
      0000082DH   EDATA    INT       adc1
      0000082FH   EDATA    INT       adc2
      00000831H   EDATA    INT       adc3
      00000833H   EDATA    INT       adc4
      00000835H   EDATA    INT       adc5
      00000837H   EDATA    INT       adc6
      00000839H   EDATA    INT       adc7
      0000083BH   EDATA    INT       adc8
*SFR* 000000BCH   DATA     BYTE      ADC_CONTR
      000005F0H   EDATA    FLOAT     adc_err
      000005F4H   EDATA    ---       adc_err_array
*DEL*:00000000H   CODE     ---       ADC_Err_Trendency
      000005C3H   EDATA    FLOAT     ADC_error_a
      00FF5278H   CODE     ---       ADC_error_processing
      00FF5C29H   CODE     ---       ADC_error_weight_filtering
      00FF54D2H   CODE     ---       ADC_error_window_filtering
      00000632H   EDATA    FLOAT     Adc_Five_Del_1
      00000597H   EDATA    FLOAT     Adc_Five_Del_2
      000005AFH   EDATA    FLOAT     Adc_Five_Del_3
      000005B3H   EDATA    FLOAT     Adc_Five_Del_4
      0000060AH   EDATA    FLOAT     Adc_Five_Mean_1_Las
      00000610H   EDATA    FLOAT     Adc_Five_Mean_2_Las
      00000614H   EDATA    FLOAT     Adc_Five_Mean_3_Las
      00000618H   EDATA    FLOAT     Adc_Five_Mean_4_Las
      00FF5417H   CODE     ---       adc_init
      00FF5776H   CODE     ---       adc_mean_filter
      00FF5BCDH   CODE     ---       adc_once
*SFR* 000000BDH   DATA     BYTE      ADC_RES
*SFR* 000000BEH   DATA     BYTE      ADC_RESL
*SFR* 000000DEH   DATA     BYTE      ADCCFG
L251 LINKER/LOCATER V4.66.93.0                                                        05/06/2023  18:04:44  PAGE 16


*DEL*:00000000H   CODE     ---       Akeman_Control
      0000059BH   EDATA    ---       akeman_left
      0000061CH   EDATA    ---       akeman_right
      00000890H   EDATA    FLOAT     angle_limit
*DEL*:00000000H   CODE     ---       at24c02_read_byte
*DEL*:00000000H   CODE     ---       at24c02_read_bytes
*DEL*:00000000H   CODE     ---       at24c02_write_byte
*DEL*:00000000H   CODE     ---       at24c02_write_bytes
*SFR* 000000EFH   DATA     BYTE      AUXINTIF
*SFR* 0000008EH   DATA     BYTE      AUXR
*SFR* 00000097H   DATA     BYTE      AUXR2
*DEL*:00000000H   CODE     ---       bluetooth_ch9141_init
*DEL*:00000000H   CODE     ---       bluetooth_ch9141_read_buff
*DEL*:00000000H   CODE     ---       bluetooth_ch9141_send_buff
      00FF5E94H   CODE     ---       bluetooth_ch9141_uart_callback
      00FF4FB2H   CODE     ---       board_init
      00FF5CF8H   CODE     ---       Brushless_Init
      00000592H   EDATA    ---       busy
*SFR* 000000F1H   DATA     BYTE      CANICR
*DEL*:00000000H   CODE     ---       ccd_collect
      000003CAH   EDATA    ---       ccd_data
*DEL*:00000000H   CODE     ---       ccd_init
*DEL*:00000000H   CODE     ---       ccd_send_data
*SFR* 000000EAH   DATA     BYTE      CKCON
*SFR* 000000E6H   DATA     BYTE      CMPCR1
*SFR* 000000E7H   DATA     BYTE      CMPCR2
      00FF5351H   CODE     ---       Correct_Angle
      00FF326EH   CODE     ---       COS?_
      00000630H   EDATA    INT       countADC
*DEL*:00000000H   CODE     ---       CRC_CHECK
*DEL*:00000000H   CODE     ---       ctimer_count_clean
      00FF57C3H   CODE     ---       ctimer_count_init
*DEL*:00000000H   CODE     ---       ctimer_count_read
*DEL*:00000000H   CODE     ---       data_conversion
      00FF5A99H   CODE     ---       delay_init
      00FF5EF7H   CODE     ---       delay_ms
      00FF5E7BH   CODE     ---       delay_us
*DEL*:00000000H   CODE     ---       Dev_Err_Window_Filter_2
      000005CEH   EDATA    ---       Dev_errs
      000005CCH   EDATA    INT       dev_flag
      000005BBH   EDATA    INT       Dir_judge_flag
      00FF473AH   CODE     ---       Direct_judge
*DEL*:00000000H   CODE     ---       Direct_judge_Accele
*DEL*:00000000H   CODE     ---       DisableGlobalIRQ
      00000894H   EDATA    WORD      dl1a_distance_mm
      00000896H   EDATA    BYTE      dl1a_finsh_flag
*DEL*:00000000H   CODE     ---       dl1a_get_distance
*DEL*:00000000H   CODE     ---       dl1a_init
*SFR* 000000A8H.7 DATA     BIT       EA
*SFR* 000000BAH.7 DATA     BIT       EAXFR
      00FF5F24H   CODE     ---       eeprom_trig
      00FF000EH   CODE     ---       EnableGlobalIRQ
*DEL*:00000000H   CODE     ---       encoder_angle_simspi
*DEL*:00000000H   CODE     ---       encoder_angle_spi
*DEL*:00000000H   CODE     ---       Encoder_Clear
      00FF0006H   CODE     ---       encoder_delay_us
*DEL*:00000000H   CODE     ---       encoder_init_simspi
*DEL*:00000000H   CODE     ---       encoder_init_spi
*DEL*:00000000H   CODE     ---       Encoder_Read
*DEL*:00000000H   CODE     ---       encoder_self4_check
*DEL*:00000000H   CODE     ---       encoder_self5_check
*DEL*:00000000H   CODE     ---       encoder_simspi_r_reg_byte
*DEL*:00000000H   CODE     ---       encoder_simspi_w_reg_byte
*DEL*:00000000H   CODE     ---       encoder_spi_r_reg_byte
*DEL*:00000000H   CODE     ---       encoder_spi_w_reg_byte
L251 LINKER/LOCATER V4.66.93.0                                                        05/06/2023  18:04:44  PAGE 17


*SFR* 000000A8H.4 DATA     BIT       ES
*SFR* 000000A8H.1 DATA     BIT       ET0
*SFR* 000000A8H.3 DATA     BIT       ET1
*SFR* 000000A8H.0 DATA     BIT       EX0
*SFR* 000000A8H.2 DATA     BIT       EX1
*DEL*:00000000H   CODE     ---       exit_init
*DEL*:00000000H   CODE     ---       extern_iap_write_bytes
*SFR* 000000D0H.5 DATA     BIT       F0
      00FF605DH   HCONST   ---       F6x8
      00FF6285H   HCONST   ---       F8X16
      00FF3187H   CODE     NEAR LAB  fabs?_
*DEL*:00000000H   CODE     ---       fifo_clear
*DEL*:00000000H   CODE     ---       fifo_end_offset
      00FF5926H   CODE     ---       fifo_head_offset
*DEL*:00000000H   CODE     ---       fifo_init
*DEL*:00000000H   CODE     ---       fifo_read_buffer
*DEL*:00000000H   CODE     ---       fifo_used
      00FF4A9CH   CODE     ---       fifo_write_buffer
      00FF3A5BH   CODE     ---       gpio_mode
*DEL*:00000000H   CODE     ---       gpio_pull_set
      00000008H   EDATA    ---       Hzk
*SFR* 000000F6H   DATA     BYTE      IAP_ADDRE
*SFR* 000000C3H   DATA     BYTE      IAP_ADDRH
*SFR* 000000C4H   DATA     BYTE      IAP_ADDRL
*SFR* 000000C5H   DATA     BYTE      IAP_CMD
*SFR* 000000C7H   DATA     BYTE      IAP_CONTR
*SFR* 000000C2H   DATA     BYTE      IAP_DATA
*DEL*:00000000H   CODE     ---       iap_erase_page
*DEL*:00000000H   CODE     ---       iap_get_cmd_state
*DEL*:00000000H   CODE     ---       iap_idle
*DEL*:00000000H   CODE     ---       iap_init
*DEL*:00000000H   CODE     ---       iap_read_bytes
*DEL*:00000000H   CODE     ---       iap_set_tps
*SFR* 000000F5H   DATA     BYTE      IAP_TPS
*SFR* 000000C6H   DATA     BYTE      IAP_TRIG
*DEL*:00000000H   CODE     ---       iap_write_bytes
*DEL*:00000000H   CODE     ---       icm20602_acc_transition
      0000083DH   EDATA    INT       icm20602_acc_x
      0000083FH   EDATA    INT       icm20602_acc_y
      00000841H   EDATA    INT       icm20602_acc_z
*DEL*:00000000H   CODE     ---       icm20602_get_acc
*DEL*:00000000H   CODE     ---       icm20602_get_gyro
*DEL*:00000000H   CODE     ---       icm20602_gyro_transition
      00000843H   EDATA    INT       icm20602_gyro_x
      00000845H   EDATA    INT       icm20602_gyro_y
      00000847H   EDATA    INT       icm20602_gyro_z
*DEL*:00000000H   CODE     ---       icm20602_init
*SFR* 000000A8H   DATA     BYTE      IE
*SFR* 000000AFH   DATA     BYTE      IE2
*DEL*:00000000H   CODE     ---       iic_change_pin
      00FF5F39H   CODE     ---       iic_delay_us
*DEL*:00000000H   CODE     ---       iic_init
*DEL*:00000000H   CODE     ---       iic_read_reg
*DEL*:00000000H   CODE     ---       iic_read_reg_bytes
*DEL*:00000000H   CODE     ---       iic_write_reg
*DEL*:00000000H   CODE     ---       imu660ra_acc_transition
      00000849H   EDATA    INT       imu660ra_acc_x
      0000084BH   EDATA    INT       imu660ra_acc_y
      0000084DH   EDATA    INT       imu660ra_acc_z
      00FF00A6H   CODE     ---       imu660ra_config_file
*DEL*:00000000H   CODE     ---       imu660ra_get_acc
*DEL*:00000000H   CODE     ---       imu660ra_get_gyro
*DEL*:00000000H   CODE     ---       imu660ra_gyro_transition
      0000084FH   EDATA    INT       imu660ra_gyro_x
      00000851H   EDATA    INT       imu660ra_gyro_y
L251 LINKER/LOCATER V4.66.93.0                                                        05/06/2023  18:04:44  PAGE 18


      00000853H   EDATA    INT       imu660ra_gyro_z
*DEL*:00000000H   CODE     ---       imu660ra_init
*DEL*:00000000H   CODE     ---       imu963ra_acc_transition
      0000081BH   EDATA    INT       imu963ra_acc_x
      0000081DH   EDATA    INT       imu963ra_acc_y
      0000081FH   EDATA    INT       imu963ra_acc_z
*DEL*:00000000H   CODE     ---       imu963ra_get_acc
*DEL*:00000000H   CODE     ---       imu963ra_get_gyro
*DEL*:00000000H   CODE     ---       imu963ra_get_mag
*DEL*:00000000H   CODE     ---       imu963ra_gyro_transition
      00000827H   EDATA    INT       imu963ra_gyro_x
      00000829H   EDATA    INT       imu963ra_gyro_y
      0000082BH   EDATA    INT       imu963ra_gyro_z
*DEL*:00000000H   CODE     ---       imu963ra_init
*DEL*:00000000H   CODE     ---       imu963ra_mag_transition
      00000821H   EDATA    INT       imu963ra_mag_x
      00000823H   EDATA    INT       imu963ra_mag_y
      00000825H   EDATA    INT       imu963ra_mag_z
      00FF6056H   CODE     ---       INT0_Isr
      00FF0011H   CODE     ---       INT1_Isr
      00FF6036H   CODE     ---       INT2_Isr
      00FF603EH   CODE     ---       INT3_Isr
      00FF6046H   CODE     ---       INT4_Isr
*SFR* 0000008FH   DATA     BYTE      INTCLKO
*SFR* 000000B8H   DATA     BYTE      IP
*SFR* 000000B5H   DATA     BYTE      IP2
*SFR* 000000B6H   DATA     BYTE      IP2H
*SFR* 000000DFH   DATA     BYTE      IP3
*SFR* 000000EEH   DATA     BYTE      IP3H
*SFR* 000000B7H   DATA     BYTE      IPH
*DEL*:00000000H   CODE     ---       ips114_clear
*DEL*:00000000H   CODE     ---       ips114_clear_simspi
*DEL*:00000000H   CODE     ---       ips114_drawpoint
*DEL*:00000000H   CODE     ---       ips114_drawpoint_simspi
*DEL*:00000000H   CODE     ---       ips114_init
*DEL*:00000000H   CODE     ---       ips114_init_simspi
*DEL*:00000000H   CODE     ---       ips114_set_region
*DEL*:00000000H   CODE     ---       ips114_set_region_simspi
*DEL*:00000000H   CODE     ---       ips114_showchar
*DEL*:00000000H   CODE     ---       ips114_showchar_simspi
*DEL*:00000000H   CODE     ---       ips114_showfloat
*DEL*:00000000H   CODE     ---       ips114_showfloat_simspi
*DEL*:00000000H   CODE     ---       ips114_showint16
*DEL*:00000000H   CODE     ---       ips114_showint16_simspi
*DEL*:00000000H   CODE     ---       ips114_showint32
*DEL*:00000000H   CODE     ---       ips114_showint32_simspi
*DEL*:00000000H   CODE     ---       ips114_showint8
*DEL*:00000000H   CODE     ---       ips114_showint8_simspi
*DEL*:00000000H   CODE     ---       ips114_showstr
*DEL*:00000000H   CODE     ---       ips114_showstr_simspi
*DEL*:00000000H   CODE     ---       ips114_showuint16
*DEL*:00000000H   CODE     ---       ips114_showuint16_simspi
*DEL*:00000000H   CODE     ---       ips114_showuint8
*DEL*:00000000H   CODE     ---       ips114_showuint8_simspi
*DEL*:00000000H   CODE     ---       ips114_writeData
      00FF5E05H   CODE     ---       ips114_writedata_16bit
*DEL*:00000000H   CODE     ---       ips114_writeData_simspi
      00FF5C57H   CODE     ---       ips114_writeDatai_16bit_simspi
      00FF601BH   CODE     ---       ips114_writeIndex
      00FF5C83H   CODE     ---       ips114_writeIndex_simspi
*SFR* 0000009DH   DATA     BYTE      IRCBAND
*SFR* 0000009FH   DATA     BYTE      IRTRIM
*SFR* 00000088H.0 DATA     BIT       IT0
*SFR* 00000088H.2 DATA     BIT       IT1
*DEL*:00000000H   CODE     ---       Key_Scan
L251 LINKER/LOCATER V4.66.93.0                                                        05/06/2023  18:04:44  PAGE 19


*SFR* 000000F9H   DATA     BYTE      LINICR
      00FF516DH   CODE     ---       lost_line_judge
      00FF5475H   CODE     ---       lostline_deal
      000005BDH   EDATA    INT       lostline_dir
      0000060EH   EDATA    INT       lostline_flag
      00FF4991H   CODE     ---       main
      00FF5CD3H   CODE     ---       memcpy?_
*DEL*:00000000H   CODE     ---       memset?_
      00FF4E73H   CODE     ---       Motor_Control
      00FF56D9H   CODE     ---       Motor_Init
*DEL*:00000000H   CODE     ---       Motor_PID_Control
*DEL*:00000000H   CODE     ---       Motor_Shut
      00000855H   EDATA    INT       mpu6050_acc_x
      00000857H   EDATA    INT       mpu6050_acc_y
      00000859H   EDATA    INT       mpu6050_acc_z
*DEL*:00000000H   CODE     ---       mpu6050_get_accdata
*DEL*:00000000H   CODE     ---       mpu6050_get_gyro
      0000085BH   EDATA    INT       mpu6050_gyro_x
      0000085DH   EDATA    INT       mpu6050_gyro_y
      0000085FH   EDATA    INT       mpu6050_gyro_z
*DEL*:00000000H   CODE     ---       mpu6050_init
*DEL*:00000000H   CODE     ---       mpu6050_simiic_read_reg
*DEL*:00000000H   CODE     ---       mpu6050_simiic_read_regs
      00FF580DH   CODE     ---       My_Adc_Init
*DEL*:00000000H   CODE     ---       number_conversion_ascii
*DEL*:00000000H   CODE     ---       NVIC_SetPriority
      00FF2C86H   CODE     ---       oled_6x8
      00FF20A6H   CODE     ---       oled_8x16
      00FF5B3BH   CODE     ---       OLED_Clear
*SFR* 00000080H.2 DATA     BIT       OLED_CS
*SFR* 000000C8H.2 DATA     BIT       OLED_DC
*DEL*:00000000H   CODE     ---       OLED_Display_Off
*DEL*:00000000H   CODE     ---       OLED_Display_On
*DEL*:00000000H   CODE     ---       OLED_DrawBMP
      00FF4D1FH   CODE     ---       OLED_Init
*DEL*:00000000H   CODE     ---       oled_pow
*SFR* 000000C8H.1 DATA     BIT       OLED_RST
*SFR* 000000B0H.7 DATA     BIT       OLED_SCL
*SFR* 000000B0H.6 DATA     BIT       OLED_SDIN
      00FF5CACH   CODE     ---       OLED_Set_Pos
*DEL*:00000000H   CODE     ---       OLED_ShowChar
*DEL*:00000000H   CODE     ---       OLED_ShowCHinese
*DEL*:00000000H   CODE     ---       OLED_ShowNum
*DEL*:00000000H   CODE     ---       OLED_ShowString
      00FF552DH   CODE     ---       OLED_WR_Byte
      000005B7H   EDATA    FLOAT     order_angle
      000005BFH   EDATA    FLOAT     order_speed
*SFR* 00000080H   DATA     BYTE      P0
*SFR* 00000080H.7 DATA     BIT       P07
*SFR* 00000094H   DATA     BYTE      P0M0
*SFR* 00000093H   DATA     BYTE      P0M1
*SFR* 00000090H   DATA     BYTE      P1
*SFR* 00000092H   DATA     BYTE      P1M0
*SFR* 00000091H   DATA     BYTE      P1M1
*SFR* 000000A0H   DATA     BYTE      P2
*SFR* 000000A0H.0 DATA     BIT       P20
*SFR* 000000A0H.1 DATA     BIT       P21
*SFR* 000000A0H.2 DATA     BIT       P22
*SFR* 000000A0H.3 DATA     BIT       P23
*SFR* 000000A0H.4 DATA     BIT       P24
*SFR* 000000A0H.5 DATA     BIT       P25
*SFR* 000000A0H.6 DATA     BIT       P26
*SFR* 000000A0H.7 DATA     BIT       P27
*SFR* 00000096H   DATA     BYTE      P2M0
*SFR* 00000095H   DATA     BYTE      P2M1
L251 LINKER/LOCATER V4.66.93.0                                                        05/06/2023  18:04:44  PAGE 20


*SFR* 000000B0H   DATA     BYTE      P3
*SFR* 000000B0H.2 DATA     BIT       P32
*SFR* 000000B0H.3 DATA     BIT       P33
*SFR* 000000B0H.5 DATA     BIT       P35
*SFR* 000000B2H   DATA     BYTE      P3M0
*SFR* 000000B1H   DATA     BYTE      P3M1
*SFR* 000000C0H   DATA     BYTE      P4
*SFR* 000000C0H.0 DATA     BIT       P40
*SFR* 000000C0H.1 DATA     BIT       P41
*SFR* 000000C0H.2 DATA     BIT       P42
*SFR* 000000C0H.3 DATA     BIT       P43
*SFR* 000000C0H.4 DATA     BIT       P44
*SFR* 000000C0H.5 DATA     BIT       P45
*SFR* 000000B4H   DATA     BYTE      P4M0
*SFR* 000000B3H   DATA     BYTE      P4M1
*SFR* 000000C8H   DATA     BYTE      P5
*SFR* 000000C8H.0 DATA     BIT       P50
*SFR* 000000C8H.3 DATA     BIT       P53
*SFR* 000000CAH   DATA     BYTE      P5M0
*SFR* 000000C9H   DATA     BYTE      P5M1
*SFR* 000000E8H   DATA     BYTE      P6
*SFR* 000000CCH   DATA     BYTE      P6M0
*SFR* 000000CBH   DATA     BYTE      P6M1
*SFR* 000000F8H   DATA     BYTE      P7
*SFR* 000000F8H.0 DATA     BIT       P70
*SFR* 000000F8H.1 DATA     BIT       P71
*SFR* 000000F8H.2 DATA     BIT       P72
*SFR* 000000F8H.3 DATA     BIT       P73
*SFR* 000000E2H   DATA     BYTE      P7M0
*SFR* 000000E1H   DATA     BYTE      P7M1
*SFR* 000000A2H   DATA     BYTE      P_SW1
*SFR* 000000BAH   DATA     BYTE      P_SW2
*SFR* 000000BBH   DATA     BYTE      P_SW3
*SFR* 00000087H   DATA     BYTE      PCON
*DEL*:00000000H   CODE     ---       pid_calc
*DEL*:00000000H   CODE     ---       pid_clear_integral
      000005CBH   EDATA    BYTE      pid_flag
      00000696H   EDATA    ---       pid_left_
*DEL*:00000000H   CODE     ---       PID_off
*DEL*:00000000H   CODE     ---       PID_on
      0000064EH   EDATA    ---       pid_right_
      00FF53B8H   CODE     ---       PID_struct_init
      00FF5046H   CODE     ---       pit_timer_ms
*DEL*:00000000H   CODE     ---       position_pid_calc
      00FF315BH   CODE     NEAR LAB  printf
*DEL*:00000000H   CODE     ---       printf_reverse_order
*SFR* 000000D0H   DATA     BYTE      PSW
      0000088EH   EDATA    INT       pulse_left
      0000088CH   EDATA    INT       pulse_right
      00FF5FE7H   CODE     ---       putchar
      00FF6DF6H   HCONST   ---       PWM_ARR_ADDR
      00FF6DFEH   HCONST   ---       PWM_CCER_ADDR
      00FF6E0EH   HCONST   ---       PWM_CCMR_ADDR
      00FF6DD6H   HCONST   ---       PWM_CCR_ADDR
      00FF4C57H   CODE     ---       pwm_duty
*DEL*:00000000H   CODE     ---       pwm_freq
      00FF3E52H   CODE     ---       pwm_init
      00FF414EH   CODE     ---       pwm_set_gpio
      00FF51FFH   CODE     ---       Read_Adc_Value
*DEL*:00000000H   CODE     ---       recv_ack
*DEL*:00000000H   CODE     ---       recv_data
      000005C9H   EDATA    INT       Roundabout_count
      000005EEH   EDATA    INT       Roundabout_flag_L
      00000608H   EDATA    INT       Roundabout_flag_R
*SFR* 000000FFH   DATA     BYTE      RSTCFG
L251 LINKER/LOCATER V4.66.93.0                                                        05/06/2023  18:04:44  PAGE 21


*SFR* 0000009BH   DATA     BYTE      S2BUF
*SFR* 0000009AH   DATA     BYTE      S2CON
*SFR* 000000ADH   DATA     BYTE      S3BUF
*SFR* 000000ACH   DATA     BYTE      S3CON
*SFR* 000000FEH   DATA     BYTE      S4BUF
*SFR* 000000FDH   DATA     BYTE      S4CON
*SFR* 00000099H   DATA     BYTE      SBUF
*SFR* 00000098H   DATA     BYTE      SCON
*DEL*:00000000H   CODE     ---       send_ack
*DEL*:00000000H   CODE     ---       send_data
      00FF50DAH   CODE     ---       send_five_data
*DEL*:00000000H   CODE     ---       send_nak
*DEL*:00000000H   CODE     ---       Set_Brushless_Output
      00FF486FH   CODE     ---       set_clk
*DEL*:00000000H   CODE     ---       set_zero_position_simspi
*DEL*:00000000H   CODE     ---       set_zero_position_spi
      000003C8H   EDATA    BYTE      show_mode
*DEL*:00000000H   CODE     ---       simspi_r_reg_byte
*DEL*:00000000H   CODE     ---       simspi_w_reg_byte
*DEL*:00000000H   CODE     ---       simspi_wr_byte
      00FF328BH   CODE     ---       SIN?_
*SFR* 000000CEH   DATA     BYTE      SPCTL
*SFR* 000000CFH   DATA     BYTE      SPDAT
*DEL*:00000000H   CODE     ---       spi_change_mode
*DEL*:00000000H   CODE     ---       spi_change_pin
*DEL*:00000000H   CODE     ---       spi_init
      00FF5FF5H   CODE     ---       spi_mosi
*DEL*:00000000H   CODE     ---       spi_r_reg_byte
*DEL*:00000000H   CODE     ---       spi_w_reg_byte
*DEL*:00000000H   CODE     ---       spi_wr_byte
*SFR* 000000CDH   DATA     BYTE      SPSTAT
      00FF3196H   CODE     ---       sqrt?_
*DEL*:00000000H   CODE     ---       start
      00FF5F61H   CODE     ---       Steer_Init
      00FF4F18H   CODE     ---       Steer_Spin
      00FF5DE5H   CODE     ---       Steer_Spin_limit
*DEL*:00000000H   CODE     ---       stop
      0000087CH   EDATA    LONG      sys_clk
*SFR* 000000D6H   DATA     BYTE      T2H
*SFR* 000000D7H   DATA     BYTE      T2L
*SFR* 000000D4H   DATA     BYTE      T3H
*SFR* 000000D5H   DATA     BYTE      T3L
*SFR* 000000D2H   DATA     BYTE      T4H
*SFR* 000000D3H   DATA     BYTE      T4L
*SFR* 000000DDH   DATA     BYTE      T4T3M
      00FF32B8H   CODE     ---       tan?_
*SFR* 00000088H   DATA     BYTE      TCON
      00FF2696H   CODE     ---       tft_ascii
*SFR* 0000008CH   DATA     BYTE      TH0
*SFR* 0000008DH   DATA     BYTE      TH1
      00FF6025H   CODE     ---       Timer4_Init
*SFR* 0000008AH   DATA     BYTE      TL0
*SFR* 0000008BH   DATA     BYTE      TL1
      00FF0012H   CODE     ---       TM0_Isr
      00FF0016H   CODE     ---       TM1_Isr
      00FF604EH   CODE     ---       TM2_Isr
      00FF4DCDH   CODE     ---       TM3_Isr
      00FF45AEH   CODE     ---       TM4_Isr
*SFR* 00000089H   DATA     BYTE      TMOD
*SFR* 00000088H.4 DATA     BIT       TR0
*SFR* 00000088H.6 DATA     BIT       TR1
      000003C9H   EDATA    BYTE      tsl1401_finish_flag
      00FF59E5H   CODE     ---       UART1_Isr
      000004CAH   EDATA    ---       uart1_rx_buff
      0000052EH   EDATA    ---       uart1_tx_buff
L251 LINKER/LOCATER V4.66.93.0                                                        05/06/2023  18:04:44  PAGE 22


      00FF5E24H   CODE     ---       UART2_Isr
      00FF5E42H   CODE     ---       UART3_Isr
      00FF52E8H   CODE     ---       UART4_Isr
      00FF43EFH   CODE     ---       uart_init
*DEL*:00000000H   CODE     ---       uart_putbuff
      00FF55DFH   CODE     ---       uart_putchar
*DEL*:00000000H   CODE     ---       uart_putstr
*SFR* 000000F4H   DATA     BYTE      USBCON
      00000861H   EDATA    ---       virtual_scope_data
*SFR* 000000A6H   DATA     BYTE      VRTRIM
      00FF589DH   CODE     ---       wait
*SFR* 000000C1H   DATA     BYTE      WDT_CONTR
      000005C7H   EDATA    INT       window_flag
      00FF5EC6H   CODE     ---       wireless_ch573_callback
*DEL*:00000000H   CODE     ---       wireless_ch573_init
*DEL*:00000000H   CODE     ---       wireless_ch573_read_buff
*DEL*:00000000H   CODE     ---       wireless_ch573_send_buff
      00000897H   EDATA    INT       wireless_type
      00FF5EADH   CODE     ---       wireless_uart_callback
*DEL*:00000000H   CODE     ---       wireless_uart_init
*DEL*:00000000H   CODE     ---       wireless_uart_read_buff
*DEL*:00000000H   CODE     ---       wireless_uart_send_buff
*SFR* 000000E9H   DATA     BYTE      WTST
      00000880H   EDATA    WORD      zf_delay_ms
      00000882H   EDATA    WORD      zf_delay_us
*DEL*:00000000H   CODE     ---       zf_sprintf



SYMBOL TABLE OF MODULE:  .\Out_File\SEEKFREE (board)

      VALUE       REP       CLASS    TYPE      SYMBOL NAME
      ====================================================
      ---         MODULE    ---      ---       board
      00FF000EH   PUBLIC    CODE     ---       EnableGlobalIRQ
      00FF4FB2H   PUBLIC    CODE     ---       board_init
      00FF486FH   PUBLIC    CODE     ---       set_clk
      00FF5FE7H   PUBLIC    CODE     ---       putchar
      0000087CH   PUBLIC    EDATA    LONG      sys_clk
      00000094H   SFRSYM    DATA     BYTE      P0M0
      000000D0H   SFRSYM    DATA     BYTE      PSW
      000000BAH.7 SFRSYM    DATA     BIT       EAXFR
      0000009DH   SFRSYM    DATA     BYTE      IRCBAND
      00000097H   SFRSYM    DATA     BYTE      AUXR2
      000000EAH   SFRSYM    DATA     BYTE      CKCON
      000000EFH   SFRSYM    DATA     BYTE      AUXINTIF
      000000FDH   SFRSYM    DATA     BYTE      S4CON
      000000ACH   SFRSYM    DATA     BYTE      S3CON
      0000009AH   SFRSYM    DATA     BYTE      S2CON
      000000A6H   SFRSYM    DATA     BYTE      VRTRIM
      000000B7H   SFRSYM    DATA     BYTE      IPH
      000000CDH   SFRSYM    DATA     BYTE      SPSTAT
      000000DDH   SFRSYM    DATA     BYTE      T4T3M
      0000009FH   SFRSYM    DATA     BYTE      IRTRIM
      000000C1H   SFRSYM    DATA     BYTE      WDT_CONTR
      000000E9H   SFRSYM    DATA     BYTE      WTST
      000000DFH   SFRSYM    DATA     BYTE      IP3
      000000F4H   SFRSYM    DATA     BYTE      USBCON
      000000B5H   SFRSYM    DATA     BYTE      IP2
      000000FFH   SFRSYM    DATA     BYTE      RSTCFG
      000000F9H   SFRSYM    DATA     BYTE      LINICR
      0000008EH   SFRSYM    DATA     BYTE      AUXR
      000000AFH   SFRSYM    DATA     BYTE      IE2
      00000088H   SFRSYM    DATA     BYTE      TCON
      00000089H   SFRSYM    DATA     BYTE      TMOD
L251 LINKER/LOCATER V4.66.93.0                                                        05/06/2023  18:04:44  PAGE 23


      00000098H   SFRSYM    DATA     BYTE      SCON
      000000F1H   SFRSYM    DATA     BYTE      CANICR
      00000087H   SFRSYM    DATA     BYTE      PCON
      000000BCH   SFRSYM    DATA     BYTE      ADC_CONTR
      000000E7H   SFRSYM    DATA     BYTE      CMPCR2
      000000E6H   SFRSYM    DATA     BYTE      CMPCR1
      000000DEH   SFRSYM    DATA     BYTE      ADCCFG
      000000B8H   SFRSYM    DATA     BYTE      IP
      0000008FH   SFRSYM    DATA     BYTE      INTCLKO
      000000EEH   SFRSYM    DATA     BYTE      IP3H
      000000B6H   SFRSYM    DATA     BYTE      IP2H
      000000A8H   SFRSYM    DATA     BYTE      IE
      000000BBH   SFRSYM    DATA     BYTE      P_SW3
      000000BAH   SFRSYM    DATA     BYTE      P_SW2
      000000A2H   SFRSYM    DATA     BYTE      P_SW1
      000000CEH   SFRSYM    DATA     BYTE      SPCTL
      000000F8H   SFRSYM    DATA     BYTE      P7
      000000A8H.7 SFRSYM    DATA     BIT       EA
      000000E1H   SFRSYM    DATA     BYTE      P7M1
      000000E8H   SFRSYM    DATA     BYTE      P6
      000000C8H   SFRSYM    DATA     BYTE      P5
      000000CBH   SFRSYM    DATA     BYTE      P6M1
      000000E2H   SFRSYM    DATA     BYTE      P7M0
      000000C0H   SFRSYM    DATA     BYTE      P4
      000000C9H   SFRSYM    DATA     BYTE      P5M1
      000000CCH   SFRSYM    DATA     BYTE      P6M0
      000000B0H   SFRSYM    DATA     BYTE      P3
      000000B3H   SFRSYM    DATA     BYTE      P4M1
      000000CAH   SFRSYM    DATA     BYTE      P5M0
      000000A0H   SFRSYM    DATA     BYTE      P2
      000000B1H   SFRSYM    DATA     BYTE      P3M1
      000000B4H   SFRSYM    DATA     BYTE      P4M0
      00000090H   SFRSYM    DATA     BYTE      P1
      00000095H   SFRSYM    DATA     BYTE      P2M1
      000000B2H   SFRSYM    DATA     BYTE      P3M0
      00000080H   SFRSYM    DATA     BYTE      P0
      00000091H   SFRSYM    DATA     BYTE      P1M1
      00000096H   SFRSYM    DATA     BYTE      P2M0
      00000092H   SFRSYM    DATA     BYTE      P1M0
      00000093H   SFRSYM    DATA     BYTE      P0M1

      00FF486FH   BLOCK     CODE     ---       LVL=0
      00FF486FH   LINE      CODE     ---       #43
      00FF486FH   LINE      CODE     ---       #46
      00FF4872H   LINE      CODE     ---       #48
      00FF4882H   LINE      CODE     ---       #51
      00FF488FH   LINE      CODE     ---       #52
      00FF4893H   LINE      CODE     ---       #53
      00FF4893H   LINE      CODE     ---       #54
      00FF4893H   LINE      CODE     ---       #55
      00FF4893H   LINE      CODE     ---       #56
      00FF4895H   LINE      CODE     ---       #57
      00FF48A1H   LINE      CODE     ---       #60
      00FF48AEH   LINE      CODE     ---       #61
      00FF48B2H   LINE      CODE     ---       #62
      00FF48B2H   LINE      CODE     ---       #63
      00FF48B2H   LINE      CODE     ---       #64
      00FF48B2H   LINE      CODE     ---       #65
      00FF48B4H   LINE      CODE     ---       #66
      00FF48C0H   LINE      CODE     ---       #69
      00FF48CDH   LINE      CODE     ---       #70
      00FF48D1H   LINE      CODE     ---       #71
      00FF48D1H   LINE      CODE     ---       #72
      00FF48D1H   LINE      CODE     ---       #73
      00FF48D1H   LINE      CODE     ---       #74
L251 LINKER/LOCATER V4.66.93.0                                                        05/06/2023  18:04:44  PAGE 24


      00FF48D3H   LINE      CODE     ---       #75
      00FF48DFH   LINE      CODE     ---       #79
      00FF48ECH   LINE      CODE     ---       #80
      00FF48F0H   LINE      CODE     ---       #81
      00FF48F0H   LINE      CODE     ---       #82
      00FF48F0H   LINE      CODE     ---       #83
      00FF48F0H   LINE      CODE     ---       #84
      00FF48F2H   LINE      CODE     ---       #85
      00FF48FEH   LINE      CODE     ---       #88
      00FF490BH   LINE      CODE     ---       #89
      00FF4918H   LINE      CODE     ---       #90
      00FF4921H   LINE      CODE     ---       #91
      00FF4924H   LINE      CODE     ---       #92
      00FF4924H   LINE      CODE     ---       #93
      00FF4926H   LINE      CODE     ---       #94
      00FF4932H   LINE      CODE     ---       #97
      00FF493FH   LINE      CODE     ---       #98
      00FF494CH   LINE      CODE     ---       #99
      00FF4955H   LINE      CODE     ---       #100
      00FF4958H   LINE      CODE     ---       #101
      00FF495CH   LINE      CODE     ---       #102
      00FF495EH   LINE      CODE     ---       #105
      00FF4962H   LINE      CODE     ---       #107
      00FF496FH   LINE      CODE     ---       #108
      00FF497CH   LINE      CODE     ---       #109
      00FF4985H   LINE      CODE     ---       #110
      00FF4988H   LINE      CODE     ---       #111
      00FF498CH   LINE      CODE     ---       #112
      00FF498CH   LINE      CODE     ---       #114
      00FF4990H   LINE      CODE     ---       #115
      ---         BLOCKEND  ---      ---       LVL=0

      00FF4FB2H   BLOCK     CODE     ---       LVL=0
      00FF4FB2H   LINE      CODE     ---       #121
      00FF4FB2H   LINE      CODE     ---       #123
      00FF4FB5H   LINE      CODE     ---       #124
      00FF4FB8H   LINE      CODE     ---       #125
      00FF4FBBH   LINE      CODE     ---       #126
      00FF4FBEH   LINE      CODE     ---       #127
      00FF4FC1H   LINE      CODE     ---       #137
      00FF4FC8H   LINE      CODE     ---       #143
      00FF4FCBH   LINE      CODE     ---       #145
      00FF4FCEH   LINE      CODE     ---       #146
      00FF4FD1H   LINE      CODE     ---       #147
      00FF4FDDH   LINE      CODE     ---       #149
      00FF4FE0H   LINE      CODE     ---       #150
      00FF4FE3H   LINE      CODE     ---       #151
      00FF4FE6H   LINE      CODE     ---       #152
      00FF4FE9H   LINE      CODE     ---       #153
      00FF4FECH   LINE      CODE     ---       #154
      00FF4FEFH   LINE      CODE     ---       #155
      00FF4FF2H   LINE      CODE     ---       #156
      00FF4FF5H   LINE      CODE     ---       #157
      00FF4FF8H   LINE      CODE     ---       #158
      00FF4FFBH   LINE      CODE     ---       #159
      00FF4FFEH   LINE      CODE     ---       #160
      00FF5001H   LINE      CODE     ---       #161
      00FF5004H   LINE      CODE     ---       #162
      00FF5007H   LINE      CODE     ---       #163
      00FF500AH   LINE      CODE     ---       #164
      00FF500DH   LINE      CODE     ---       #166
      00FF5010H   LINE      CODE     ---       #167
      00FF5013H   LINE      CODE     ---       #168
      00FF5016H   LINE      CODE     ---       #169
      00FF5019H   LINE      CODE     ---       #170
L251 LINKER/LOCATER V4.66.93.0                                                        05/06/2023  18:04:44  PAGE 25


      00FF501CH   LINE      CODE     ---       #171
      00FF501FH   LINE      CODE     ---       #172
      00FF5022H   LINE      CODE     ---       #173
      00FF5025H   LINE      CODE     ---       #174
      00FF5028H   LINE      CODE     ---       #176
      00FF5043H   LINE      CODE     ---       #177
      ---         BLOCKEND  ---      ---       LVL=0

      00FF5FE7H   BLOCK     CODE     ---       LVL=0
      R15         REGSYM    ---      CHAR      c
      00FF5FE7H   LINE      CODE     ---       #183
      00FF5FEBH   LINE      CODE     ---       #185
      00FF5FF0H   LINE      CODE     ---       #187
      00FF5FF2H   LINE      CODE     ---       #188
      ---         BLOCKEND  ---      ---       LVL=0

      00FF000EH   BLOCK     CODE     ---       LVL=0
      00FF000EH   LINE      CODE     ---       #197
      00FF000EH   LINE      CODE     ---       #199
      00FF0010H   LINE      CODE     ---       #200
      ---         BLOCKEND  ---      ---       LVL=0

      ---         MODULE    ---      ---       common
      00000897H   PUBLIC    EDATA    INT       wireless_type
      000000D0H   SFRSYM    DATA     BYTE      PSW
      0000009DH   SFRSYM    DATA     BYTE      IRCBAND
      00000097H   SFRSYM    DATA     BYTE      AUXR2
      000000EFH   SFRSYM    DATA     BYTE      AUXINTIF
      000000FDH   SFRSYM    DATA     BYTE      S4CON
      000000ACH   SFRSYM    DATA     BYTE      S3CON
      0000009AH   SFRSYM    DATA     BYTE      S2CON
      000000B7H   SFRSYM    DATA     BYTE      IPH
      000000CDH   SFRSYM    DATA     BYTE      SPSTAT
      000000DDH   SFRSYM    DATA     BYTE      T4T3M
      000000C1H   SFRSYM    DATA     BYTE      WDT_CONTR
      000000DFH   SFRSYM    DATA     BYTE      IP3
      000000F4H   SFRSYM    DATA     BYTE      USBCON
      000000B5H   SFRSYM    DATA     BYTE      IP2
      000000FFH   SFRSYM    DATA     BYTE      RSTCFG
      000000F9H   SFRSYM    DATA     BYTE      LINICR
      0000008EH   SFRSYM    DATA     BYTE      AUXR
      000000AFH   SFRSYM    DATA     BYTE      IE2
      00000088H   SFRSYM    DATA     BYTE      TCON
      00000098H   SFRSYM    DATA     BYTE      SCON
      000000F1H   SFRSYM    DATA     BYTE      CANICR
      00000087H   SFRSYM    DATA     BYTE      PCON
      000000BCH   SFRSYM    DATA     BYTE      ADC_CONTR
      000000E7H   SFRSYM    DATA     BYTE      CMPCR2
      000000E6H   SFRSYM    DATA     BYTE      CMPCR1
      000000B8H   SFRSYM    DATA     BYTE      IP
      0000008FH   SFRSYM    DATA     BYTE      INTCLKO
      000000EEH   SFRSYM    DATA     BYTE      IP3H
      000000B6H   SFRSYM    DATA     BYTE      IP2H
      000000A8H   SFRSYM    DATA     BYTE      IE
      000000BBH   SFRSYM    DATA     BYTE      P_SW3
      000000BAH   SFRSYM    DATA     BYTE      P_SW2
      000000A2H   SFRSYM    DATA     BYTE      P_SW1
      000000CEH   SFRSYM    DATA     BYTE      SPCTL
      000000F8H   SFRSYM    DATA     BYTE      P7
      000000E8H   SFRSYM    DATA     BYTE      P6
      000000C8H   SFRSYM    DATA     BYTE      P5
      000000C0H   SFRSYM    DATA     BYTE      P4
      000000B0H   SFRSYM    DATA     BYTE      P3
      000000A0H   SFRSYM    DATA     BYTE      P2
      00000090H   SFRSYM    DATA     BYTE      P1
L251 LINKER/LOCATER V4.66.93.0                                                        05/06/2023  18:04:44  PAGE 26


      00000080H   SFRSYM    DATA     BYTE      P0

      ---         MODULE    ---      ---       zf_adc
      00FF5BCDH   PUBLIC    CODE     ---       adc_once
      00FF5417H   PUBLIC    CODE     ---       adc_init
      00000094H   SFRSYM    DATA     BYTE      P0M0
      000000D0H   SFRSYM    DATA     BYTE      PSW
      0000009DH   SFRSYM    DATA     BYTE      IRCBAND
      00000097H   SFRSYM    DATA     BYTE      AUXR2
      000000EFH   SFRSYM    DATA     BYTE      AUXINTIF
      000000FDH   SFRSYM    DATA     BYTE      S4CON
      000000ACH   SFRSYM    DATA     BYTE      S3CON
      0000009AH   SFRSYM    DATA     BYTE      S2CON
      000000B7H   SFRSYM    DATA     BYTE      IPH
      000000CDH   SFRSYM    DATA     BYTE      SPSTAT
      000000BEH   SFRSYM    DATA     BYTE      ADC_RESL
      000000DDH   SFRSYM    DATA     BYTE      T4T3M
      000000C1H   SFRSYM    DATA     BYTE      WDT_CONTR
      000000DFH   SFRSYM    DATA     BYTE      IP3
      000000F4H   SFRSYM    DATA     BYTE      USBCON
      000000B5H   SFRSYM    DATA     BYTE      IP2
      000000FFH   SFRSYM    DATA     BYTE      RSTCFG
      000000F9H   SFRSYM    DATA     BYTE      LINICR
      0000008EH   SFRSYM    DATA     BYTE      AUXR
      000000AFH   SFRSYM    DATA     BYTE      IE2
      00000088H   SFRSYM    DATA     BYTE      TCON
      00000098H   SFRSYM    DATA     BYTE      SCON
      000000F1H   SFRSYM    DATA     BYTE      CANICR
      00000087H   SFRSYM    DATA     BYTE      PCON
      000000BCH   SFRSYM    DATA     BYTE      ADC_CONTR
      000000E7H   SFRSYM    DATA     BYTE      CMPCR2
      000000E6H   SFRSYM    DATA     BYTE      CMPCR1
      000000DEH   SFRSYM    DATA     BYTE      ADCCFG
      000000B8H   SFRSYM    DATA     BYTE      IP
      0000008FH   SFRSYM    DATA     BYTE      INTCLKO
      000000EEH   SFRSYM    DATA     BYTE      IP3H
      000000B6H   SFRSYM    DATA     BYTE      IP2H
      000000BDH   SFRSYM    DATA     BYTE      ADC_RES
      000000A8H   SFRSYM    DATA     BYTE      IE
      000000BBH   SFRSYM    DATA     BYTE      P_SW3
      000000BAH   SFRSYM    DATA     BYTE      P_SW2
      000000A2H   SFRSYM    DATA     BYTE      P_SW1
      000000CEH   SFRSYM    DATA     BYTE      SPCTL
      000000F8H   SFRSYM    DATA     BYTE      P7
      000000E8H   SFRSYM    DATA     BYTE      P6
      000000C8H   SFRSYM    DATA     BYTE      P5
      000000C0H   SFRSYM    DATA     BYTE      P4
      000000B0H   SFRSYM    DATA     BYTE      P3
      000000A0H   SFRSYM    DATA     BYTE      P2
      00000090H   SFRSYM    DATA     BYTE      P1
      00000080H   SFRSYM    DATA     BYTE      P0
      00000091H   SFRSYM    DATA     BYTE      P1M1
      00000092H   SFRSYM    DATA     BYTE      P1M0
      00000093H   SFRSYM    DATA     BYTE      P0M1

      00FF5417H   BLOCK     CODE     ---       LVL=0
      WR4         REGSYM    ---      INT       adcn
      WR2         REGSYM    ---      INT       speed
      00FF5417H   LINE      CODE     ---       #32
      00FF541BH   LINE      CODE     ---       #34
      00FF541EH   LINE      CODE     ---       #36
      00FF5421H   LINE      CODE     ---       #37
      00FF5427H   LINE      CODE     ---       #39
      00FF5433H   LINE      CODE     ---       #42
      00FF5448H   LINE      CODE     ---       #43
L251 LINKER/LOCATER V4.66.93.0                                                        05/06/2023  18:04:44  PAGE 27


      00FF544CH   LINE      CODE     ---       #44
      00FF544EH   LINE      CODE     ---       #45
      00FF5452H   LINE      CODE     ---       #48
      00FF5467H   LINE      CODE     ---       #49
      00FF546BH   LINE      CODE     ---       #50
      00FF546BH   LINE      CODE     ---       #52
      00FF5471H   LINE      CODE     ---       #54
      00FF5474H   LINE      CODE     ---       #55
      ---         BLOCKEND  ---      ---       LVL=0

      00FF5BCDH   BLOCK     CODE     ---       LVL=0
      WR6         REGSYM    ---      INT       adcn
      WR4         REGSYM    ---      INT       resolution
      WR6         REGSYM    ---      WORD      adc_value
      00FF5BCDH   LINE      CODE     ---       #66
      00FF5BCDH   LINE      CODE     ---       #67
      00FF5BCDH   LINE      CODE     ---       #70
      00FF5BD0H   LINE      CODE     ---       #71
      00FF5BD4H   LINE      CODE     ---       #73
      00FF5BD7H   LINE      CODE     ---       #74
      00FF5BDCH   LINE      CODE     ---       #75
      00FF5BDFH   LINE      CODE     ---       #77
      00FF5BE1H   LINE      CODE     ---       #78
      00FF5BE5H   LINE      CODE     ---       #79
      00FF5BEBH   LINE      CODE     ---       #81
      00FF5BEEH   LINE      CODE     ---       #82
      00FF5BF1H   LINE      CODE     ---       #84
      00FF5BFAH   LINE      CODE     ---       #87
      00FF5BFAH   LINE      CODE     ---       #88
      ---         BLOCKEND  ---      ---       LVL=0

      ---         MODULE    ---      ---       zf_delay
      00FF5A99H   PUBLIC    CODE     ---       delay_init
      00FF5EF7H   PUBLIC    CODE     ---       delay_ms
      00FF5E7BH   PUBLIC    CODE     ---       delay_us
      00000880H   PUBLIC    EDATA    WORD      zf_delay_ms
      00000882H   PUBLIC    EDATA    WORD      zf_delay_us
      000000D0H   SFRSYM    DATA     BYTE      PSW
      0000009DH   SFRSYM    DATA     BYTE      IRCBAND
      00000097H   SFRSYM    DATA     BYTE      AUXR2
      000000EFH   SFRSYM    DATA     BYTE      AUXINTIF
      000000FDH   SFRSYM    DATA     BYTE      S4CON
      000000ACH   SFRSYM    DATA     BYTE      S3CON
      0000009AH   SFRSYM    DATA     BYTE      S2CON
      000000B7H   SFRSYM    DATA     BYTE      IPH
      000000CDH   SFRSYM    DATA     BYTE      SPSTAT
      000000DDH   SFRSYM    DATA     BYTE      T4T3M
      000000C1H   SFRSYM    DATA     BYTE      WDT_CONTR
      000000DFH   SFRSYM    DATA     BYTE      IP3
      000000F4H   SFRSYM    DATA     BYTE      USBCON
      000000B5H   SFRSYM    DATA     BYTE      IP2
      000000FFH   SFRSYM    DATA     BYTE      RSTCFG
      000000F9H   SFRSYM    DATA     BYTE      LINICR
      0000008EH   SFRSYM    DATA     BYTE      AUXR
      000000AFH   SFRSYM    DATA     BYTE      IE2
      00000088H   SFRSYM    DATA     BYTE      TCON
      00000098H   SFRSYM    DATA     BYTE      SCON
      000000F1H   SFRSYM    DATA     BYTE      CANICR
      00000087H   SFRSYM    DATA     BYTE      PCON
      000000BCH   SFRSYM    DATA     BYTE      ADC_CONTR
      000000E7H   SFRSYM    DATA     BYTE      CMPCR2
      000000E6H   SFRSYM    DATA     BYTE      CMPCR1
      000000B8H   SFRSYM    DATA     BYTE      IP
      0000008FH   SFRSYM    DATA     BYTE      INTCLKO
      000000EEH   SFRSYM    DATA     BYTE      IP3H
L251 LINKER/LOCATER V4.66.93.0                                                        05/06/2023  18:04:44  PAGE 28


      000000B6H   SFRSYM    DATA     BYTE      IP2H
      000000A8H   SFRSYM    DATA     BYTE      IE
      000000BBH   SFRSYM    DATA     BYTE      P_SW3
      000000BAH   SFRSYM    DATA     BYTE      P_SW2
      000000A2H   SFRSYM    DATA     BYTE      P_SW1
      000000CEH   SFRSYM    DATA     BYTE      SPCTL
      000000F8H   SFRSYM    DATA     BYTE      P7
      000000E8H   SFRSYM    DATA     BYTE      P6
      000000C8H   SFRSYM    DATA     BYTE      P5
      000000C0H   SFRSYM    DATA     BYTE      P4
      000000B0H   SFRSYM    DATA     BYTE      P3
      000000A0H   SFRSYM    DATA     BYTE      P2
      00000090H   SFRSYM    DATA     BYTE      P1
      00000080H   SFRSYM    DATA     BYTE      P0

      00FF5A99H   BLOCK     CODE     ---       LVL=0
      00FF5A99H   LINE      CODE     ---       #34
      00FF5A99H   LINE      CODE     ---       #36
      00FF5AAAH   LINE      CODE     ---       #37
      00FF5ABBH   LINE      CODE     ---       #38
      00FF5AD1H   LINE      CODE     ---       #40
      ---         BLOCKEND  ---      ---       LVL=0

      00FF5EF7H   BLOCK     CODE     ---       LVL=0
      WR4         REGSYM    ---      WORD      ms
      00FF5EF9H   BLOCK     CODE     NEAR LAB  LVL=1
      WR6         REGSYM    ---      WORD      i
      ---         BLOCKEND  ---      ---       LVL=1
      00FF5EF7H   LINE      CODE     ---       #48
      00FF5EF9H   LINE      CODE     ---       #49
      00FF5EF9H   LINE      CODE     ---       #51
      00FF5EF9H   LINE      CODE     ---       #52
      00FF5EFDH   LINE      CODE     ---       #54
      00FF5F05H   LINE      CODE     ---       #55
      00FF5F0DH   LINE      CODE     ---       #56
      ---         BLOCKEND  ---      ---       LVL=0

      00FF5E7BH   BLOCK     CODE     ---       LVL=0
      DR0         REGSYM    ---      DWORD     us
      00FF5E7DH   BLOCK     CODE     NEAR LAB  LVL=1
      WR6         REGSYM    ---      WORD      i
      ---         BLOCKEND  ---      ---       LVL=1
      00FF5E7BH   LINE      CODE     ---       #64
      00FF5E7DH   LINE      CODE     ---       #65
      00FF5E7DH   LINE      CODE     ---       #67
      00FF5E7DH   LINE      CODE     ---       #68
      00FF5E81H   LINE      CODE     ---       #70
      00FF5E89H   LINE      CODE     ---       #71
      00FF5E93H   LINE      CODE     ---       #72
      ---         BLOCKEND  ---      ---       LVL=0

      ---         MODULE    ---      ---       zf_eeprom
      00FF5F24H   PUBLIC    CODE     ---       eeprom_trig
      000000D0H   SFRSYM    DATA     BYTE      PSW
      0000009DH   SFRSYM    DATA     BYTE      IRCBAND
      000000D0H.5 SFRSYM    DATA     BIT       F0
      00000097H   SFRSYM    DATA     BYTE      AUXR2
      000000C6H   SFRSYM    DATA     BYTE      IAP_TRIG
      000000EFH   SFRSYM    DATA     BYTE      AUXINTIF
      000000FDH   SFRSYM    DATA     BYTE      S4CON
      000000ACH   SFRSYM    DATA     BYTE      S3CON
      0000009AH   SFRSYM    DATA     BYTE      S2CON
      000000B7H   SFRSYM    DATA     BYTE      IPH
      000000CDH   SFRSYM    DATA     BYTE      SPSTAT
      000000DDH   SFRSYM    DATA     BYTE      T4T3M
L251 LINKER/LOCATER V4.66.93.0                                                        05/06/2023  18:04:44  PAGE 29


      000000C1H   SFRSYM    DATA     BYTE      WDT_CONTR
      000000C2H   SFRSYM    DATA     BYTE      IAP_DATA
      000000DFH   SFRSYM    DATA     BYTE      IP3
      000000F4H   SFRSYM    DATA     BYTE      USBCON
      000000B5H   SFRSYM    DATA     BYTE      IP2
      000000FFH   SFRSYM    DATA     BYTE      RSTCFG
      000000C7H   SFRSYM    DATA     BYTE      IAP_CONTR
      000000F9H   SFRSYM    DATA     BYTE      LINICR
      0000008EH   SFRSYM    DATA     BYTE      AUXR
      000000AFH   SFRSYM    DATA     BYTE      IE2
      00000088H   SFRSYM    DATA     BYTE      TCON
      00000098H   SFRSYM    DATA     BYTE      SCON
      000000F5H   SFRSYM    DATA     BYTE      IAP_TPS
      000000F1H   SFRSYM    DATA     BYTE      CANICR
      00000087H   SFRSYM    DATA     BYTE      PCON
      000000BCH   SFRSYM    DATA     BYTE      ADC_CONTR
      000000E7H   SFRSYM    DATA     BYTE      CMPCR2
      000000E6H   SFRSYM    DATA     BYTE      CMPCR1
      000000C4H   SFRSYM    DATA     BYTE      IAP_ADDRL
      000000C3H   SFRSYM    DATA     BYTE      IAP_ADDRH
      000000F6H   SFRSYM    DATA     BYTE      IAP_ADDRE
      000000B8H   SFRSYM    DATA     BYTE      IP
      0000008FH   SFRSYM    DATA     BYTE      INTCLKO
      000000EEH   SFRSYM    DATA     BYTE      IP3H
      000000B6H   SFRSYM    DATA     BYTE      IP2H
      000000C5H   SFRSYM    DATA     BYTE      IAP_CMD
      000000A8H   SFRSYM    DATA     BYTE      IE
      000000BBH   SFRSYM    DATA     BYTE      P_SW3
      000000BAH   SFRSYM    DATA     BYTE      P_SW2
      000000A2H   SFRSYM    DATA     BYTE      P_SW1
      000000CEH   SFRSYM    DATA     BYTE      SPCTL
      000000F8H   SFRSYM    DATA     BYTE      P7
      000000A8H.7 SFRSYM    DATA     BIT       EA
      000000E8H   SFRSYM    DATA     BYTE      P6
      000000C8H   SFRSYM    DATA     BYTE      P5
      000000C0H   SFRSYM    DATA     BYTE      P4
      000000B0H   SFRSYM    DATA     BYTE      P3
      000000A0H   SFRSYM    DATA     BYTE      P2
      00000090H   SFRSYM    DATA     BYTE      P1
      00000080H   SFRSYM    DATA     BYTE      P0

      00FF5F24H   BLOCK     CODE     ---       LVL=0
      00FF5F24H   LINE      CODE     ---       #30
      00FF5F24H   LINE      CODE     ---       #32
      00FF5F28H   LINE      CODE     ---       #33
      00FF5F2AH   LINE      CODE     ---       #34
      00FF5F2DH   LINE      CODE     ---       #35
      00FF5F30H   LINE      CODE     ---       #38
      00FF5F31H   LINE      CODE     ---       #39
      00FF5F32H   LINE      CODE     ---       #40
      00FF5F33H   LINE      CODE     ---       #41
      00FF5F34H   LINE      CODE     ---       #42
      00FF5F38H   LINE      CODE     ---       #43
      ---         BLOCKEND  ---      ---       LVL=0
      R11         REGSYM    ---      BYTE      write_time
      REG=3       REGSYM    ---      ---       buf
      REG=3       REGSYM    ---      ---       buf
      WR6         REGSYM    ---      WORD      addr
      REG=3       REGSYM    ---      ---       buf
      WR6         REGSYM    ---      WORD      i

      ---         MODULE    ---      ---       zf_exti
      000000D0H   SFRSYM    DATA     BYTE      PSW
      0000009DH   SFRSYM    DATA     BYTE      IRCBAND
      00000097H   SFRSYM    DATA     BYTE      AUXR2
L251 LINKER/LOCATER V4.66.93.0                                                        05/06/2023  18:04:44  PAGE 30


      000000EFH   SFRSYM    DATA     BYTE      AUXINTIF
      000000FDH   SFRSYM    DATA     BYTE      S4CON
      000000ACH   SFRSYM    DATA     BYTE      S3CON
      0000009AH   SFRSYM    DATA     BYTE      S2CON
      000000B7H   SFRSYM    DATA     BYTE      IPH
      000000CDH   SFRSYM    DATA     BYTE      SPSTAT
      000000DDH   SFRSYM    DATA     BYTE      T4T3M
      000000C1H   SFRSYM    DATA     BYTE      WDT_CONTR
      00000088H.2 SFRSYM    DATA     BIT       IT1
      000000A8H.2 SFRSYM    DATA     BIT       EX1
      00000088H.0 SFRSYM    DATA     BIT       IT0
      000000A8H.0 SFRSYM    DATA     BIT       EX0
      000000DFH   SFRSYM    DATA     BYTE      IP3
      000000F4H   SFRSYM    DATA     BYTE      USBCON
      000000B5H   SFRSYM    DATA     BYTE      IP2
      000000FFH   SFRSYM    DATA     BYTE      RSTCFG
      000000F9H   SFRSYM    DATA     BYTE      LINICR
      0000008EH   SFRSYM    DATA     BYTE      AUXR
      000000AFH   SFRSYM    DATA     BYTE      IE2
      00000088H   SFRSYM    DATA     BYTE      TCON
      00000098H   SFRSYM    DATA     BYTE      SCON
      000000F1H   SFRSYM    DATA     BYTE      CANICR
      00000087H   SFRSYM    DATA     BYTE      PCON
      000000BCH   SFRSYM    DATA     BYTE      ADC_CONTR
      000000E7H   SFRSYM    DATA     BYTE      CMPCR2
      000000E6H   SFRSYM    DATA     BYTE      CMPCR1
      000000B8H   SFRSYM    DATA     BYTE      IP
      0000008FH   SFRSYM    DATA     BYTE      INTCLKO
      000000EEH   SFRSYM    DATA     BYTE      IP3H
      000000B6H   SFRSYM    DATA     BYTE      IP2H
      000000A8H   SFRSYM    DATA     BYTE      IE
      000000BBH   SFRSYM    DATA     BYTE      P_SW3
      000000BAH   SFRSYM    DATA     BYTE      P_SW2
      000000A2H   SFRSYM    DATA     BYTE      P_SW1
      000000CEH   SFRSYM    DATA     BYTE      SPCTL
      000000F8H   SFRSYM    DATA     BYTE      P7
      000000E8H   SFRSYM    DATA     BYTE      P6
      000000C8H   SFRSYM    DATA     BYTE      P5
      000000C0H   SFRSYM    DATA     BYTE      P4
      000000B0H   SFRSYM    DATA     BYTE      P3
      000000A0H   SFRSYM    DATA     BYTE      P2
      00000090H   SFRSYM    DATA     BYTE      P1
      00000080H   SFRSYM    DATA     BYTE      P0
      WR4         REGSYM    ---      INT       int_n
      WR2         REGSYM    ---      INT       mode

      ---         MODULE    ---      ---       zf_gpio
      00FF3A5BH   PUBLIC    CODE     ---       gpio_mode
      00000094H   SFRSYM    DATA     BYTE      P0M0
      000000D0H   SFRSYM    DATA     BYTE      PSW
      0000009DH   SFRSYM    DATA     BYTE      IRCBAND
      00000097H   SFRSYM    DATA     BYTE      AUXR2
      000000EFH   SFRSYM    DATA     BYTE      AUXINTIF
      000000FDH   SFRSYM    DATA     BYTE      S4CON
      000000ACH   SFRSYM    DATA     BYTE      S3CON
      0000009AH   SFRSYM    DATA     BYTE      S2CON
      000000B7H   SFRSYM    DATA     BYTE      IPH
      000000CDH   SFRSYM    DATA     BYTE      SPSTAT
      000000DDH   SFRSYM    DATA     BYTE      T4T3M
      000000C1H   SFRSYM    DATA     BYTE      WDT_CONTR
      000000DFH   SFRSYM    DATA     BYTE      IP3
      000000F4H   SFRSYM    DATA     BYTE      USBCON
      000000B5H   SFRSYM    DATA     BYTE      IP2
      000000FFH   SFRSYM    DATA     BYTE      RSTCFG
      000000F9H   SFRSYM    DATA     BYTE      LINICR
L251 LINKER/LOCATER V4.66.93.0                                                        05/06/2023  18:04:44  PAGE 31


      0000008EH   SFRSYM    DATA     BYTE      AUXR
      000000AFH   SFRSYM    DATA     BYTE      IE2
      00000088H   SFRSYM    DATA     BYTE      TCON
      00000098H   SFRSYM    DATA     BYTE      SCON
      000000F1H   SFRSYM    DATA     BYTE      CANICR
      00000087H   SFRSYM    DATA     BYTE      PCON
      000000BCH   SFRSYM    DATA     BYTE      ADC_CONTR
      000000E7H   SFRSYM    DATA     BYTE      CMPCR2
      000000E6H   SFRSYM    DATA     BYTE      CMPCR1
      000000B8H   SFRSYM    DATA     BYTE      IP
      0000008FH   SFRSYM    DATA     BYTE      INTCLKO
      000000EEH   SFRSYM    DATA     BYTE      IP3H
      000000B6H   SFRSYM    DATA     BYTE      IP2H
      000000A8H   SFRSYM    DATA     BYTE      IE
      000000BBH   SFRSYM    DATA     BYTE      P_SW3
      000000BAH   SFRSYM    DATA     BYTE      P_SW2
      000000A2H   SFRSYM    DATA     BYTE      P_SW1
      000000CEH   SFRSYM    DATA     BYTE      SPCTL
      000000F8H   SFRSYM    DATA     BYTE      P7
      000000E1H   SFRSYM    DATA     BYTE      P7M1
      000000E8H   SFRSYM    DATA     BYTE      P6
      000000C8H   SFRSYM    DATA     BYTE      P5
      000000CBH   SFRSYM    DATA     BYTE      P6M1
      000000E2H   SFRSYM    DATA     BYTE      P7M0
      000000C0H   SFRSYM    DATA     BYTE      P4
      000000C9H   SFRSYM    DATA     BYTE      P5M1
      000000CCH   SFRSYM    DATA     BYTE      P6M0
      000000B0H   SFRSYM    DATA     BYTE      P3
      000000B3H   SFRSYM    DATA     BYTE      P4M1
      000000CAH   SFRSYM    DATA     BYTE      P5M0
      000000A0H   SFRSYM    DATA     BYTE      P2
      000000B1H   SFRSYM    DATA     BYTE      P3M1
      000000B4H   SFRSYM    DATA     BYTE      P4M0
      00000090H   SFRSYM    DATA     BYTE      P1
      00000095H   SFRSYM    DATA     BYTE      P2M1
      000000B2H   SFRSYM    DATA     BYTE      P3M0
      00000080H   SFRSYM    DATA     BYTE      P0
      00000091H   SFRSYM    DATA     BYTE      P1M1
      00000096H   SFRSYM    DATA     BYTE      P2M0
      00000092H   SFRSYM    DATA     BYTE      P1M0
      00000093H   SFRSYM    DATA     BYTE      P0M1
      WR4         REGSYM    ---      INT       pin
      WR2         REGSYM    ---      INT       pull

      00FF3A5BH   BLOCK     CODE     ---       LVL=0
      WR4         REGSYM    ---      INT       pin
      WR2         REGSYM    ---      INT       mode
      00FF3A5BH   LINE      CODE     ---       #54
      00FF3A5FH   LINE      CODE     ---       #56
      00FF3A66H   LINE      CODE     ---       #58
      00FF3A6EH   LINE      CODE     ---       #60
      00FF3A86H   LINE      CODE     ---       #61
      00FF3A88H   LINE      CODE     ---       #62
      00FF3A88H   LINE      CODE     ---       #63
      00FF3A8EH   LINE      CODE     ---       #65
      00FF3AA6H   LINE      CODE     ---       #66
      00FF3AA8H   LINE      CODE     ---       #67
      00FF3AA8H   LINE      CODE     ---       #68
      00FF3AAEH   LINE      CODE     ---       #70
      00FF3AC6H   LINE      CODE     ---       #71
      00FF3AC8H   LINE      CODE     ---       #72
      00FF3AC8H   LINE      CODE     ---       #74
      00FF3ACEH   LINE      CODE     ---       #76
      00FF3AE6H   LINE      CODE     ---       #77
      00FF3AE8H   LINE      CODE     ---       #78
L251 LINKER/LOCATER V4.66.93.0                                                        05/06/2023  18:04:44  PAGE 32


      00FF3AE8H   LINE      CODE     ---       #79
      00FF3AEEH   LINE      CODE     ---       #81
      00FF3B06H   LINE      CODE     ---       #82
      00FF3B08H   LINE      CODE     ---       #83
      00FF3B08H   LINE      CODE     ---       #84
      00FF3B0EH   LINE      CODE     ---       #86
      00FF3B26H   LINE      CODE     ---       #87
      00FF3B28H   LINE      CODE     ---       #88
      00FF3B28H   LINE      CODE     ---       #89
      00FF3B2EH   LINE      CODE     ---       #91
      00FF3B46H   LINE      CODE     ---       #92
      00FF3B48H   LINE      CODE     ---       #93
      00FF3B48H   LINE      CODE     ---       #94
      00FF3B51H   LINE      CODE     ---       #96
      00FF3B69H   LINE      CODE     ---       #97
      00FF3B6BH   LINE      CODE     ---       #98
      00FF3B6CH   LINE      CODE     ---       #100
      00FF3B75H   LINE      CODE     ---       #102
      00FF3B7DH   LINE      CODE     ---       #104
      00FF3B92H   LINE      CODE     ---       #105
      00FF3B96H   LINE      CODE     ---       #106
      00FF3B96H   LINE      CODE     ---       #107
      00FF3B9CH   LINE      CODE     ---       #109
      00FF3BB1H   LINE      CODE     ---       #110
      00FF3BB5H   LINE      CODE     ---       #111
      00FF3BB5H   LINE      CODE     ---       #112
      00FF3BBBH   LINE      CODE     ---       #114
      00FF3BD0H   LINE      CODE     ---       #115
      00FF3BD4H   LINE      CODE     ---       #116
      00FF3BD4H   LINE      CODE     ---       #118
      00FF3BDAH   LINE      CODE     ---       #120
      00FF3BEFH   LINE      CODE     ---       #121
      00FF3BF3H   LINE      CODE     ---       #122
      00FF3BF3H   LINE      CODE     ---       #123
      00FF3BF9H   LINE      CODE     ---       #125
      00FF3C0EH   LINE      CODE     ---       #126
      00FF3C12H   LINE      CODE     ---       #127
      00FF3C12H   LINE      CODE     ---       #128
      00FF3C18H   LINE      CODE     ---       #130
      00FF3C2DH   LINE      CODE     ---       #131
      00FF3C31H   LINE      CODE     ---       #132
      00FF3C31H   LINE      CODE     ---       #133
      00FF3C37H   LINE      CODE     ---       #135
      00FF3C4CH   LINE      CODE     ---       #136
      00FF3C50H   LINE      CODE     ---       #137
      00FF3C50H   LINE      CODE     ---       #138
      00FF3C59H   LINE      CODE     ---       #140
      00FF3C70H   LINE      CODE     ---       #141
      00FF3C70H   LINE      CODE     ---       #142
      00FF3C73H   LINE      CODE     ---       #145
      00FF3C7CH   LINE      CODE     ---       #147
      00FF3C84H   LINE      CODE     ---       #149
      00FF3C97H   LINE      CODE     ---       #150
      00FF3C9BH   LINE      CODE     ---       #151
      00FF3C9BH   LINE      CODE     ---       #152
      00FF3CA1H   LINE      CODE     ---       #154
      00FF3CB4H   LINE      CODE     ---       #155
      00FF3CB8H   LINE      CODE     ---       #156
      00FF3CB8H   LINE      CODE     ---       #157
      00FF3CBEH   LINE      CODE     ---       #159
      00FF3CD1H   LINE      CODE     ---       #160
      00FF3CD5H   LINE      CODE     ---       #161
      00FF3CD5H   LINE      CODE     ---       #163
      00FF3CDBH   LINE      CODE     ---       #165
      00FF3CEEH   LINE      CODE     ---       #166
L251 LINKER/LOCATER V4.66.93.0                                                        05/06/2023  18:04:44  PAGE 33


      00FF3CF2H   LINE      CODE     ---       #167
      00FF3CF2H   LINE      CODE     ---       #168
      00FF3CF8H   LINE      CODE     ---       #170
      00FF3D0BH   LINE      CODE     ---       #171
      00FF3D0FH   LINE      CODE     ---       #172
      00FF3D0FH   LINE      CODE     ---       #173
      00FF3D15H   LINE      CODE     ---       #175
      00FF3D28H   LINE      CODE     ---       #176
      00FF3D2CH   LINE      CODE     ---       #177
      00FF3D2CH   LINE      CODE     ---       #178
      00FF3D32H   LINE      CODE     ---       #180
      00FF3D45H   LINE      CODE     ---       #181
      00FF3D49H   LINE      CODE     ---       #182
      00FF3D49H   LINE      CODE     ---       #183
      00FF3D52H   LINE      CODE     ---       #185
      00FF3D65H   LINE      CODE     ---       #186
      00FF3D69H   LINE      CODE     ---       #187
      00FF3D6AH   LINE      CODE     ---       #189
      00FF3D73H   LINE      CODE     ---       #191
      00FF3D7BH   LINE      CODE     ---       #193
      00FF3D8EH   LINE      CODE     ---       #194
      00FF3D90H   LINE      CODE     ---       #195
      00FF3D90H   LINE      CODE     ---       #196
      00FF3D96H   LINE      CODE     ---       #198
      00FF3DA9H   LINE      CODE     ---       #199
      00FF3DABH   LINE      CODE     ---       #200
      00FF3DABH   LINE      CODE     ---       #201
      00FF3DB1H   LINE      CODE     ---       #203
      00FF3DC4H   LINE      CODE     ---       #204
      00FF3DC6H   LINE      CODE     ---       #205
      00FF3DC6H   LINE      CODE     ---       #207
      00FF3DCCH   LINE      CODE     ---       #209
      00FF3DDFH   LINE      CODE     ---       #210
      00FF3DE1H   LINE      CODE     ---       #211
      00FF3DE1H   LINE      CODE     ---       #212
      00FF3DE7H   LINE      CODE     ---       #214
      00FF3DFAH   LINE      CODE     ---       #215
      00FF3DFCH   LINE      CODE     ---       #216
      00FF3DFCH   LINE      CODE     ---       #217
      00FF3E02H   LINE      CODE     ---       #219
      00FF3E15H   LINE      CODE     ---       #220
      00FF3E17H   LINE      CODE     ---       #221
      00FF3E17H   LINE      CODE     ---       #222
      00FF3E1DH   LINE      CODE     ---       #224
      00FF3E30H   LINE      CODE     ---       #225
      00FF3E32H   LINE      CODE     ---       #226
      00FF3E32H   LINE      CODE     ---       #227
      00FF3E38H   LINE      CODE     ---       #229
      00FF3E4DH   LINE      CODE     ---       #230
      00FF3E51H   LINE      CODE     ---       #231
      00FF3E51H   LINE      CODE     ---       #233
      ---         BLOCKEND  ---      ---       LVL=0

      ---         MODULE    ---      ---       zf_iic
      00FF589DH   PUBLIC    CODE     ---       wait
      00FF5F39H   PUBLIC    CODE     ---       iic_delay_us
      000000D0H   SFRSYM    DATA     BYTE      PSW
      0000009DH   SFRSYM    DATA     BYTE      IRCBAND
      00000097H   SFRSYM    DATA     BYTE      AUXR2
      000000EFH   SFRSYM    DATA     BYTE      AUXINTIF
      000000FDH   SFRSYM    DATA     BYTE      S4CON
      000000ACH   SFRSYM    DATA     BYTE      S3CON
      0000009AH   SFRSYM    DATA     BYTE      S2CON
      000000B7H   SFRSYM    DATA     BYTE      IPH
      000000CDH   SFRSYM    DATA     BYTE      SPSTAT
L251 LINKER/LOCATER V4.66.93.0                                                        05/06/2023  18:04:44  PAGE 34


      000000DDH   SFRSYM    DATA     BYTE      T4T3M
      000000C1H   SFRSYM    DATA     BYTE      WDT_CONTR
      000000DFH   SFRSYM    DATA     BYTE      IP3
      000000F4H   SFRSYM    DATA     BYTE      USBCON
      000000B5H   SFRSYM    DATA     BYTE      IP2
      000000FFH   SFRSYM    DATA     BYTE      RSTCFG
      000000F9H   SFRSYM    DATA     BYTE      LINICR
      0000008EH   SFRSYM    DATA     BYTE      AUXR
      000000AFH   SFRSYM    DATA     BYTE      IE2
      00000088H   SFRSYM    DATA     BYTE      TCON
      00000098H   SFRSYM    DATA     BYTE      SCON
      000000F1H   SFRSYM    DATA     BYTE      CANICR
      00000087H   SFRSYM    DATA     BYTE      PCON
      000000BCH   SFRSYM    DATA     BYTE      ADC_CONTR
      000000E7H   SFRSYM    DATA     BYTE      CMPCR2
      000000E6H   SFRSYM    DATA     BYTE      CMPCR1
      000000B8H   SFRSYM    DATA     BYTE      IP
      0000008FH   SFRSYM    DATA     BYTE      INTCLKO
      000000EEH   SFRSYM    DATA     BYTE      IP3H
      000000B6H   SFRSYM    DATA     BYTE      IP2H
      000000A8H   SFRSYM    DATA     BYTE      IE
      000000BBH   SFRSYM    DATA     BYTE      P_SW3
      000000BAH   SFRSYM    DATA     BYTE      P_SW2
      000000A2H   SFRSYM    DATA     BYTE      P_SW1
      000000CEH   SFRSYM    DATA     BYTE      SPCTL
      000000F8H   SFRSYM    DATA     BYTE      P7
      000000E8H   SFRSYM    DATA     BYTE      P6
      000000C8H   SFRSYM    DATA     BYTE      P5
      000000C0H   SFRSYM    DATA     BYTE      P4
      000000B0H   SFRSYM    DATA     BYTE      P3
      000000A0H   SFRSYM    DATA     BYTE      P2
      00000090H   SFRSYM    DATA     BYTE      P1
      00000080H   SFRSYM    DATA     BYTE      P0

      00FF5F39H   BLOCK     CODE     ---       LVL=0
      WR6         REGSYM    ---      WORD      x
      R10         REGSYM    ---      BYTE      i
      00FF5F39H   LINE      CODE     ---       #30
      00FF5F39H   LINE      CODE     ---       #31
      00FF5F39H   LINE      CODE     ---       #33
      00FF5F3BH   LINE      CODE     ---       #35
      00FF5F3EH   LINE      CODE     ---       #36
      00FF5F45H   LINE      CODE     ---       #37
      00FF5F4DH   LINE      CODE     ---       #38
      ---         BLOCKEND  ---      ---       LVL=0

      00FF589DH   BLOCK     CODE     ---       LVL=0
      00FF58A1H   BLOCK     CODE     NEAR LAB  LVL=1
      WR12        REGSYM    ---      WORD      count
      R15         REGSYM    ---      BYTE      ret
      ---         BLOCKEND  ---      ---       LVL=1
      00FF589DH   LINE      CODE     ---       #47
      00FF58A1H   LINE      CODE     ---       #48
      00FF58A1H   LINE      CODE     ---       #49
      00FF58A3H   LINE      CODE     ---       #50
      00FF58A5H   LINE      CODE     ---       #51
      00FF58A7H   LINE      CODE     ---       #53
      00FF58AEH   LINE      CODE     ---       #54
      00FF58B8H   LINE      CODE     ---       #56
      00FF58BBH   LINE      CODE     ---       #57
      00FF58BDH   LINE      CODE     ---       #58
      00FF58CBH   LINE      CODE     ---       #60
      00FF58DBH   LINE      CODE     ---       #61
      00FF58DDH   LINE      CODE     ---       #62
      ---         BLOCKEND  ---      ---       LVL=0
L251 LINKER/LOCATER V4.66.93.0                                                        05/06/2023  18:04:44  PAGE 35


      R11         REGSYM    ---      BYTE      ret
      R11         REGSYM    ---      CHAR      dat
      R11         REGSYM    ---      BYTE      ret
      R11         REGSYM    ---      BYTE      ret
      R11         REGSYM    ---      BYTE      ret
      R11         REGSYM    ---      BYTE      ret
      WR6         REGSYM    ---      INT       iic_n
      R13         REGSYM    ---      BYTE      dev_add
      R14         REGSYM    ---      BYTE      reg
      R15         REGSYM    ---      BYTE      dat
      R15         REGSYM    ---      BYTE      dev_add
      R14         REGSYM    ---      BYTE      reg
      REG=3       REGSYM    ---      ---       dat
      WR6         REGSYM    ---      INT       iic_n

      ---         MODULE    ---      ---       zf_nvic
      000000D0H   SFRSYM    DATA     BYTE      PSW
      0000009DH   SFRSYM    DATA     BYTE      IRCBAND
      00000097H   SFRSYM    DATA     BYTE      AUXR2
      000000EFH   SFRSYM    DATA     BYTE      AUXINTIF
      000000FDH   SFRSYM    DATA     BYTE      S4CON
      000000ACH   SFRSYM    DATA     BYTE      S3CON
      0000009AH   SFRSYM    DATA     BYTE      S2CON
      000000B7H   SFRSYM    DATA     BYTE      IPH
      000000CDH   SFRSYM    DATA     BYTE      SPSTAT
      000000DDH   SFRSYM    DATA     BYTE      T4T3M
      000000C1H   SFRSYM    DATA     BYTE      WDT_CONTR
      000000DFH   SFRSYM    DATA     BYTE      IP3
      000000F4H   SFRSYM    DATA     BYTE      USBCON
      000000B5H   SFRSYM    DATA     BYTE      IP2
      000000FFH   SFRSYM    DATA     BYTE      RSTCFG
      000000F9H   SFRSYM    DATA     BYTE      LINICR
      0000008EH   SFRSYM    DATA     BYTE      AUXR
      000000AFH   SFRSYM    DATA     BYTE      IE2
      00000088H   SFRSYM    DATA     BYTE      TCON
      00000098H   SFRSYM    DATA     BYTE      SCON
      000000F1H   SFRSYM    DATA     BYTE      CANICR
      00000087H   SFRSYM    DATA     BYTE      PCON
      000000BCH   SFRSYM    DATA     BYTE      ADC_CONTR
      000000E7H   SFRSYM    DATA     BYTE      CMPCR2
      000000E6H   SFRSYM    DATA     BYTE      CMPCR1
      000000B8H   SFRSYM    DATA     BYTE      IP
      0000008FH   SFRSYM    DATA     BYTE      INTCLKO
      000000EEH   SFRSYM    DATA     BYTE      IP3H
      000000B6H   SFRSYM    DATA     BYTE      IP2H
      000000A8H   SFRSYM    DATA     BYTE      IE
      000000BBH   SFRSYM    DATA     BYTE      P_SW3
      000000BAH   SFRSYM    DATA     BYTE      P_SW2
      000000A2H   SFRSYM    DATA     BYTE      P_SW1
      000000CEH   SFRSYM    DATA     BYTE      SPCTL
      000000F8H   SFRSYM    DATA     BYTE      P7
      000000E8H   SFRSYM    DATA     BYTE      P6
      000000C8H   SFRSYM    DATA     BYTE      P5
      000000C0H   SFRSYM    DATA     BYTE      P4
      000000B0H   SFRSYM    DATA     BYTE      P3
      000000A0H   SFRSYM    DATA     BYTE      P2
      00000090H   SFRSYM    DATA     BYTE      P1
      00000080H   SFRSYM    DATA     BYTE      P0
      WR4         REGSYM    ---      INT       irqn
      R3          REGSYM    ---      BYTE      priority

      ---         MODULE    ---      ---       zf_pwm
      00FF4C57H   PUBLIC    CODE     ---       pwm_duty
      00FF414EH   PUBLIC    CODE     ---       pwm_set_gpio
      00FF3E52H   PUBLIC    CODE     ---       pwm_init
L251 LINKER/LOCATER V4.66.93.0                                                        05/06/2023  18:04:44  PAGE 36


      00FF6DD6H   PUBLIC    HCONST   ---       PWM_CCR_ADDR
      00FF6DF6H   PUBLIC    HCONST   ---       PWM_ARR_ADDR
      00FF6DFEH   PUBLIC    HCONST   ---       PWM_CCER_ADDR
      00FF6E0EH   PUBLIC    HCONST   ---       PWM_CCMR_ADDR
      000007F1H   PUBLIC    EDATA    BYTE      ?pwm_init?BYTE
      000000D0H   SFRSYM    DATA     BYTE      PSW
      0000009DH   SFRSYM    DATA     BYTE      IRCBAND
      00000097H   SFRSYM    DATA     BYTE      AUXR2
      000000EFH   SFRSYM    DATA     BYTE      AUXINTIF
      000000FDH   SFRSYM    DATA     BYTE      S4CON
      000000ACH   SFRSYM    DATA     BYTE      S3CON
      0000009AH   SFRSYM    DATA     BYTE      S2CON
      000000B7H   SFRSYM    DATA     BYTE      IPH
      000000CDH   SFRSYM    DATA     BYTE      SPSTAT
      000000DDH   SFRSYM    DATA     BYTE      T4T3M
      000000C1H   SFRSYM    DATA     BYTE      WDT_CONTR
      000000DFH   SFRSYM    DATA     BYTE      IP3
      000000F4H   SFRSYM    DATA     BYTE      USBCON
      000000B5H   SFRSYM    DATA     BYTE      IP2
      000000FFH   SFRSYM    DATA     BYTE      RSTCFG
      000000F9H   SFRSYM    DATA     BYTE      LINICR
      0000008EH   SFRSYM    DATA     BYTE      AUXR
      000000AFH   SFRSYM    DATA     BYTE      IE2
      00000088H   SFRSYM    DATA     BYTE      TCON
      00000098H   SFRSYM    DATA     BYTE      SCON
      000000F1H   SFRSYM    DATA     BYTE      CANICR
      00000087H   SFRSYM    DATA     BYTE      PCON
      000000BCH   SFRSYM    DATA     BYTE      ADC_CONTR
      000000E7H   SFRSYM    DATA     BYTE      CMPCR2
      000000E6H   SFRSYM    DATA     BYTE      CMPCR1
      000000B8H   SFRSYM    DATA     BYTE      IP
      0000008FH   SFRSYM    DATA     BYTE      INTCLKO
      000000EEH   SFRSYM    DATA     BYTE      IP3H
      000000B6H   SFRSYM    DATA     BYTE      IP2H
      000000A8H   SFRSYM    DATA     BYTE      IE
      000000BBH   SFRSYM    DATA     BYTE      P_SW3
      000000BAH   SFRSYM    DATA     BYTE      P_SW2
      000000A2H   SFRSYM    DATA     BYTE      P_SW1
      000000CEH   SFRSYM    DATA     BYTE      SPCTL
      000000F8H   SFRSYM    DATA     BYTE      P7
      000000E8H   SFRSYM    DATA     BYTE      P6
      000000C8H   SFRSYM    DATA     BYTE      P5
      000000C0H   SFRSYM    DATA     BYTE      P4
      000000B0H   SFRSYM    DATA     BYTE      P3
      000000A0H   SFRSYM    DATA     BYTE      P2
      00000090H   SFRSYM    DATA     BYTE      P1
      00000080H   SFRSYM    DATA     BYTE      P0

      00FF414EH   BLOCK     CODE     ---       LVL=0
      WR6         REGSYM    ---      INT       pwmch
      00FF414EH   LINE      CODE     ---       #49
      00FF414EH   LINE      CODE     ---       #51
      00FF42C1H   LINE      CODE     ---       #53
      00FF42C1H   LINE      CODE     ---       #55
      00FF42C5H   LINE      CODE     ---       #56
      00FF42C8H   LINE      CODE     ---       #58
      00FF42C8H   LINE      CODE     ---       #60
      00FF42CCH   LINE      CODE     ---       #61
      00FF42CFH   LINE      CODE     ---       #63
      00FF42CFH   LINE      CODE     ---       #65
      00FF42D3H   LINE      CODE     ---       #66
      00FF42D6H   LINE      CODE     ---       #68
      00FF42D6H   LINE      CODE     ---       #70
      00FF42DAH   LINE      CODE     ---       #71
      00FF42DDH   LINE      CODE     ---       #73
L251 LINKER/LOCATER V4.66.93.0                                                        05/06/2023  18:04:44  PAGE 37


      00FF42DDH   LINE      CODE     ---       #75
      00FF42E1H   LINE      CODE     ---       #76
      00FF42E4H   LINE      CODE     ---       #78
      00FF42E4H   LINE      CODE     ---       #80
      00FF42E8H   LINE      CODE     ---       #81
      00FF42EBH   LINE      CODE     ---       #84
      00FF42EBH   LINE      CODE     ---       #86
      00FF42EFH   LINE      CODE     ---       #87
      00FF42F2H   LINE      CODE     ---       #89
      00FF42F2H   LINE      CODE     ---       #91
      00FF42F6H   LINE      CODE     ---       #92
      00FF42F9H   LINE      CODE     ---       #94
      00FF42F9H   LINE      CODE     ---       #96
      00FF42FDH   LINE      CODE     ---       #97
      00FF4300H   LINE      CODE     ---       #99
      00FF4300H   LINE      CODE     ---       #101
      00FF4304H   LINE      CODE     ---       #102
      00FF4307H   LINE      CODE     ---       #104
      00FF4307H   LINE      CODE     ---       #106
      00FF430BH   LINE      CODE     ---       #107
      00FF430EH   LINE      CODE     ---       #109
      00FF430EH   LINE      CODE     ---       #111
      00FF4312H   LINE      CODE     ---       #112
      00FF4315H   LINE      CODE     ---       #115
      00FF4315H   LINE      CODE     ---       #117
      00FF4319H   LINE      CODE     ---       #118
      00FF431BH   LINE      CODE     ---       #120
      00FF431BH   LINE      CODE     ---       #122
      00FF431FH   LINE      CODE     ---       #123
      00FF4321H   LINE      CODE     ---       #125
      00FF4321H   LINE      CODE     ---       #127
      00FF4325H   LINE      CODE     ---       #128
      00FF4327H   LINE      CODE     ---       #130
      00FF4327H   LINE      CODE     ---       #132
      00FF432BH   LINE      CODE     ---       #133
      00FF432DH   LINE      CODE     ---       #135
      00FF432DH   LINE      CODE     ---       #137
      00FF4331H   LINE      CODE     ---       #138
      00FF4333H   LINE      CODE     ---       #140
      00FF4333H   LINE      CODE     ---       #142
      00FF4337H   LINE      CODE     ---       #143
      00FF4339H   LINE      CODE     ---       #147
      00FF4339H   LINE      CODE     ---       #149
      00FF433DH   LINE      CODE     ---       #150
      00FF433FH   LINE      CODE     ---       #152
      00FF433FH   LINE      CODE     ---       #154
      00FF4343H   LINE      CODE     ---       #155
      00FF4345H   LINE      CODE     ---       #157
      00FF4345H   LINE      CODE     ---       #159
      00FF4349H   LINE      CODE     ---       #160
      00FF434BH   LINE      CODE     ---       #162
      00FF434BH   LINE      CODE     ---       #164
      00FF434FH   LINE      CODE     ---       #165
      00FF4351H   LINE      CODE     ---       #167
      00FF4351H   LINE      CODE     ---       #169
      00FF4355H   LINE      CODE     ---       #170
      00FF4357H   LINE      CODE     ---       #172
      00FF4357H   LINE      CODE     ---       #174
      00FF435BH   LINE      CODE     ---       #175
      00FF435DH   LINE      CODE     ---       #177
      00FF435DH   LINE      CODE     ---       #179
      00FF4361H   LINE      CODE     ---       #180
      00FF4363H   LINE      CODE     ---       #182
      00FF4363H   LINE      CODE     ---       #184
      00FF4367H   LINE      CODE     ---       #185
L251 LINKER/LOCATER V4.66.93.0                                                        05/06/2023  18:04:44  PAGE 38


      00FF4369H   LINE      CODE     ---       #189
      00FF4369H   LINE      CODE     ---       #191
      00FF436DH   LINE      CODE     ---       #192
      00FF436FH   LINE      CODE     ---       #194
      00FF436FH   LINE      CODE     ---       #196
      00FF4373H   LINE      CODE     ---       #197
      00FF4375H   LINE      CODE     ---       #199
      00FF4375H   LINE      CODE     ---       #201
      00FF4377H   LINE      CODE     ---       #202
      00FF4379H   LINE      CODE     ---       #204
      00FF4379H   LINE      CODE     ---       #206
      00FF437DH   LINE      CODE     ---       #207
      00FF437FH   LINE      CODE     ---       #210
      00FF437FH   LINE      CODE     ---       #212
      00FF4383H   LINE      CODE     ---       #213
      00FF4385H   LINE      CODE     ---       #215
      00FF4385H   LINE      CODE     ---       #217
      00FF4389H   LINE      CODE     ---       #218
      00FF438BH   LINE      CODE     ---       #220
      00FF438BH   LINE      CODE     ---       #222
      00FF4391H   LINE      CODE     ---       #223
      00FF4393H   LINE      CODE     ---       #225
      00FF4393H   LINE      CODE     ---       #227
      00FF439BH   LINE      CODE     ---       #228
      00FF439DH   LINE      CODE     ---       #232
      00FF439DH   LINE      CODE     ---       #234
      00FF43A5H   LINE      CODE     ---       #235
      00FF43A7H   LINE      CODE     ---       #237
      00FF43A7H   LINE      CODE     ---       #239
      00FF43AFH   LINE      CODE     ---       #240
      00FF43B1H   LINE      CODE     ---       #242
      00FF43B1H   LINE      CODE     ---       #244
      00FF43B9H   LINE      CODE     ---       #245
      00FF43BBH   LINE      CODE     ---       #247
      00FF43BBH   LINE      CODE     ---       #249
      00FF43C3H   LINE      CODE     ---       #250
      00FF43C5H   LINE      CODE     ---       #254
      00FF43C5H   LINE      CODE     ---       #256
      00FF43CDH   LINE      CODE     ---       #257
      00FF43CFH   LINE      CODE     ---       #259
      00FF43CFH   LINE      CODE     ---       #261
      00FF43D7H   LINE      CODE     ---       #262
      00FF43D9H   LINE      CODE     ---       #264
      00FF43D9H   LINE      CODE     ---       #266
      00FF43E1H   LINE      CODE     ---       #267
      00FF43E3H   LINE      CODE     ---       #269
      00FF43E3H   LINE      CODE     ---       #271
      00FF43EEH   LINE      CODE     ---       #272
      00FF43EEH   LINE      CODE     ---       #275
      00FF43EEH   LINE      CODE     ---       #277
      ---         BLOCKEND  ---      ---       LVL=0

      00FF3E52H   BLOCK     CODE     ---       LVL=0
      WR14        REGSYM    ---      INT       pwmch
      000007F3H   SYMBOL    EDATA    DWORD     freq
      000007F7H   SYMBOL    EDATA    DWORD     duty
      00FF3E5AH   BLOCK     CODE     NEAR LAB  LVL=1
      000007FBH   SYMBOL    EDATA    DWORD     match_temp
      DR28        REGSYM    ---      DWORD     period_temp
      WR26        REGSYM    ---      WORD      freq_div
      ---         BLOCKEND  ---      ---       LVL=1
      00FF3E52H   LINE      CODE     ---       #290
      00FF3E5AH   LINE      CODE     ---       #291
      00FF3E5AH   LINE      CODE     ---       #295
      00FF3E5AH   LINE      CODE     ---       #298
L251 LINKER/LOCATER V4.66.93.0                                                        05/06/2023  18:04:44  PAGE 39


      00FF3E5DH   LINE      CODE     ---       #301
      00FF3E60H   LINE      CODE     ---       #305
      00FF3E71H   LINE      CODE     ---       #306
      00FF3E71H   LINE      CODE     ---       #307
      00FF3E7AH   LINE      CODE     ---       #309
      00FF3E84H   LINE      CODE     ---       #311
      00FF3EA1H   LINE      CODE     ---       #312
      00FF3EA3H   LINE      CODE     ---       #315
      00FF3EABH   LINE      CODE     ---       #316
      00FF3EABH   LINE      CODE     ---       #319
      00FF3EB4H   LINE      CODE     ---       #322
      00FF3EDFH   LINE      CODE     ---       #323
      00FF3F00H   LINE      CODE     ---       #326
      00FF3F4CH   LINE      CODE     ---       #329
      00FF3F5BH   LINE      CODE     ---       #330
      00FF3F66H   LINE      CODE     ---       #332
      00FF3F6FH   LINE      CODE     ---       #333
      00FF3F75H   LINE      CODE     ---       #334
      00FF3F78H   LINE      CODE     ---       #337
      00FF3FB0H   LINE      CODE     ---       #338
      00FF3FD3H   LINE      CODE     ---       #341
      00FF4025H   LINE      CODE     ---       #345
      00FF4034H   LINE      CODE     ---       #346
      00FF403FH   LINE      CODE     ---       #348
      00FF4048H   LINE      CODE     ---       #349
      00FF4055H   LINE      CODE     ---       #350
      00FF4055H   LINE      CODE     ---       #353
      00FF4081H   LINE      CODE     ---       #354
      00FF40AFH   LINE      CODE     ---       #357
      00FF40DBH   LINE      CODE     ---       #358
      00FF4109H   LINE      CODE     ---       #361
      00FF4120H   LINE      CODE     ---       #362
      00FF414BH   LINE      CODE     ---       #367
      ---         BLOCKEND  ---      ---       LVL=0

      00FF4C57H   BLOCK     CODE     ---       LVL=0
      WR30        REGSYM    ---      INT       pwmch
      DR24        REGSYM    ---      DWORD     duty
      00FF4C5BH   BLOCK     CODE     NEAR LAB  LVL=1
      DR20        REGSYM    ---      DWORD     match_temp
      DR16        REGSYM    ---      DWORD     arr
      ---         BLOCKEND  ---      ---       LVL=1
      00FF4C57H   LINE      CODE     ---       #377
      00FF4C5BH   LINE      CODE     ---       #378
      00FF4C5BH   LINE      CODE     ---       #380
      00FF4C9FH   LINE      CODE     ---       #384
      00FF4CA5H   LINE      CODE     ---       #386
      00FF4CC6H   LINE      CODE     ---       #387
      00FF4CC8H   LINE      CODE     ---       #390
      00FF4CCCH   LINE      CODE     ---       #391
      00FF4CCCH   LINE      CODE     ---       #396
      00FF4CF4H   LINE      CODE     ---       #397
      00FF4D1EH   LINE      CODE     ---       #401
      ---         BLOCKEND  ---      ---       LVL=0
      WR30        REGSYM    ---      INT       pwmch
      DR24        REGSYM    ---      DWORD     freq
      DR20        REGSYM    ---      DWORD     match_temp
      DR24        REGSYM    ---      DWORD     period_temp
      WR28        REGSYM    ---      WORD      freq_div

      ---         MODULE    ---      ---       zf_spi
      00FF5FF5H   PUBLIC    CODE     ---       spi_mosi
      000000CFH   SFRSYM    DATA     BYTE      SPDAT
      000000D0H   SFRSYM    DATA     BYTE      PSW
      0000009DH   SFRSYM    DATA     BYTE      IRCBAND
L251 LINKER/LOCATER V4.66.93.0                                                        05/06/2023  18:04:44  PAGE 40


      00000097H   SFRSYM    DATA     BYTE      AUXR2
      000000EFH   SFRSYM    DATA     BYTE      AUXINTIF
      000000FDH   SFRSYM    DATA     BYTE      S4CON
      000000ACH   SFRSYM    DATA     BYTE      S3CON
      0000009AH   SFRSYM    DATA     BYTE      S2CON
      000000B7H   SFRSYM    DATA     BYTE      IPH
      000000CDH   SFRSYM    DATA     BYTE      SPSTAT
      000000DDH   SFRSYM    DATA     BYTE      T4T3M
      000000C1H   SFRSYM    DATA     BYTE      WDT_CONTR
      000000DFH   SFRSYM    DATA     BYTE      IP3
      000000F4H   SFRSYM    DATA     BYTE      USBCON
      000000B5H   SFRSYM    DATA     BYTE      IP2
      000000FFH   SFRSYM    DATA     BYTE      RSTCFG
      000000F9H   SFRSYM    DATA     BYTE      LINICR
      0000008EH   SFRSYM    DATA     BYTE      AUXR
      000000AFH   SFRSYM    DATA     BYTE      IE2
      00000088H   SFRSYM    DATA     BYTE      TCON
      00000098H   SFRSYM    DATA     BYTE      SCON
      000000F1H   SFRSYM    DATA     BYTE      CANICR
      00000087H   SFRSYM    DATA     BYTE      PCON
      000000BCH   SFRSYM    DATA     BYTE      ADC_CONTR
      000000E7H   SFRSYM    DATA     BYTE      CMPCR2
      000000E6H   SFRSYM    DATA     BYTE      CMPCR1
      000000B8H   SFRSYM    DATA     BYTE      IP
      0000008FH   SFRSYM    DATA     BYTE      INTCLKO
      000000EEH   SFRSYM    DATA     BYTE      IP3H
      000000B6H   SFRSYM    DATA     BYTE      IP2H
      000000A8H   SFRSYM    DATA     BYTE      IE
      000000BBH   SFRSYM    DATA     BYTE      P_SW3
      000000BAH   SFRSYM    DATA     BYTE      P_SW2
      000000A2H   SFRSYM    DATA     BYTE      P_SW1
      000000CEH   SFRSYM    DATA     BYTE      SPCTL
      000000F8H   SFRSYM    DATA     BYTE      P7
      000000E8H   SFRSYM    DATA     BYTE      P6
      000000C8H   SFRSYM    DATA     BYTE      P5
      000000C0H   SFRSYM    DATA     BYTE      P4
      000000B0H   SFRSYM    DATA     BYTE      P3
      000000A0H   SFRSYM    DATA     BYTE      P2
      00000090H   SFRSYM    DATA     BYTE      P1
      00000080H   SFRSYM    DATA     BYTE      P0
      WR14        REGSYM    ---      INT       spi_n
      R13         REGSYM    ---      BYTE      mode

      00FF5FF5H   BLOCK     CODE     ---       LVL=0
      R11         REGSYM    ---      BYTE      dat
      00FF5FF5H   LINE      CODE     ---       #129
      00FF5FF5H   LINE      CODE     ---       #131
      00FF5FF8H   LINE      CODE     ---       #132
      00FF5FFDH   LINE      CODE     ---       #133
      00FF6000H   LINE      CODE     ---       #134
      00FF6002H   LINE      CODE     ---       #135
      ---         BLOCKEND  ---      ---       LVL=0
      WR14        REGSYM    ---      INT       spi_n
      R7          REGSYM    ---      BYTE      mode

      ---         MODULE    ---      ---       zf_tim
      00FF5046H   PUBLIC    CODE     ---       pit_timer_ms
      00FF57C3H   PUBLIC    CODE     ---       ctimer_count_init
      000000D0H   SFRSYM    DATA     BYTE      PSW
      0000009DH   SFRSYM    DATA     BYTE      IRCBAND
      00000097H   SFRSYM    DATA     BYTE      AUXR2
      000000EFH   SFRSYM    DATA     BYTE      AUXINTIF
      000000FDH   SFRSYM    DATA     BYTE      S4CON
      000000ACH   SFRSYM    DATA     BYTE      S3CON
      0000009AH   SFRSYM    DATA     BYTE      S2CON
L251 LINKER/LOCATER V4.66.93.0                                                        05/06/2023  18:04:44  PAGE 41


      000000B7H   SFRSYM    DATA     BYTE      IPH
      000000CDH   SFRSYM    DATA     BYTE      SPSTAT
      000000DDH   SFRSYM    DATA     BYTE      T4T3M
      000000C1H   SFRSYM    DATA     BYTE      WDT_CONTR
      00000088H.6 SFRSYM    DATA     BIT       TR1
      00000088H.4 SFRSYM    DATA     BIT       TR0
      000000D3H   SFRSYM    DATA     BYTE      T4L
      000000D5H   SFRSYM    DATA     BYTE      T3L
      000000D7H   SFRSYM    DATA     BYTE      T2L
      0000008BH   SFRSYM    DATA     BYTE      TL1
      0000008AH   SFRSYM    DATA     BYTE      TL0
      000000D2H   SFRSYM    DATA     BYTE      T4H
      000000D4H   SFRSYM    DATA     BYTE      T3H
      000000D6H   SFRSYM    DATA     BYTE      T2H
      0000008DH   SFRSYM    DATA     BYTE      TH1
      0000008CH   SFRSYM    DATA     BYTE      TH0
      000000DFH   SFRSYM    DATA     BYTE      IP3
      000000F4H   SFRSYM    DATA     BYTE      USBCON
      000000B5H   SFRSYM    DATA     BYTE      IP2
      000000FFH   SFRSYM    DATA     BYTE      RSTCFG
      000000A8H.3 SFRSYM    DATA     BIT       ET1
      000000A8H.1 SFRSYM    DATA     BIT       ET0
      000000F9H   SFRSYM    DATA     BYTE      LINICR
      0000008EH   SFRSYM    DATA     BYTE      AUXR
      000000AFH   SFRSYM    DATA     BYTE      IE2
      00000088H   SFRSYM    DATA     BYTE      TCON
      00000089H   SFRSYM    DATA     BYTE      TMOD
      00000098H   SFRSYM    DATA     BYTE      SCON
      000000F1H   SFRSYM    DATA     BYTE      CANICR
      00000087H   SFRSYM    DATA     BYTE      PCON
      000000BCH   SFRSYM    DATA     BYTE      ADC_CONTR
      000000E7H   SFRSYM    DATA     BYTE      CMPCR2
      000000E6H   SFRSYM    DATA     BYTE      CMPCR1
      000000B8H   SFRSYM    DATA     BYTE      IP
      0000008FH   SFRSYM    DATA     BYTE      INTCLKO
      000000EEH   SFRSYM    DATA     BYTE      IP3H
      000000B6H   SFRSYM    DATA     BYTE      IP2H
      000000A8H   SFRSYM    DATA     BYTE      IE
      000000BBH   SFRSYM    DATA     BYTE      P_SW3
      000000BAH   SFRSYM    DATA     BYTE      P_SW2
      000000A2H   SFRSYM    DATA     BYTE      P_SW1
      000000CEH   SFRSYM    DATA     BYTE      SPCTL
      000000F8H   SFRSYM    DATA     BYTE      P7
      000000E8H   SFRSYM    DATA     BYTE      P6
      000000C8H   SFRSYM    DATA     BYTE      P5
      000000C0H   SFRSYM    DATA     BYTE      P4
      000000B0H   SFRSYM    DATA     BYTE      P3
      000000A0H   SFRSYM    DATA     BYTE      P2
      00000090H   SFRSYM    DATA     BYTE      P1
      00000080H   SFRSYM    DATA     BYTE      P0

      00FF57C3H   BLOCK     CODE     ---       LVL=0
      WR6         REGSYM    ---      INT       tim_n
      00FF57C3H   LINE      CODE     ---       #39
      00FF57C3H   LINE      CODE     ---       #42
      00FF57D7H   LINE      CODE     ---       #44
      00FF57D7H   LINE      CODE     ---       #46
      00FF57DAH   LINE      CODE     ---       #47
      00FF57DDH   LINE      CODE     ---       #48
      00FF57E0H   LINE      CODE     ---       #49
      00FF57E2H   LINE      CODE     ---       #50
      00FF57E3H   LINE      CODE     ---       #53
      00FF57E3H   LINE      CODE     ---       #55
      00FF57E6H   LINE      CODE     ---       #56
      00FF57E9H   LINE      CODE     ---       #57
L251 LINKER/LOCATER V4.66.93.0                                                        05/06/2023  18:04:44  PAGE 42


      00FF57ECH   LINE      CODE     ---       #58
      00FF57EEH   LINE      CODE     ---       #59
      00FF57EFH   LINE      CODE     ---       #62
      00FF57EFH   LINE      CODE     ---       #64
      00FF57F2H   LINE      CODE     ---       #65
      00FF57F5H   LINE      CODE     ---       #66
      00FF57F8H   LINE      CODE     ---       #67
      00FF57F9H   LINE      CODE     ---       #70
      00FF57F9H   LINE      CODE     ---       #72
      00FF57FCH   LINE      CODE     ---       #73
      00FF57FFH   LINE      CODE     ---       #74
      00FF5802H   LINE      CODE     ---       #75
      00FF5803H   LINE      CODE     ---       #78
      00FF5803H   LINE      CODE     ---       #80
      00FF5806H   LINE      CODE     ---       #81
      00FF5809H   LINE      CODE     ---       #82
      00FF580CH   LINE      CODE     ---       #83
      00FF580CH   LINE      CODE     ---       #86
      00FF580CH   LINE      CODE     ---       #87
      ---         BLOCKEND  ---      ---       LVL=0
      WR4         REGSYM    ---      INT       tim_n
      WR6         REGSYM    ---      WORD      dat
      WR6         REGSYM    ---      INT       tim_n

      00FF5046H   BLOCK     CODE     ---       LVL=0
      WR30        REGSYM    ---      INT       tim_n
      WR28        REGSYM    ---      WORD      time_ms
      00FF5048H   BLOCK     CODE     NEAR LAB  LVL=1
      WR28        REGSYM    ---      WORD      temp
      ---         BLOCKEND  ---      ---       LVL=1
      00FF5046H   LINE      CODE     ---       #198
      00FF5048H   LINE      CODE     ---       #199
      00FF5048H   LINE      CODE     ---       #201
      00FF5065H   LINE      CODE     ---       #203
      00FF5069H   LINE      CODE     ---       #205
      00FF506DH   LINE      CODE     ---       #206
      00FF5073H   LINE      CODE     ---       #207
      00FF5077H   LINE      CODE     ---       #208
      00FF5079H   LINE      CODE     ---       #209
      00FF507BH   LINE      CODE     ---       #210
      00FF507CH   LINE      CODE     ---       #211
      00FF5082H   LINE      CODE     ---       #213
      00FF5086H   LINE      CODE     ---       #214
      00FF508CH   LINE      CODE     ---       #215
      00FF5090H   LINE      CODE     ---       #216
      00FF5092H   LINE      CODE     ---       #217
      00FF5094H   LINE      CODE     ---       #218
      00FF5095H   LINE      CODE     ---       #219
      00FF509BH   LINE      CODE     ---       #221
      00FF50A1H   LINE      CODE     ---       #222
      00FF50A5H   LINE      CODE     ---       #223
      00FF50A8H   LINE      CODE     ---       #224
      00FF50ABH   LINE      CODE     ---       #225
      00FF50ACH   LINE      CODE     ---       #226
      00FF50B2H   LINE      CODE     ---       #228
      00FF50B8H   LINE      CODE     ---       #229
      00FF50BCH   LINE      CODE     ---       #230
      00FF50BFH   LINE      CODE     ---       #231
      00FF50C2H   LINE      CODE     ---       #232
      00FF50C3H   LINE      CODE     ---       #233
      00FF50C9H   LINE      CODE     ---       #235
      00FF50CFH   LINE      CODE     ---       #236
      00FF50D3H   LINE      CODE     ---       #237
      00FF50D6H   LINE      CODE     ---       #238
      00FF50D9H   LINE      CODE     ---       #239
L251 LINKER/LOCATER V4.66.93.0                                                        05/06/2023  18:04:44  PAGE 43


      ---         BLOCKEND  ---      ---       LVL=0

      ---         MODULE    ---      ---       zf_uart
      00FF55DFH   PUBLIC    CODE     ---       uart_putchar
      00FF43EFH   PUBLIC    CODE     ---       uart_init
      000004CAH   PUBLIC    EDATA    ---       uart1_rx_buff
      0000052EH   PUBLIC    EDATA    ---       uart1_tx_buff
      00000592H   PUBLIC    EDATA    ---       busy
      000007EDH   PUBLIC    EDATA    BYTE      ?uart_init?BYTE
      000000D0H   SFRSYM    DATA     BYTE      PSW
      0000009DH   SFRSYM    DATA     BYTE      IRCBAND
      00000097H   SFRSYM    DATA     BYTE      AUXR2
      000000EFH   SFRSYM    DATA     BYTE      AUXINTIF
      000000FDH   SFRSYM    DATA     BYTE      S4CON
      000000ACH   SFRSYM    DATA     BYTE      S3CON
      0000009AH   SFRSYM    DATA     BYTE      S2CON
      000000FEH   SFRSYM    DATA     BYTE      S4BUF
      000000ADH   SFRSYM    DATA     BYTE      S3BUF
      0000009BH   SFRSYM    DATA     BYTE      S2BUF
      000000B7H   SFRSYM    DATA     BYTE      IPH
      000000CDH   SFRSYM    DATA     BYTE      SPSTAT
      000000DDH   SFRSYM    DATA     BYTE      T4T3M
      000000C1H   SFRSYM    DATA     BYTE      WDT_CONTR
      00000088H.6 SFRSYM    DATA     BIT       TR1
      000000D3H   SFRSYM    DATA     BYTE      T4L
      000000D5H   SFRSYM    DATA     BYTE      T3L
      000000D7H   SFRSYM    DATA     BYTE      T2L
      0000008BH   SFRSYM    DATA     BYTE      TL1
      000000D2H   SFRSYM    DATA     BYTE      T4H
      000000D4H   SFRSYM    DATA     BYTE      T3H
      000000D6H   SFRSYM    DATA     BYTE      T2H
      0000008DH   SFRSYM    DATA     BYTE      TH1
      000000DFH   SFRSYM    DATA     BYTE      IP3
      000000F4H   SFRSYM    DATA     BYTE      USBCON
      000000B5H   SFRSYM    DATA     BYTE      IP2
      000000FFH   SFRSYM    DATA     BYTE      RSTCFG
      000000F9H   SFRSYM    DATA     BYTE      LINICR
      0000008EH   SFRSYM    DATA     BYTE      AUXR
      000000AFH   SFRSYM    DATA     BYTE      IE2
      00000088H   SFRSYM    DATA     BYTE      TCON
      00000089H   SFRSYM    DATA     BYTE      TMOD
      00000098H   SFRSYM    DATA     BYTE      SCON
      000000F1H   SFRSYM    DATA     BYTE      CANICR
      00000087H   SFRSYM    DATA     BYTE      PCON
      00000099H   SFRSYM    DATA     BYTE      SBUF
      000000BCH   SFRSYM    DATA     BYTE      ADC_CONTR
      000000E7H   SFRSYM    DATA     BYTE      CMPCR2
      000000E6H   SFRSYM    DATA     BYTE      CMPCR1
      000000B8H   SFRSYM    DATA     BYTE      IP
      000000A8H.4 SFRSYM    DATA     BIT       ES
      0000008FH   SFRSYM    DATA     BYTE      INTCLKO
      000000EEH   SFRSYM    DATA     BYTE      IP3H
      000000B6H   SFRSYM    DATA     BYTE      IP2H
      000000A8H   SFRSYM    DATA     BYTE      IE
      000000BBH   SFRSYM    DATA     BYTE      P_SW3
      000000BAH   SFRSYM    DATA     BYTE      P_SW2
      000000A2H   SFRSYM    DATA     BYTE      P_SW1
      000000CEH   SFRSYM    DATA     BYTE      SPCTL
      000000F8H   SFRSYM    DATA     BYTE      P7
      000000E8H   SFRSYM    DATA     BYTE      P6
      000000C8H   SFRSYM    DATA     BYTE      P5
      000000C0H   SFRSYM    DATA     BYTE      P4
      000000C9H   SFRSYM    DATA     BYTE      P5M1
      000000B0H   SFRSYM    DATA     BYTE      P3
      000000CAH   SFRSYM    DATA     BYTE      P5M0
L251 LINKER/LOCATER V4.66.93.0                                                        05/06/2023  18:04:44  PAGE 44


      000000A0H   SFRSYM    DATA     BYTE      P2
      00000090H   SFRSYM    DATA     BYTE      P1
      00000080H   SFRSYM    DATA     BYTE      P0

      00FF43EFH   BLOCK     CODE     ---       LVL=0
      WR24        REGSYM    ---      INT       uart_n
      WR28        REGSYM    ---      INT       uart_rx_pin
      WR30        REGSYM    ---      INT       uart_tx_pin
      000007F3H   SYMBOL    EDATA    DWORD     baud
      WR26        REGSYM    ---      INT       tim_n
      00FF43F7H   BLOCK     CODE     NEAR LAB  LVL=1
      WR6         REGSYM    ---      WORD      brt
      ---         BLOCKEND  ---      ---       LVL=1
      00FF43EFH   LINE      CODE     ---       #48
      00FF43F7H   LINE      CODE     ---       #49
      00FF43F7H   LINE      CODE     ---       #52
      00FF441AH   LINE      CODE     ---       #55
      00FF4438H   LINE      CODE     ---       #57
      00FF4438H   LINE      CODE     ---       #59
      00FF443EH   LINE      CODE     ---       #61
      00FF4441H   LINE      CODE     ---       #62
      00FF4445H   LINE      CODE     ---       #63
      00FF4449H   LINE      CODE     ---       #64
      00FF444DH   LINE      CODE     ---       #65
      00FF4450H   LINE      CODE     ---       #66
      00FF4452H   LINE      CODE     ---       #67
      00FF4457H   LINE      CODE     ---       #68
      00FF4459H   LINE      CODE     ---       #69
      00FF445FH   LINE      CODE     ---       #71
      00FF4462H   LINE      CODE     ---       #72
      00FF4466H   LINE      CODE     ---       #73
      00FF446AH   LINE      CODE     ---       #74
      00FF446DH   LINE      CODE     ---       #75
      00FF446DH   LINE      CODE     ---       #76
      00FF4470H   LINE      CODE     ---       #77
      00FF447AH   LINE      CODE     ---       #79
      00FF447EH   LINE      CODE     ---       #80
      00FF4480H   LINE      CODE     ---       #81
      00FF448CH   LINE      CODE     ---       #83
      00FF448FH   LINE      CODE     ---       #84
      00FF4491H   LINE      CODE     ---       #85
      00FF449DH   LINE      CODE     ---       #87
      00FF44A0H   LINE      CODE     ---       #88
      00FF44A2H   LINE      CODE     ---       #89
      00FF44AEH   LINE      CODE     ---       #91
      00FF44B1H   LINE      CODE     ---       #92
      00FF44B1H   LINE      CODE     ---       #93
      00FF44B6H   LINE      CODE     ---       #94
      00FF44B8H   LINE      CODE     ---       #95
      00FF44B9H   LINE      CODE     ---       #98
      00FF44B9H   LINE      CODE     ---       #100
      00FF44BFH   LINE      CODE     ---       #102
      00FF44C2H   LINE      CODE     ---       #103
      00FF44C6H   LINE      CODE     ---       #104
      00FF44CAH   LINE      CODE     ---       #105
      00FF44CDH   LINE      CODE     ---       #106
      00FF44CDH   LINE      CODE     ---       #108
      00FF44D0H   LINE      CODE     ---       #109
      00FF44DCH   LINE      CODE     ---       #111
      00FF44E0H   LINE      CODE     ---       #112
      00FF44E2H   LINE      CODE     ---       #113
      00FF44EEH   LINE      CODE     ---       #115
      00FF44F1H   LINE      CODE     ---       #116
      00FF44F1H   LINE      CODE     ---       #118
      00FF44F4H   LINE      CODE     ---       #119
L251 LINKER/LOCATER V4.66.93.0                                                        05/06/2023  18:04:44  PAGE 45


      00FF44F9H   LINE      CODE     ---       #120
      00FF44FAH   LINE      CODE     ---       #123
      00FF44FAH   LINE      CODE     ---       #125
      00FF4500H   LINE      CODE     ---       #127
      00FF4503H   LINE      CODE     ---       #128
      00FF4507H   LINE      CODE     ---       #129
      00FF450BH   LINE      CODE     ---       #130
      00FF450EH   LINE      CODE     ---       #131
      00FF4510H   LINE      CODE     ---       #132
      00FF4516H   LINE      CODE     ---       #134
      00FF4519H   LINE      CODE     ---       #135
      00FF451DH   LINE      CODE     ---       #136
      00FF4521H   LINE      CODE     ---       #137
      00FF4524H   LINE      CODE     ---       #138
      00FF4524H   LINE      CODE     ---       #140
      00FF4527H   LINE      CODE     ---       #141
      00FF4533H   LINE      CODE     ---       #143
      00FF4537H   LINE      CODE     ---       #144
      00FF4539H   LINE      CODE     ---       #145
      00FF4545H   LINE      CODE     ---       #147
      00FF4548H   LINE      CODE     ---       #148
      00FF4548H   LINE      CODE     ---       #150
      00FF454BH   LINE      CODE     ---       #151
      00FF4550H   LINE      CODE     ---       #152
      00FF4551H   LINE      CODE     ---       #155
      00FF4551H   LINE      CODE     ---       #157
      00FF4557H   LINE      CODE     ---       #159
      00FF455AH   LINE      CODE     ---       #160
      00FF455EH   LINE      CODE     ---       #161
      00FF4562H   LINE      CODE     ---       #162
      00FF4565H   LINE      CODE     ---       #163
      00FF4567H   LINE      CODE     ---       #164
      00FF456DH   LINE      CODE     ---       #166
      00FF4570H   LINE      CODE     ---       #167
      00FF4574H   LINE      CODE     ---       #168
      00FF4578H   LINE      CODE     ---       #169
      00FF457BH   LINE      CODE     ---       #170
      00FF457BH   LINE      CODE     ---       #172
      00FF457EH   LINE      CODE     ---       #173
      00FF458AH   LINE      CODE     ---       #175
      00FF458EH   LINE      CODE     ---       #176
      00FF4590H   LINE      CODE     ---       #177
      00FF459CH   LINE      CODE     ---       #179
      00FF459FH   LINE      CODE     ---       #180
      00FF45A2H   LINE      CODE     ---       #181
      00FF45A5H   LINE      CODE     ---       #182
      00FF45A5H   LINE      CODE     ---       #183
      00FF45A8H   LINE      CODE     ---       #184
      00FF45ADH   LINE      CODE     ---       #185
      00FF45ADH   LINE      CODE     ---       #188
      00FF45ADH   LINE      CODE     ---       #190
      ---         BLOCKEND  ---      ---       LVL=0

      00FF55DFH   BLOCK     CODE     ---       LVL=0
      WR6         REGSYM    ---      INT       uart_n
      R10         REGSYM    ---      BYTE      dat
      00FF55DFH   LINE      CODE     ---       #199
      00FF55E1H   LINE      CODE     ---       #201
      00FF55F3H   LINE      CODE     ---       #203
      00FF55F3H   LINE      CODE     ---       #204
      00FF55F9H   LINE      CODE     ---       #205
      00FF55FFH   LINE      CODE     ---       #206
      00FF5602H   LINE      CODE     ---       #207
      00FF5603H   LINE      CODE     ---       #208
      00FF5603H   LINE      CODE     ---       #209
L251 LINKER/LOCATER V4.66.93.0                                                        05/06/2023  18:04:44  PAGE 46


      00FF5609H   LINE      CODE     ---       #210
      00FF560FH   LINE      CODE     ---       #211
      00FF5612H   LINE      CODE     ---       #212
      00FF5613H   LINE      CODE     ---       #213
      00FF5613H   LINE      CODE     ---       #214
      00FF5619H   LINE      CODE     ---       #215
      00FF561FH   LINE      CODE     ---       #216
      00FF5622H   LINE      CODE     ---       #217
      00FF5623H   LINE      CODE     ---       #218
      00FF5623H   LINE      CODE     ---       #219
      00FF5629H   LINE      CODE     ---       #220
      00FF562FH   LINE      CODE     ---       #221
      00FF5632H   LINE      CODE     ---       #222
      00FF5632H   LINE      CODE     ---       #223
      00FF5632H   LINE      CODE     ---       #224
      ---         BLOCKEND  ---      ---       LVL=0
      REG=3       REGSYM    ---      ---       p
      REG=3       REGSYM    ---      ---       str

      ---         MODULE    ---      ---       zf_fifo
      00FF5926H   PUBLIC    CODE     ---       fifo_head_offset
      00FF4A9CH   PUBLIC    CODE     ---       fifo_write_buffer
      000007D9H   PUBLIC    EDATA    BYTE      ?fifo_write_buffer?BYTE
      000000D0H   SFRSYM    DATA     BYTE      PSW
      0000009DH   SFRSYM    DATA     BYTE      IRCBAND
      00000097H   SFRSYM    DATA     BYTE      AUXR2
      000000EFH   SFRSYM    DATA     BYTE      AUXINTIF
      000000FDH   SFRSYM    DATA     BYTE      S4CON
      000000ACH   SFRSYM    DATA     BYTE      S3CON
      0000009AH   SFRSYM    DATA     BYTE      S2CON
      000000B7H   SFRSYM    DATA     BYTE      IPH
      000000CDH   SFRSYM    DATA     BYTE      SPSTAT
      000000DDH   SFRSYM    DATA     BYTE      T4T3M
      000000C1H   SFRSYM    DATA     BYTE      WDT_CONTR
      000000DFH   SFRSYM    DATA     BYTE      IP3
      000000F4H   SFRSYM    DATA     BYTE      USBCON
      000000B5H   SFRSYM    DATA     BYTE      IP2
      000000FFH   SFRSYM    DATA     BYTE      RSTCFG
      000000F9H   SFRSYM    DATA     BYTE      LINICR
      0000008EH   SFRSYM    DATA     BYTE      AUXR
      000000AFH   SFRSYM    DATA     BYTE      IE2
      00000088H   SFRSYM    DATA     BYTE      TCON
      00000098H   SFRSYM    DATA     BYTE      SCON
      000000F1H   SFRSYM    DATA     BYTE      CANICR
      00000087H   SFRSYM    DATA     BYTE      PCON
      000000BCH   SFRSYM    DATA     BYTE      ADC_CONTR
      000000E7H   SFRSYM    DATA     BYTE      CMPCR2
      000000E6H   SFRSYM    DATA     BYTE      CMPCR1
      000000B8H   SFRSYM    DATA     BYTE      IP
      0000008FH   SFRSYM    DATA     BYTE      INTCLKO
      000000EEH   SFRSYM    DATA     BYTE      IP3H
      000000B6H   SFRSYM    DATA     BYTE      IP2H
      000000A8H   SFRSYM    DATA     BYTE      IE
      000000BBH   SFRSYM    DATA     BYTE      P_SW3
      000000BAH   SFRSYM    DATA     BYTE      P_SW2
      000000A2H   SFRSYM    DATA     BYTE      P_SW1
      000000CEH   SFRSYM    DATA     BYTE      SPCTL
      000000F8H   SFRSYM    DATA     BYTE      P7
      000000E8H   SFRSYM    DATA     BYTE      P6
      000000C8H   SFRSYM    DATA     BYTE      P5
      000000C0H   SFRSYM    DATA     BYTE      P4
      000000B0H   SFRSYM    DATA     BYTE      P3
      000000A0H   SFRSYM    DATA     BYTE      P2
      00000090H   SFRSYM    DATA     BYTE      P1
      00000080H   SFRSYM    DATA     BYTE      P0
L251 LINKER/LOCATER V4.66.93.0                                                        05/06/2023  18:04:44  PAGE 47


      REG=2       REGSYM    ---      ---       fifo
      REG=7       REGSYM    ---      ---       buffer_addr

      00FF5926H   BLOCK     CODE     ---       LVL=0
      REG=7       REGSYM    ---      ---       fifo
      DR24        REGSYM    ---      DWORD     offset
      00FF5926H   LINE      CODE     ---       #61
      00FF592AH   LINE      CODE     ---       #63
      00FF5935H   LINE      CODE     ---       #65
      00FF5937H   LINE      CODE     ---       #67
      00FF5953H   LINE      CODE     ---       #68
      00FF5967H   LINE      CODE     ---       #69
      ---         BLOCKEND  ---      ---       LVL=0
      REG=7       REGSYM    ---      ---       fifo
      DR24        REGSYM    ---      DWORD     offset
      REG=2       REGSYM    ---      ---       fifo
      REG=7       REGSYM    ---      ---       fifo

      00FF4A9CH   BLOCK     CODE     ---       LVL=0
      REG=3       REGSYM    ---      ---       fifo
      000007DDH   SYMBOL    EDATA    ---       dat
      000007E1H   SYMBOL    EDATA    DWORD     length
      00FF4AA4H   BLOCK     CODE     NEAR LAB  LVL=1
      000007E5H   SYMBOL    EDATA    DWORD     temp_length
      ---         BLOCKEND  ---      ---       LVL=1
      00FF4A9CH   LINE      CODE     ---       #120
      00FF4AA4H   LINE      CODE     ---       #121
      00FF4AA4H   LINE      CODE     ---       #124
      00FF4AB7H   LINE      CODE     ---       #126
      00FF4ACDH   LINE      CODE     ---       #128
      00FF4AD1H   LINE      CODE     ---       #130
      00FF4AE9H   LINE      CODE     ---       #131
      00FF4AF2H   LINE      CODE     ---       #132
      00FF4B02H   LINE      CODE     ---       #133
      00FF4B22H   LINE      CODE     ---       #134
      00FF4B2EH   LINE      CODE     ---       #135
      00FF4B30H   LINE      CODE     ---       #138
      00FF4B4CH   LINE      CODE     ---       #139
      00FF4B55H   LINE      CODE     ---       #140
      00FF4B55H   LINE      CODE     ---       #142
      00FF4B6FH   LINE      CODE     ---       #143
      00FF4B71H   LINE      CODE     ---       #146
      00FF4B77H   LINE      CODE     ---       #147
      00FF4B77H   LINE      CODE     ---       #149
      00FF4B79H   LINE      CODE     ---       #150
      ---         BLOCKEND  ---      ---       LVL=0
      REG=3       REGSYM    ---      ---       fifo

      ---         MODULE    ---      ---       SEEKFREE_ABSOLUTE_ENCODER
      00FF0006H   PUBLIC    CODE     ---       encoder_delay_us
      000000D0H   SFRSYM    DATA     BYTE      PSW
      0000009DH   SFRSYM    DATA     BYTE      IRCBAND
      00000097H   SFRSYM    DATA     BYTE      AUXR2
      000000EFH   SFRSYM    DATA     BYTE      AUXINTIF
      000000FDH   SFRSYM    DATA     BYTE      S4CON
      000000ACH   SFRSYM    DATA     BYTE      S3CON
      0000009AH   SFRSYM    DATA     BYTE      S2CON
      000000B7H   SFRSYM    DATA     BYTE      IPH
      000000CDH   SFRSYM    DATA     BYTE      SPSTAT
      000000DDH   SFRSYM    DATA     BYTE      T4T3M
      000000C1H   SFRSYM    DATA     BYTE      WDT_CONTR
      000000DFH   SFRSYM    DATA     BYTE      IP3
      000000F4H   SFRSYM    DATA     BYTE      USBCON
      000000B5H   SFRSYM    DATA     BYTE      IP2
      000000FFH   SFRSYM    DATA     BYTE      RSTCFG
L251 LINKER/LOCATER V4.66.93.0                                                        05/06/2023  18:04:44  PAGE 48


      000000F9H   SFRSYM    DATA     BYTE      LINICR
      0000008EH   SFRSYM    DATA     BYTE      AUXR
      000000AFH   SFRSYM    DATA     BYTE      IE2
      000000A0H.7 SFRSYM    DATA     BIT       P27
      000000A0H.6 SFRSYM    DATA     BIT       P26
      000000A0H.5 SFRSYM    DATA     BIT       P25
      000000A0H.4 SFRSYM    DATA     BIT       P24
      00000088H   SFRSYM    DATA     BYTE      TCON
      00000098H   SFRSYM    DATA     BYTE      SCON
      000000A0H.2 SFRSYM    DATA     BIT       P22
      000000F1H   SFRSYM    DATA     BYTE      CANICR
      00000087H   SFRSYM    DATA     BYTE      PCON
      000000BCH   SFRSYM    DATA     BYTE      ADC_CONTR
      000000E7H   SFRSYM    DATA     BYTE      CMPCR2
      000000E6H   SFRSYM    DATA     BYTE      CMPCR1
      000000B8H   SFRSYM    DATA     BYTE      IP
      0000008FH   SFRSYM    DATA     BYTE      INTCLKO
      000000EEH   SFRSYM    DATA     BYTE      IP3H
      000000B6H   SFRSYM    DATA     BYTE      IP2H
      000000A8H   SFRSYM    DATA     BYTE      IE
      000000BBH   SFRSYM    DATA     BYTE      P_SW3
      000000BAH   SFRSYM    DATA     BYTE      P_SW2
      000000A2H   SFRSYM    DATA     BYTE      P_SW1
      000000CEH   SFRSYM    DATA     BYTE      SPCTL
      000000F8H   SFRSYM    DATA     BYTE      P7
      000000E8H   SFRSYM    DATA     BYTE      P6
      000000C8H   SFRSYM    DATA     BYTE      P5
      000000C0H   SFRSYM    DATA     BYTE      P4
      000000B0H   SFRSYM    DATA     BYTE      P3
      000000A0H   SFRSYM    DATA     BYTE      P2
      00000090H   SFRSYM    DATA     BYTE      P1
      00000080H   SFRSYM    DATA     BYTE      P0

      00FF0006H   BLOCK     CODE     ---       LVL=0
      WR6         REGSYM    ---      WORD      x
      00FF0006H   LINE      CODE     ---       #43
      00FF0006H   LINE      CODE     ---       #45
      ---         BLOCKEND  ---      ---       LVL=0
      R6          REGSYM    ---      BYTE      byte
      R7          REGSYM    ---      BYTE      i
      R7          REGSYM    ---      BYTE      cmd
      R15         REGSYM    ---      BYTE      val
      R7          REGSYM    ---      BYTE      cmd
      REG=3       REGSYM    ---      ---       val
      R7          REGSYM    ---      BYTE      cmd
      R15         REGSYM    ---      BYTE      val
      R14         REGSYM    ---      BYTE      dat
      R7          REGSYM    ---      BYTE      cmd
      REG=3       REGSYM    ---      ---       val
      WR14        REGSYM    ---      WORD      zero_position
      WR14        REGSYM    ---      WORD      angle
      R10         REGSYM    ---      BYTE      byte
      R7          REGSYM    ---      BYTE      cmd
      R15         REGSYM    ---      BYTE      val
      R7          REGSYM    ---      BYTE      cmd
      REG=3       REGSYM    ---      ---       val
      R7          REGSYM    ---      BYTE      cmd
      R15         REGSYM    ---      BYTE      val
      R14         REGSYM    ---      BYTE      dat
      R7          REGSYM    ---      BYTE      cmd
      REG=3       REGSYM    ---      ---       val
      WR14        REGSYM    ---      WORD      zero_position
      WR14        REGSYM    ---      WORD      angle

      ---         MODULE    ---      ---       SEEKFREE_AT24C02
L251 LINKER/LOCATER V4.66.93.0                                                        05/06/2023  18:04:44  PAGE 49


      000000D0H   SFRSYM    DATA     BYTE      PSW
      0000009DH   SFRSYM    DATA     BYTE      IRCBAND
      00000097H   SFRSYM    DATA     BYTE      AUXR2
      000000EFH   SFRSYM    DATA     BYTE      AUXINTIF
      000000FDH   SFRSYM    DATA     BYTE      S4CON
      000000ACH   SFRSYM    DATA     BYTE      S3CON
      0000009AH   SFRSYM    DATA     BYTE      S2CON
      000000B7H   SFRSYM    DATA     BYTE      IPH
      000000CDH   SFRSYM    DATA     BYTE      SPSTAT
      000000DDH   SFRSYM    DATA     BYTE      T4T3M
      000000C1H   SFRSYM    DATA     BYTE      WDT_CONTR
      000000DFH   SFRSYM    DATA     BYTE      IP3
      000000F4H   SFRSYM    DATA     BYTE      USBCON
      000000B5H   SFRSYM    DATA     BYTE      IP2
      000000FFH   SFRSYM    DATA     BYTE      RSTCFG
      000000F9H   SFRSYM    DATA     BYTE      LINICR
      0000008EH   SFRSYM    DATA     BYTE      AUXR
      000000AFH   SFRSYM    DATA     BYTE      IE2
      00000088H   SFRSYM    DATA     BYTE      TCON
      000000A0H.3 SFRSYM    DATA     BIT       P23
      00000098H   SFRSYM    DATA     BYTE      SCON
      000000A0H.2 SFRSYM    DATA     BIT       P22
      000000F1H   SFRSYM    DATA     BYTE      CANICR
      00000087H   SFRSYM    DATA     BYTE      PCON
      000000BCH   SFRSYM    DATA     BYTE      ADC_CONTR
      000000E7H   SFRSYM    DATA     BYTE      CMPCR2
      000000E6H   SFRSYM    DATA     BYTE      CMPCR1
      000000B8H   SFRSYM    DATA     BYTE      IP
      0000008FH   SFRSYM    DATA     BYTE      INTCLKO
      000000EEH   SFRSYM    DATA     BYTE      IP3H
      000000B6H   SFRSYM    DATA     BYTE      IP2H
      000000A8H   SFRSYM    DATA     BYTE      IE
      000000BBH   SFRSYM    DATA     BYTE      P_SW3
      000000BAH   SFRSYM    DATA     BYTE      P_SW2
      000000A2H   SFRSYM    DATA     BYTE      P_SW1
      000000CEH   SFRSYM    DATA     BYTE      SPCTL
      000000F8H   SFRSYM    DATA     BYTE      P7
      000000E8H   SFRSYM    DATA     BYTE      P6
      000000C8H   SFRSYM    DATA     BYTE      P5
      000000C0H   SFRSYM    DATA     BYTE      P4
      000000B0H   SFRSYM    DATA     BYTE      P3
      000000A0H   SFRSYM    DATA     BYTE      P2
      00000090H   SFRSYM    DATA     BYTE      P1
      00000080H   SFRSYM    DATA     BYTE      P0
      00FF5F86H   SYMBOL    CODE     ---       at24c02_simiic_stop
      00FF5D85H   SYMBOL    CODE     ---       at24c02_simiic_sendack
      00FF0046H   SYMBOL    CODE     ---       at24c02_simiic_delay

      00FF0046H   BLOCK     CODE     ---       LVL=0
      WR6         REGSYM    ---      WORD      j
      00FF0046H   LINE      CODE     ---       #45
      00FF0046H   LINE      CODE     ---       #46
      00FF0046H   LINE      CODE     ---       #47
      00FF004AH   LINE      CODE     ---       #48
      00FF0052H   LINE      CODE     ---       #49
      ---         BLOCKEND  ---      ---       LVL=0

      00FF5F86H   BLOCK     CODE     ---       LVL=0
      00FF5F86H   LINE      CODE     ---       #63
      00FF5F86H   LINE      CODE     ---       #65
      00FF5F88H   LINE      CODE     ---       #66
      00FF5F8AH   LINE      CODE     ---       #67
      00FF5F8DH   LINE      CODE     ---       #68
      00FF5F8FH   LINE      CODE     ---       #69
      00FF5F92H   LINE      CODE     ---       #70
L251 LINKER/LOCATER V4.66.93.0                                                        05/06/2023  18:04:44  PAGE 50


      00FF5F94H   LINE      CODE     ---       #71
      ---         BLOCKEND  ---      ---       LVL=0

      00FF5D85H   BLOCK     CODE     ---       LVL=0
      R15         REGSYM    ---      BYTE      ack_dat
      00FF5D85H   LINE      CODE     ---       #76
      00FF5D89H   LINE      CODE     ---       #78
      00FF5D8BH   LINE      CODE     ---       #79
      00FF5D8EH   LINE      CODE     ---       #80
      00FF5D96H   LINE      CODE     ---       #81
      00FF5D98H   LINE      CODE     ---       #83
      00FF5D9AH   LINE      CODE     ---       #84
      00FF5D9DH   LINE      CODE     ---       #85
      00FF5D9FH   LINE      CODE     ---       #86
      00FF5DA2H   LINE      CODE     ---       #87
      ---         BLOCKEND  ---      ---       LVL=0
      R15         REGSYM    ---      BYTE      c
      R14         REGSYM    ---      BYTE      i
      R15         REGSYM    ---      BYTE      ack_x
      R13         REGSYM    ---      BYTE      i
      R14         REGSYM    ---      BYTE      c
      R13         REGSYM    ---      BYTE      dev_add
      R14         REGSYM    ---      BYTE      reg
      R15         REGSYM    ---      BYTE      dat
      R15         REGSYM    ---      BYTE      dev_add
      R14         REGSYM    ---      BYTE      reg
      R15         REGSYM    ---      BYTE      dat
      R14         REGSYM    ---      BYTE      byte_reg
      R15         REGSYM    ---      BYTE      dat
      R15         REGSYM    ---      BYTE      byte_reg
      REG=3       REGSYM    ---      ---       dat_add
      REG=3       REGSYM    ---      ---       dat_add

      ---         MODULE    ---      ---       SEEKFREE_BLUETOOTH_CH9141
      00FF5E94H   PUBLIC    CODE     ---       bluetooth_ch9141_uart_callback
      000000D0H   SFRSYM    DATA     BYTE      PSW
      0000009DH   SFRSYM    DATA     BYTE      IRCBAND
      00000097H   SFRSYM    DATA     BYTE      AUXR2
      000000EFH   SFRSYM    DATA     BYTE      AUXINTIF
      000000FDH   SFRSYM    DATA     BYTE      S4CON
      000000ACH   SFRSYM    DATA     BYTE      S3CON
      0000009AH   SFRSYM    DATA     BYTE      S2CON
      000000FEH   SFRSYM    DATA     BYTE      S4BUF
      000000B7H   SFRSYM    DATA     BYTE      IPH
      000000CDH   SFRSYM    DATA     BYTE      SPSTAT
      000000DDH   SFRSYM    DATA     BYTE      T4T3M
      000000C1H   SFRSYM    DATA     BYTE      WDT_CONTR
      000000DFH   SFRSYM    DATA     BYTE      IP3
      000000F4H   SFRSYM    DATA     BYTE      USBCON
      000000B5H   SFRSYM    DATA     BYTE      IP2
      000000FFH   SFRSYM    DATA     BYTE      RSTCFG
      000000F9H   SFRSYM    DATA     BYTE      LINICR
      0000008EH   SFRSYM    DATA     BYTE      AUXR
      000000AFH   SFRSYM    DATA     BYTE      IE2
      00000080H.7 SFRSYM    DATA     BIT       P07
      00000088H   SFRSYM    DATA     BYTE      TCON
      00000098H   SFRSYM    DATA     BYTE      SCON
      000000F1H   SFRSYM    DATA     BYTE      CANICR
      00000087H   SFRSYM    DATA     BYTE      PCON
      000000BCH   SFRSYM    DATA     BYTE      ADC_CONTR
      000000E7H   SFRSYM    DATA     BYTE      CMPCR2
      000000E6H   SFRSYM    DATA     BYTE      CMPCR1
      000000B8H   SFRSYM    DATA     BYTE      IP
      0000008FH   SFRSYM    DATA     BYTE      INTCLKO
      000000EEH   SFRSYM    DATA     BYTE      IP3H
L251 LINKER/LOCATER V4.66.93.0                                                        05/06/2023  18:04:44  PAGE 51


      000000B6H   SFRSYM    DATA     BYTE      IP2H
      000000A8H   SFRSYM    DATA     BYTE      IE
      000000BBH   SFRSYM    DATA     BYTE      P_SW3
      000000BAH   SFRSYM    DATA     BYTE      P_SW2
      000000A2H   SFRSYM    DATA     BYTE      P_SW1
      000000CEH   SFRSYM    DATA     BYTE      SPCTL
      000000F8H   SFRSYM    DATA     BYTE      P7
      000000E8H   SFRSYM    DATA     BYTE      P6
      000000C8H   SFRSYM    DATA     BYTE      P5
      000000C0H   SFRSYM    DATA     BYTE      P4
      000000B0H   SFRSYM    DATA     BYTE      P3
      000000A0H   SFRSYM    DATA     BYTE      P2
      00000090H   SFRSYM    DATA     BYTE      P1
      00000080H   SFRSYM    DATA     BYTE      P0
      000006DEH   SYMBOL    EDATA    ---       bluetooth_ch9141_buffer
      0000071EH   SYMBOL    EDATA    BYTE      bluetooth_ch9141_data
      0000071FH   SYMBOL    EDATA    ---       bluetooth_ch9141_fifo

      00FF5E94H   BLOCK     CODE     ---       LVL=0
      00FF5E94H   LINE      CODE     ---       #67
      00FF5E94H   LINE      CODE     ---       #70
      00FF5E9AH   LINE      CODE     ---       #71
      ---         BLOCKEND  ---      ---       LVL=0
      DR12        REGSYM    ---      DWORD     len
      REG=7       REGSYM    ---      ---       buff
      DR8         REGSYM    ---      DWORD     len

      ---         MODULE    ---      ---       SEEKFREE_DL1A
      00000894H   PUBLIC    EDATA    WORD      dl1a_distance_mm
      00000896H   PUBLIC    EDATA    BYTE      dl1a_finsh_flag
      000000D0H   SFRSYM    DATA     BYTE      PSW
      0000009DH   SFRSYM    DATA     BYTE      IRCBAND
      00000097H   SFRSYM    DATA     BYTE      AUXR2
      000000EFH   SFRSYM    DATA     BYTE      AUXINTIF
      000000FDH   SFRSYM    DATA     BYTE      S4CON
      000000ACH   SFRSYM    DATA     BYTE      S3CON
      0000009AH   SFRSYM    DATA     BYTE      S2CON
      000000B7H   SFRSYM    DATA     BYTE      IPH
      000000CDH   SFRSYM    DATA     BYTE      SPSTAT
      000000DDH   SFRSYM    DATA     BYTE      T4T3M
      000000C1H   SFRSYM    DATA     BYTE      WDT_CONTR
      000000DFH   SFRSYM    DATA     BYTE      IP3
      000000F4H   SFRSYM    DATA     BYTE      USBCON
      000000B5H   SFRSYM    DATA     BYTE      IP2
      000000FFH   SFRSYM    DATA     BYTE      RSTCFG
      000000F9H   SFRSYM    DATA     BYTE      LINICR
      0000008EH   SFRSYM    DATA     BYTE      AUXR
      000000AFH   SFRSYM    DATA     BYTE      IE2
      000000A0H.7 SFRSYM    DATA     BIT       P27
      000000C0H.5 SFRSYM    DATA     BIT       P45
      000000A0H.6 SFRSYM    DATA     BIT       P26
      00000088H   SFRSYM    DATA     BYTE      TCON
      00000098H   SFRSYM    DATA     BYTE      SCON
      000000F1H   SFRSYM    DATA     BYTE      CANICR
      00000087H   SFRSYM    DATA     BYTE      PCON
      000000BCH   SFRSYM    DATA     BYTE      ADC_CONTR
      000000E7H   SFRSYM    DATA     BYTE      CMPCR2
      000000E6H   SFRSYM    DATA     BYTE      CMPCR1
      000000B8H   SFRSYM    DATA     BYTE      IP
      0000008FH   SFRSYM    DATA     BYTE      INTCLKO
      000000EEH   SFRSYM    DATA     BYTE      IP3H
      000000B6H   SFRSYM    DATA     BYTE      IP2H
      000000A8H   SFRSYM    DATA     BYTE      IE
      000000BBH   SFRSYM    DATA     BYTE      P_SW3
      000000BAH   SFRSYM    DATA     BYTE      P_SW2
L251 LINKER/LOCATER V4.66.93.0                                                        05/06/2023  18:04:44  PAGE 52


      000000A2H   SFRSYM    DATA     BYTE      P_SW1
      000000CEH   SFRSYM    DATA     BYTE      SPCTL
      000000F8H   SFRSYM    DATA     BYTE      P7
      000000E8H   SFRSYM    DATA     BYTE      P6
      000000C8H   SFRSYM    DATA     BYTE      P5
      000000C0H   SFRSYM    DATA     BYTE      P4
      000000B0H   SFRSYM    DATA     BYTE      P3
      000000A0H   SFRSYM    DATA     BYTE      P2
      00000090H   SFRSYM    DATA     BYTE      P1
      00000080H   SFRSYM    DATA     BYTE      P0
      00FF5DA5H   SYMBOL    CODE     ---       dl1a_simiic_sendack
      00FF5A22H   SYMBOL    CODE     ---       dl1a_timeout_microseconds_to_mclks
      00FF59A7H   SYMBOL    CODE     ---       dl1a_timeout_mclks_to_microseconds
      00FF5A5EH   SYMBOL    CODE     ---       dl1a_read_ch
      00FF5FB9H   SYMBOL    CODE     ---       dl1a_decode_timeout
      00FF5BFBH   SYMBOL    CODE     ---       dl1a_send_ch
      00FF5B07H   SYMBOL    CODE     ---       dl1a_encode_timeout
      00FF5587H   SYMBOL    CODE     ---       dl1a_get_sequence_step_enables
      00FF0026H   SYMBOL    CODE     ---       dl1a_sccb_waitack
      00FF6003H   SYMBOL    CODE     ---       dl1a_simiic_delay
      00FF4B7CH   SYMBOL    CODE     ---       dl1a_get_sequence_step_timeouts
      00FF5FC9H   SYMBOL    CODE     ---       dl1a_simiic_start
      00FF5633H   SYMBOL    CODE     ---       dl1a_simiic_read_regs
      00FF5AD2H   SYMBOL    CODE     ---       dl1a_simiic_write_dats
      00FF5F97H   SYMBOL    CODE     ---       dl1a_simiic_stop
      00FF5729H   SYMBOL    CODE     ---       dl1a_get_vcsel_pulse_period

      00FF6003H   BLOCK     CODE     ---       LVL=0
      WR6         REGSYM    ---      WORD      j
      00FF6003H   LINE      CODE     ---       #75
      00FF6003H   LINE      CODE     ---       #76
      00FF6003H   LINE      CODE     ---       #77
      00FF6007H   LINE      CODE     ---       #78
      00FF600FH   LINE      CODE     ---       #79
      ---         BLOCKEND  ---      ---       LVL=0

      00FF5FC9H   BLOCK     CODE     ---       LVL=0
      00FF5FC9H   LINE      CODE     ---       #82
      00FF5FC9H   LINE      CODE     ---       #84
      00FF5FCBH   LINE      CODE     ---       #85
      00FF5FCDH   LINE      CODE     ---       #86
      00FF5FD0H   LINE      CODE     ---       #87
      00FF5FD2H   LINE      CODE     ---       #88
      00FF5FD5H   LINE      CODE     ---       #89
      00FF5FD7H   LINE      CODE     ---       #90
      ---         BLOCKEND  ---      ---       LVL=0

      00FF5F97H   BLOCK     CODE     ---       LVL=0
      00FF5F97H   LINE      CODE     ---       #93
      00FF5F97H   LINE      CODE     ---       #95
      00FF5F99H   LINE      CODE     ---       #96
      00FF5F9BH   LINE      CODE     ---       #97
      00FF5F9EH   LINE      CODE     ---       #98
      00FF5FA0H   LINE      CODE     ---       #99
      00FF5FA3H   LINE      CODE     ---       #100
      00FF5FA5H   LINE      CODE     ---       #101
      ---         BLOCKEND  ---      ---       LVL=0

      00FF5DA5H   BLOCK     CODE     ---       LVL=0
      R15         REGSYM    ---      BYTE      ack_dat
      00FF5DA5H   LINE      CODE     ---       #106
      00FF5DA9H   LINE      CODE     ---       #108
      00FF5DABH   LINE      CODE     ---       #109
      00FF5DAEH   LINE      CODE     ---       #110
      00FF5DB6H   LINE      CODE     ---       #111
L251 LINKER/LOCATER V4.66.93.0                                                        05/06/2023  18:04:44  PAGE 53


      00FF5DB8H   LINE      CODE     ---       #113
      00FF5DBAH   LINE      CODE     ---       #114
      00FF5DBDH   LINE      CODE     ---       #115
      00FF5DBFH   LINE      CODE     ---       #116
      00FF5DC2H   LINE      CODE     ---       #117
      ---         BLOCKEND  ---      ---       LVL=0

      00FF0026H   BLOCK     CODE     ---       LVL=0
      00FF0026H   LINE      CODE     ---       #120
      00FF0026H   LINE      CODE     ---       #122
      00FF0028H   LINE      CODE     ---       #124
      00FF002BH   LINE      CODE     ---       #126
      00FF002DH   LINE      CODE     ---       #127
      00FF0030H   LINE      CODE     ---       #129
      00FF0033H   LINE      CODE     ---       #132
      00FF0035H   LINE      CODE     ---       #133
      00FF0038H   LINE      CODE     ---       #134
      00FF0038H   LINE      CODE     ---       #136
      00FF003AH   LINE      CODE     ---       #137
      00FF003DH   LINE      CODE     ---       #138
      00FF0041H   LINE      CODE     ---       #139
      ---         BLOCKEND  ---      ---       LVL=0

      00FF5BFBH   BLOCK     CODE     ---       LVL=0
      R15         REGSYM    ---      BYTE      c
      00FF5BFFH   BLOCK     CODE     NEAR LAB  LVL=1
      R14         REGSYM    ---      BYTE      i
      ---         BLOCKEND  ---      ---       LVL=1
      00FF5BFBH   LINE      CODE     ---       #145
      00FF5BFFH   LINE      CODE     ---       #146
      00FF5BFFH   LINE      CODE     ---       #147
      00FF5C02H   LINE      CODE     ---       #148
      00FF5C04H   LINE      CODE     ---       #150
      00FF5C0DH   LINE      CODE     ---       #151
      00FF5C0FH   LINE      CODE     ---       #152
      00FF5C11H   LINE      CODE     ---       #153
      00FF5C14H   LINE      CODE     ---       #154
      00FF5C16H   LINE      CODE     ---       #155
      00FF5C19H   LINE      CODE     ---       #156
      00FF5C1BH   LINE      CODE     ---       #157
      00FF5C23H   LINE      CODE     ---       #158
      00FF5C26H   LINE      CODE     ---       #159
      ---         BLOCKEND  ---      ---       LVL=0

      00FF5A5EH   BLOCK     CODE     ---       LVL=0
      R15         REGSYM    ---      BYTE      ack_x
      00FF5A64H   BLOCK     CODE     NEAR LAB  LVL=1
      R13         REGSYM    ---      BYTE      i
      R14         REGSYM    ---      BYTE      c
      ---         BLOCKEND  ---      ---       LVL=1
      00FF5A5EH   LINE      CODE     ---       #165
      00FF5A64H   LINE      CODE     ---       #166
      00FF5A64H   LINE      CODE     ---       #169
      00FF5A66H   LINE      CODE     ---       #170
      00FF5A68H   LINE      CODE     ---       #171
      00FF5A6BH   LINE      CODE     ---       #172
      00FF5A6DH   LINE      CODE     ---       #174
      00FF5A70H   LINE      CODE     ---       #176
      00FF5A73H   LINE      CODE     ---       #177
      00FF5A75H   LINE      CODE     ---       #178
      00FF5A78H   LINE      CODE     ---       #179
      00FF5A7AH   LINE      CODE     ---       #180
      00FF5A7DH   LINE      CODE     ---       #181
      00FF5A7FH   LINE      CODE     ---       #182
      00FF5A82H   LINE      CODE     ---       #184
L251 LINKER/LOCATER V4.66.93.0                                                        05/06/2023  18:04:44  PAGE 54


      00FF5A84H   LINE      CODE     ---       #185
      00FF5A88H   LINE      CODE     ---       #188
      00FF5A8AH   LINE      CODE     ---       #189
      00FF5A8DH   LINE      CODE     ---       #190
      00FF5A92H   LINE      CODE     ---       #192
      00FF5A94H   LINE      CODE     ---       #193
      ---         BLOCKEND  ---      ---       LVL=0

      00FF5AD2H   BLOCK     CODE     ---       LVL=0
      00000877H   SYMBOL    EDATA    BYTE      dev_add
      00000878H   SYMBOL    EDATA    ---       dat
      DR12        REGSYM    ---      DWORD     len
      00FF5AD2H   LINE      CODE     ---       #205
      00FF5ADEH   LINE      CODE     ---       #207
      00FF5AE1H   LINE      CODE     ---       #208
      00FF5AE7H   LINE      CODE     ---       #209
      00FF5AE9H   LINE      CODE     ---       #211
      00FF5AF9H   LINE      CODE     ---       #212
      00FF5B01H   LINE      CODE     ---       #215
      00FF5B04H   LINE      CODE     ---       #216
      ---         BLOCKEND  ---      ---       LVL=0
      R13         REGSYM    ---      BYTE      dev_add
      R14         REGSYM    ---      BYTE      reg
      R15         REGSYM    ---      BYTE      dat
      R15         REGSYM    ---      BYTE      dev_add
      R14         REGSYM    ---      BYTE      reg
      R15         REGSYM    ---      BYTE      dat

      00FF5633H   BLOCK     CODE     ---       LVL=0
      0000086BH   SYMBOL    EDATA    BYTE      dev_add
      0000086CH   SYMBOL    EDATA    BYTE      reg
      REG=3       REGSYM    ---      ---       dat_add
      0000086DH   SYMBOL    EDATA    DWORD     num
      00FF5633H   LINE      CODE     ---       #273
      00FF563FH   LINE      CODE     ---       #275
      00FF5642H   LINE      CODE     ---       #276
      00FF564BH   LINE      CODE     ---       #277
      00FF5652H   LINE      CODE     ---       #280
      00FF5655H   LINE      CODE     ---       #281
      00FF5660H   LINE      CODE     ---       #282
      00FF5662H   LINE      CODE     ---       #284
      00FF566AH   LINE      CODE     ---       #285
      00FF566CH   LINE      CODE     ---       #286
      00FF567AH   LINE      CODE     ---       #287
      00FF5681H   LINE      CODE     ---       #288
      00FF5684H   LINE      CODE     ---       #289
      ---         BLOCKEND  ---      ---       LVL=0
      REG=3       REGSYM    ---      ---       dat_add
      REG=3       REGSYM    ---      ---       type_is_aperture

      00FF59A7H   BLOCK     CODE     ---       LVL=0
      WR30        REGSYM    ---      WORD      timeout_period_mclks
      R5          REGSYM    ---      BYTE      vcsel_period_pclks
      00FF59A9H   BLOCK     CODE     NEAR LAB  LVL=1
      DR24        REGSYM    ---      DWORD     macro_period_ns
      ---         BLOCKEND  ---      ---       LVL=1
      00FF59A7H   LINE      CODE     ---       #417
      00FF59A9H   LINE      CODE     ---       #418
      00FF59A9H   LINE      CODE     ---       #419
      00FF59CAH   LINE      CODE     ---       #421
      ---         BLOCKEND  ---      ---       LVL=0

      00FF5A22H   BLOCK     CODE     ---       LVL=0
      DR28        REGSYM    ---      DWORD     timeout_period_us
      R3          REGSYM    ---      BYTE      vcsel_period_pclks
L251 LINKER/LOCATER V4.66.93.0                                                        05/06/2023  18:04:44  PAGE 55


      00FF5A24H   BLOCK     CODE     NEAR LAB  LVL=1
      DR8         REGSYM    ---      DWORD     macro_period_ns
      ---         BLOCKEND  ---      ---       LVL=1
      00FF5A22H   LINE      CODE     ---       #432
      00FF5A24H   LINE      CODE     ---       #433
      00FF5A24H   LINE      CODE     ---       #434
      00FF5A45H   LINE      CODE     ---       #436
      ---         BLOCKEND  ---      ---       LVL=0

      00FF5FB9H   BLOCK     CODE     ---       LVL=0
      WR4         REGSYM    ---      WORD      reg_val
      00FF5FB9H   LINE      CODE     ---       #446
      00FF5FBBH   LINE      CODE     ---       #449
      00FF5FC8H   LINE      CODE     ---       #451
      ---         BLOCKEND  ---      ---       LVL=0

      00FF5B07H   BLOCK     CODE     ---       LVL=0
      WR2         REGSYM    ---      WORD      timeout_mclks
      00FF5B09H   BLOCK     CODE     NEAR LAB  LVL=1
      DR8         REGSYM    ---      DWORD     ls_byte
      WR4         REGSYM    ---      WORD      ms_byte
      WR6         REGSYM    ---      WORD      return_data
      ---         BLOCKEND  ---      ---       LVL=1
      00FF5B07H   LINE      CODE     ---       #460
      00FF5B09H   LINE      CODE     ---       #461
      00FF5B09H   LINE      CODE     ---       #462
      00FF5B09H   LINE      CODE     ---       #463
      00FF5B0DH   LINE      CODE     ---       #464
      00FF5B0DH   LINE      CODE     ---       #466
      00FF5B13H   LINE      CODE     ---       #469
      00FF5B19H   LINE      CODE     ---       #470
      00FF5B1BH   LINE      CODE     ---       #472
      00FF5B24H   LINE      CODE     ---       #473
      00FF5B26H   LINE      CODE     ---       #474
      00FF5B30H   LINE      CODE     ---       #475
      00FF5B3AH   LINE      CODE     ---       #476
      00FF5B3AH   LINE      CODE     ---       #477
      00FF5B3AH   LINE      CODE     ---       #478
      ---         BLOCKEND  ---      ---       LVL=0

      00FF5587H   BLOCK     CODE     ---       LVL=0
      REG=3       REGSYM    ---      ---       enables
      00FF558BH   BLOCK     CODE     NEAR LAB  LVL=1
      0000089DH   SYMBOL    EDATA    BYTE      sequence_config
      ---         BLOCKEND  ---      ---       LVL=1
      00FF5587H   LINE      CODE     ---       #487
      00FF558BH   LINE      CODE     ---       #488
      00FF558BH   LINE      CODE     ---       #489
      00FF5590H   LINE      CODE     ---       #490
      00FF55A1H   LINE      CODE     ---       #492
      00FF55ABH   LINE      CODE     ---       #493
      00FF55B7H   LINE      CODE     ---       #494
      00FF55C5H   LINE      CODE     ---       #495
      00FF55D1H   LINE      CODE     ---       #496
      00FF55DCH   LINE      CODE     ---       #497
      ---         BLOCKEND  ---      ---       LVL=0

      00FF5729H   BLOCK     CODE     ---       LVL=0
      WR6         REGSYM    ---      INT       type
      0000089EH   SYMBOL    EDATA    BYTE      data_buffer
      00FF5729H   LINE      CODE     ---       #506
      00FF5729H   LINE      CODE     ---       #507
      00FF5729H   LINE      CODE     ---       #508
      00FF572EH   LINE      CODE     ---       #509
      00FF5732H   LINE      CODE     ---       #511
L251 LINKER/LOCATER V4.66.93.0                                                        05/06/2023  18:04:44  PAGE 56


      00FF573FH   LINE      CODE     ---       #512
      00FF573FH   LINE      CODE     ---       #513
      00FF5741H   LINE      CODE     ---       #514
      00FF5747H   LINE      CODE     ---       #516
      00FF575BH   LINE      CODE     ---       #517
      00FF5769H   LINE      CODE     ---       #518
      00FF576BH   LINE      CODE     ---       #521
      00FF5771H   LINE      CODE     ---       #522
      00FF5771H   LINE      CODE     ---       #523
      00FF5775H   LINE      CODE     ---       #524
      ---         BLOCKEND  ---      ---       LVL=0

      00FF4B7CH   BLOCK     CODE     ---       LVL=0
      00000871H   SYMBOL    EDATA    ---       enables
      REG=3       REGSYM    ---      ---       timeouts
      00FF4B84H   BLOCK     CODE     NEAR LAB  LVL=1
      00000875H   SYMBOL    EDATA    ---       reg_buffer
      WR6         REGSYM    ---      WORD      reg16_buffer
      ---         BLOCKEND  ---      ---       LVL=1
      00FF4B7CH   LINE      CODE     ---       #534
      00FF4B84H   LINE      CODE     ---       #535
      00FF4B84H   LINE      CODE     ---       #537
      00FF4B84H   LINE      CODE     ---       #539
      00FF4B8EH   LINE      CODE     ---       #541
      00FF4BA2H   LINE      CODE     ---       #542
      00FF4BAEH   LINE      CODE     ---       #543
      00FF4BBCH   LINE      CODE     ---       #545
      00FF4BD0H   LINE      CODE     ---       #546
      00FF4BDCH   LINE      CODE     ---       #547
      00FF4BE3H   LINE      CODE     ---       #548
      00FF4BF1H   LINE      CODE     ---       #550
      00FF4BFEH   LINE      CODE     ---       #552
      00FF4C12H   LINE      CODE     ---       #553
      00FF4C1EH   LINE      CODE     ---       #554
      00FF4C25H   LINE      CODE     ---       #556
      00FF4C2FH   LINE      CODE     ---       #558
      00FF4C41H   LINE      CODE     ---       #559
      00FF4C41H   LINE      CODE     ---       #561
      00FF4C54H   LINE      CODE     ---       #562
      ---         BLOCKEND  ---      ---       LVL=0
      R10         REGSYM    ---      BYTE      vhv_init_byte
      R15         REGSYM    ---      BYTE      return_state
      DR12        REGSYM    ---      DWORD     budget_us
      WR6         REGSYM    ---      WORD      dat
      DR4         REGSYM    ---      DWORD     final_range_timeout_us
      WR6         REGSYM    ---      WORD      final_range_timeout_mclks
      DR12        REGSYM    ---      DWORD     budget_us
      DR4         REGSYM    ---      FLOAT     limit_mcps
      WR6         REGSYM    ---      WORD      limit_mcps_16bit
      R15         REGSYM    ---      BYTE      return_state
      R14         REGSYM    ---      BYTE      reg_data_buffer
      R13         REGSYM    ---      BYTE      i

      ---         MODULE    ---      ---       SEEKFREE_FONT
      00FF20A6H   PUBLIC    CODE     ---       oled_8x16
      00FF2696H   PUBLIC    CODE     ---       tft_ascii
      00FF2C86H   PUBLIC    CODE     ---       oled_6x8
      000000D0H   SFRSYM    DATA     BYTE      PSW
      0000009DH   SFRSYM    DATA     BYTE      IRCBAND
      00000097H   SFRSYM    DATA     BYTE      AUXR2
      000000EFH   SFRSYM    DATA     BYTE      AUXINTIF
      000000FDH   SFRSYM    DATA     BYTE      S4CON
      000000ACH   SFRSYM    DATA     BYTE      S3CON
      0000009AH   SFRSYM    DATA     BYTE      S2CON
      000000B7H   SFRSYM    DATA     BYTE      IPH
L251 LINKER/LOCATER V4.66.93.0                                                        05/06/2023  18:04:44  PAGE 57


      000000CDH   SFRSYM    DATA     BYTE      SPSTAT
      000000DDH   SFRSYM    DATA     BYTE      T4T3M
      000000C1H   SFRSYM    DATA     BYTE      WDT_CONTR
      000000DFH   SFRSYM    DATA     BYTE      IP3
      000000F4H   SFRSYM    DATA     BYTE      USBCON
      000000B5H   SFRSYM    DATA     BYTE      IP2
      000000FFH   SFRSYM    DATA     BYTE      RSTCFG
      000000F9H   SFRSYM    DATA     BYTE      LINICR
      0000008EH   SFRSYM    DATA     BYTE      AUXR
      000000AFH   SFRSYM    DATA     BYTE      IE2
      00000088H   SFRSYM    DATA     BYTE      TCON
      00000098H   SFRSYM    DATA     BYTE      SCON
      000000F1H   SFRSYM    DATA     BYTE      CANICR
      00000087H   SFRSYM    DATA     BYTE      PCON
      000000BCH   SFRSYM    DATA     BYTE      ADC_CONTR
      000000E7H   SFRSYM    DATA     BYTE      CMPCR2
      000000E6H   SFRSYM    DATA     BYTE      CMPCR1
      000000B8H   SFRSYM    DATA     BYTE      IP
      0000008FH   SFRSYM    DATA     BYTE      INTCLKO
      000000EEH   SFRSYM    DATA     BYTE      IP3H
      000000B6H   SFRSYM    DATA     BYTE      IP2H
      000000A8H   SFRSYM    DATA     BYTE      IE
      000000BBH   SFRSYM    DATA     BYTE      P_SW3
      000000BAH   SFRSYM    DATA     BYTE      P_SW2
      000000A2H   SFRSYM    DATA     BYTE      P_SW1
      000000CEH   SFRSYM    DATA     BYTE      SPCTL
      000000F8H   SFRSYM    DATA     BYTE      P7
      000000E8H   SFRSYM    DATA     BYTE      P6
      000000C8H   SFRSYM    DATA     BYTE      P5
      000000C0H   SFRSYM    DATA     BYTE      P4
      000000B0H   SFRSYM    DATA     BYTE      P3
      000000A0H   SFRSYM    DATA     BYTE      P2
      00000090H   SFRSYM    DATA     BYTE      P1
      00000080H   SFRSYM    DATA     BYTE      P0

      ---         MODULE    ---      ---       SEEKFREE_ICM20602
      0000083DH   PUBLIC    EDATA    INT       icm20602_acc_x
      0000083FH   PUBLIC    EDATA    INT       icm20602_acc_y
      00000841H   PUBLIC    EDATA    INT       icm20602_acc_z
      00000843H   PUBLIC    EDATA    INT       icm20602_gyro_x
      00000845H   PUBLIC    EDATA    INT       icm20602_gyro_y
      00000847H   PUBLIC    EDATA    INT       icm20602_gyro_z
      000000D0H   SFRSYM    DATA     BYTE      PSW
      0000009DH   SFRSYM    DATA     BYTE      IRCBAND
      00000097H   SFRSYM    DATA     BYTE      AUXR2
      000000EFH   SFRSYM    DATA     BYTE      AUXINTIF
      000000FDH   SFRSYM    DATA     BYTE      S4CON
      000000ACH   SFRSYM    DATA     BYTE      S3CON
      0000009AH   SFRSYM    DATA     BYTE      S2CON
      000000B7H   SFRSYM    DATA     BYTE      IPH
      000000CDH   SFRSYM    DATA     BYTE      SPSTAT
      000000DDH   SFRSYM    DATA     BYTE      T4T3M
      000000C1H   SFRSYM    DATA     BYTE      WDT_CONTR
      000000DFH   SFRSYM    DATA     BYTE      IP3
      000000F4H   SFRSYM    DATA     BYTE      USBCON
      000000B5H   SFRSYM    DATA     BYTE      IP2
      000000FFH   SFRSYM    DATA     BYTE      RSTCFG
      000000F9H   SFRSYM    DATA     BYTE      LINICR
      0000008EH   SFRSYM    DATA     BYTE      AUXR
      000000AFH   SFRSYM    DATA     BYTE      IE2
      000000C0H.3 SFRSYM    DATA     BIT       P43
      000000C0H.2 SFRSYM    DATA     BIT       P42
      00000088H   SFRSYM    DATA     BYTE      TCON
      000000C0H.1 SFRSYM    DATA     BIT       P41
      00000098H   SFRSYM    DATA     BYTE      SCON
L251 LINKER/LOCATER V4.66.93.0                                                        05/06/2023  18:04:44  PAGE 58


      000000C0H.0 SFRSYM    DATA     BIT       P40
      000000F1H   SFRSYM    DATA     BYTE      CANICR
      00000087H   SFRSYM    DATA     BYTE      PCON
      000000BCH   SFRSYM    DATA     BYTE      ADC_CONTR
      000000E7H   SFRSYM    DATA     BYTE      CMPCR2
      000000E6H   SFRSYM    DATA     BYTE      CMPCR1
      000000B8H   SFRSYM    DATA     BYTE      IP
      0000008FH   SFRSYM    DATA     BYTE      INTCLKO
      000000EEH   SFRSYM    DATA     BYTE      IP3H
      000000B6H   SFRSYM    DATA     BYTE      IP2H
      000000A8H   SFRSYM    DATA     BYTE      IE
      000000BBH   SFRSYM    DATA     BYTE      P_SW3
      000000BAH   SFRSYM    DATA     BYTE      P_SW2
      000000A2H   SFRSYM    DATA     BYTE      P_SW1
      000000CEH   SFRSYM    DATA     BYTE      SPCTL
      000000F8H   SFRSYM    DATA     BYTE      P7
      000000E8H   SFRSYM    DATA     BYTE      P6
      000000C8H   SFRSYM    DATA     BYTE      P5
      000000C0H   SFRSYM    DATA     BYTE      P4
      000000B0H   SFRSYM    DATA     BYTE      P3
      000000A0H   SFRSYM    DATA     BYTE      P2
      00000090H   SFRSYM    DATA     BYTE      P1
      00000080H   SFRSYM    DATA     BYTE      P0
      00FF5F74H   SYMBOL    CODE     ---       icm20602_read_register
      00FF5D1CH   SYMBOL    CODE     ---       icm20602_simspi_wr_byte
      00FF5B6DH   SYMBOL    CODE     ---       icm20602_simspi_r_reg_bytes
      00FF5EDFH   SYMBOL    CODE     ---       icm20602_simspi_r_reg_byte

      00FF5D1CH   BLOCK     CODE     ---       LVL=0
      R6          REGSYM    ---      BYTE      byte
      00FF5D1EH   BLOCK     CODE     NEAR LAB  LVL=1
      R7          REGSYM    ---      BYTE      i
      ---         BLOCKEND  ---      ---       LVL=1
      00FF5D1CH   LINE      CODE     ---       #270
      00FF5D1EH   LINE      CODE     ---       #271
      00FF5D1EH   LINE      CODE     ---       #274
      00FF5D20H   LINE      CODE     ---       #276
      00FF5D25H   LINE      CODE     ---       #277
      00FF5D27H   LINE      CODE     ---       #278
      00FF5D29H   LINE      CODE     ---       #279
      00FF5D2BH   LINE      CODE     ---       #281
      00FF5D2DH   LINE      CODE     ---       #282
      00FF5D2FH   LINE      CODE     ---       #283
      00FF5D35H   LINE      CODE     ---       #284
      00FF5D3CH   LINE      CODE     ---       #285
      00FF5D3EH   LINE      CODE     ---       #286
      ---         BLOCKEND  ---      ---       LVL=0
      R7          REGSYM    ---      BYTE      cmd
      R15         REGSYM    ---      BYTE      val

      00FF5EDFH   BLOCK     CODE     ---       LVL=0
      R7          REGSYM    ---      BYTE      cmd
      REG=3       REGSYM    ---      ---       val
      00FF5EDFH   LINE      CODE     ---       #332
      00FF5EE5H   LINE      CODE     ---       #335
      00FF5EE8H   LINE      CODE     ---       #336
      00FF5EEDH   LINE      CODE     ---       #337
      00FF5EF4H   LINE      CODE     ---       #339
      ---         BLOCKEND  ---      ---       LVL=0

      00FF5B6DH   BLOCK     CODE     ---       LVL=0
      R7          REGSYM    ---      BYTE      cmd
      REG=3       REGSYM    ---      ---       val
      00000884H   SYMBOL    EDATA    DWORD     num
      00FF5B77H   BLOCK     CODE     NEAR LAB  LVL=1
L251 LINKER/LOCATER V4.66.93.0                                                        05/06/2023  18:04:44  PAGE 59


      ---         BLOCKEND  ---      ---       LVL=1
      00FF5B6DH   LINE      CODE     ---       #349
      00FF5B77H   LINE      CODE     ---       #350
      00FF5B77H   LINE      CODE     ---       #351
      00FF5B77H   LINE      CODE     ---       #352
      00FF5B7AH   LINE      CODE     ---       #353
      00FF5B7FH   LINE      CODE     ---       #355
      00FF5B81H   LINE      CODE     ---       #357
      00FF5B8AH   LINE      CODE     ---       #358
      00FF5B9AH   LINE      CODE     ---       #359
      ---         BLOCKEND  ---      ---       LVL=0
      R11         REGSYM    ---      BYTE      reg
      R7          REGSYM    ---      BYTE      dat

      00FF5F74H   BLOCK     CODE     ---       LVL=0
      R7          REGSYM    ---      BYTE      reg
      0000089FH   SYMBOL    EDATA    BYTE      dat
      00FF5F74H   LINE      CODE     ---       #399
      00FF5F74H   LINE      CODE     ---       #400
      00FF5F74H   LINE      CODE     ---       #402
      00FF5F76H   LINE      CODE     ---       #403
      00FF5F7FH   LINE      CODE     ---       #404
      00FF5F81H   LINE      CODE     ---       #405
      00FF5F85H   LINE      CODE     ---       #406
      ---         BLOCKEND  ---      ---       LVL=0
      R3          REGSYM    ---      BYTE      reg
      REG=1       REGSYM    ---      ---       dat
      DR28        REGSYM    ---      DWORD     len
      R14         REGSYM    ---      BYTE      dat
      R15         REGSYM    ---      BYTE      return_state
      WR12        REGSYM    ---      WORD      timeout_count
      WR8         REGSYM    ---      INT       acc_value
      DR4         REGSYM    ---      FLOAT     acc_data
      WR8         REGSYM    ---      INT       gyro_value
      DR4         REGSYM    ---      FLOAT     gyro_data
      R14         REGSYM    ---      BYTE      val
      R15         REGSYM    ---      BYTE      return_state
      WR12        REGSYM    ---      WORD      timeout_count

      ---         MODULE    ---      ---       SEEKFREE_IMU660RA
      00000849H   PUBLIC    EDATA    INT       imu660ra_acc_x
      0000084BH   PUBLIC    EDATA    INT       imu660ra_acc_y
      0000084DH   PUBLIC    EDATA    INT       imu660ra_acc_z
      0000084FH   PUBLIC    EDATA    INT       imu660ra_gyro_x
      00000851H   PUBLIC    EDATA    INT       imu660ra_gyro_y
      00000853H   PUBLIC    EDATA    INT       imu660ra_gyro_z
      000000D0H   SFRSYM    DATA     BYTE      PSW
      0000009DH   SFRSYM    DATA     BYTE      IRCBAND
      00000097H   SFRSYM    DATA     BYTE      AUXR2
      000000EFH   SFRSYM    DATA     BYTE      AUXINTIF
      000000FDH   SFRSYM    DATA     BYTE      S4CON
      000000ACH   SFRSYM    DATA     BYTE      S3CON
      0000009AH   SFRSYM    DATA     BYTE      S2CON
      000000B7H   SFRSYM    DATA     BYTE      IPH
      000000CDH   SFRSYM    DATA     BYTE      SPSTAT
      000000DDH   SFRSYM    DATA     BYTE      T4T3M
      000000C1H   SFRSYM    DATA     BYTE      WDT_CONTR
      000000DFH   SFRSYM    DATA     BYTE      IP3
      000000F4H   SFRSYM    DATA     BYTE      USBCON
      000000B5H   SFRSYM    DATA     BYTE      IP2
      000000FFH   SFRSYM    DATA     BYTE      RSTCFG
      000000F9H   SFRSYM    DATA     BYTE      LINICR
      0000008EH   SFRSYM    DATA     BYTE      AUXR
      000000AFH   SFRSYM    DATA     BYTE      IE2
      000000C0H.3 SFRSYM    DATA     BIT       P43
L251 LINKER/LOCATER V4.66.93.0                                                        05/06/2023  18:04:44  PAGE 60


      000000C0H.2 SFRSYM    DATA     BIT       P42
      00000088H   SFRSYM    DATA     BYTE      TCON
      000000C0H.1 SFRSYM    DATA     BIT       P41
      00000098H   SFRSYM    DATA     BYTE      SCON
      000000C0H.0 SFRSYM    DATA     BIT       P40
      000000F1H   SFRSYM    DATA     BYTE      CANICR
      00000087H   SFRSYM    DATA     BYTE      PCON
      000000BCH   SFRSYM    DATA     BYTE      ADC_CONTR
      000000E7H   SFRSYM    DATA     BYTE      CMPCR2
      000000E6H   SFRSYM    DATA     BYTE      CMPCR1
      000000B8H   SFRSYM    DATA     BYTE      IP
      0000008FH   SFRSYM    DATA     BYTE      INTCLKO
      000000EEH   SFRSYM    DATA     BYTE      IP3H
      000000B6H   SFRSYM    DATA     BYTE      IP2H
      000000A8H   SFRSYM    DATA     BYTE      IE
      000000BBH   SFRSYM    DATA     BYTE      P_SW3
      000000BAH   SFRSYM    DATA     BYTE      P_SW2
      000000A2H   SFRSYM    DATA     BYTE      P_SW1
      000000CEH   SFRSYM    DATA     BYTE      SPCTL
      000000F8H   SFRSYM    DATA     BYTE      P7
      000000E8H   SFRSYM    DATA     BYTE      P6
      000000C8H   SFRSYM    DATA     BYTE      P5
      000000C0H   SFRSYM    DATA     BYTE      P4
      000000B0H   SFRSYM    DATA     BYTE      P3
      000000A0H   SFRSYM    DATA     BYTE      P2
      00000090H   SFRSYM    DATA     BYTE      P1
      00000080H   SFRSYM    DATA     BYTE      P0
      00FF5F0EH   SYMBOL    CODE     ---       imu660ra_read_register
      00FF5D3FH   SYMBOL    CODE     ---       imu660ra_simspi_wr_byte
      00FF5B9DH   SYMBOL    CODE     ---       imu660ra_simspi_r_reg_bytes

      00FF5D3FH   BLOCK     CODE     ---       LVL=0
      R6          REGSYM    ---      BYTE      byte
      00FF5D41H   BLOCK     CODE     NEAR LAB  LVL=1
      R7          REGSYM    ---      BYTE      i
      ---         BLOCKEND  ---      ---       LVL=1
      00FF5D3FH   LINE      CODE     ---       #326
      00FF5D41H   LINE      CODE     ---       #327
      00FF5D41H   LINE      CODE     ---       #330
      00FF5D43H   LINE      CODE     ---       #332
      00FF5D48H   LINE      CODE     ---       #333
      00FF5D4AH   LINE      CODE     ---       #334
      00FF5D4CH   LINE      CODE     ---       #335
      00FF5D4EH   LINE      CODE     ---       #336
      00FF5D50H   LINE      CODE     ---       #337
      00FF5D52H   LINE      CODE     ---       #339
      00FF5D58H   LINE      CODE     ---       #340
      00FF5D5FH   LINE      CODE     ---       #341
      00FF5D61H   LINE      CODE     ---       #342
      ---         BLOCKEND  ---      ---       LVL=0
      R7          REGSYM    ---      BYTE      cmd
      R15         REGSYM    ---      BYTE      val
      R11         REGSYM    ---      BYTE      cmd
      DR12        REGSYM    ---      DWORD     len

      00FF5B9DH   BLOCK     CODE     ---       LVL=0
      R7          REGSYM    ---      BYTE      cmd
      REG=3       REGSYM    ---      ---       val
      00000888H   SYMBOL    EDATA    DWORD     num
      00FF5B9DH   LINE      CODE     ---       #399
      00FF5BA7H   LINE      CODE     ---       #401
      00FF5BAAH   LINE      CODE     ---       #402
      00FF5BAFH   LINE      CODE     ---       #404
      00FF5BB1H   LINE      CODE     ---       #406
      00FF5BBAH   LINE      CODE     ---       #407
L251 LINKER/LOCATER V4.66.93.0                                                        05/06/2023  18:04:44  PAGE 61


      00FF5BCAH   LINE      CODE     ---       #408
      ---         BLOCKEND  ---      ---       LVL=0
      R11         REGSYM    ---      BYTE      reg
      R7          REGSYM    ---      BYTE      dat
      R3          REGSYM    ---      BYTE      reg
      REG=1       REGSYM    ---      ---       dat
      DR28        REGSYM    ---      DWORD     len

      00FF5F0EH   BLOCK     CODE     ---       LVL=0
      R7          REGSYM    ---      BYTE      reg
      00000899H   SYMBOL    EDATA    ---       dat
      00FF5F0EH   LINE      CODE     ---       #449
      00FF5F0EH   LINE      CODE     ---       #450
      00FF5F0EH   LINE      CODE     ---       #452
      00FF5F10H   LINE      CODE     ---       #453
      00FF5F1DH   LINE      CODE     ---       #454
      00FF5F1FH   LINE      CODE     ---       #455
      00FF5F23H   LINE      CODE     ---       #456
      ---         BLOCKEND  ---      ---       LVL=0
      R3          REGSYM    ---      BYTE      reg
      REG=1       REGSYM    ---      ---       dat
      DR28        REGSYM    ---      DWORD     len
      R14         REGSYM    ---      BYTE      dat
      R15         REGSYM    ---      BYTE      return_state
      WR12        REGSYM    ---      WORD      timeout_count
      WR8         REGSYM    ---      INT       acc_value
      DR4         REGSYM    ---      FLOAT     acc_dat
      WR8         REGSYM    ---      INT       gyro_value
      DR4         REGSYM    ---      FLOAT     gyro_dat
      R15         REGSYM    ---      BYTE      return_state

      ---         MODULE    ---      ---       SEEKFREE_IMU963RA
      0000081BH   PUBLIC    EDATA    INT       imu963ra_acc_x
      0000081DH   PUBLIC    EDATA    INT       imu963ra_acc_y
      0000081FH   PUBLIC    EDATA    INT       imu963ra_acc_z
      00000821H   PUBLIC    EDATA    INT       imu963ra_mag_x
      00000823H   PUBLIC    EDATA    INT       imu963ra_mag_y
      00000825H   PUBLIC    EDATA    INT       imu963ra_mag_z
      00000827H   PUBLIC    EDATA    INT       imu963ra_gyro_x
      00000829H   PUBLIC    EDATA    INT       imu963ra_gyro_y
      0000082BH   PUBLIC    EDATA    INT       imu963ra_gyro_z
      000000D0H   SFRSYM    DATA     BYTE      PSW
      0000009DH   SFRSYM    DATA     BYTE      IRCBAND
      00000097H   SFRSYM    DATA     BYTE      AUXR2
      000000EFH   SFRSYM    DATA     BYTE      AUXINTIF
      000000FDH   SFRSYM    DATA     BYTE      S4CON
      000000ACH   SFRSYM    DATA     BYTE      S3CON
      0000009AH   SFRSYM    DATA     BYTE      S2CON
      000000B7H   SFRSYM    DATA     BYTE      IPH
      000000CDH   SFRSYM    DATA     BYTE      SPSTAT
      000000DDH   SFRSYM    DATA     BYTE      T4T3M
      000000C1H   SFRSYM    DATA     BYTE      WDT_CONTR
      000000DFH   SFRSYM    DATA     BYTE      IP3
      000000F4H   SFRSYM    DATA     BYTE      USBCON
      000000B5H   SFRSYM    DATA     BYTE      IP2
      000000FFH   SFRSYM    DATA     BYTE      RSTCFG
      000000F9H   SFRSYM    DATA     BYTE      LINICR
      0000008EH   SFRSYM    DATA     BYTE      AUXR
      000000AFH   SFRSYM    DATA     BYTE      IE2
      000000C0H.4 SFRSYM    DATA     BIT       P44
      000000C0H.3 SFRSYM    DATA     BIT       P43
      000000C0H.2 SFRSYM    DATA     BIT       P42
      00000088H   SFRSYM    DATA     BYTE      TCON
      000000C0H.1 SFRSYM    DATA     BIT       P41
      00000098H   SFRSYM    DATA     BYTE      SCON
L251 LINKER/LOCATER V4.66.93.0                                                        05/06/2023  18:04:44  PAGE 62


      000000F1H   SFRSYM    DATA     BYTE      CANICR
      00000087H   SFRSYM    DATA     BYTE      PCON
      000000BCH   SFRSYM    DATA     BYTE      ADC_CONTR
      000000E7H   SFRSYM    DATA     BYTE      CMPCR2
      000000E6H   SFRSYM    DATA     BYTE      CMPCR1
      000000B8H   SFRSYM    DATA     BYTE      IP
      0000008FH   SFRSYM    DATA     BYTE      INTCLKO
      000000EEH   SFRSYM    DATA     BYTE      IP3H
      000000B6H   SFRSYM    DATA     BYTE      IP2H
      000000A8H   SFRSYM    DATA     BYTE      IE
      000000BBH   SFRSYM    DATA     BYTE      P_SW3
      000000BAH   SFRSYM    DATA     BYTE      P_SW2
      000000A2H   SFRSYM    DATA     BYTE      P_SW1
      000000CEH   SFRSYM    DATA     BYTE      SPCTL
      000000F8H   SFRSYM    DATA     BYTE      P7
      000000E8H   SFRSYM    DATA     BYTE      P6
      000000C8H   SFRSYM    DATA     BYTE      P5
      000000C0H   SFRSYM    DATA     BYTE      P4
      000000B0H   SFRSYM    DATA     BYTE      P3
      000000A0H   SFRSYM    DATA     BYTE      P2
      00000090H   SFRSYM    DATA     BYTE      P1
      00000080H   SFRSYM    DATA     BYTE      P0
      00FF5D62H   SYMBOL    CODE     ---       imu963ra_simspi_wr_byte
      00FF5687H   SYMBOL    CODE     ---       imu963ra_read_mag_register
      00FF5E60H   SYMBOL    CODE     ---       imu963ra_read_acc_gyro_register
      00FF0066H   SYMBOL    CODE     ---       imu963ra_simspi_r_reg_byte
      00FF602EH   SYMBOL    CODE     ---       imu963ra_write_acc_gyro_register
      00FF5F4EH   SYMBOL    CODE     ---       imu963ra_simspi_w_reg_byte

      00FF5D62H   BLOCK     CODE     ---       LVL=0
      R6          REGSYM    ---      BYTE      byte
      00FF5D64H   BLOCK     CODE     NEAR LAB  LVL=1
      R7          REGSYM    ---      BYTE      i
      ---         BLOCKEND  ---      ---       LVL=1
      00FF5D62H   LINE      CODE     ---       #361
      00FF5D64H   LINE      CODE     ---       #362
      00FF5D64H   LINE      CODE     ---       #365
      00FF5D66H   LINE      CODE     ---       #367
      00FF5D6BH   LINE      CODE     ---       #368
      00FF5D6DH   LINE      CODE     ---       #369
      00FF5D6FH   LINE      CODE     ---       #370
      00FF5D71H   LINE      CODE     ---       #372
      00FF5D73H   LINE      CODE     ---       #373
      00FF5D75H   LINE      CODE     ---       #374
      00FF5D7BH   LINE      CODE     ---       #375
      00FF5D82H   LINE      CODE     ---       #376
      00FF5D84H   LINE      CODE     ---       #377
      ---         BLOCKEND  ---      ---       LVL=0

      00FF5F4EH   BLOCK     CODE     ---       LVL=0
      R7          REGSYM    ---      BYTE      cmd
      R15         REGSYM    ---      BYTE      val
      00FF5F4EH   LINE      CODE     ---       #385
      00FF5F52H   LINE      CODE     ---       #387
      00FF5F54H   LINE      CODE     ---       #388
      00FF5F54H   LINE      CODE     ---       #389
      00FF5F57H   LINE      CODE     ---       #390
      00FF5F5CH   LINE      CODE     ---       #391
      00FF5F5EH   LINE      CODE     ---       #392
      ---         BLOCKEND  ---      ---       LVL=0

      00FF0066H   BLOCK     CODE     ---       LVL=0
      R7          REGSYM    ---      BYTE      cmd
      REG=3       REGSYM    ---      ---       val
      00FF0066H   LINE      CODE     ---       #423
L251 LINKER/LOCATER V4.66.93.0                                                        05/06/2023  18:04:44  PAGE 63


      00FF006CH   LINE      CODE     ---       #425
      00FF006EH   LINE      CODE     ---       #426
      00FF0071H   LINE      CODE     ---       #427
      00FF0076H   LINE      CODE     ---       #428
      00FF007DH   LINE      CODE     ---       #429
      00FF007FH   LINE      CODE     ---       #430
      ---         BLOCKEND  ---      ---       LVL=0
      R7          REGSYM    ---      BYTE      cmd
      REG=3       REGSYM    ---      ---       val

      00FF602EH   BLOCK     CODE     ---       LVL=0
      R11         REGSYM    ---      BYTE      reg
      R7          REGSYM    ---      BYTE      dat
      00FF602EH   LINE      CODE     ---       #462
      00FF602EH   LINE      CODE     ---       #464
      00FF6030H   LINE      CODE     ---       #465
      00FF6033H   LINE      CODE     ---       #467
      00FF6035H   LINE      CODE     ---       #468
      ---         BLOCKEND  ---      ---       LVL=0

      00FF5E60H   BLOCK     CODE     ---       LVL=0
      R10         REGSYM    ---      BYTE      reg
      00FF5E62H   BLOCK     CODE     NEAR LAB  LVL=1
      000008A0H   SYMBOL    EDATA    BYTE      dat
      ---         BLOCKEND  ---      ---       LVL=1
      00FF5E60H   LINE      CODE     ---       #477
      00FF5E62H   LINE      CODE     ---       #478
      00FF5E62H   LINE      CODE     ---       #479
      00FF5E67H   LINE      CODE     ---       #480
      00FF5E69H   LINE      CODE     ---       #481
      00FF5E74H   LINE      CODE     ---       #482
      00FF5E76H   LINE      CODE     ---       #483
      00FF5E7AH   LINE      CODE     ---       #484
      ---         BLOCKEND  ---      ---       LVL=0
      R3          REGSYM    ---      BYTE      reg
      REG=1       REGSYM    ---      ---       dat
      DR28        REGSYM    ---      DWORD     len
      R15         REGSYM    ---      BYTE      addr
      R13         REGSYM    ---      BYTE      reg
      R14         REGSYM    ---      BYTE      dat
      R12         REGSYM    ---      BYTE      return_state

      00FF5687H   BLOCK     CODE     ---       LVL=0
      R10         REGSYM    ---      BYTE      addr
      R15         REGSYM    ---      BYTE      reg
      00FF568FH   BLOCK     CODE     NEAR LAB  LVL=1
      WR12        REGSYM    ---      WORD      timeout_count
      ---         BLOCKEND  ---      ---       LVL=1
      00FF5687H   LINE      CODE     ---       #546
      00FF568FH   LINE      CODE     ---       #547
      00FF568FH   LINE      CODE     ---       #548
      00FF5691H   LINE      CODE     ---       #550
      00FF5693H   LINE      CODE     ---       #551
      00FF569DH   LINE      CODE     ---       #552
      00FF56A4H   LINE      CODE     ---       #553
      00FF56ACH   LINE      CODE     ---       #554
      00FF56B4H   LINE      CODE     ---       #557
      00FF56B6H   LINE      CODE     ---       #559
      00FF56C0H   LINE      CODE     ---       #561
      00FF56C0H   LINE      CODE     ---       #562
      00FF56C0H   LINE      CODE     ---       #563
      00FF56C7H   LINE      CODE     ---       #564
      00FF56CFH   LINE      CODE     ---       #566
      00FF56D4H   LINE      CODE     ---       #567
      ---         BLOCKEND  ---      ---       LVL=0
L251 LINKER/LOCATER V4.66.93.0                                                        05/06/2023  18:04:44  PAGE 64


      R10         REGSYM    ---      BYTE      addr
      R15         REGSYM    ---      BYTE      reg
      R15         REGSYM    ---      BYTE      return_state
      R14         REGSYM    ---      BYTE      dat
      WR12        REGSYM    ---      WORD      timeout_count
      R15         REGSYM    ---      BYTE      return_state
      R14         REGSYM    ---      BYTE      dat
      WR12        REGSYM    ---      WORD      timeout_count
      R11         REGSYM    ---      BYTE      temp_status
      WR8         REGSYM    ---      INT       mag_value
      DR4         REGSYM    ---      FLOAT     mag_dat
      R15         REGSYM    ---      BYTE      return_state

      ---         MODULE    ---      ---       SEEKFREE_IPS114_SPI
      00FF5E05H   PUBLIC    CODE     ---       ips114_writedata_16bit
      00FF5C57H   PUBLIC    CODE     ---       ips114_writeDatai_16bit_simspi
      00FF5C83H   PUBLIC    CODE     ---       ips114_writeIndex_simspi
      00FF601BH   PUBLIC    CODE     ---       ips114_writeIndex
      000000D0H   SFRSYM    DATA     BYTE      PSW
      0000009DH   SFRSYM    DATA     BYTE      IRCBAND
      00000097H   SFRSYM    DATA     BYTE      AUXR2
      000000EFH   SFRSYM    DATA     BYTE      AUXINTIF
      000000FDH   SFRSYM    DATA     BYTE      S4CON
      000000ACH   SFRSYM    DATA     BYTE      S3CON
      0000009AH   SFRSYM    DATA     BYTE      S2CON
      000000B7H   SFRSYM    DATA     BYTE      IPH
      000000CDH   SFRSYM    DATA     BYTE      SPSTAT
      000000DDH   SFRSYM    DATA     BYTE      T4T3M
      000000C1H   SFRSYM    DATA     BYTE      WDT_CONTR
      000000DFH   SFRSYM    DATA     BYTE      IP3
      000000F4H   SFRSYM    DATA     BYTE      USBCON
      000000B5H   SFRSYM    DATA     BYTE      IP2
      000000FFH   SFRSYM    DATA     BYTE      RSTCFG
      000000F9H   SFRSYM    DATA     BYTE      LINICR
      0000008EH   SFRSYM    DATA     BYTE      AUXR
      000000AFH   SFRSYM    DATA     BYTE      IE2
      000000A0H.7 SFRSYM    DATA     BIT       P27
      000000A0H.5 SFRSYM    DATA     BIT       P25
      00000088H   SFRSYM    DATA     BYTE      TCON
      000000A0H.3 SFRSYM    DATA     BIT       P23
      00000098H   SFRSYM    DATA     BYTE      SCON
      000000A0H.2 SFRSYM    DATA     BIT       P22
      000000A0H.1 SFRSYM    DATA     BIT       P21
      000000A0H.0 SFRSYM    DATA     BIT       P20
      000000F1H   SFRSYM    DATA     BYTE      CANICR
      00000087H   SFRSYM    DATA     BYTE      PCON
      000000BCH   SFRSYM    DATA     BYTE      ADC_CONTR
      000000E7H   SFRSYM    DATA     BYTE      CMPCR2
      000000E6H   SFRSYM    DATA     BYTE      CMPCR1
      000000B8H   SFRSYM    DATA     BYTE      IP
      0000008FH   SFRSYM    DATA     BYTE      INTCLKO
      000000EEH   SFRSYM    DATA     BYTE      IP3H
      000000B6H   SFRSYM    DATA     BYTE      IP2H
      000000A8H   SFRSYM    DATA     BYTE      IE
      000000BBH   SFRSYM    DATA     BYTE      P_SW3
      000000BAH   SFRSYM    DATA     BYTE      P_SW2
      000000A2H   SFRSYM    DATA     BYTE      P_SW1
      000000CEH   SFRSYM    DATA     BYTE      SPCTL
      000000F8H   SFRSYM    DATA     BYTE      P7
      000000E8H   SFRSYM    DATA     BYTE      P6
      000000C8H   SFRSYM    DATA     BYTE      P5
      000000C0H   SFRSYM    DATA     BYTE      P4
      000000B0H   SFRSYM    DATA     BYTE      P3
      000000A0H   SFRSYM    DATA     BYTE      P2
      00000090H   SFRSYM    DATA     BYTE      P1
L251 LINKER/LOCATER V4.66.93.0                                                        05/06/2023  18:04:44  PAGE 65


      00000080H   SFRSYM    DATA     BYTE      P0

      00FF5C83H   BLOCK     CODE     ---       LVL=0
      R7          REGSYM    ---      BYTE      dat
      00FF5C85H   BLOCK     CODE     NEAR LAB  LVL=1
      R6          REGSYM    ---      BYTE      i
      ---         BLOCKEND  ---      ---       LVL=1
      00FF5C83H   LINE      CODE     ---       #61
      00FF5C85H   LINE      CODE     ---       #62
      00FF5C85H   LINE      CODE     ---       #63
      00FF5C88H   LINE      CODE     ---       #64
      00FF5C8AH   LINE      CODE     ---       #65
      00FF5C8CH   LINE      CODE     ---       #67
      00FF5C8EH   LINE      CODE     ---       #69
      00FF5C90H   LINE      CODE     ---       #71
      00FF5C99H   LINE      CODE     ---       #72
      00FF5C9BH   LINE      CODE     ---       #73
      00FF5C9DH   LINE      CODE     ---       #75
      00FF5C9FH   LINE      CODE     ---       #76
      00FF5CA1H   LINE      CODE     ---       #77
      00FF5CA9H   LINE      CODE     ---       #78
      00FF5CABH   LINE      CODE     ---       #79
      ---         BLOCKEND  ---      ---       LVL=0
      R7          REGSYM    ---      BYTE      dat
      R6          REGSYM    ---      BYTE      i

      00FF5C57H   BLOCK     CODE     ---       LVL=0
      WR4         REGSYM    ---      WORD      dat
      00FF5C59H   BLOCK     CODE     NEAR LAB  LVL=1
      R10         REGSYM    ---      BYTE      i
      ---         BLOCKEND  ---      ---       LVL=1
      00FF5C57H   LINE      CODE     ---       #115
      00FF5C59H   LINE      CODE     ---       #116
      00FF5C59H   LINE      CODE     ---       #117
      00FF5C5CH   LINE      CODE     ---       #118
      00FF5C5EH   LINE      CODE     ---       #119
      00FF5C60H   LINE      CODE     ---       #120
      00FF5C62H   LINE      CODE     ---       #121
      00FF5C64H   LINE      CODE     ---       #123
      00FF5C70H   LINE      CODE     ---       #124
      00FF5C72H   LINE      CODE     ---       #125
      00FF5C74H   LINE      CODE     ---       #127
      00FF5C76H   LINE      CODE     ---       #128
      00FF5C78H   LINE      CODE     ---       #129
      00FF5C80H   LINE      CODE     ---       #130
      00FF5C82H   LINE      CODE     ---       #131
      ---         BLOCKEND  ---      ---       LVL=0
      WR12        REGSYM    ---      WORD      x2
      WR14        REGSYM    ---      WORD      y2
      WR14        REGSYM    ---      WORD      color
      R13         REGSYM    ---      BYTE      i
      WR2         REGSYM    ---      WORD      x
      WR0         REGSYM    ---      WORD      y
      WR14        REGSYM    ---      WORD      color
      WR12        REGSYM    ---      WORD      x
      WR14        REGSYM    ---      WORD      y
      REG=3       REGSYM    ---      ---       dat
      WR12        REGSYM    ---      WORD      x
      WR14        REGSYM    ---      WORD      y
      WR12        REGSYM    ---      WORD      x
      WR14        REGSYM    ---      WORD      y
      R10         REGSYM    ---      BYTE      dat
      WR12        REGSYM    ---      WORD      x
      WR14        REGSYM    ---      WORD      y
      WR12        REGSYM    ---      WORD      x
L251 LINKER/LOCATER V4.66.93.0                                                        05/06/2023  18:04:44  PAGE 66


      WR14        REGSYM    ---      WORD      y
      WR2         REGSYM    ---      WORD      dat
      WR12        REGSYM    ---      WORD      y
      R15         REGSYM    ---      BYTE      num
      R14         REGSYM    ---      BYTE      length
      DR12        REGSYM    ---      FLOAT     dat
      R7          REGSYM    ---      CHAR      point

      00FF601BH   BLOCK     CODE     ---       LVL=0
      R7          REGSYM    ---      BYTE      dat
      00FF601BH   LINE      CODE     ---       #594
      00FF601BH   LINE      CODE     ---       #596
      00FF601DH   LINE      CODE     ---       #597
      00FF601FH   LINE      CODE     ---       #599
      00FF6022H   LINE      CODE     ---       #600
      00FF6024H   LINE      CODE     ---       #601
      ---         BLOCKEND  ---      ---       LVL=0
      R7          REGSYM    ---      BYTE      dat

      00FF5E05H   BLOCK     CODE     ---       LVL=0
      WR4         REGSYM    ---      WORD      dat
      00FF5E07H   BLOCK     CODE     NEAR LAB  LVL=1
      0000089BH   SYMBOL    EDATA    ---       dat1
      ---         BLOCKEND  ---      ---       LVL=1
      00FF5E05H   LINE      CODE     ---       #626
      00FF5E07H   LINE      CODE     ---       #627
      00FF5E07H   LINE      CODE     ---       #629
      00FF5E0BH   LINE      CODE     ---       #630
      00FF5E0FH   LINE      CODE     ---       #631
      00FF5E11H   LINE      CODE     ---       #632
      00FF5E13H   LINE      CODE     ---       #633
      00FF5E1AH   LINE      CODE     ---       #634
      00FF5E21H   LINE      CODE     ---       #635
      00FF5E23H   LINE      CODE     ---       #636
      ---         BLOCKEND  ---      ---       LVL=0
      WR12        REGSYM    ---      WORD      x2
      WR14        REGSYM    ---      WORD      y2
      WR14        REGSYM    ---      WORD      color
      R13         REGSYM    ---      BYTE      i
      WR2         REGSYM    ---      WORD      x
      WR0         REGSYM    ---      WORD      y
      WR14        REGSYM    ---      WORD      color
      WR12        REGSYM    ---      WORD      x
      WR14        REGSYM    ---      WORD      y
      REG=3       REGSYM    ---      ---       dat
      WR12        REGSYM    ---      WORD      x
      WR14        REGSYM    ---      WORD      y
      WR12        REGSYM    ---      WORD      x
      WR14        REGSYM    ---      WORD      y
      R10         REGSYM    ---      BYTE      dat
      WR12        REGSYM    ---      WORD      x
      WR14        REGSYM    ---      WORD      y
      WR12        REGSYM    ---      WORD      x
      WR14        REGSYM    ---      WORD      y
      WR2         REGSYM    ---      WORD      dat
      WR12        REGSYM    ---      WORD      y
      R15         REGSYM    ---      BYTE      num
      R14         REGSYM    ---      BYTE      length
      DR12        REGSYM    ---      FLOAT     dat
      R7          REGSYM    ---      CHAR      point

      ---         MODULE    ---      ---       SEEKFREE_MPU6050
      00000855H   PUBLIC    EDATA    INT       mpu6050_acc_x
      00000857H   PUBLIC    EDATA    INT       mpu6050_acc_y
      00000859H   PUBLIC    EDATA    INT       mpu6050_acc_z
L251 LINKER/LOCATER V4.66.93.0                                                        05/06/2023  18:04:44  PAGE 67


      0000085BH   PUBLIC    EDATA    INT       mpu6050_gyro_x
      0000085DH   PUBLIC    EDATA    INT       mpu6050_gyro_y
      0000085FH   PUBLIC    EDATA    INT       mpu6050_gyro_z
      000000D0H   SFRSYM    DATA     BYTE      PSW
      0000009DH   SFRSYM    DATA     BYTE      IRCBAND
      00000097H   SFRSYM    DATA     BYTE      AUXR2
      000000EFH   SFRSYM    DATA     BYTE      AUXINTIF
      000000FDH   SFRSYM    DATA     BYTE      S4CON
      000000ACH   SFRSYM    DATA     BYTE      S3CON
      0000009AH   SFRSYM    DATA     BYTE      S2CON
      000000B7H   SFRSYM    DATA     BYTE      IPH
      000000CDH   SFRSYM    DATA     BYTE      SPSTAT
      000000DDH   SFRSYM    DATA     BYTE      T4T3M
      000000C1H   SFRSYM    DATA     BYTE      WDT_CONTR
      000000DFH   SFRSYM    DATA     BYTE      IP3
      000000F4H   SFRSYM    DATA     BYTE      USBCON
      000000B5H   SFRSYM    DATA     BYTE      IP2
      000000FFH   SFRSYM    DATA     BYTE      RSTCFG
      000000F9H   SFRSYM    DATA     BYTE      LINICR
      0000008EH   SFRSYM    DATA     BYTE      AUXR
      000000AFH   SFRSYM    DATA     BYTE      IE2
      00000088H   SFRSYM    DATA     BYTE      TCON
      000000C0H.1 SFRSYM    DATA     BIT       P41
      00000098H   SFRSYM    DATA     BYTE      SCON
      000000C0H.0 SFRSYM    DATA     BIT       P40
      000000F1H   SFRSYM    DATA     BYTE      CANICR
      00000087H   SFRSYM    DATA     BYTE      PCON
      000000BCH   SFRSYM    DATA     BYTE      ADC_CONTR
      000000E7H   SFRSYM    DATA     BYTE      CMPCR2
      000000E6H   SFRSYM    DATA     BYTE      CMPCR1
      000000B8H   SFRSYM    DATA     BYTE      IP
      0000008FH   SFRSYM    DATA     BYTE      INTCLKO
      000000EEH   SFRSYM    DATA     BYTE      IP3H
      000000B6H   SFRSYM    DATA     BYTE      IP2H
      000000A8H   SFRSYM    DATA     BYTE      IE
      000000BBH   SFRSYM    DATA     BYTE      P_SW3
      000000BAH   SFRSYM    DATA     BYTE      P_SW2
      000000A2H   SFRSYM    DATA     BYTE      P_SW1
      000000CEH   SFRSYM    DATA     BYTE      SPCTL
      000000F8H   SFRSYM    DATA     BYTE      P7
      000000E8H   SFRSYM    DATA     BYTE      P6
      000000C8H   SFRSYM    DATA     BYTE      P5
      000000C0H   SFRSYM    DATA     BYTE      P4
      000000B0H   SFRSYM    DATA     BYTE      P3
      000000A0H   SFRSYM    DATA     BYTE      P2
      00000090H   SFRSYM    DATA     BYTE      P1
      00000080H   SFRSYM    DATA     BYTE      P0
      00FF5FD8H   SYMBOL    CODE     ---       mpu6050_simiic_start
      00FF5FA8H   SYMBOL    CODE     ---       mpu6050_simiic_stop
      00FF5DC5H   SYMBOL    CODE     ---       mpu6050_simiic_sendack
      00FF6010H   SYMBOL    CODE     ---       mpu6050_simiic_delay

      00FF6010H   BLOCK     CODE     ---       LVL=0
      WR6         REGSYM    ---      WORD      j
      00FF6010H   LINE      CODE     ---       #52
      00FF6010H   LINE      CODE     ---       #53
      00FF6010H   LINE      CODE     ---       #54
      00FF6012H   LINE      CODE     ---       #55
      00FF601AH   LINE      CODE     ---       #56
      ---         BLOCKEND  ---      ---       LVL=0

      00FF5FD8H   BLOCK     CODE     ---       LVL=0
      00FF5FD8H   LINE      CODE     ---       #59
      00FF5FD8H   LINE      CODE     ---       #61
      00FF5FDAH   LINE      CODE     ---       #62
L251 LINKER/LOCATER V4.66.93.0                                                        05/06/2023  18:04:44  PAGE 68


      00FF5FDCH   LINE      CODE     ---       #63
      00FF5FDFH   LINE      CODE     ---       #64
      00FF5FE1H   LINE      CODE     ---       #65
      00FF5FE4H   LINE      CODE     ---       #66
      00FF5FE6H   LINE      CODE     ---       #67
      ---         BLOCKEND  ---      ---       LVL=0

      00FF5FA8H   BLOCK     CODE     ---       LVL=0
      00FF5FA8H   LINE      CODE     ---       #70
      00FF5FA8H   LINE      CODE     ---       #72
      00FF5FAAH   LINE      CODE     ---       #73
      00FF5FACH   LINE      CODE     ---       #74
      00FF5FAFH   LINE      CODE     ---       #75
      00FF5FB1H   LINE      CODE     ---       #76
      00FF5FB4H   LINE      CODE     ---       #77
      00FF5FB6H   LINE      CODE     ---       #78
      ---         BLOCKEND  ---      ---       LVL=0

      00FF5DC5H   BLOCK     CODE     ---       LVL=0
      R15         REGSYM    ---      BYTE      ack_dat
      00FF5DC5H   LINE      CODE     ---       #83
      00FF5DC9H   LINE      CODE     ---       #85
      00FF5DCBH   LINE      CODE     ---       #86
      00FF5DCEH   LINE      CODE     ---       #87
      00FF5DD6H   LINE      CODE     ---       #88
      00FF5DD8H   LINE      CODE     ---       #90
      00FF5DDAH   LINE      CODE     ---       #91
      00FF5DDDH   LINE      CODE     ---       #92
      00FF5DDFH   LINE      CODE     ---       #93
      00FF5DE2H   LINE      CODE     ---       #94
      ---         BLOCKEND  ---      ---       LVL=0
      R15         REGSYM    ---      BYTE      c
      R14         REGSYM    ---      BYTE      i
      R15         REGSYM    ---      BYTE      ack_x
      R13         REGSYM    ---      BYTE      i
      R14         REGSYM    ---      BYTE      c
      R13         REGSYM    ---      BYTE      dev_add
      R14         REGSYM    ---      BYTE      reg
      R15         REGSYM    ---      BYTE      dat
      R15         REGSYM    ---      BYTE      dev_add
      R14         REGSYM    ---      BYTE      reg
      R15         REGSYM    ---      BYTE      dat
      REG=3       REGSYM    ---      ---       dat_add

      ---         MODULE    ---      ---       SEEKFREE_PRINTF
      000000D0H   SFRSYM    DATA     BYTE      PSW
      0000009DH   SFRSYM    DATA     BYTE      IRCBAND
      00000097H   SFRSYM    DATA     BYTE      AUXR2
      000000EFH   SFRSYM    DATA     BYTE      AUXINTIF
      000000FDH   SFRSYM    DATA     BYTE      S4CON
      000000ACH   SFRSYM    DATA     BYTE      S3CON
      0000009AH   SFRSYM    DATA     BYTE      S2CON
      000000B7H   SFRSYM    DATA     BYTE      IPH
      000000CDH   SFRSYM    DATA     BYTE      SPSTAT
      000000DDH   SFRSYM    DATA     BYTE      T4T3M
      000000C1H   SFRSYM    DATA     BYTE      WDT_CONTR
      000000DFH   SFRSYM    DATA     BYTE      IP3
      000000F4H   SFRSYM    DATA     BYTE      USBCON
      000000B5H   SFRSYM    DATA     BYTE      IP2
      000000FFH   SFRSYM    DATA     BYTE      RSTCFG
      000000F9H   SFRSYM    DATA     BYTE      LINICR
      0000008EH   SFRSYM    DATA     BYTE      AUXR
      000000AFH   SFRSYM    DATA     BYTE      IE2
      00000088H   SFRSYM    DATA     BYTE      TCON
      00000098H   SFRSYM    DATA     BYTE      SCON
L251 LINKER/LOCATER V4.66.93.0                                                        05/06/2023  18:04:44  PAGE 69


      000000F1H   SFRSYM    DATA     BYTE      CANICR
      00000087H   SFRSYM    DATA     BYTE      PCON
      000000BCH   SFRSYM    DATA     BYTE      ADC_CONTR
      000000E7H   SFRSYM    DATA     BYTE      CMPCR2
      000000E6H   SFRSYM    DATA     BYTE      CMPCR1
      000000B8H   SFRSYM    DATA     BYTE      IP
      0000008FH   SFRSYM    DATA     BYTE      INTCLKO
      000000EEH   SFRSYM    DATA     BYTE      IP3H
      000000B6H   SFRSYM    DATA     BYTE      IP2H
      000000A8H   SFRSYM    DATA     BYTE      IE
      000000BBH   SFRSYM    DATA     BYTE      P_SW3
      000000BAH   SFRSYM    DATA     BYTE      P_SW2
      000000A2H   SFRSYM    DATA     BYTE      P_SW1
      000000CEH   SFRSYM    DATA     BYTE      SPCTL
      000000F8H   SFRSYM    DATA     BYTE      P7
      000000E8H   SFRSYM    DATA     BYTE      P6
      000000C8H   SFRSYM    DATA     BYTE      P5
      000000C0H   SFRSYM    DATA     BYTE      P4
      000000B0H   SFRSYM    DATA     BYTE      P3
      000000A0H   SFRSYM    DATA     BYTE      P2
      00000090H   SFRSYM    DATA     BYTE      P1
      00000080H   SFRSYM    DATA     BYTE      P0
      DR24        REGSYM    ---      DWORD     dat
      REG=7       REGSYM    ---      ---       p
      R10         REGSYM    ---      BYTE      neg_type
      DR20        REGSYM    ---      LONG      neg_dat
      DR24        REGSYM    ---      DWORD     pos_dat
      R14         REGSYM    ---      BYTE      temp_data
      R15         REGSYM    ---      BYTE      valid_num
      REG=7       REGSYM    ---      ---       d_buff
      DR24        REGSYM    ---      DWORD     len
      DR4         REGSYM    ---      DWORD     i
      R3          REGSYM    ---      CHAR      temp_data
      REG=3       REGSYM    ---      ---       buff

      ---         MODULE    ---      ---       SEEKFREE_TSL1401
      000003C9H   PUBLIC    EDATA    BYTE      tsl1401_finish_flag
      000003CAH   PUBLIC    EDATA    ---       ccd_data
      000000D0H   SFRSYM    DATA     BYTE      PSW
      0000009DH   SFRSYM    DATA     BYTE      IRCBAND
      00000097H   SFRSYM    DATA     BYTE      AUXR2
      000000EFH   SFRSYM    DATA     BYTE      AUXINTIF
      000000FDH   SFRSYM    DATA     BYTE      S4CON
      000000ACH   SFRSYM    DATA     BYTE      S3CON
      0000009AH   SFRSYM    DATA     BYTE      S2CON
      000000B7H   SFRSYM    DATA     BYTE      IPH
      000000CDH   SFRSYM    DATA     BYTE      SPSTAT
      000000DDH   SFRSYM    DATA     BYTE      T4T3M
      000000C1H   SFRSYM    DATA     BYTE      WDT_CONTR
      000000DFH   SFRSYM    DATA     BYTE      IP3
      000000F4H   SFRSYM    DATA     BYTE      USBCON
      000000B5H   SFRSYM    DATA     BYTE      IP2
      000000FFH   SFRSYM    DATA     BYTE      RSTCFG
      000000F9H   SFRSYM    DATA     BYTE      LINICR
      0000008EH   SFRSYM    DATA     BYTE      AUXR
      000000AFH   SFRSYM    DATA     BYTE      IE2
      000000B0H.3 SFRSYM    DATA     BIT       P33
      00000088H   SFRSYM    DATA     BYTE      TCON
      000000B0H.2 SFRSYM    DATA     BIT       P32
      00000098H   SFRSYM    DATA     BYTE      SCON
      000000F1H   SFRSYM    DATA     BYTE      CANICR
      00000087H   SFRSYM    DATA     BYTE      PCON
      000000BCH   SFRSYM    DATA     BYTE      ADC_CONTR
      000000E7H   SFRSYM    DATA     BYTE      CMPCR2
      000000E6H   SFRSYM    DATA     BYTE      CMPCR1
L251 LINKER/LOCATER V4.66.93.0                                                        05/06/2023  18:04:44  PAGE 70


      000000B8H   SFRSYM    DATA     BYTE      IP
      0000008FH   SFRSYM    DATA     BYTE      INTCLKO
      000000EEH   SFRSYM    DATA     BYTE      IP3H
      000000B6H   SFRSYM    DATA     BYTE      IP2H
      000000A8H   SFRSYM    DATA     BYTE      IE
      000000BBH   SFRSYM    DATA     BYTE      P_SW3
      000000BAH   SFRSYM    DATA     BYTE      P_SW2
      000000A2H   SFRSYM    DATA     BYTE      P_SW1
      000000CEH   SFRSYM    DATA     BYTE      SPCTL
      000000F8H   SFRSYM    DATA     BYTE      P7
      000000E8H   SFRSYM    DATA     BYTE      P6
      000000C8H   SFRSYM    DATA     BYTE      P5
      000000C0H   SFRSYM    DATA     BYTE      P4
      000000B0H   SFRSYM    DATA     BYTE      P3
      000000A0H   SFRSYM    DATA     BYTE      P2
      00000090H   SFRSYM    DATA     BYTE      P1
      00000080H   SFRSYM    DATA     BYTE      P0
      REG=3       REGSYM    ---      ---       dat
      R15         REGSYM    ---      BYTE      i

      ---         MODULE    ---      ---       SEEKFREE_VIRSCO
      00000861H   PUBLIC    EDATA    ---       virtual_scope_data
      000000D0H   SFRSYM    DATA     BYTE      PSW
      0000009DH   SFRSYM    DATA     BYTE      IRCBAND
      00000097H   SFRSYM    DATA     BYTE      AUXR2
      000000EFH   SFRSYM    DATA     BYTE      AUXINTIF
      000000FDH   SFRSYM    DATA     BYTE      S4CON
      000000ACH   SFRSYM    DATA     BYTE      S3CON
      0000009AH   SFRSYM    DATA     BYTE      S2CON
      000000B7H   SFRSYM    DATA     BYTE      IPH
      000000CDH   SFRSYM    DATA     BYTE      SPSTAT
      000000DDH   SFRSYM    DATA     BYTE      T4T3M
      000000C1H   SFRSYM    DATA     BYTE      WDT_CONTR
      000000DFH   SFRSYM    DATA     BYTE      IP3
      000000F4H   SFRSYM    DATA     BYTE      USBCON
      000000B5H   SFRSYM    DATA     BYTE      IP2
      000000FFH   SFRSYM    DATA     BYTE      RSTCFG
      000000F9H   SFRSYM    DATA     BYTE      LINICR
      0000008EH   SFRSYM    DATA     BYTE      AUXR
      000000AFH   SFRSYM    DATA     BYTE      IE2
      00000088H   SFRSYM    DATA     BYTE      TCON
      00000098H   SFRSYM    DATA     BYTE      SCON
      000000F1H   SFRSYM    DATA     BYTE      CANICR
      00000087H   SFRSYM    DATA     BYTE      PCON
      000000BCH   SFRSYM    DATA     BYTE      ADC_CONTR
      000000E7H   SFRSYM    DATA     BYTE      CMPCR2
      000000E6H   SFRSYM    DATA     BYTE      CMPCR1
      000000B8H   SFRSYM    DATA     BYTE      IP
      0000008FH   SFRSYM    DATA     BYTE      INTCLKO
      000000EEH   SFRSYM    DATA     BYTE      IP3H
      000000B6H   SFRSYM    DATA     BYTE      IP2H
      000000A8H   SFRSYM    DATA     BYTE      IE
      000000BBH   SFRSYM    DATA     BYTE      P_SW3
      000000BAH   SFRSYM    DATA     BYTE      P_SW2
      000000A2H   SFRSYM    DATA     BYTE      P_SW1
      000000CEH   SFRSYM    DATA     BYTE      SPCTL
      000000F8H   SFRSYM    DATA     BYTE      P7
      000000E8H   SFRSYM    DATA     BYTE      P6
      000000C8H   SFRSYM    DATA     BYTE      P5
      000000C0H   SFRSYM    DATA     BYTE      P4
      000000B0H   SFRSYM    DATA     BYTE      P3
      000000A0H   SFRSYM    DATA     BYTE      P2
      00000090H   SFRSYM    DATA     BYTE      P1
      00000080H   SFRSYM    DATA     BYTE      P0
      REG=7       REGSYM    ---      ---       Buf
L251 LINKER/LOCATER V4.66.93.0                                                        05/06/2023  18:04:44  PAGE 71


      R10         REGSYM    ---      BYTE      CRC_CNT
      WR6         REGSYM    ---      WORD      CRC_Temp
      R5          REGSYM    ---      BYTE      i
      R4          REGSYM    ---      BYTE      j
      WR0         REGSYM    ---      INT       data1
      WR30        REGSYM    ---      INT       data2
      WR8         REGSYM    ---      INT       data3
      WR10        REGSYM    ---      INT       data4
      WR6         REGSYM    ---      WORD      CRC16

      ---         MODULE    ---      ---       SEEKFREE_WIRELESS
      00FF5EADH   PUBLIC    CODE     ---       wireless_uart_callback
      000000D0H   SFRSYM    DATA     BYTE      PSW
      0000009DH   SFRSYM    DATA     BYTE      IRCBAND
      00000097H   SFRSYM    DATA     BYTE      AUXR2
      000000EFH   SFRSYM    DATA     BYTE      AUXINTIF
      000000FDH   SFRSYM    DATA     BYTE      S4CON
      000000ACH   SFRSYM    DATA     BYTE      S3CON
      0000009AH   SFRSYM    DATA     BYTE      S2CON
      000000FEH   SFRSYM    DATA     BYTE      S4BUF
      000000B7H   SFRSYM    DATA     BYTE      IPH
      000000CDH   SFRSYM    DATA     BYTE      SPSTAT
      000000DDH   SFRSYM    DATA     BYTE      T4T3M
      000000C1H   SFRSYM    DATA     BYTE      WDT_CONTR
      000000DFH   SFRSYM    DATA     BYTE      IP3
      000000F4H   SFRSYM    DATA     BYTE      USBCON
      000000B5H   SFRSYM    DATA     BYTE      IP2
      000000FFH   SFRSYM    DATA     BYTE      RSTCFG
      000000F9H   SFRSYM    DATA     BYTE      LINICR
      0000008EH   SFRSYM    DATA     BYTE      AUXR
      000000AFH   SFRSYM    DATA     BYTE      IE2
      00000080H.7 SFRSYM    DATA     BIT       P07
      00000088H   SFRSYM    DATA     BYTE      TCON
      00000098H   SFRSYM    DATA     BYTE      SCON
      000000F1H   SFRSYM    DATA     BYTE      CANICR
      00000087H   SFRSYM    DATA     BYTE      PCON
      000000BCH   SFRSYM    DATA     BYTE      ADC_CONTR
      000000E7H   SFRSYM    DATA     BYTE      CMPCR2
      000000E6H   SFRSYM    DATA     BYTE      CMPCR1
      000000B8H   SFRSYM    DATA     BYTE      IP
      0000008FH   SFRSYM    DATA     BYTE      INTCLKO
      000000EEH   SFRSYM    DATA     BYTE      IP3H
      000000B6H   SFRSYM    DATA     BYTE      IP2H
      000000A8H   SFRSYM    DATA     BYTE      IE
      000000BBH   SFRSYM    DATA     BYTE      P_SW3
      000000BAH   SFRSYM    DATA     BYTE      P_SW2
      000000A2H   SFRSYM    DATA     BYTE      P_SW1
      000000CEH   SFRSYM    DATA     BYTE      SPCTL
      000000F8H   SFRSYM    DATA     BYTE      P7
      000000E8H   SFRSYM    DATA     BYTE      P6
      000000C8H   SFRSYM    DATA     BYTE      P5
      000000C0H   SFRSYM    DATA     BYTE      P4
      000000B0H   SFRSYM    DATA     BYTE      P3
      000000A0H   SFRSYM    DATA     BYTE      P2
      00000090H   SFRSYM    DATA     BYTE      P1
      00000080H   SFRSYM    DATA     BYTE      P0
      00000733H   SYMBOL    EDATA    BYTE      wireless_uart_data
      00000734H   SYMBOL    EDATA    ---       wireless_uart_fifo
      00000748H   SYMBOL    EDATA    ---       wireless_uart_buffer

      00FF5EADH   BLOCK     CODE     ---       LVL=0
      00FF5EADH   LINE      CODE     ---       #48
      00FF5EADH   LINE      CODE     ---       #51
      00FF5EB3H   LINE      CODE     ---       #52
      ---         BLOCKEND  ---      ---       LVL=0
L251 LINKER/LOCATER V4.66.93.0                                                        05/06/2023  18:04:44  PAGE 72


      REG=3       REGSYM    ---      ---       buff
      REG=7       REGSYM    ---      ---       buff
      DR8         REGSYM    ---      DWORD     len

      ---         MODULE    ---      ---       SEEKFREE_WIRELESS_CH573
      00FF5EC6H   PUBLIC    CODE     ---       wireless_ch573_callback
      000000D0H   SFRSYM    DATA     BYTE      PSW
      0000009DH   SFRSYM    DATA     BYTE      IRCBAND
      00000097H   SFRSYM    DATA     BYTE      AUXR2
      000000EFH   SFRSYM    DATA     BYTE      AUXINTIF
      000000FDH   SFRSYM    DATA     BYTE      S4CON
      000000ACH   SFRSYM    DATA     BYTE      S3CON
      0000009AH   SFRSYM    DATA     BYTE      S2CON
      000000FEH   SFRSYM    DATA     BYTE      S4BUF
      000000B7H   SFRSYM    DATA     BYTE      IPH
      000000CDH   SFRSYM    DATA     BYTE      SPSTAT
      000000DDH   SFRSYM    DATA     BYTE      T4T3M
      000000C1H   SFRSYM    DATA     BYTE      WDT_CONTR
      000000DFH   SFRSYM    DATA     BYTE      IP3
      000000F4H   SFRSYM    DATA     BYTE      USBCON
      000000B5H   SFRSYM    DATA     BYTE      IP2
      000000FFH   SFRSYM    DATA     BYTE      RSTCFG
      000000F9H   SFRSYM    DATA     BYTE      LINICR
      0000008EH   SFRSYM    DATA     BYTE      AUXR
      000000AFH   SFRSYM    DATA     BYTE      IE2
      00000080H.7 SFRSYM    DATA     BIT       P07
      00000088H   SFRSYM    DATA     BYTE      TCON
      00000098H   SFRSYM    DATA     BYTE      SCON
      000000F1H   SFRSYM    DATA     BYTE      CANICR
      00000087H   SFRSYM    DATA     BYTE      PCON
      000000BCH   SFRSYM    DATA     BYTE      ADC_CONTR
      000000E7H   SFRSYM    DATA     BYTE      CMPCR2
      000000E6H   SFRSYM    DATA     BYTE      CMPCR1
      000000B8H   SFRSYM    DATA     BYTE      IP
      0000008FH   SFRSYM    DATA     BYTE      INTCLKO
      000000EEH   SFRSYM    DATA     BYTE      IP3H
      000000B6H   SFRSYM    DATA     BYTE      IP2H
      000000A8H   SFRSYM    DATA     BYTE      IE
      000000BBH   SFRSYM    DATA     BYTE      P_SW3
      000000BAH   SFRSYM    DATA     BYTE      P_SW2
      000000A2H   SFRSYM    DATA     BYTE      P_SW1
      000000CEH   SFRSYM    DATA     BYTE      SPCTL
      000000F8H   SFRSYM    DATA     BYTE      P7
      000000E8H   SFRSYM    DATA     BYTE      P6
      000000C8H   SFRSYM    DATA     BYTE      P5
      000000C0H   SFRSYM    DATA     BYTE      P4
      000000B0H   SFRSYM    DATA     BYTE      P3
      000000A0H   SFRSYM    DATA     BYTE      P2
      00000090H   SFRSYM    DATA     BYTE      P1
      00000080H   SFRSYM    DATA     BYTE      P0
      00000788H   SYMBOL    EDATA    ---       wireless_ch573_buffer
      000007C8H   SYMBOL    EDATA    BYTE      wireless_ch573_data
      000007C9H   SYMBOL    EDATA    ---       wireless_ch573_fifo

      00FF5EC6H   BLOCK     CODE     ---       LVL=0
      00FF5EC6H   LINE      CODE     ---       #39
      00FF5EC6H   LINE      CODE     ---       #42
      00FF5ECCH   LINE      CODE     ---       #43
      ---         BLOCKEND  ---      ---       LVL=0
      REG=3       REGSYM    ---      ---       buff
      REG=7       REGSYM    ---      ---       buff
      DR8         REGSYM    ---      DWORD     len

      ---         MODULE    ---      ---       isr
      00FF59E5H   PUBLIC    CODE     ---       UART1_Isr
L251 LINKER/LOCATER V4.66.93.0                                                        05/06/2023  18:04:44  PAGE 73


      00FF5E24H   PUBLIC    CODE     ---       UART2_Isr
      00FF5E42H   PUBLIC    CODE     ---       UART3_Isr
      00FF52E8H   PUBLIC    CODE     ---       UART4_Isr
      00FF6056H   PUBLIC    CODE     ---       INT0_Isr
      00FF0011H   PUBLIC    CODE     ---       INT1_Isr
      00FF6036H   PUBLIC    CODE     ---       INT2_Isr
      00FF603EH   PUBLIC    CODE     ---       INT3_Isr
      00FF6046H   PUBLIC    CODE     ---       INT4_Isr
      00FF0012H   PUBLIC    CODE     ---       TM0_Isr
      00FF0016H   PUBLIC    CODE     ---       TM1_Isr
      00FF604EH   PUBLIC    CODE     ---       TM2_Isr
      00FF4DCDH   PUBLIC    CODE     ---       TM3_Isr
      00FF45AEH   PUBLIC    CODE     ---       TM4_Isr
      000000D0H   SFRSYM    DATA     BYTE      PSW
      0000009DH   SFRSYM    DATA     BYTE      IRCBAND
      00000097H   SFRSYM    DATA     BYTE      AUXR2
      000000EFH   SFRSYM    DATA     BYTE      AUXINTIF
      000000FDH   SFRSYM    DATA     BYTE      S4CON
      000000ACH   SFRSYM    DATA     BYTE      S3CON
      0000009AH   SFRSYM    DATA     BYTE      S2CON
      000000B7H   SFRSYM    DATA     BYTE      IPH
      000000CDH   SFRSYM    DATA     BYTE      SPSTAT
      000000DDH   SFRSYM    DATA     BYTE      T4T3M
      000000C1H   SFRSYM    DATA     BYTE      WDT_CONTR
      000000DFH   SFRSYM    DATA     BYTE      IP3
      000000F4H   SFRSYM    DATA     BYTE      USBCON
      000000B5H   SFRSYM    DATA     BYTE      IP2
      000000FFH   SFRSYM    DATA     BYTE      RSTCFG
      000000C7H   SFRSYM    DATA     BYTE      IAP_CONTR
      000000F9H   SFRSYM    DATA     BYTE      LINICR
      0000008EH   SFRSYM    DATA     BYTE      AUXR
      000000AFH   SFRSYM    DATA     BYTE      IE2
      00000080H.7 SFRSYM    DATA     BIT       P07
      00000088H   SFRSYM    DATA     BYTE      TCON
      00000098H   SFRSYM    DATA     BYTE      SCON
      000000F1H   SFRSYM    DATA     BYTE      CANICR
      00000087H   SFRSYM    DATA     BYTE      PCON
      00000099H   SFRSYM    DATA     BYTE      SBUF
      000000BCH   SFRSYM    DATA     BYTE      ADC_CONTR
      000000E7H   SFRSYM    DATA     BYTE      CMPCR2
      000000E6H   SFRSYM    DATA     BYTE      CMPCR1
      000000B8H   SFRSYM    DATA     BYTE      IP
      0000008FH   SFRSYM    DATA     BYTE      INTCLKO
      000000EEH   SFRSYM    DATA     BYTE      IP3H
      000000B6H   SFRSYM    DATA     BYTE      IP2H
      000000A8H   SFRSYM    DATA     BYTE      IE
      000000BBH   SFRSYM    DATA     BYTE      P_SW3
      000000BAH   SFRSYM    DATA     BYTE      P_SW2
      000000A2H   SFRSYM    DATA     BYTE      P_SW1
      000000CEH   SFRSYM    DATA     BYTE      SPCTL
      000000F8H   SFRSYM    DATA     BYTE      P7
      000000E8H   SFRSYM    DATA     BYTE      P6
      000000C8H   SFRSYM    DATA     BYTE      P5
      000000C0H   SFRSYM    DATA     BYTE      P4
      000000B0H   SFRSYM    DATA     BYTE      P3
      000000A0H   SFRSYM    DATA     BYTE      P2
      00000090H   SFRSYM    DATA     BYTE      P1
      00000080H   SFRSYM    DATA     BYTE      P0

      00FF59E5H   BLOCK     CODE     ---       LVL=0
      00FF59E9H   BLOCK     CODE     NEAR LAB  LVL=1
      R11         REGSYM    ---      BYTE      res
      000008A1H   SYMBOL    EDATA    BYTE      dwon_count
      ---         BLOCKEND  ---      ---       LVL=1
      00FF59E5H   LINE      CODE     ---       #22
L251 LINKER/LOCATER V4.66.93.0                                                        05/06/2023  18:04:44  PAGE 74


      00FF59E9H   LINE      CODE     ---       #23
      00FF59E9H   LINE      CODE     ---       #26
      00FF59EEH   LINE      CODE     ---       #28
      00FF59F1H   LINE      CODE     ---       #29
      00FF59F6H   LINE      CODE     ---       #30
      00FF59F6H   LINE      CODE     ---       #31
      00FF59FBH   LINE      CODE     ---       #33
      00FF59FEH   LINE      CODE     ---       #34
      00FF5A00H   LINE      CODE     ---       #36
      00FF5A03H   LINE      CODE     ---       #38
      00FF5A13H   LINE      CODE     ---       #39
      00FF5A16H   LINE      CODE     ---       #40
      00FF5A18H   LINE      CODE     ---       #43
      00FF5A1DH   LINE      CODE     ---       #44
      00FF5A1DH   LINE      CODE     ---       #45
      ---         BLOCKEND  ---      ---       LVL=0

      00FF5E24H   BLOCK     CODE     ---       LVL=0
      00FF5E24H   LINE      CODE     ---       #49
      00FF5E28H   LINE      CODE     ---       #51
      00FF5E2DH   LINE      CODE     ---       #53
      00FF5E30H   LINE      CODE     ---       #54
      00FF5E35H   LINE      CODE     ---       #55
      00FF5E35H   LINE      CODE     ---       #56
      00FF5E3AH   LINE      CODE     ---       #58
      00FF5E3DH   LINE      CODE     ---       #61
      ---         BLOCKEND  ---      ---       LVL=0

      00FF5E42H   BLOCK     CODE     ---       LVL=0
      00FF5E42H   LINE      CODE     ---       #66
      00FF5E46H   LINE      CODE     ---       #68
      00FF5E4BH   LINE      CODE     ---       #70
      00FF5E4EH   LINE      CODE     ---       #71
      00FF5E53H   LINE      CODE     ---       #72
      00FF5E53H   LINE      CODE     ---       #73
      00FF5E58H   LINE      CODE     ---       #75
      00FF5E5BH   LINE      CODE     ---       #78
      ---         BLOCKEND  ---      ---       LVL=0

      00FF52E8H   BLOCK     CODE     ---       LVL=0
      00FF52E8H   LINE      CODE     ---       #83
      00FF5300H   LINE      CODE     ---       #85
      00FF5305H   LINE      CODE     ---       #87
      00FF5308H   LINE      CODE     ---       #88
      00FF530DH   LINE      CODE     ---       #89
      00FF530DH   LINE      CODE     ---       #90
      00FF5312H   LINE      CODE     ---       #92
      00FF5315H   LINE      CODE     ---       #95
      00FF531FH   LINE      CODE     ---       #97
      00FF5322H   LINE      CODE     ---       #98
      00FF5324H   LINE      CODE     ---       #99
      00FF532AH   LINE      CODE     ---       #101
      00FF532DH   LINE      CODE     ---       #102
      00FF532FH   LINE      CODE     ---       #103
      00FF5335H   LINE      CODE     ---       #105
      00FF5338H   LINE      CODE     ---       #106
      00FF5338H   LINE      CODE     ---       #108
      ---         BLOCKEND  ---      ---       LVL=0

      00FF6056H   BLOCK     CODE     ---       LVL=0
      00FF6056H   LINE      CODE     ---       #111
      00FF6058H   LINE      CODE     ---       #113
      00FF605AH   LINE      CODE     ---       #114
      ---         BLOCKEND  ---      ---       LVL=0

L251 LINKER/LOCATER V4.66.93.0                                                        05/06/2023  18:04:44  PAGE 75


      00FF0011H   BLOCK     CODE     ---       LVL=0
      00FF0011H   LINE      CODE     ---       #115
      00FF0011H   LINE      CODE     ---       #118
      ---         BLOCKEND  ---      ---       LVL=0

      00FF6036H   BLOCK     CODE     ---       LVL=0
      00FF6036H   LINE      CODE     ---       #119
      00FF6038H   LINE      CODE     ---       #121
      00FF603BH   LINE      CODE     ---       #122
      ---         BLOCKEND  ---      ---       LVL=0

      00FF603EH   BLOCK     CODE     ---       LVL=0
      00FF603EH   LINE      CODE     ---       #123
      00FF6040H   LINE      CODE     ---       #125
      00FF6043H   LINE      CODE     ---       #126
      ---         BLOCKEND  ---      ---       LVL=0

      00FF6046H   BLOCK     CODE     ---       LVL=0
      00FF6046H   LINE      CODE     ---       #128
      00FF6048H   LINE      CODE     ---       #130
      00FF604BH   LINE      CODE     ---       #131
      ---         BLOCKEND  ---      ---       LVL=0

      00FF0012H   BLOCK     CODE     ---       LVL=0
      00FF0012H   LINE      CODE     ---       #133
      00FF0012H   LINE      CODE     ---       #136
      ---         BLOCKEND  ---      ---       LVL=0

      00FF0016H   BLOCK     CODE     ---       LVL=0
      00FF0016H   LINE      CODE     ---       #137
      00FF0016H   LINE      CODE     ---       #140
      ---         BLOCKEND  ---      ---       LVL=0

      00FF604EH   BLOCK     CODE     ---       LVL=0
      00FF604EH   LINE      CODE     ---       #141
      00FF6050H   LINE      CODE     ---       #143
      00FF6053H   LINE      CODE     ---       #145
      ---         BLOCKEND  ---      ---       LVL=0

      00FF4DCDH   BLOCK     CODE     ---       LVL=0
      00FF4DCDH   LINE      CODE     ---       #146
      00FF4DE3H   LINE      CODE     ---       #148
      00FF4DE6H   LINE      CODE     ---       #150
      00FF4DF0H   LINE      CODE     ---       #152
      00FF4DFAH   LINE      CODE     ---       #153
      00FF4E06H   LINE      CODE     ---       #154
      00FF4E0AH   LINE      CODE     ---       #155
      00FF4E0AH   LINE      CODE     ---       #157
      00FF4E14H   LINE      CODE     ---       #159
      00FF4E1EH   LINE      CODE     ---       #160
      00FF4E2AH   LINE      CODE     ---       #161
      00FF4E34H   LINE      CODE     ---       #162
      00FF4E34H   LINE      CODE     ---       #163
      00FF4E3FH   LINE      CODE     ---       #164
      00FF4E4BH   LINE      CODE     ---       #165
      00FF4E55H   LINE      CODE     ---       #167
      00FF4E59H   LINE      CODE     ---       #168
      00FF4E5CH   LINE      CODE     ---       #171
      ---         BLOCKEND  ---      ---       LVL=0

      00FF45AEH   BLOCK     CODE     ---       LVL=0
      00FF45AEH   LINE      CODE     ---       #173
      00FF45C4H   LINE      CODE     ---       #175
      00FF45C7H   LINE      CODE     ---       #177
      00FF45EFH   LINE      CODE     ---       #178
L251 LINKER/LOCATER V4.66.93.0                                                        05/06/2023  18:04:44  PAGE 76


      00FF45F5H   LINE      CODE     ---       #180
      00FF4601H   LINE      CODE     ---       #182
      00FF4604H   LINE      CODE     ---       #183
      00FF4613H   LINE      CODE     ---       #184
      00FF4616H   LINE      CODE     ---       #185
      00FF4619H   LINE      CODE     ---       #187
      00FF4620H   LINE      CODE     ---       #189
      00FF4647H   LINE      CODE     ---       #191
      00FF4647H   LINE      CODE     ---       #192
      00FF465EH   LINE      CODE     ---       #193
      00FF4666H   LINE      CODE     ---       #194
      00FF4666H   LINE      CODE     ---       #195
      00FF4669H   LINE      CODE     ---       #197
      00FF4669H   LINE      CODE     ---       #198
      00FF467CH   LINE      CODE     ---       #199
      00FF4684H   LINE      CODE     ---       #200
      00FF4684H   LINE      CODE     ---       #201
      00FF4686H   LINE      CODE     ---       #203
      00FF4686H   LINE      CODE     ---       #204
      00FF4699H   LINE      CODE     ---       #205
      00FF46A1H   LINE      CODE     ---       #206
      00FF46A1H   LINE      CODE     ---       #207
      00FF46A3H   LINE      CODE     ---       #209
      00FF46A3H   LINE      CODE     ---       #210
      00FF46A3H   LINE      CODE     ---       #211
      00FF46A3H   LINE      CODE     ---       #212
      00FF46A3H   LINE      CODE     ---       #213
      00FF46A3H   LINE      CODE     ---       #214
      00FF46A3H   LINE      CODE     ---       #215
      00FF46A5H   LINE      CODE     ---       #217
      00FF46A5H   LINE      CODE     ---       #218
      00FF46A9H   LINE      CODE     ---       #219
      00FF46B0H   LINE      CODE     ---       #220
      00FF46B7H   LINE      CODE     ---       #221
      00FF46BFH   LINE      CODE     ---       #222
      00FF46CAH   LINE      CODE     ---       #223
      00FF46CCH   LINE      CODE     ---       #225
      00FF46CCH   LINE      CODE     ---       #226
      00FF46DFH   LINE      CODE     ---       #227
      00FF46E7H   LINE      CODE     ---       #228
      00FF46E7H   LINE      CODE     ---       #229
      00FF46E9H   LINE      CODE     ---       #231
      00FF46E9H   LINE      CODE     ---       #232
      00FF46FCH   LINE      CODE     ---       #233
      00FF4708H   LINE      CODE     ---       #234
      00FF4712H   LINE      CODE     ---       #235
      00FF4712H   LINE      CODE     ---       #236
      00FF4712H   LINE      CODE     ---       #238
      00FF4715H   LINE      CODE     ---       #239
      00FF4718H   LINE      CODE     ---       #241
      00FF4723H   LINE      CODE     ---       #245
      ---         BLOCKEND  ---      ---       LVL=0

      ---         MODULE    ---      ---       main
      00FF4991H   PUBLIC    CODE     ---       main
      000000D0H   SFRSYM    DATA     BYTE      PSW
      0000009DH   SFRSYM    DATA     BYTE      IRCBAND
      00000097H   SFRSYM    DATA     BYTE      AUXR2
      000000EFH   SFRSYM    DATA     BYTE      AUXINTIF
      000000FDH   SFRSYM    DATA     BYTE      S4CON
      000000ACH   SFRSYM    DATA     BYTE      S3CON
      0000009AH   SFRSYM    DATA     BYTE      S2CON
      000000B7H   SFRSYM    DATA     BYTE      IPH
      000000CDH   SFRSYM    DATA     BYTE      SPSTAT
      000000DDH   SFRSYM    DATA     BYTE      T4T3M
L251 LINKER/LOCATER V4.66.93.0                                                        05/06/2023  18:04:44  PAGE 77


      000000C1H   SFRSYM    DATA     BYTE      WDT_CONTR
      000000DFH   SFRSYM    DATA     BYTE      IP3
      000000F4H   SFRSYM    DATA     BYTE      USBCON
      000000B5H   SFRSYM    DATA     BYTE      IP2
      000000FFH   SFRSYM    DATA     BYTE      RSTCFG
      000000F9H   SFRSYM    DATA     BYTE      LINICR
      0000008EH   SFRSYM    DATA     BYTE      AUXR
      000000AFH   SFRSYM    DATA     BYTE      IE2
      00000080H.7 SFRSYM    DATA     BIT       P07
      00000088H   SFRSYM    DATA     BYTE      TCON
      000000C8H.0 SFRSYM    DATA     BIT       P50
      00000098H   SFRSYM    DATA     BYTE      SCON
      000000F1H   SFRSYM    DATA     BYTE      CANICR
      00000087H   SFRSYM    DATA     BYTE      PCON
      000000BCH   SFRSYM    DATA     BYTE      ADC_CONTR
      000000E7H   SFRSYM    DATA     BYTE      CMPCR2
      000000E6H   SFRSYM    DATA     BYTE      CMPCR1
      000000B8H   SFRSYM    DATA     BYTE      IP
      0000008FH   SFRSYM    DATA     BYTE      INTCLKO
      000000EEH   SFRSYM    DATA     BYTE      IP3H
      000000B6H   SFRSYM    DATA     BYTE      IP2H
      000000A8H   SFRSYM    DATA     BYTE      IE
      000000BBH   SFRSYM    DATA     BYTE      P_SW3
      000000BAH   SFRSYM    DATA     BYTE      P_SW2
      000000A2H   SFRSYM    DATA     BYTE      P_SW1
      000000CEH   SFRSYM    DATA     BYTE      SPCTL
      000000F8H   SFRSYM    DATA     BYTE      P7
      000000E8H   SFRSYM    DATA     BYTE      P6
      000000C8H   SFRSYM    DATA     BYTE      P5
      000000C0H   SFRSYM    DATA     BYTE      P4
      000000B0H   SFRSYM    DATA     BYTE      P3
      000000A0H   SFRSYM    DATA     BYTE      P2
      00000090H   SFRSYM    DATA     BYTE      P1
      00000080H   SFRSYM    DATA     BYTE      P0

      00FF4991H   BLOCK     CODE     ---       LVL=0
      WR6         REGSYM    ---      INT       adc_err_read
      00FF4991H   LINE      CODE     ---       #30
      00FF4991H   LINE      CODE     ---       #31
      00FF4991H   LINE      CODE     ---       #33
      00FF4994H   LINE      CODE     ---       #37
      00FF49C9H   LINE      CODE     ---       #38
      00FF4A04H   LINE      CODE     ---       #39
      00FF4A07H   LINE      CODE     ---       #40
      00FF4A0AH   LINE      CODE     ---       #41
      00FF4A0DH   LINE      CODE     ---       #42
      00FF4A10H   LINE      CODE     ---       #43
      00FF4A13H   LINE      CODE     ---       #44
      00FF4A1AH   LINE      CODE     ---       #45
      00FF4A1CH   LINE      CODE     ---       #46
      00FF4A1EH   LINE      CODE     ---       #50
      00FF4A1EH   LINE      CODE     ---       #54
      00FF4A59H   LINE      CODE     ---       #60
      00FF4A67H   LINE      CODE     ---       #61
      00FF4A80H   LINE      CODE     ---       #62
      00FF4A93H   LINE      CODE     ---       #63
      00FF4A9AH   LINE      CODE     ---       #64
      ---         BLOCKEND  ---      ---       LVL=0

      ---         MODULE    ---      ---       adc
      00FF5776H   PUBLIC    CODE     ---       adc_mean_filter
      00FF580DH   PUBLIC    CODE     ---       My_Adc_Init
      00FF51FFH   PUBLIC    CODE     ---       Read_Adc_Value
      0000082DH   PUBLIC    EDATA    INT       adc1
      0000082FH   PUBLIC    EDATA    INT       adc2
L251 LINKER/LOCATER V4.66.93.0                                                        05/06/2023  18:04:44  PAGE 78


      00000831H   PUBLIC    EDATA    INT       adc3
      00000833H   PUBLIC    EDATA    INT       adc4
      00000835H   PUBLIC    EDATA    INT       adc5
      00000837H   PUBLIC    EDATA    INT       adc6
      00000839H   PUBLIC    EDATA    INT       adc7
      0000083BH   PUBLIC    EDATA    INT       adc8
      000000D0H   SFRSYM    DATA     BYTE      PSW
      0000009DH   SFRSYM    DATA     BYTE      IRCBAND
      00000097H   SFRSYM    DATA     BYTE      AUXR2
      000000EFH   SFRSYM    DATA     BYTE      AUXINTIF
      000000FDH   SFRSYM    DATA     BYTE      S4CON
      000000ACH   SFRSYM    DATA     BYTE      S3CON
      0000009AH   SFRSYM    DATA     BYTE      S2CON
      000000B7H   SFRSYM    DATA     BYTE      IPH
      000000CDH   SFRSYM    DATA     BYTE      SPSTAT
      000000DDH   SFRSYM    DATA     BYTE      T4T3M
      000000C1H   SFRSYM    DATA     BYTE      WDT_CONTR
      000000DFH   SFRSYM    DATA     BYTE      IP3
      000000F4H   SFRSYM    DATA     BYTE      USBCON
      000000B5H   SFRSYM    DATA     BYTE      IP2
      000000FFH   SFRSYM    DATA     BYTE      RSTCFG
      000000F9H   SFRSYM    DATA     BYTE      LINICR
      0000008EH   SFRSYM    DATA     BYTE      AUXR
      000000AFH   SFRSYM    DATA     BYTE      IE2
      00000088H   SFRSYM    DATA     BYTE      TCON
      00000098H   SFRSYM    DATA     BYTE      SCON
      000000F1H   SFRSYM    DATA     BYTE      CANICR
      00000087H   SFRSYM    DATA     BYTE      PCON
      000000BCH   SFRSYM    DATA     BYTE      ADC_CONTR
      000000E7H   SFRSYM    DATA     BYTE      CMPCR2
      000000E6H   SFRSYM    DATA     BYTE      CMPCR1
      000000B8H   SFRSYM    DATA     BYTE      IP
      0000008FH   SFRSYM    DATA     BYTE      INTCLKO
      000000EEH   SFRSYM    DATA     BYTE      IP3H
      000000B6H   SFRSYM    DATA     BYTE      IP2H
      000000A8H   SFRSYM    DATA     BYTE      IE
      000000BBH   SFRSYM    DATA     BYTE      P_SW3
      000000BAH   SFRSYM    DATA     BYTE      P_SW2
      000000A2H   SFRSYM    DATA     BYTE      P_SW1
      000000CEH   SFRSYM    DATA     BYTE      SPCTL
      000000F8H   SFRSYM    DATA     BYTE      P7
      000000E8H   SFRSYM    DATA     BYTE      P6
      000000C8H   SFRSYM    DATA     BYTE      P5
      000000C0H   SFRSYM    DATA     BYTE      P4
      000000B0H   SFRSYM    DATA     BYTE      P3
      000000A0H   SFRSYM    DATA     BYTE      P2
      00000090H   SFRSYM    DATA     BYTE      P1
      00000080H   SFRSYM    DATA     BYTE      P0

      00FF580DH   BLOCK     CODE     ---       LVL=0
      00FF580DH   LINE      CODE     ---       #17
      00FF580DH   LINE      CODE     ---       #19
      00FF5816H   LINE      CODE     ---       #20
      00FF581FH   LINE      CODE     ---       #21
      00FF5828H   LINE      CODE     ---       #22
      00FF5831H   LINE      CODE     ---       #24
      00FF583AH   LINE      CODE     ---       #25
      00FF5843H   LINE      CODE     ---       #26
      00FF584CH   LINE      CODE     ---       #27
      ---         BLOCKEND  ---      ---       LVL=0

      00FF5776H   BLOCK     CODE     ---       LVL=0
      WR12        REGSYM    ---      INT       adcn
      WR14        REGSYM    ---      INT       speed
      000007EDH   SYMBOL    EDATA    BYTE      count
L251 LINKER/LOCATER V4.66.93.0                                                        05/06/2023  18:04:44  PAGE 79


      00FF5780H   BLOCK     CODE     NEAR LAB  LVL=1
      000007EEH   SYMBOL    EDATA    BYTE      i
      000007EFH   SYMBOL    EDATA    DWORD     sum
      ---         BLOCKEND  ---      ---       LVL=1
      00FF5776H   LINE      CODE     ---       #34
      00FF5780H   LINE      CODE     ---       #35
      00FF5780H   LINE      CODE     ---       #39
      00FF5786H   LINE      CODE     ---       #40
      00FF5789H   LINE      CODE     ---       #42
      00FF579EH   LINE      CODE     ---       #43
      00FF57B1H   LINE      CODE     ---       #45
      00FF57C0H   LINE      CODE     ---       #46
      00FF57C0H   LINE      CODE     ---       #47
      ---         BLOCKEND  ---      ---       LVL=0

      00FF51FFH   BLOCK     CODE     ---       LVL=0
      00FF51FFH   LINE      CODE     ---       #52
      00FF51FFH   LINE      CODE     ---       #55
      00FF520EH   LINE      CODE     ---       #56
      00FF521DH   LINE      CODE     ---       #57
      00FF522CH   LINE      CODE     ---       #58
      00FF523BH   LINE      CODE     ---       #60
      00FF524AH   LINE      CODE     ---       #61
      00FF5259H   LINE      CODE     ---       #62
      00FF5268H   LINE      CODE     ---       #63
      00FF5277H   LINE      CODE     ---       #64
      ---         BLOCKEND  ---      ---       LVL=0

      ---         MODULE    ---      ---       control
      00FF54D2H   PUBLIC    CODE     ---       ADC_error_window_filtering
      00FF5351H   PUBLIC    CODE     ---       Correct_Angle
      00FF516DH   PUBLIC    CODE     ---       lost_line_judge
      00FF473AH   PUBLIC    CODE     ---       Direct_judge
      00FF5475H   PUBLIC    CODE     ---       lostline_deal
      00FF5C29H   PUBLIC    CODE     ---       ADC_error_weight_filtering
      00FF5278H   PUBLIC    CODE     ---       ADC_error_processing
      00000597H   PUBLIC    EDATA    FLOAT     Adc_Five_Del_2
      0000059BH   PUBLIC    EDATA    ---       akeman_left
      000005AFH   PUBLIC    EDATA    FLOAT     Adc_Five_Del_3
      000005B3H   PUBLIC    EDATA    FLOAT     Adc_Five_Del_4
      000005B7H   PUBLIC    EDATA    FLOAT     order_angle
      000005BBH   PUBLIC    EDATA    INT       Dir_judge_flag
      000005BDH   PUBLIC    EDATA    INT       lostline_dir
      000005BFH   PUBLIC    EDATA    FLOAT     order_speed
      000005C3H   PUBLIC    EDATA    FLOAT     ADC_error_a
      000005C7H   PUBLIC    EDATA    INT       window_flag
      000005C9H   PUBLIC    EDATA    INT       Roundabout_count
      000005CBH   PUBLIC    EDATA    BYTE      pid_flag
      000005CCH   PUBLIC    EDATA    INT       dev_flag
      000005CEH   PUBLIC    EDATA    ---       Dev_errs
      000005EEH   PUBLIC    EDATA    INT       Roundabout_flag_L
      000005F0H   PUBLIC    EDATA    FLOAT     adc_err
      000005F4H   PUBLIC    EDATA    ---       adc_err_array
      00000608H   PUBLIC    EDATA    INT       Roundabout_flag_R
      0000060AH   PUBLIC    EDATA    FLOAT     Adc_Five_Mean_1_Las
      0000060EH   PUBLIC    EDATA    INT       lostline_flag
      00000610H   PUBLIC    EDATA    FLOAT     Adc_Five_Mean_2_Las
      00000614H   PUBLIC    EDATA    FLOAT     Adc_Five_Mean_3_Las
      00000618H   PUBLIC    EDATA    FLOAT     Adc_Five_Mean_4_Las
      0000061CH   PUBLIC    EDATA    ---       akeman_right
      00000630H   PUBLIC    EDATA    INT       countADC
      00000632H   PUBLIC    EDATA    FLOAT     Adc_Five_Del_1
      000007E5H   PUBLIC    EDATA    BYTE      ?ADC_error_processing?BYTE
      000007E5H   PUBLIC    EDATA    BYTE      ?Correct_Angle?BYTE
      000000D0H   SFRSYM    DATA     BYTE      PSW
L251 LINKER/LOCATER V4.66.93.0                                                        05/06/2023  18:04:44  PAGE 80


      0000009DH   SFRSYM    DATA     BYTE      IRCBAND
      00000097H   SFRSYM    DATA     BYTE      AUXR2
      000000EFH   SFRSYM    DATA     BYTE      AUXINTIF
      000000FDH   SFRSYM    DATA     BYTE      S4CON
      000000ACH   SFRSYM    DATA     BYTE      S3CON
      0000009AH   SFRSYM    DATA     BYTE      S2CON
      000000B7H   SFRSYM    DATA     BYTE      IPH
      000000CDH   SFRSYM    DATA     BYTE      SPSTAT
      000000DDH   SFRSYM    DATA     BYTE      T4T3M
      000000C1H   SFRSYM    DATA     BYTE      WDT_CONTR
      000000DFH   SFRSYM    DATA     BYTE      IP3
      000000F4H   SFRSYM    DATA     BYTE      USBCON
      000000B5H   SFRSYM    DATA     BYTE      IP2
      000000FFH   SFRSYM    DATA     BYTE      RSTCFG
      000000F9H   SFRSYM    DATA     BYTE      LINICR
      0000008EH   SFRSYM    DATA     BYTE      AUXR
      000000AFH   SFRSYM    DATA     BYTE      IE2
      00000088H   SFRSYM    DATA     BYTE      TCON
      00000098H   SFRSYM    DATA     BYTE      SCON
      000000F1H   SFRSYM    DATA     BYTE      CANICR
      00000087H   SFRSYM    DATA     BYTE      PCON
      000000BCH   SFRSYM    DATA     BYTE      ADC_CONTR
      000000E7H   SFRSYM    DATA     BYTE      CMPCR2
      000000E6H   SFRSYM    DATA     BYTE      CMPCR1
      000000B8H   SFRSYM    DATA     BYTE      IP
      0000008FH   SFRSYM    DATA     BYTE      INTCLKO
      000000EEH   SFRSYM    DATA     BYTE      IP3H
      000000B6H   SFRSYM    DATA     BYTE      IP2H
      000000A8H   SFRSYM    DATA     BYTE      IE
      000000BBH   SFRSYM    DATA     BYTE      P_SW3
      000000BAH   SFRSYM    DATA     BYTE      P_SW2
      000000A2H   SFRSYM    DATA     BYTE      P_SW1
      000000CEH   SFRSYM    DATA     BYTE      SPCTL
      000000F8H   SFRSYM    DATA     BYTE      P7
      000000E8H   SFRSYM    DATA     BYTE      P6
      000000C8H   SFRSYM    DATA     BYTE      P5
      000000C0H   SFRSYM    DATA     BYTE      P4
      000000B0H   SFRSYM    DATA     BYTE      P3
      000000A0H   SFRSYM    DATA     BYTE      P2
      00000090H   SFRSYM    DATA     BYTE      P1
      00000080H   SFRSYM    DATA     BYTE      P0
      DR12        REGSYM    ---      FLOAT     basic_speed
      DR28        REGSYM    ---      FLOAT     akeman_diff
      DR8         REGSYM    ---      FLOAT     current_l
      DR0         REGSYM    ---      FLOAT     target_l
      00000636H   SYMBOL    EDATA    FLOAT     pwm_l
      0000063AH   SYMBOL    EDATA    FLOAT     pwm_r

      00FF5278H   BLOCK     CODE     ---       LVL=0
      DR24        REGSYM    ---      FLOAT     A
      DR28        REGSYM    ---      FLOAT     B
      000007EDH   SYMBOL    EDATA    FLOAT     compensation
      00FF5278H   LINE      CODE     ---       #124
      00FF527AH   LINE      CODE     ---       #129
      00FF52E7H   LINE      CODE     ---       #130
      00FF52E7H   LINE      CODE     ---       #131
      ---         BLOCKEND  ---      ---       LVL=0

      00FF5C29H   BLOCK     CODE     ---       LVL=0
      0000063EH   SYMBOL    EDATA    FLOAT     adc_err_last
      00FF5C29H   LINE      CODE     ---       #138
      00FF5C29H   LINE      CODE     ---       #139
      00FF5C29H   LINE      CODE     ---       #141
      00FF5C52H   LINE      CODE     ---       #142
      00FF5C56H   LINE      CODE     ---       #144
L251 LINKER/LOCATER V4.66.93.0                                                        05/06/2023  18:04:44  PAGE 81


      00FF5C56H   LINE      CODE     ---       #145
      ---         BLOCKEND  ---      ---       LVL=0

      00FF54D2H   BLOCK     CODE     ---       LVL=0
      00FF54D2H   LINE      CODE     ---       #152
      00FF54D2H   LINE      CODE     ---       #154
      00FF54E8H   LINE      CODE     ---       #156
      00FF54EEH   LINE      CODE     ---       #158
      00FF54F4H   LINE      CODE     ---       #159
      00FF54FAH   LINE      CODE     ---       #162
      00FF5502H   LINE      CODE     ---       #163
      00FF5528H   LINE      CODE     ---       #166
      00FF552CH   LINE      CODE     ---       #167
      ---         BLOCKEND  ---      ---       LVL=0
      DR4         REGSYM    ---      FLOAT     sum
      WR30        REGSYM    ---      INT       i
      DR0         REGSYM    ---      FLOAT     Down1
      DR12        REGSYM    ---      FLOAT     DownY1
      DR0         REGSYM    ---      FLOAT     Down2
      DR28        REGSYM    ---      FLOAT     Y_Mean_1

      00FF473AH   BLOCK     CODE     ---       LVL=0
      00000642H   SYMBOL    EDATA    INT       res
      00FF473AH   LINE      CODE     ---       #296
      00FF473AH   LINE      CODE     ---       #297
      00FF473AH   LINE      CODE     ---       #301
      00FF475EH   LINE      CODE     ---       #302
      00FF4764H   LINE      CODE     ---       #304
      00FF4781H   LINE      CODE     ---       #305
      00FF4789H   LINE      CODE     ---       #307
      00FF47A0H   LINE      CODE     ---       #308
      00FF47A8H   LINE      CODE     ---       #311
      00FF47BCH   LINE      CODE     ---       #313
      00FF47C3H   LINE      CODE     ---       #314
      00FF47D7H   LINE      CODE     ---       #315
      00FF47DFH   LINE      CODE     ---       #316
      00FF47E7H   LINE      CODE     ---       #317
      00FF47E7H   LINE      CODE     ---       #318
      00FF47FBH   LINE      CODE     ---       #320
      00FF4802H   LINE      CODE     ---       #321
      00FF4816H   LINE      CODE     ---       #322
      00FF481EH   LINE      CODE     ---       #323
      00FF4826H   LINE      CODE     ---       #324
      00FF4826H   LINE      CODE     ---       #327
      00FF4843H   LINE      CODE     ---       #328
      00FF4849H   LINE      CODE     ---       #330
      00FF4862H   LINE      CODE     ---       #331
      00FF486AH   LINE      CODE     ---       #333
      00FF486EH   LINE      CODE     ---       #334
      ---         BLOCKEND  ---      ---       LVL=0
      00000644H   SYMBOL    EDATA    INT       state

      00FF516DH   BLOCK     CODE     ---       LVL=0
      00FF5171H   BLOCK     CODE     NEAR LAB  LVL=1
      R13         REGSYM    ---      CHAR      i
      R14         REGSYM    ---      CHAR      L_count
      R15         REGSYM    ---      CHAR      R_count
      ---         BLOCKEND  ---      ---       LVL=1
      00FF516DH   LINE      CODE     ---       #407
      00FF5171H   LINE      CODE     ---       #408
      00FF5171H   LINE      CODE     ---       #409
      00FF5175H   LINE      CODE     ---       #410
      00FF517BH   LINE      CODE     ---       #411
      00FF5183H   LINE      CODE     ---       #413
      00FF51ABH   LINE      CODE     ---       #414
L251 LINKER/LOCATER V4.66.93.0                                                        05/06/2023  18:04:44  PAGE 82


      00FF51B3H   LINE      CODE     ---       #416
      00FF51B5H   LINE      CODE     ---       #418
      00FF51CEH   LINE      CODE     ---       #419
      00FF51D0H   LINE      CODE     ---       #420
      00FF51D9H   LINE      CODE     ---       #421
      00FF51DBH   LINE      CODE     ---       #422
      00FF51E2H   LINE      CODE     ---       #423
      00FF51E6H   LINE      CODE     ---       #424
      00FF51EEH   LINE      CODE     ---       #425
      00FF51F2H   LINE      CODE     ---       #426
      00FF51FAH   LINE      CODE     ---       #428
      00FF51FAH   LINE      CODE     ---       #429
      ---         BLOCKEND  ---      ---       LVL=0

      00FF5475H   BLOCK     CODE     ---       LVL=0
      00FF5475H   LINE      CODE     ---       #436
      00FF5475H   LINE      CODE     ---       #439
      00FF547FH   LINE      CODE     ---       #441
      00FF5489H   LINE      CODE     ---       #442
      00FF5493H   LINE      CODE     ---       #444
      00FF5499H   LINE      CODE     ---       #445
      00FF54A3H   LINE      CODE     ---       #447
      00FF54CBH   LINE      CODE     ---       #448
      00FF54D1H   LINE      CODE     ---       #449
      00FF54D1H   LINE      CODE     ---       #450
      ---         BLOCKEND  ---      ---       LVL=0

      00FF5351H   BLOCK     CODE     ---       LVL=0
      DR24        REGSYM    ---      FLOAT     kp
      DR28        REGSYM    ---      FLOAT     kd
      000007EDH   SYMBOL    EDATA    FLOAT     ki
      00FF5355H   BLOCK     CODE     NEAR LAB  LVL=1
      DR28        REGSYM    ---      FLOAT     target_angle
      DR20        REGSYM    ---      FLOAT     target_angle_last
      00000646H   SYMBOL    EDATA    FLOAT     adc_err_last
      0000064AH   SYMBOL    EDATA    FLOAT     integral_err
      ---         BLOCKEND  ---      ---       LVL=1
      00FF5351H   LINE      CODE     ---       #457
      00FF5355H   LINE      CODE     ---       #458
      00FF5355H   LINE      CODE     ---       #469
      00FF5392H   LINE      CODE     ---       #470
      00FF53B3H   LINE      CODE     ---       #471
      00FF53B3H   LINE      CODE     ---       #473
      00FF53B7H   LINE      CODE     ---       #475
      00FF53B7H   LINE      CODE     ---       #476
      ---         BLOCKEND  ---      ---       LVL=0

      ---         MODULE    ---      ---       key
      000000D0H   SFRSYM    DATA     BYTE      PSW
      0000009DH   SFRSYM    DATA     BYTE      IRCBAND
      00000097H   SFRSYM    DATA     BYTE      AUXR2
      000000EFH   SFRSYM    DATA     BYTE      AUXINTIF
      000000FDH   SFRSYM    DATA     BYTE      S4CON
      000000ACH   SFRSYM    DATA     BYTE      S3CON
      0000009AH   SFRSYM    DATA     BYTE      S2CON
      000000B7H   SFRSYM    DATA     BYTE      IPH
      000000CDH   SFRSYM    DATA     BYTE      SPSTAT
      000000DDH   SFRSYM    DATA     BYTE      T4T3M
      000000C1H   SFRSYM    DATA     BYTE      WDT_CONTR
      000000DFH   SFRSYM    DATA     BYTE      IP3
      000000F4H   SFRSYM    DATA     BYTE      USBCON
      000000B5H   SFRSYM    DATA     BYTE      IP2
      000000FFH   SFRSYM    DATA     BYTE      RSTCFG
      000000F9H   SFRSYM    DATA     BYTE      LINICR
      0000008EH   SFRSYM    DATA     BYTE      AUXR
L251 LINKER/LOCATER V4.66.93.0                                                        05/06/2023  18:04:44  PAGE 83


      000000AFH   SFRSYM    DATA     BYTE      IE2
      000000F8H.3 SFRSYM    DATA     BIT       P73
      000000F8H.2 SFRSYM    DATA     BIT       P72
      000000F8H.1 SFRSYM    DATA     BIT       P71
      000000F8H.0 SFRSYM    DATA     BIT       P70
      00000088H   SFRSYM    DATA     BYTE      TCON
      00000098H   SFRSYM    DATA     BYTE      SCON
      000000F1H   SFRSYM    DATA     BYTE      CANICR
      00000087H   SFRSYM    DATA     BYTE      PCON
      000000BCH   SFRSYM    DATA     BYTE      ADC_CONTR
      000000E7H   SFRSYM    DATA     BYTE      CMPCR2
      000000E6H   SFRSYM    DATA     BYTE      CMPCR1
      000000B8H   SFRSYM    DATA     BYTE      IP
      0000008FH   SFRSYM    DATA     BYTE      INTCLKO
      000000EEH   SFRSYM    DATA     BYTE      IP3H
      000000B6H   SFRSYM    DATA     BYTE      IP2H
      000000A8H   SFRSYM    DATA     BYTE      IE
      000000BBH   SFRSYM    DATA     BYTE      P_SW3
      000000BAH   SFRSYM    DATA     BYTE      P_SW2
      000000A2H   SFRSYM    DATA     BYTE      P_SW1
      000000CEH   SFRSYM    DATA     BYTE      SPCTL
      000000F8H   SFRSYM    DATA     BYTE      P7
      000000E8H   SFRSYM    DATA     BYTE      P6
      000000C8H   SFRSYM    DATA     BYTE      P5
      000000C0H   SFRSYM    DATA     BYTE      P4
      000000B0H   SFRSYM    DATA     BYTE      P3
      000000A0H   SFRSYM    DATA     BYTE      P2
      00000090H   SFRSYM    DATA     BYTE      P1
      00000080H   SFRSYM    DATA     BYTE      P0
      R7          REGSYM    ---      BYTE      mode
      000008A2H   SYMBOL    EDATA    BYTE      key_up

      ---         MODULE    ---      ---       motor
      00FF56D9H   PUBLIC    CODE     ---       Motor_Init
      00FF4E73H   PUBLIC    CODE     ---       Motor_Control
      0000088CH   PUBLIC    EDATA    INT       pulse_right
      0000088EH   PUBLIC    EDATA    INT       pulse_left
      000000D0H   SFRSYM    DATA     BYTE      PSW
      0000009DH   SFRSYM    DATA     BYTE      IRCBAND
      00000097H   SFRSYM    DATA     BYTE      AUXR2
      000000EFH   SFRSYM    DATA     BYTE      AUXINTIF
      000000FDH   SFRSYM    DATA     BYTE      S4CON
      000000ACH   SFRSYM    DATA     BYTE      S3CON
      0000009AH   SFRSYM    DATA     BYTE      S2CON
      000000B7H   SFRSYM    DATA     BYTE      IPH
      000000CDH   SFRSYM    DATA     BYTE      SPSTAT
      000000DDH   SFRSYM    DATA     BYTE      T4T3M
      000000C1H   SFRSYM    DATA     BYTE      WDT_CONTR
      000000DFH   SFRSYM    DATA     BYTE      IP3
      000000F4H   SFRSYM    DATA     BYTE      USBCON
      000000B5H   SFRSYM    DATA     BYTE      IP2
      000000FFH   SFRSYM    DATA     BYTE      RSTCFG
      000000F9H   SFRSYM    DATA     BYTE      LINICR
      0000008EH   SFRSYM    DATA     BYTE      AUXR
      000000AFH   SFRSYM    DATA     BYTE      IE2
      000000B0H.5 SFRSYM    DATA     BIT       P35
      000000C8H.3 SFRSYM    DATA     BIT       P53
      00000088H   SFRSYM    DATA     BYTE      TCON
      00000098H   SFRSYM    DATA     BYTE      SCON
      000000F1H   SFRSYM    DATA     BYTE      CANICR
      00000087H   SFRSYM    DATA     BYTE      PCON
      000000BCH   SFRSYM    DATA     BYTE      ADC_CONTR
      000000E7H   SFRSYM    DATA     BYTE      CMPCR2
      000000E6H   SFRSYM    DATA     BYTE      CMPCR1
      000000B8H   SFRSYM    DATA     BYTE      IP
L251 LINKER/LOCATER V4.66.93.0                                                        05/06/2023  18:04:44  PAGE 84


      0000008FH   SFRSYM    DATA     BYTE      INTCLKO
      000000EEH   SFRSYM    DATA     BYTE      IP3H
      000000B6H   SFRSYM    DATA     BYTE      IP2H
      000000A8H   SFRSYM    DATA     BYTE      IE
      000000BBH   SFRSYM    DATA     BYTE      P_SW3
      000000BAH   SFRSYM    DATA     BYTE      P_SW2
      000000A2H   SFRSYM    DATA     BYTE      P_SW1
      000000CEH   SFRSYM    DATA     BYTE      SPCTL
      000000F8H   SFRSYM    DATA     BYTE      P7
      000000E8H   SFRSYM    DATA     BYTE      P6
      000000C8H   SFRSYM    DATA     BYTE      P5
      000000C0H   SFRSYM    DATA     BYTE      P4
      000000B0H   SFRSYM    DATA     BYTE      P3
      000000A0H   SFRSYM    DATA     BYTE      P2
      00000090H   SFRSYM    DATA     BYTE      P1
      00000080H   SFRSYM    DATA     BYTE      P0

      00FF56D9H   BLOCK     CODE     ---       LVL=0
      00FF56D9H   LINE      CODE     ---       #12
      00FF56D9H   LINE      CODE     ---       #15
      00FF56EAH   LINE      CODE     ---       #16
      00FF56FBH   LINE      CODE     ---       #18
      00FF570CH   LINE      CODE     ---       #19
      00FF571DH   LINE      CODE     ---       #21
      00FF5722H   LINE      CODE     ---       #22
      ---         BLOCKEND  ---      ---       LVL=0

      00FF4E73H   BLOCK     CODE     ---       LVL=0
      000007EDH   SYMBOL    EDATA    LONG      left_duty
      DR12        REGSYM    ---      LONG      right_duty
      00FF4E73H   LINE      CODE     ---       #31
      00FF4E7BH   LINE      CODE     ---       #34
      00FF4E89H   LINE      CODE     ---       #35
      00FF4E9BH   LINE      CODE     ---       #36
      00FF4EA5H   LINE      CODE     ---       #37
      00FF4EAFH   LINE      CODE     ---       #39
      00FF4EB9H   LINE      CODE     ---       #41
      00FF4EC2H   LINE      CODE     ---       #42
      00FF4ECAH   LINE      CODE     ---       #43
      00FF4ECCH   LINE      CODE     ---       #46
      00FF4EE1H   LINE      CODE     ---       #47
      00FF4EEAH   LINE      CODE     ---       #48
      00FF4EEAH   LINE      CODE     ---       #50
      00FF4EF0H   LINE      CODE     ---       #52
      00FF4EF9H   LINE      CODE     ---       #53
      00FF4EFFH   LINE      CODE     ---       #54
      00FF4F01H   LINE      CODE     ---       #57
      00FF4F0CH   LINE      CODE     ---       #58
      00FF4F15H   LINE      CODE     ---       #59
      00FF4F15H   LINE      CODE     ---       #60
      ---         BLOCKEND  ---      ---       LVL=0

      ---         MODULE    ---      ---       steer
      00FF4F18H   PUBLIC    CODE     ---       Steer_Spin
      00FF5DE5H   PUBLIC    CODE     ---       Steer_Spin_limit
      00FF5F61H   PUBLIC    CODE     ---       Steer_Init
      00000890H   PUBLIC    EDATA    FLOAT     angle_limit
      000000D0H   SFRSYM    DATA     BYTE      PSW
      0000009DH   SFRSYM    DATA     BYTE      IRCBAND
      00000097H   SFRSYM    DATA     BYTE      AUXR2
      000000EFH   SFRSYM    DATA     BYTE      AUXINTIF
      000000FDH   SFRSYM    DATA     BYTE      S4CON
      000000ACH   SFRSYM    DATA     BYTE      S3CON
      0000009AH   SFRSYM    DATA     BYTE      S2CON
      000000B7H   SFRSYM    DATA     BYTE      IPH
L251 LINKER/LOCATER V4.66.93.0                                                        05/06/2023  18:04:44  PAGE 85


      000000CDH   SFRSYM    DATA     BYTE      SPSTAT
      000000DDH   SFRSYM    DATA     BYTE      T4T3M
      000000C1H   SFRSYM    DATA     BYTE      WDT_CONTR
      000000DFH   SFRSYM    DATA     BYTE      IP3
      000000F4H   SFRSYM    DATA     BYTE      USBCON
      000000B5H   SFRSYM    DATA     BYTE      IP2
      000000FFH   SFRSYM    DATA     BYTE      RSTCFG
      000000F9H   SFRSYM    DATA     BYTE      LINICR
      0000008EH   SFRSYM    DATA     BYTE      AUXR
      000000AFH   SFRSYM    DATA     BYTE      IE2
      00000088H   SFRSYM    DATA     BYTE      TCON
      00000098H   SFRSYM    DATA     BYTE      SCON
      000000F1H   SFRSYM    DATA     BYTE      CANICR
      00000087H   SFRSYM    DATA     BYTE      PCON
      000000BCH   SFRSYM    DATA     BYTE      ADC_CONTR
      000000E7H   SFRSYM    DATA     BYTE      CMPCR2
      000000E6H   SFRSYM    DATA     BYTE      CMPCR1
      000000B8H   SFRSYM    DATA     BYTE      IP
      0000008FH   SFRSYM    DATA     BYTE      INTCLKO
      000000EEH   SFRSYM    DATA     BYTE      IP3H
      000000B6H   SFRSYM    DATA     BYTE      IP2H
      000000A8H   SFRSYM    DATA     BYTE      IE
      000000BBH   SFRSYM    DATA     BYTE      P_SW3
      000000BAH   SFRSYM    DATA     BYTE      P_SW2
      000000A2H   SFRSYM    DATA     BYTE      P_SW1
      000000CEH   SFRSYM    DATA     BYTE      SPCTL
      000000F8H   SFRSYM    DATA     BYTE      P7
      000000E8H   SFRSYM    DATA     BYTE      P6
      000000C8H   SFRSYM    DATA     BYTE      P5
      000000C0H   SFRSYM    DATA     BYTE      P4
      000000B0H   SFRSYM    DATA     BYTE      P3
      000000A0H   SFRSYM    DATA     BYTE      P2
      00000090H   SFRSYM    DATA     BYTE      P1
      00000080H   SFRSYM    DATA     BYTE      P0

      00FF5F61H   BLOCK     CODE     ---       LVL=0
      00FF5F61H   LINE      CODE     ---       #9
      00FF5F61H   LINE      CODE     ---       #11
      ---         BLOCKEND  ---      ---       LVL=0

      00FF4F18H   BLOCK     CODE     ---       LVL=0
      DR28        REGSYM    ---      FLOAT     target_angle
      00FF4F1CH   BLOCK     CODE     NEAR LAB  LVL=1
      DR12        REGSYM    ---      DWORD     duty
      ---         BLOCKEND  ---      ---       LVL=1
      00FF4F18H   LINE      CODE     ---       #19
      00FF4F1CH   LINE      CODE     ---       #20
      00FF4F1CH   LINE      CODE     ---       #24
      00FF4F2BH   LINE      CODE     ---       #25
      00FF4F3CH   LINE      CODE     ---       #26
      00FF4F4EH   LINE      CODE     ---       #28
      00FF4F59H   LINE      CODE     ---       #30
      00FF4F7BH   LINE      CODE     ---       #32
      00FF4F7BH   LINE      CODE     ---       #34
      00FF4F84H   LINE      CODE     ---       #36
      00FF4FA6H   LINE      CODE     ---       #38
      00FF4FA6H   LINE      CODE     ---       #40
      00FF4FAFH   LINE      CODE     ---       #41
      ---         BLOCKEND  ---      ---       LVL=0

      00FF5DE5H   BLOCK     CODE     ---       LVL=0
      DR28        REGSYM    ---      FLOAT     target_angle
      DR24        REGSYM    ---      FLOAT     angle_limit
      00FF5DE5H   LINE      CODE     ---       #48
      00FF5DE9H   LINE      CODE     ---       #50
L251 LINKER/LOCATER V4.66.93.0                                                        05/06/2023  18:04:44  PAGE 86


      00FF5DEEH   LINE      CODE     ---       #51
      00FF5DF0H   LINE      CODE     ---       #52
      00FF5DFEH   LINE      CODE     ---       #53
      00FF5E00H   LINE      CODE     ---       #55
      ---         BLOCKEND  ---      ---       LVL=0

      ---         MODULE    ---      ---       timer
      00FF6025H   PUBLIC    CODE     ---       Timer4_Init
      000000D0H   SFRSYM    DATA     BYTE      PSW
      0000009DH   SFRSYM    DATA     BYTE      IRCBAND
      00000097H   SFRSYM    DATA     BYTE      AUXR2
      000000EFH   SFRSYM    DATA     BYTE      AUXINTIF
      000000FDH   SFRSYM    DATA     BYTE      S4CON
      000000ACH   SFRSYM    DATA     BYTE      S3CON
      0000009AH   SFRSYM    DATA     BYTE      S2CON
      000000B7H   SFRSYM    DATA     BYTE      IPH
      000000CDH   SFRSYM    DATA     BYTE      SPSTAT
      000000DDH   SFRSYM    DATA     BYTE      T4T3M
      000000C1H   SFRSYM    DATA     BYTE      WDT_CONTR
      000000DFH   SFRSYM    DATA     BYTE      IP3
      000000F4H   SFRSYM    DATA     BYTE      USBCON
      000000B5H   SFRSYM    DATA     BYTE      IP2
      000000FFH   SFRSYM    DATA     BYTE      RSTCFG
      000000F9H   SFRSYM    DATA     BYTE      LINICR
      0000008EH   SFRSYM    DATA     BYTE      AUXR
      000000AFH   SFRSYM    DATA     BYTE      IE2
      00000088H   SFRSYM    DATA     BYTE      TCON
      00000098H   SFRSYM    DATA     BYTE      SCON
      000000F1H   SFRSYM    DATA     BYTE      CANICR
      00000087H   SFRSYM    DATA     BYTE      PCON
      000000BCH   SFRSYM    DATA     BYTE      ADC_CONTR
      000000E7H   SFRSYM    DATA     BYTE      CMPCR2
      000000E6H   SFRSYM    DATA     BYTE      CMPCR1
      000000B8H   SFRSYM    DATA     BYTE      IP
      0000008FH   SFRSYM    DATA     BYTE      INTCLKO
      000000EEH   SFRSYM    DATA     BYTE      IP3H
      000000B6H   SFRSYM    DATA     BYTE      IP2H
      000000A8H   SFRSYM    DATA     BYTE      IE
      000000BBH   SFRSYM    DATA     BYTE      P_SW3
      000000BAH   SFRSYM    DATA     BYTE      P_SW2
      000000A2H   SFRSYM    DATA     BYTE      P_SW1
      000000CEH   SFRSYM    DATA     BYTE      SPCTL
      000000F8H   SFRSYM    DATA     BYTE      P7
      000000E8H   SFRSYM    DATA     BYTE      P6
      000000C8H   SFRSYM    DATA     BYTE      P5
      000000C0H   SFRSYM    DATA     BYTE      P4
      000000B0H   SFRSYM    DATA     BYTE      P3
      000000A0H   SFRSYM    DATA     BYTE      P2
      00000090H   SFRSYM    DATA     BYTE      P1
      00000080H   SFRSYM    DATA     BYTE      P0

      00FF6025H   BLOCK     CODE     ---       LVL=0
      WR4         REGSYM    ---      WORD      time_ms
      00FF6025H   LINE      CODE     ---       #9
      00FF6027H   LINE      CODE     ---       #11
      ---         BLOCKEND  ---      ---       LVL=0

      ---         MODULE    ---      ---       oled
      00FF4D1FH   PUBLIC    CODE     ---       OLED_Init
      00FF552DH   PUBLIC    CODE     ---       OLED_WR_Byte
      00FF5CACH   PUBLIC    CODE     ---       OLED_Set_Pos
      00FF5B3BH   PUBLIC    CODE     ---       OLED_Clear
      00FF605DH   PUBLIC    HCONST   ---       F6x8
      00FF6285H   PUBLIC    HCONST   ---       F8X16
      00000008H   PUBLIC    EDATA    ---       Hzk
L251 LINKER/LOCATER V4.66.93.0                                                        05/06/2023  18:04:44  PAGE 87


      000003C8H   PUBLIC    EDATA    BYTE      show_mode
      000000D0H   SFRSYM    DATA     BYTE      PSW
      0000009DH   SFRSYM    DATA     BYTE      IRCBAND
      00000097H   SFRSYM    DATA     BYTE      AUXR2
      000000EFH   SFRSYM    DATA     BYTE      AUXINTIF
      000000FDH   SFRSYM    DATA     BYTE      S4CON
      000000B0H.7 SFRSYM    DATA     BIT       OLED_SCL
      000000ACH   SFRSYM    DATA     BYTE      S3CON
      0000009AH   SFRSYM    DATA     BYTE      S2CON
      000000B7H   SFRSYM    DATA     BYTE      IPH
      000000CDH   SFRSYM    DATA     BYTE      SPSTAT
      000000DDH   SFRSYM    DATA     BYTE      T4T3M
      000000C1H   SFRSYM    DATA     BYTE      WDT_CONTR
      000000DFH   SFRSYM    DATA     BYTE      IP3
      000000F4H   SFRSYM    DATA     BYTE      USBCON
      000000B5H   SFRSYM    DATA     BYTE      IP2
      000000FFH   SFRSYM    DATA     BYTE      RSTCFG
      000000F9H   SFRSYM    DATA     BYTE      LINICR
      0000008EH   SFRSYM    DATA     BYTE      AUXR
      000000AFH   SFRSYM    DATA     BYTE      IE2
      00000088H   SFRSYM    DATA     BYTE      TCON
      000000B0H.6 SFRSYM    DATA     BIT       OLED_SDIN
      00000098H   SFRSYM    DATA     BYTE      SCON
      000000F1H   SFRSYM    DATA     BYTE      CANICR
      00000087H   SFRSYM    DATA     BYTE      PCON
      000000BCH   SFRSYM    DATA     BYTE      ADC_CONTR
      000000E7H   SFRSYM    DATA     BYTE      CMPCR2
      000000E6H   SFRSYM    DATA     BYTE      CMPCR1
      00000080H.2 SFRSYM    DATA     BIT       OLED_CS
      000000B8H   SFRSYM    DATA     BYTE      IP
      0000008FH   SFRSYM    DATA     BYTE      INTCLKO
      000000EEH   SFRSYM    DATA     BYTE      IP3H
      000000B6H   SFRSYM    DATA     BYTE      IP2H
      000000A8H   SFRSYM    DATA     BYTE      IE
      000000BBH   SFRSYM    DATA     BYTE      P_SW3
      000000BAH   SFRSYM    DATA     BYTE      P_SW2
      000000C8H.2 SFRSYM    DATA     BIT       OLED_DC
      000000A2H   SFRSYM    DATA     BYTE      P_SW1
      000000CEH   SFRSYM    DATA     BYTE      SPCTL
      000000F8H   SFRSYM    DATA     BYTE      P7
      000000E8H   SFRSYM    DATA     BYTE      P6
      000000C8H   SFRSYM    DATA     BYTE      P5
      000000C0H   SFRSYM    DATA     BYTE      P4
      000000B0H   SFRSYM    DATA     BYTE      P3
      000000A0H   SFRSYM    DATA     BYTE      P2
      00000090H   SFRSYM    DATA     BYTE      P1
      00000080H   SFRSYM    DATA     BYTE      P0
      000000C8H.1 SFRSYM    DATA     BIT       OLED_RST

      00FF552DH   BLOCK     CODE     ---       LVL=0
      R10         REGSYM    ---      BYTE      dat
      R7          REGSYM    ---      BYTE      cmd
      00FF552FH   BLOCK     CODE     NEAR LAB  LVL=1
      R6          REGSYM    ---      BYTE      i
      ---         BLOCKEND  ---      ---       LVL=1
      00FF552DH   LINE      CODE     ---       #83
      00FF552FH   LINE      CODE     ---       #84
      00FF552FH   LINE      CODE     ---       #86
      00FF5533H   LINE      CODE     ---       #88
      00FF5535H   LINE      CODE     ---       #89
      00FF5537H   LINE      CODE     ---       #90
      00FF5539H   LINE      CODE     ---       #92
      00FF553BH   LINE      CODE     ---       #93
      00FF5541H   LINE      CODE     ---       #95
      00FF5546H   LINE      CODE     ---       #97
L251 LINKER/LOCATER V4.66.93.0                                                        05/06/2023  18:04:44  PAGE 88


      00FF5548H   LINE      CODE     ---       #98
      00FF554AH   LINE      CODE     ---       #100
      00FF554CH   LINE      CODE     ---       #101
      00FF554EH   LINE      CODE     ---       #104
      00FF5553H   LINE      CODE     ---       #106
      00FF5555H   LINE      CODE     ---       #107
      00FF5557H   LINE      CODE     ---       #109
      00FF5559H   LINE      CODE     ---       #110
      00FF5559H   LINE      CODE     ---       #112
      00FF555BH   LINE      CODE     ---       #113
      00FF555DH   LINE      CODE     ---       #114
      00FF5563H   LINE      CODE     ---       #115
      00FF5565H   LINE      CODE     ---       #119
      00FF5567H   LINE      CODE     ---       #120
      00FF5569H   LINE      CODE     ---       #122
      00FF556BH   LINE      CODE     ---       #124
      00FF556DH   LINE      CODE     ---       #125
      00FF5572H   LINE      CODE     ---       #127
      00FF5574H   LINE      CODE     ---       #128
      00FF5576H   LINE      CODE     ---       #130
      00FF5578H   LINE      CODE     ---       #131
      00FF557AH   LINE      CODE     ---       #132
      00FF557CH   LINE      CODE     ---       #133
      00FF5582H   LINE      CODE     ---       #135
      00FF5582H   LINE      CODE     ---       #138
      00FF5584H   LINE      CODE     ---       #139
      00FF5586H   LINE      CODE     ---       #140
      ---         BLOCKEND  ---      ---       LVL=0

      00FF5CACH   BLOCK     CODE     ---       LVL=0
      R15         REGSYM    ---      BYTE      x
      R10         REGSYM    ---      BYTE      y
      00FF5CACH   LINE      CODE     ---       #142
      00FF5CB0H   LINE      CODE     ---       #144
      00FF5CBBH   LINE      CODE     ---       #145
      00FF5CC7H   LINE      CODE     ---       #146
      00FF5CD0H   LINE      CODE     ---       #147
      ---         BLOCKEND  ---      ---       LVL=0

      00FF5B3BH   BLOCK     CODE     ---       LVL=0
      00FF5B3DH   BLOCK     CODE     NEAR LAB  LVL=1
      R15         REGSYM    ---      BYTE      i
      R14         REGSYM    ---      BYTE      n
      ---         BLOCKEND  ---      ---       LVL=1
      00FF5B3BH   LINE      CODE     ---       #163
      00FF5B3DH   LINE      CODE     ---       #164
      00FF5B3DH   LINE      CODE     ---       #166
      00FF5B3FH   LINE      CODE     ---       #168
      00FF5B4AH   LINE      CODE     ---       #169
      00FF5B4EH   LINE      CODE     ---       #170
      00FF5B53H   LINE      CODE     ---       #171
      00FF5B63H   LINE      CODE     ---       #172
      00FF5B6AH   LINE      CODE     ---       #173
      ---         BLOCKEND  ---      ---       LVL=0
      R14         REGSYM    ---      BYTE      x
      R15         REGSYM    ---      BYTE      y
      R6          REGSYM    ---      BYTE      chr
      R12         REGSYM    ---      BYTE      c
      R13         REGSYM    ---      BYTE      i
      R3          REGSYM    ---      BYTE      m
      R10         REGSYM    ---      BYTE      n
      WR6         REGSYM    ---      WORD      result
      WR14        REGSYM    ---      WORD      num
      R13         REGSYM    ---      BYTE      len
      R12         REGSYM    ---      BYTE      size2
L251 LINKER/LOCATER V4.66.93.0                                                        05/06/2023  18:04:44  PAGE 89


      REG=3       REGSYM    ---      ---       chr
      R13         REGSYM    ---      BYTE      x
      R14         REGSYM    ---      BYTE      y
      R15         REGSYM    ---      BYTE      no
      R12         REGSYM    ---      BYTE      t
      R10         REGSYM    ---      BYTE      y0
      REG=3       REGSYM    ---      ---       BMP

      00FF4D1FH   BLOCK     CODE     ---       LVL=0
      00FF4D1FH   LINE      CODE     ---       #282
      00FF4D1FH   LINE      CODE     ---       #287
      00FF4D21H   LINE      CODE     ---       #288
      00FF4D28H   LINE      CODE     ---       #289
      00FF4D2AH   LINE      CODE     ---       #290
      00FF4D31H   LINE      CODE     ---       #291
      00FF4D33H   LINE      CODE     ---       #323
      00FF4D3AH   LINE      CODE     ---       #324
      00FF4D3EH   LINE      CODE     ---       #325
      00FF4D43H   LINE      CODE     ---       #326
      00FF4D48H   LINE      CODE     ---       #327
      00FF4D4DH   LINE      CODE     ---       #328
      00FF4D52H   LINE      CODE     ---       #329
      00FF4D57H   LINE      CODE     ---       #330
      00FF4D5CH   LINE      CODE     ---       #331
      00FF4D61H   LINE      CODE     ---       #332
      00FF4D66H   LINE      CODE     ---       #333
      00FF4D6BH   LINE      CODE     ---       #334
      00FF4D70H   LINE      CODE     ---       #335
      00FF4D74H   LINE      CODE     ---       #336
      00FF4D79H   LINE      CODE     ---       #337
      00FF4D7EH   LINE      CODE     ---       #338
      00FF4D83H   LINE      CODE     ---       #339
      00FF4D88H   LINE      CODE     ---       #340
      00FF4D8DH   LINE      CODE     ---       #341
      00FF4D92H   LINE      CODE     ---       #342
      00FF4D97H   LINE      CODE     ---       #343
      00FF4D9CH   LINE      CODE     ---       #344
      00FF4DA1H   LINE      CODE     ---       #345
      00FF4DA6H   LINE      CODE     ---       #346
      00FF4DABH   LINE      CODE     ---       #347
      00FF4DB0H   LINE      CODE     ---       #348
      00FF4DB5H   LINE      CODE     ---       #349
      00FF4DBAH   LINE      CODE     ---       #350
      00FF4DBFH   LINE      CODE     ---       #352
      00FF4DC4H   LINE      CODE     ---       #353
      00FF4DC7H   LINE      CODE     ---       #354
      ---         BLOCKEND  ---      ---       LVL=0

      ---         MODULE    ---      ---       brushless
      00FF5CF8H   PUBLIC    CODE     ---       Brushless_Init
      000000D0H   SFRSYM    DATA     BYTE      PSW
      0000009DH   SFRSYM    DATA     BYTE      IRCBAND
      00000097H   SFRSYM    DATA     BYTE      AUXR2
      000000EFH   SFRSYM    DATA     BYTE      AUXINTIF
      000000FDH   SFRSYM    DATA     BYTE      S4CON
      000000ACH   SFRSYM    DATA     BYTE      S3CON
      0000009AH   SFRSYM    DATA     BYTE      S2CON
      000000B7H   SFRSYM    DATA     BYTE      IPH
      000000CDH   SFRSYM    DATA     BYTE      SPSTAT
      000000DDH   SFRSYM    DATA     BYTE      T4T3M
      000000C1H   SFRSYM    DATA     BYTE      WDT_CONTR
      000000DFH   SFRSYM    DATA     BYTE      IP3
      000000F4H   SFRSYM    DATA     BYTE      USBCON
      000000B5H   SFRSYM    DATA     BYTE      IP2
      000000FFH   SFRSYM    DATA     BYTE      RSTCFG
L251 LINKER/LOCATER V4.66.93.0                                                        05/06/2023  18:04:44  PAGE 90


      000000F9H   SFRSYM    DATA     BYTE      LINICR
      0000008EH   SFRSYM    DATA     BYTE      AUXR
      000000AFH   SFRSYM    DATA     BYTE      IE2
      00000088H   SFRSYM    DATA     BYTE      TCON
      00000098H   SFRSYM    DATA     BYTE      SCON
      000000F1H   SFRSYM    DATA     BYTE      CANICR
      00000087H   SFRSYM    DATA     BYTE      PCON
      000000BCH   SFRSYM    DATA     BYTE      ADC_CONTR
      000000E7H   SFRSYM    DATA     BYTE      CMPCR2
      000000E6H   SFRSYM    DATA     BYTE      CMPCR1
      000000B8H   SFRSYM    DATA     BYTE      IP
      0000008FH   SFRSYM    DATA     BYTE      INTCLKO
      000000EEH   SFRSYM    DATA     BYTE      IP3H
      000000B6H   SFRSYM    DATA     BYTE      IP2H
      000000A8H   SFRSYM    DATA     BYTE      IE
      000000BBH   SFRSYM    DATA     BYTE      P_SW3
      000000BAH   SFRSYM    DATA     BYTE      P_SW2
      000000A2H   SFRSYM    DATA     BYTE      P_SW1
      000000CEH   SFRSYM    DATA     BYTE      SPCTL
      000000F8H   SFRSYM    DATA     BYTE      P7
      000000E8H   SFRSYM    DATA     BYTE      P6
      000000C8H   SFRSYM    DATA     BYTE      P5
      000000C0H   SFRSYM    DATA     BYTE      P4
      000000B0H   SFRSYM    DATA     BYTE      P3
      000000A0H   SFRSYM    DATA     BYTE      P2
      00000090H   SFRSYM    DATA     BYTE      P1
      00000080H   SFRSYM    DATA     BYTE      P0

      00FF5CF8H   BLOCK     CODE     ---       LVL=0
      00FF5CF8H   LINE      CODE     ---       #13
      00FF5CF8H   LINE      CODE     ---       #16
      00FF5D09H   LINE      CODE     ---       #17
      ---         BLOCKEND  ---      ---       LVL=0
      WR14        REGSYM    ---      WORD      value

      ---         MODULE    ---      ---       pid
      00FF53B8H   PUBLIC    CODE     ---       PID_struct_init
      0000064EH   PUBLIC    EDATA    ---       pid_right_
      00000696H   PUBLIC    EDATA    ---       pid_left_
      000007EBH   PUBLIC    EDATA    BYTE      ?PID_struct_init?BYTE
      000000D0H   SFRSYM    DATA     BYTE      PSW
      0000009DH   SFRSYM    DATA     BYTE      IRCBAND
      00000097H   SFRSYM    DATA     BYTE      AUXR2
      000000EFH   SFRSYM    DATA     BYTE      AUXINTIF
      000000FDH   SFRSYM    DATA     BYTE      S4CON
      000000ACH   SFRSYM    DATA     BYTE      S3CON
      0000009AH   SFRSYM    DATA     BYTE      S2CON
      000000B7H   SFRSYM    DATA     BYTE      IPH
      000000CDH   SFRSYM    DATA     BYTE      SPSTAT
      000000DDH   SFRSYM    DATA     BYTE      T4T3M
      000000C1H   SFRSYM    DATA     BYTE      WDT_CONTR
      000000DFH   SFRSYM    DATA     BYTE      IP3
      000000F4H   SFRSYM    DATA     BYTE      USBCON
      000000B5H   SFRSYM    DATA     BYTE      IP2
      000000FFH   SFRSYM    DATA     BYTE      RSTCFG
      000000F9H   SFRSYM    DATA     BYTE      LINICR
      0000008EH   SFRSYM    DATA     BYTE      AUXR
      000000AFH   SFRSYM    DATA     BYTE      IE2
      00000088H   SFRSYM    DATA     BYTE      TCON
      00000098H   SFRSYM    DATA     BYTE      SCON
      000000F1H   SFRSYM    DATA     BYTE      CANICR
      00000087H   SFRSYM    DATA     BYTE      PCON
      000000BCH   SFRSYM    DATA     BYTE      ADC_CONTR
      000000E7H   SFRSYM    DATA     BYTE      CMPCR2
      000000E6H   SFRSYM    DATA     BYTE      CMPCR1
L251 LINKER/LOCATER V4.66.93.0                                                        05/06/2023  18:04:44  PAGE 91


      000000B8H   SFRSYM    DATA     BYTE      IP
      0000008FH   SFRSYM    DATA     BYTE      INTCLKO
      000000EEH   SFRSYM    DATA     BYTE      IP3H
      000000B6H   SFRSYM    DATA     BYTE      IP2H
      000000A8H   SFRSYM    DATA     BYTE      IE
      000000BBH   SFRSYM    DATA     BYTE      P_SW3
      000000BAH   SFRSYM    DATA     BYTE      P_SW2
      000000A2H   SFRSYM    DATA     BYTE      P_SW1
      000000CEH   SFRSYM    DATA     BYTE      SPCTL
      000000F8H   SFRSYM    DATA     BYTE      P7
      000000E8H   SFRSYM    DATA     BYTE      P6
      000000C8H   SFRSYM    DATA     BYTE      P5
      000000C0H   SFRSYM    DATA     BYTE      P4
      000000B0H   SFRSYM    DATA     BYTE      P3
      000000A0H   SFRSYM    DATA     BYTE      P2
      00000090H   SFRSYM    DATA     BYTE      P1
      00000080H   SFRSYM    DATA     BYTE      P0
      00FF58E2H   SYMBOL    CODE     ---       pid_reset
      00FF5855H   SYMBOL    CODE     ---       pid_param_init
      REG=6       REGSYM    ---      ---       a
      DR28        REGSYM    ---      FLOAT     ABS_MAX

      00FF5855H   BLOCK     CODE     ---       LVL=0
      REG=2       REGSYM    ---      ---       pid
      DR28        REGSYM    ---      DWORD     mode
      00000807H   SYMBOL    EDATA    DWORD     maxout
      0000080BH   SYMBOL    EDATA    DWORD     intergral_limit
      0000080FH   SYMBOL    EDATA    FLOAT     kp
      00000813H   SYMBOL    EDATA    FLOAT     ki
      00000817H   SYMBOL    EDATA    FLOAT     kd
      00FF5855H   LINE      CODE     ---       #25
      00FF5859H   LINE      CODE     ---       #35
      00FF5865H   LINE      CODE     ---       #36
      00FF5871H   LINE      CODE     ---       #37
      00FF5879H   LINE      CODE     ---       #39
      00FF5884H   LINE      CODE     ---       #40
      00FF5890H   LINE      CODE     ---       #41
      00FF589CH   LINE      CODE     ---       #42
      ---         BLOCKEND  ---      ---       LVL=0

      00FF58E2H   BLOCK     CODE     ---       LVL=0
      REG=2       REGSYM    ---      ---       pid
      DR4         REGSYM    ---      FLOAT     kp
      00000807H   SYMBOL    EDATA    FLOAT     ki
      0000080BH   SYMBOL    EDATA    FLOAT     kd
      00FF58E2H   LINE      CODE     ---       #49
      00FF58E4H   LINE      CODE     ---       #51
      00FF58EBH   LINE      CODE     ---       #52
      00FF58F7H   LINE      CODE     ---       #53
      00FF5903H   LINE      CODE     ---       #55
      00FF590DH   LINE      CODE     ---       #56
      00FF5915H   LINE      CODE     ---       #57
      00FF591DH   LINE      CODE     ---       #58
      00FF5925H   LINE      CODE     ---       #59
      ---         BLOCKEND  ---      ---       LVL=0
      REG=3       REGSYM    ---      ---       pid
      DR28        REGSYM    ---      FLOAT     get

      00FF53B8H   BLOCK     CODE     ---       LVL=0
      REG=3       REGSYM    ---      ---       pid
      DR8         REGSYM    ---      DWORD     mode
      000007F3H   SYMBOL    EDATA    DWORD     maxout
      000007F7H   SYMBOL    EDATA    DWORD     intergral_limit
      000007FBH   SYMBOL    EDATA    FLOAT     kp
      000007FFH   SYMBOL    EDATA    FLOAT     ki
L251 LINKER/LOCATER V4.66.93.0                                                        05/06/2023  18:04:44  PAGE 92


      00000803H   SYMBOL    EDATA    FLOAT     kd
      00FF53B8H   LINE      CODE     ---       #109
      00FF53BEH   LINE      CODE     ---       #119
      00FF53C6H   LINE      CODE     ---       #120
      00FF53CEH   LINE      CODE     ---       #122
      00FF53F8H   LINE      CODE     ---       #123
      00FF5414H   LINE      CODE     ---       #124
      ---         BLOCKEND  ---      ---       LVL=0
      REG=3       REGSYM    ---      ---       pid
      DR28        REGSYM    ---      FLOAT     get
      REG=2       REGSYM    ---      ---       pid

      ---         MODULE    ---      ---       host
      00FF50DAH   PUBLIC    CODE     ---       send_five_data
      000007EAH   PUBLIC    EDATA    BYTE      ?send_five_data?BYTE
      000000D0H   SFRSYM    DATA     BYTE      PSW
      0000009DH   SFRSYM    DATA     BYTE      IRCBAND
      00000097H   SFRSYM    DATA     BYTE      AUXR2
      000000EFH   SFRSYM    DATA     BYTE      AUXINTIF
      000000FDH   SFRSYM    DATA     BYTE      S4CON
      000000ACH   SFRSYM    DATA     BYTE      S3CON
      0000009AH   SFRSYM    DATA     BYTE      S2CON
      000000B7H   SFRSYM    DATA     BYTE      IPH
      000000CDH   SFRSYM    DATA     BYTE      SPSTAT
      000000DDH   SFRSYM    DATA     BYTE      T4T3M
      000000C1H   SFRSYM    DATA     BYTE      WDT_CONTR
      000000DFH   SFRSYM    DATA     BYTE      IP3
      000000F4H   SFRSYM    DATA     BYTE      USBCON
      000000B5H   SFRSYM    DATA     BYTE      IP2
      000000FFH   SFRSYM    DATA     BYTE      RSTCFG
      000000F9H   SFRSYM    DATA     BYTE      LINICR
      0000008EH   SFRSYM    DATA     BYTE      AUXR
      000000AFH   SFRSYM    DATA     BYTE      IE2
      00000088H   SFRSYM    DATA     BYTE      TCON
      00000098H   SFRSYM    DATA     BYTE      SCON
      000000F1H   SFRSYM    DATA     BYTE      CANICR
      00000087H   SFRSYM    DATA     BYTE      PCON
      000000BCH   SFRSYM    DATA     BYTE      ADC_CONTR
      000000E7H   SFRSYM    DATA     BYTE      CMPCR2
      000000E6H   SFRSYM    DATA     BYTE      CMPCR1
      000000B8H   SFRSYM    DATA     BYTE      IP
      0000008FH   SFRSYM    DATA     BYTE      INTCLKO
      000000EEH   SFRSYM    DATA     BYTE      IP3H
      000000B6H   SFRSYM    DATA     BYTE      IP2H
      000000A8H   SFRSYM    DATA     BYTE      IE
      000000BBH   SFRSYM    DATA     BYTE      P_SW3
      000000BAH   SFRSYM    DATA     BYTE      P_SW2
      000000A2H   SFRSYM    DATA     BYTE      P_SW1
      000000CEH   SFRSYM    DATA     BYTE      SPCTL
      000000F8H   SFRSYM    DATA     BYTE      P7
      000000E8H   SFRSYM    DATA     BYTE      P6
      000000C8H   SFRSYM    DATA     BYTE      P5
      000000C0H   SFRSYM    DATA     BYTE      P4
      000000B0H   SFRSYM    DATA     BYTE      P3
      000000A0H   SFRSYM    DATA     BYTE      P2
      00000090H   SFRSYM    DATA     BYTE      P1
      00000080H   SFRSYM    DATA     BYTE      P0

      00FF50DAH   BLOCK     CODE     ---       LVL=0
      R10         REGSYM    ---      BYTE      frame
      WR8         REGSYM    ---      INT       num1
      WR4         REGSYM    ---      INT       num2
      WR2         REGSYM    ---      INT       num3
      WR0         REGSYM    ---      INT       num4
      000007F3H   SYMBOL    EDATA    INT       num5
L251 LINKER/LOCATER V4.66.93.0                                                        05/06/2023  18:04:44  PAGE 93


      00FF50E0H   BLOCK     CODE     NEAR LAB  LVL=1
      R15         REGSYM    ---      BYTE      i
      R6          REGSYM    ---      BYTE      sumcheck
      R7          REGSYM    ---      BYTE      addcheck
      000007F5H   SYMBOL    EDATA    ---       data_buf
      ---         BLOCKEND  ---      ---       LVL=1
      00FF50DAH   LINE      CODE     ---       #35
      00FF50E0H   LINE      CODE     ---       #36
      00FF50E0H   LINE      CODE     ---       #38
      00FF50E2H   LINE      CODE     ---       #39
      00FF50E4H   LINE      CODE     ---       #43
      00FF50EAH   LINE      CODE     ---       #44
      00FF50F0H   LINE      CODE     ---       #45
      00FF50F4H   LINE      CODE     ---       #46
      00FF50FAH   LINE      CODE     ---       #49
      00FF50FEH   LINE      CODE     ---       #50
      00FF5102H   LINE      CODE     ---       #51
      00FF5106H   LINE      CODE     ---       #52
      00FF510AH   LINE      CODE     ---       #53
      00FF5112H   LINE      CODE     ---       #55
      00FF5118H   LINE      CODE     ---       #56
      00FF511EH   LINE      CODE     ---       #57
      00FF5124H   LINE      CODE     ---       #58
      00FF512AH   LINE      CODE     ---       #59
      00FF5130H   LINE      CODE     ---       #62
      00FF5134H   LINE      CODE     ---       #64
      00FF513CH   LINE      CODE     ---       #65
      00FF513EH   LINE      CODE     ---       #66
      00FF514EH   LINE      CODE     ---       #67
      00FF5152H   LINE      CODE     ---       #68
      00FF5156H   LINE      CODE     ---       #71
      00FF5158H   LINE      CODE     ---       #72
      00FF516AH   LINE      CODE     ---       #74
      ---         BLOCKEND  ---      ---       LVL=0

      ---         MODULE    ---      ---       SEEKFREE_CONFIG
      00FF00A6H   PUBLIC    CODE     ---       imu660ra_config_file

      ---         MODULE    ---      ---       ?C?FPADD
      00FF2EB4H   PUBLIC    CODE     ---       ?C?FPADD
      00FF2EB1H   PUBLIC    CODE     ---       ?C?FPSUB

      ---         MODULE    ---      ---       ?C?FPMUL
      00FF2F6CH   PUBLIC    CODE     ---       ?C?FPMUL

      ---         MODULE    ---      ---       ?C?FPDIV
      00FF300CH   PUBLIC    CODE     ---       ?C?FPDIV

      ---         MODULE    ---      ---       ?C?FPCMP
      00FF308FH   PUBLIC    CODE     ---       ?C?FPCMP
      00FF308DH   PUBLIC    CODE     ---       ?C?FPCMP3

      ---         MODULE    ---      ---       ?C?FPNEG
      00FF30D3H   PUBLIC    CODE     ---       ?C?FPNEG

      ---         MODULE    ---      ---       ?C?FCAST
      00FF30EBH   PUBLIC    CODE     NEAR LAB  ?C?FCASTC
      00FF30E6H   PUBLIC    CODE     NEAR LAB  ?C?FCASTI
      00FF30E1H   PUBLIC    CODE     NEAR LAB  ?C?FCASTL

      ---         MODULE    ---      ---       ?C?CASTF
      00FF311EH   PUBLIC    CODE     NEAR LAB  ?C?CASTF

      ---         MODULE    ---      ---       PRINTF
      0000081BH   PUBLIC    EDATA    ---       ?PRINTF?BYTE
L251 LINKER/LOCATER V4.66.93.0                                                        05/06/2023  18:04:44  PAGE 94


      00FF315BH   PUBLIC    CODE     NEAR LAB  PRINTF

      ---         MODULE    ---      ---       FABS
      00FF3187H   PUBLIC    CODE     NEAR LAB  FABS?_

      ---         MODULE    ---      ---       SQRT?_
      00FF3196H   PUBLIC    CODE     ---       SQRT?_

      ---         MODULE    ---      ---       SIN?_
      00FF326EH   PUBLIC    CODE     ---       COS?_
      00FF328BH   PUBLIC    CODE     ---       SIN?_
      00FF32B8H   PUBLIC    CODE     ---       TAN?_

      ---         MODULE    ---      ---       ?C?FPGETOPN
      00FF335EH   PUBLIC    CODE     ---       ?C?FPGETOPN2
      00FF339BH   PUBLIC    CODE     ---       ?C?FPNANRESULT
      00FF33A3H   PUBLIC    CODE     ---       ?C?FPOVERFLOW
      00FF3377H   PUBLIC    CODE     ---       ?C?FPRESULT
      00FF338DH   PUBLIC    CODE     ---       ?C?FPRESULT2
      00FF33A0H   PUBLIC    CODE     ---       ?C?FPUNDERFLOW

      ---         MODULE    ---      ---       ?C?PRNFMT
      00FF33DCH   PUBLIC    CODE     ---       ?C?PRNFMT

      ---         MODULE    ---      ---       ?C?FPSERIES
      00FF37EBH   PUBLIC    CODE     ---       ?C?FP2SERIES
      00FF37F4H   PUBLIC    CODE     ---       ?C?FPSERIES

      ---         MODULE    ---      ---       ?C?FPCONVERT
      00FF3826H   PUBLIC    CODE     ---       ?C?FPCONVERT
      00FF38DEH   PUBLIC    CODE     ---       ?C?FPROUND

      ---         MODULE    ---      ---       ?C?FTNPWR
      00FF3951H   PUBLIC    CODE     ---       ?C?FTNPWR

      ---         MODULE    ---      ---       ?C_START
      00FF0000H   PUBLIC    CODE     ---       ?C?STARTUP
      00FF0000H   PUBLIC    CODE     ---       ?C_STARTUP

      ---         MODULE    ---      ---       ?C?INITEDATA
      00FF597BH   PUBLIC    CODE     ---       ?C?INITEDATA

      ---         MODULE    ---      ---       ?C?SIDIV
      00FF3988H   PUBLIC    CODE     ---       ?C?SIDIV

      ---         MODULE    ---      ---       ?C?LMUL
      00FF39BAH   PUBLIC    CODE     ---       ?C?LMUL

      ---         MODULE    ---      ---       ?C?LIMUL
      00FF39CBH   PUBLIC    CODE     ---       ?C?LIMUL

      ---         MODULE    ---      ---       ?C?ULDIV
      00FF39D6H   PUBLIC    CODE     NEAR LAB  ?C?ULDIV
      00FF39D4H   PUBLIC    CODE     NEAR LAB  ?C?ULIDIV

      ---         MODULE    ---      ---       ?C?SLDIV
      00FF3A27H   PUBLIC    CODE     NEAR LAB  ?C?SLDIV

      ---         MODULE    ---      ---       memcpy
      00FF5CD3H   PUBLIC    CODE     ---       memcpy?_

      ---         MODULE    ---      ---       memset

      ---         MODULE    ---      ---       ?C?INITEDATA_END
      00FF6DD4H   PUBLIC    HCONST   WORD      ?C?INITEDATA_END
L251 LINKER/LOCATER V4.66.93.0                                                        05/06/2023  18:04:44  PAGE 95





*** WARNING L15: MULTIPLE CALL TO FUNCTION
    NAME:    Motor_Control/motor
    CALLER1: TM3_Isr/isr
    CALLER2: TM4_Isr/isr

Program Size: data=8.0 edata+hdata=2459 xdata=0 const=3840 code=24628
L251 RUN COMPLETE.  1 WARNING(S),  0 ERROR(S)
